
DE2_115_NIOS_HOST_MOUSE_VGA.elf:     file format elf32-littlenios2
DE2_115_NIOS_HOST_MOUSE_VGA.elf
architecture: nios2, flags 0x00000112:
EXEC_P, HAS_SYMS, D_PAGED
start address 0x000001b4

Program Header:
    LOAD off    0x00001000 vaddr 0x00000000 paddr 0x00000000 align 2**12
         filesz 0x00000020 memsz 0x00000020 flags r-x
    LOAD off    0x00001020 vaddr 0x00000020 paddr 0x00000020 align 2**12
         filesz 0x000188bc memsz 0x000188bc flags r-x
    LOAD off    0x000198dc vaddr 0x000188dc paddr 0x0001a498 align 2**12
         filesz 0x00001bbc memsz 0x00001bbc flags rw-
    LOAD off    0x0001c054 vaddr 0x0001c054 paddr 0x0001c054 align 2**12
         filesz 0x00000000 memsz 0x000006b0 flags rw-

Sections:
Idx Name          Size      VMA       LMA       File off  Algn
  0 .entry        00000020  00000000  00000000  00001000  2**5
                  CONTENTS, ALLOC, LOAD, READONLY, CODE
  1 .exceptions   00000194  00000020  00000020  00001020  2**2
                  CONTENTS, ALLOC, LOAD, READONLY, CODE
  2 .text         00017728  000001b4  000001b4  000011b4  2**2
                  CONTENTS, ALLOC, LOAD, READONLY, CODE
  3 .rodata       00001000  000178dc  000178dc  000188dc  2**2
                  CONTENTS, ALLOC, LOAD, READONLY, DATA
  4 .rwdata       00001bbc  000188dc  0001a498  000198dc  2**2
                  CONTENTS, ALLOC, LOAD, DATA, SMALL_DATA
  5 .bss          000006b0  0001c054  0001c054  0001c054  2**2
                  ALLOC, SMALL_DATA
  6 .comment      00000026  00000000  00000000  0001b498  2**0
                  CONTENTS, READONLY
  7 .debug_aranges 000010f8  00000000  00000000  0001b4c0  2**3
                  CONTENTS, READONLY, DEBUGGING
  8 .debug_pubnames 00001a9e  00000000  00000000  0001c5b8  2**0
                  CONTENTS, READONLY, DEBUGGING
  9 .debug_info   00030d00  00000000  00000000  0001e056  2**0
                  CONTENTS, READONLY, DEBUGGING
 10 .debug_abbrev 0000a999  00000000  00000000  0004ed56  2**0
                  CONTENTS, READONLY, DEBUGGING
 11 .debug_line   0001db81  00000000  00000000  000596ef  2**0
                  CONTENTS, READONLY, DEBUGGING
 12 .debug_frame  00002330  00000000  00000000  00077270  2**2
                  CONTENTS, READONLY, DEBUGGING
 13 .debug_str    00002ae1  00000000  00000000  000795a0  2**0
                  CONTENTS, READONLY, DEBUGGING
 14 .debug_loc    00012229  00000000  00000000  0007c081  2**0
                  CONTENTS, READONLY, DEBUGGING
 15 .debug_alt_sim_info 00000060  00000000  00000000  0008e2ac  2**2
                  CONTENTS, READONLY, DEBUGGING
 16 .debug_ranges 00000b30  00000000  00000000  0008e310  2**3
                  CONTENTS, READONLY, DEBUGGING
 17 .thread_model 00000003  00000000  00000000  00092ba7  2**0
                  CONTENTS, READONLY
 18 .cpu          00000003  00000000  00000000  00092baa  2**0
                  CONTENTS, READONLY
 19 .qsys         00000001  00000000  00000000  00092bad  2**0
                  CONTENTS, READONLY
 20 .simulation_enabled 00000001  00000000  00000000  00092bae  2**0
                  CONTENTS, READONLY
 21 .sysid_hash   00000004  00000000  00000000  00092baf  2**0
                  CONTENTS, READONLY
 22 .sysid_base   00000004  00000000  00000000  00092bb3  2**0
                  CONTENTS, READONLY
 23 .sysid_time   00000004  00000000  00000000  00092bb7  2**0
                  CONTENTS, READONLY
 24 .stderr_dev   00000009  00000000  00000000  00092bbb  2**0
                  CONTENTS, READONLY
 25 .stdin_dev    00000009  00000000  00000000  00092bc4  2**0
                  CONTENTS, READONLY
 26 .stdout_dev   00000009  00000000  00000000  00092bcd  2**0
                  CONTENTS, READONLY
 27 .sopc_system_name 0000000c  00000000  00000000  00092bd6  2**0
                  CONTENTS, READONLY
 28 .quartus_project_dir 0000004f  00000000  00000000  00092be2  2**0
                  CONTENTS, READONLY
 29 .jdi          000053be  00000000  00000000  00092c31  2**0
                  CONTENTS, READONLY
SYMBOL TABLE:
00000000 l    d  .entry	00000000 .entry
00000020 l    d  .exceptions	00000000 .exceptions
000001b4 l    d  .text	00000000 .text
000178dc l    d  .rodata	00000000 .rodata
000188dc l    d  .rwdata	00000000 .rwdata
0001c054 l    d  .bss	00000000 .bss
00000000 l    d  .comment	00000000 .comment
00000000 l    d  .debug_aranges	00000000 .debug_aranges
00000000 l    d  .debug_pubnames	00000000 .debug_pubnames
00000000 l    d  .debug_info	00000000 .debug_info
00000000 l    d  .debug_abbrev	00000000 .debug_abbrev
00000000 l    d  .debug_line	00000000 .debug_line
00000000 l    d  .debug_frame	00000000 .debug_frame
00000000 l    d  .debug_str	00000000 .debug_str
00000000 l    d  .debug_loc	00000000 .debug_loc
00000000 l    d  .debug_alt_sim_info	00000000 .debug_alt_sim_info
00000000 l    d  .debug_ranges	00000000 .debug_ranges
000001fc l       .text	00000000 alt_after_alt_main
00000000 l    df *ABS*	00000000 alt_irq_handler.c
00000000 l    df *ABS*	00000000 DE2_115_NIOS_HOST_MOUSE_VGA.c
0001c054 l     O .bss	00000002 no_device.3405
0001c056 l     O .bss	00000002 ctl_reg.3404
00000000 l    df *ABS*	00000000 LCD.c
00000000 l    df *ABS*	00000000 SEG7.c
000188dc l     O .rwdata	00000010 szMap
00000000 l    df *ABS*	00000000 VGA.c
00000000 l    df *ABS*	00000000 dp-bit.c
00000000 l    df *ABS*	00000000 lib2-divmod.c
00005074 l     F .text	0000007c udivmodsi4
00000000 l    df *ABS*	00000000 libgcc2.c
00000000 l    df *ABS*	00000000 dp-bit.c
00000000 l    df *ABS*	00000000 libgcc2.c
00000000 l    df *ABS*	00000000 printf.c
00000000 l    df *ABS*	00000000 puts.c
00000000 l    df *ABS*	00000000 scanf.c
00000000 l    df *ABS*	00000000 strlen.c
00000000 l    df *ABS*	00000000 vfprintf.c
00005770 l     F .text	00000058 __sprint_r
00018406 l     O .rodata	00000010 blanks.3452
000183f6 l     O .rodata	00000010 zeroes.3453
00000000 l    df *ABS*	00000000 vfscanf.c
0001841e l     O .rodata	00000022 basefix.3357
00000000 l    df *ABS*	00000000 wsetup.c
00000000 l    df *ABS*	00000000 ctype_.c
00018541 l     O .rodata	00000180 _ctype_b
00000000 l    df *ABS*	00000000 dtoa.c
00008f54 l     F .text	00000218 quorem
00000000 l    df *ABS*	00000000 fflush.c
00000000 l    df *ABS*	00000000 findfp.c
0000a950 l     F .text	00000058 std
0000aa5c l     F .text	00000008 __fp_lock
0000aa64 l     F .text	00000008 __fp_unlock
00000000 l    df *ABS*	00000000 fread.c
00000000 l    df *ABS*	00000000 mallocr.c
00000000 l    df *ABS*	00000000 fvwrite.c
00000000 l    df *ABS*	00000000 fwalk.c
00000000 l    df *ABS*	00000000 impure.c
000188ec l     O .rwdata	00000400 impure_data
00000000 l    df *ABS*	00000000 iswspace.c
00000000 l    df *ABS*	00000000 locale.c
0001a460 l     O .rwdata	00000004 charset
000186e8 l     O .rodata	00000030 lconv
00000000 l    df *ABS*	00000000 makebuf.c
00000000 l    df *ABS*	00000000 mallocr.c
00000000 l    df *ABS*	00000000 mbrtowc.c
00000000 l    df *ABS*	00000000 mbtowc_r.c
00000000 l    df *ABS*	00000000 memchr.c
00000000 l    df *ABS*	00000000 memcpy.c
00000000 l    df *ABS*	00000000 memmove.c
00000000 l    df *ABS*	00000000 memset.c
00000000 l    df *ABS*	00000000 mprec.c
00018830 l     O .rodata	0000000c p05.2458
00000000 l    df *ABS*	00000000 mallocr.c
00000000 l    df *ABS*	00000000 refill.c
0000de14 l     F .text	0000001c lflush
00000000 l    df *ABS*	00000000 s_isinfd.c
00000000 l    df *ABS*	00000000 s_isnand.c
00000000 l    df *ABS*	00000000 sbrkr.c
00000000 l    df *ABS*	00000000 sccl.c
00000000 l    df *ABS*	00000000 sf_nan.c
00000000 l    df *ABS*	00000000 sprintf.c
00000000 l    df *ABS*	00000000 stdio.c
00000000 l    df *ABS*	00000000 strcmp.c
00000000 l    df *ABS*	00000000 strtod.c
0000e2b4 l     F .text	00000048 match
00019114 l     O .rwdata	00000014 fpi.1950
0001884c l     O .rodata	00000028 tinytens
00019100 l     O .rwdata	00000014 fpinan.1986
00000000 l    df *ABS*	00000000 strtol.c
00000000 l    df *ABS*	00000000 strtoll_r.c
00000000 l    df *ABS*	00000000 strtoul.c
00000000 l    df *ABS*	00000000 strtoull_r.c
00000000 l    df *ABS*	00000000 ungetc.c
00000000 l    df *ABS*	00000000 writer.c
00000000 l    df *ABS*	00000000 mallocr.c
00000000 l    df *ABS*	00000000 closer.c
00000000 l    df *ABS*	00000000 fclose.c
00000000 l    df *ABS*	00000000 fstatr.c
00000000 l    df *ABS*	00000000 gdtoa-gethex.c
000109ac l     F .text	00000024 htinit
00010a38 l     F .text	000000b0 rshift
00000000 l    df *ABS*	00000000 gdtoa-hexnan.c
000112a0 l     F .text	0000004c L_shift
00000000 l    df *ABS*	00000000 int_errno.c
00000000 l    df *ABS*	00000000 isattyr.c
00000000 l    df *ABS*	00000000 lseekr.c
00000000 l    df *ABS*	00000000 readr.c
00000000 l    df *ABS*	00000000 libgcc2.c
00000000 l    df *ABS*	00000000 libgcc2.c
00000000 l    df *ABS*	00000000 libgcc2.c
00000000 l    df *ABS*	00000000 libgcc2.c
00000000 l    df *ABS*	00000000 fp-bit.c
00000000 l    df *ABS*	00000000 fp-bit.c
00000000 l    df *ABS*	00000000 fp-bit.c
00000000 l    df *ABS*	00000000 dp-bit.c
000124c4 l     F .text	00000410 _fpadd_parts
00000000 l    df *ABS*	00000000 dp-bit.c
00000000 l    df *ABS*	00000000 dp-bit.c
00000000 l    df *ABS*	00000000 dp-bit.c
00000000 l    df *ABS*	00000000 dp-bit.c
00000000 l    df *ABS*	00000000 dp-bit.c
00000000 l    df *ABS*	00000000 dp-bit.c
00000000 l    df *ABS*	00000000 dp-bit.c
00000000 l    df *ABS*	00000000 dp-bit.c
00000000 l    df *ABS*	00000000 dp-bit.c
00000000 l    df *ABS*	00000000 dp-bit.c
00000000 l    df *ABS*	00000000 dp-bit.c
00000000 l    df *ABS*	00000000 dp-bit.c
00000000 l    df *ABS*	00000000 fp-bit.c
00000000 l    df *ABS*	00000000 fp-bit.c
00000000 l    df *ABS*	00000000 fp-bit.c
00000000 l    df *ABS*	00000000 dp-bit.c
00000000 l    df *ABS*	00000000 dp-bit.c
00000000 l    df *ABS*	00000000 fp-bit.c
00000000 l    df *ABS*	00000000 alt_close.c
00013bec l     F .text	00000060 alt_get_errno
00000000 l    df *ABS*	00000000 alt_dev.c
00013c4c l     F .text	0000002c alt_dev_null_write
00000000 l    df *ABS*	00000000 alt_errno.c
00000000 l    df *ABS*	00000000 alt_fstat.c
00013d4c l     F .text	00000060 alt_get_errno
00000000 l    df *ABS*	00000000 alt_gettod.c
00000000 l    df *ABS*	00000000 alt_isatty.c
00014088 l     F .text	00000060 alt_get_errno
00000000 l    df *ABS*	00000000 alt_load.c
00014168 l     F .text	0000006c alt_load_section
00000000 l    df *ABS*	00000000 alt_lseek.c
000142c4 l     F .text	00000060 alt_get_errno
00000000 l    df *ABS*	00000000 alt_main.c
00000000 l    df *ABS*	00000000 alt_malloc_lock.c
00000000 l    df *ABS*	00000000 alt_read.c
000144f0 l     F .text	00000060 alt_get_errno
00000000 l    df *ABS*	00000000 alt_release_fd.c
00000000 l    df *ABS*	00000000 alt_sbrk.c
0001a484 l     O .rwdata	00000004 heap_end
00000000 l    df *ABS*	00000000 alt_tick.c
00000000 l    df *ABS*	00000000 alt_usleep.c
00000000 l    df *ABS*	00000000 alt_write.c
00014960 l     F .text	00000060 alt_get_errno
00000000 l    df *ABS*	00000000 alt_sys_init.c
000192d0 l     O .rwdata	00001060 jtag_uart
0001a330 l     O .rwdata	00000120 lcd
00014a68 l     F .text	00000038 alt_dev_reg
00000000 l    df *ABS*	00000000 altera_avalon_jtag_uart_fd.c
00000000 l    df *ABS*	00000000 altera_avalon_jtag_uart_init.c
00014ca8 l     F .text	00000228 altera_avalon_jtag_uart_irq
00014ed0 l     F .text	000000b0 altera_avalon_jtag_uart_timeout
00000000 l    df *ABS*	00000000 altera_avalon_jtag_uart_ioctl.c
00000000 l    df *ABS*	00000000 altera_avalon_jtag_uart_read.c
00000000 l    df *ABS*	00000000 altera_avalon_jtag_uart_write.c
00000000 l    df *ABS*	00000000 altera_avalon_lcd_16207.c
0001a490 l     O .rwdata	00000004 colstart
0001554c l     F .text	000000b8 lcd_write_command
00015604 l     F .text	000000d4 lcd_write_data
000156d8 l     F .text	000000c4 lcd_clear_screen
0001579c l     F .text	000001ec lcd_repaint_screen
00015988 l     F .text	000000c8 lcd_scroll_up
00015a50 l     F .text	000002d0 lcd_handle_escape
0001622c l     F .text	000000cc alt_lcd_16207_timeout
00000000 l    df *ABS*	00000000 altera_avalon_lcd_16207_fd.c
00000000 l    df *ABS*	00000000 altera_avalon_timer_sc.c
0001648c l     F .text	00000070 alt_avalon_timer_sc_irq
00000000 l    df *ABS*	00000000 alt_alarm_start.c
00000000 l    df *ABS*	00000000 alt_busy_sleep.c
00000000 l    df *ABS*	00000000 alt_dcache_flush_all.c
00000000 l    df *ABS*	00000000 alt_dev_llist_insert.c
00016924 l     F .text	00000060 alt_get_errno
00000000 l    df *ABS*	00000000 alt_do_ctors.c
00000000 l    df *ABS*	00000000 alt_do_dtors.c
00000000 l    df *ABS*	00000000 alt_icache_flush_all.c
00000000 l    df *ABS*	00000000 alt_iic.c
00000000 l    df *ABS*	00000000 alt_iic_isr_register.c
00000000 l    df *ABS*	00000000 alt_io_redirect.c
00016d48 l     F .text	000000c4 alt_open_fd
00000000 l    df *ABS*	00000000 alt_irq_vars.c
00000000 l    df *ABS*	00000000 alt_open.c
00016e84 l     F .text	000000dc alt_file_locked
000170e8 l     F .text	00000060 alt_get_errno
00000000 l    df *ABS*	00000000 altera_nios2_qsys_irq.c
00000000 l    df *ABS*	00000000 alt_find_dev.c
00000000 l    df *ABS*	00000000 alt_find_file.c
00000000 l    df *ABS*	00000000 alt_get_fd.c
00000000 l    df *ABS*	00000000 alt_icache_flush.c
00000000 l    df *ABS*	00000000 atexit.c
00000000 l    df *ABS*	00000000 exit.c
00000000 l    df *ABS*	00000000 memcmp.c
00000000 l    df *ABS*	00000000 __atexit.c
00000000 l    df *ABS*	00000000 __call_atexit.c
00017658 l     F .text	00000004 register_fini
00000000 l    df *ABS*	00000000 alt_exit.c
0001780c l     F .text	00000040 alt_sim_halt
0000ca74 g     F .text	00000094 _mprec_log10
0000cb60 g     F .text	00000088 __any_on
00011534 g     F .text	00000070 _isatty_r
00018808 g     O .rodata	00000028 __mprec_tinytens
00014324 g     F .text	0000006c alt_main
000055cc g     F .text	000000a0 _puts_r
0001c474 g     O .bss	00000100 alt_irq
000115a4 g     F .text	00000078 _lseek_r
0001c0d4 g     O .bss	00000020 x_coord
0001a498 g       *ABS*	00000000 __flash_rwdata_start
00012fe4 g     F .text	00000088 __eqdf2
00000340 g     F .text	0000021c InitXY
0001c0f4 g     O .bss	00000200 map
0001c704 g       *ABS*	00000000 __alt_heap_start
00005554 g     F .text	00000044 printf
08200000 g       *ABS*	00000000 __alt_mem_sram
0000e0b4 g     F .text	00000068 __sseek
0000a9b8 g     F .text	000000a4 __sinit
0000b8f8 g     F .text	00000084 _setlocale_r
0000aab8 g     F .text	00000068 __sfmoreglue
0001065c g     F .text	0000001c ungetc
000143b0 g     F .text	00000020 __malloc_unlock
0000e2fc g     F .text	000014e4 _strtod_r
0000c4f0 g     F .text	000000e0 memmove
0000aaa8 g     F .text	00000010 _cleanup
0000cbe8 g     F .text	000000bc _Balloc
00004acc g     F .text	0000008c LCD_Test
000130f4 g     F .text	00000088 __gtdf2
00000000  w      *UND*	00000000 __errno
00004ecc g     F .text	00000058 Set_Pixel_On_Color
00000000 g     F .entry	0000001c __reset
00000020 g       *ABS*	00000000 __flash_exceptions_start
00010938 g     F .text	00000074 _fstat_r
0001c080 g     O .bss	00000004 errno
00008d18 g     F .text	00000024 __svfscanf
0000080c g     F .text	00000218 min_path
00013764 g     F .text	0000002c __make_fp
0001c098 g     O .bss	00000004 alt_argv
00022450 g       *ABS*	00000000 _gp
00014810 g     F .text	00000030 usleep
00019150 g     O .rwdata	00000180 alt_fd_list
00000254 g     F .text	00000088 Vga_clear_screen
00017168 g     F .text	00000094 alt_find_dev
0000c450 g     F .text	000000a0 memcpy
000112ec g     F .text	00000248 __hexnan
0000aa9c g     F .text	0000000c _cleanup_r
00004f7c g     F .text	000000f8 __floatsidf
00016e0c g     F .text	00000078 alt_io_redirect
00013204 g     F .text	00000088 __ltdf2
000178dc g       *ABS*	00000000 __DTOR_END__
0000566c g     F .text	00000014 puts
0000c2ec g     F .text	00000040 mbrtowc
00008d3c g     F .text	00000068 _vfscanf_r
0000c9c4 g     F .text	000000b0 __ratio
000150e8 g     F .text	00000224 altera_avalon_jtag_uart_read
00000000  w      *UND*	00000000 malloc
00005598 g     F .text	00000034 _printf_r
000051b0 g     F .text	00000008 __udivsi3
00013fc8 g     F .text	000000c0 isatty
0000055c g     F .text	000002b0 VGA_line
0000b8a8 g     F .text	0000002c iswspace
00018718 g     O .rodata	000000c8 __mprec_tens
0000b8d4 g     F .text	00000008 __locale_charset
0001c084 g     O .bss	00000008 alt_timezone
0001172c g     F .text	000000a4 __fixunsdfsi
000173d4 g     F .text	00000090 alt_icache_flush
0001c074 g     O .bss	00000004 __malloc_top_pad
000100d0 g     F .text	00000024 strtoul
0001a45c g     O .rwdata	00000004 __mb_cur_max
0000b8dc g     F .text	0000000c _localeconv_r
000100f4 g     F .text	000002f0 _strtoull_r
0000d2e0 g     F .text	0000003c __i2b
0000b28c g     F .text	0000049c __sfvwrite_r
00004b58 g     F .text	00000058 SEG7_Clear
0000dea0 g     F .text	00000070 _sbrk_r
0001161c g     F .text	00000078 _read_r
00018cec g     O .rwdata	0000000c __lc_ctype
0001a47c g     O .rwdata	00000004 alt_max_fd
00013790 g     F .text	00000138 __unpack_d
00010814 g     F .text	00000110 _fclose_r
0001c058 g     O .bss	00000008 t2
0000a91c g     F .text	00000034 fflush
0001c078 g     O .bss	00000004 __malloc_max_sbrked_mem
00012954 g     F .text	00000074 __adddf3
0001235c g     F .text	00000078 __nesf2
0000c8a4 g     F .text	00000120 __b2d
00011dac g     F .text	000005b0 __umoddi3
000141d4 g     F .text	000000f0 lseek
0001a458 g     O .rwdata	00000004 _global_impure_ptr
0000d65c g     F .text	000005f4 _realloc_r
0001c704 g       *ABS*	00000000 __bss_end
00016c50 g     F .text	000000f8 alt_iic_isr_register
00014704 g     F .text	0000010c alt_tick
0001c374 g     O .bss	00000100 __hexdig
000117d0 g     F .text	000005dc __udivdi3
000187e0 g     O .rodata	00000028 __mprec_bigtens
0000d53c g     F .text	00000120 __s2b
00013460 g     F .text	00000194 __floatunsidf
0000c7c4 g     F .text	00000060 __mcmp
0001c2f4 g     O .bss	00000020 distance
0001a450 g     O .rwdata	00000004 __ctype_ptr
0000aa84 g     F .text	00000018 __fp_lock_all
00016c08 g     F .text	00000048 alt_ic_irq_enabled
00004c10 g     F .text	00000074 SEG7_Number
0001466c g     F .text	00000098 alt_alarm_stop
0000fb64 g     F .text	00000024 strtol
0001c0a8 g     O .bss	00000004 alt_irq_active
000000ec g     F .exceptions	000000c8 alt_irq_handler
00019128 g     O .rwdata	00000028 alt_dev_null
00004e30 g     F .text	00000044 Set_Cursor_XY
000135f4 g     F .text	000000c8 __unpack_f
0001682c g     F .text	00000044 alt_dcache_flush_all
0000c690 g     F .text	00000070 __hi0bits
00013314 g     F .text	000000d8 __fixdfsi
0000f904 g     F .text	0000001c strtod
0001a498 g       *ABS*	00000000 __ram_rwdata_end
0001a474 g     O .rwdata	00000008 alt_dev_list
00014840 g     F .text	00000120 write
000123d4 g     F .text	00000078 __gtsf2
000188dc g       *ABS*	00000000 __ram_rodata_end
00013c78 g     F .text	000000d4 fstat
0001328c g     F .text	00000088 __ledf2
0000d41c g     F .text	00000120 __pow5mult
0001c068 g     O .bss	00000004 __nlocale_changed
000051b8 g     F .text	00000008 __umodsi3
00005680 g     F .text	00000034 _scanf_r
0001c704 g       *ABS*	00000000 end
00013990 g     F .text	00000160 __pack_f
00015d20 g     F .text	0000050c altera_avalon_lcd_16207_write
00014be8 g     F .text	000000c0 altera_avalon_jtag_uart_init
000178d8 g       *ABS*	00000000 __CTOR_LIST__
08000000 g       *ABS*	00000000 __alt_stack_pointer
000164fc g     F .text	00000090 alt_avalon_timer_sc_init
000051c0 g     F .text	00000080 __clzsi2
0001530c g     F .text	00000240 altera_avalon_jtag_uart_write
0000a9a8 g     F .text	00000004 __sfp_lock_acquire
0000c36c g     F .text	000000e4 memchr
000057c8 g     F .text	00001eac ___vfprintf_internal_r
0000e04c g     F .text	00000060 _sprintf_r
0000af78 g     F .text	00000314 _free_r
0001765c g     F .text	000001b0 __call_exitprocs
0001c06c g     O .bss	00000004 __mlocale_changed
0001a468 g     O .rwdata	00000004 __malloc_sbrk_base
000001b4 g     F .text	0000004c _start
0001c0a0 g     O .bss	00000004 _alt_tick_rate
0000fb88 g     F .text	00000318 _strtoll_r
0001c314 g     O .bss	00000020 neighbor
0000cfac g     F .text	0000014c __lshift
0001c0a4 g     O .bss	00000004 _alt_nticks
000143d0 g     F .text	00000120 read
000149f4 g     F .text	00000074 alt_sys_init
00017524 g     F .text	00000134 __register_exitproc
00000a24 g     F .text	00000484 shortestPathFind
0000d0f8 g     F .text	000001e8 __multiply
0001c334 g     O .bss	00000020 shortest
00014f80 g     F .text	00000074 altera_avalon_jtag_uart_close
000188dc g       *ABS*	00000000 __ram_rwdata_start
000178dc g       *ABS*	00000000 __ram_rodata_start
0001c0ac g     O .bss	00000028 __malloc_current_mallinfo
0000cca4 g     F .text	0000017c __d2b
00014aa0 g     F .text	00000058 altera_avalon_jtag_uart_read_fd
0000fea0 g     F .text	00000230 _strtoul_r
0001731c g     F .text	000000b8 alt_get_fd
000166e0 g     F .text	0000014c alt_busy_sleep
000138c8 g     F .text	000000c8 __fpcmp_parts_d
000107a4 g     F .text	00000070 _close_r
000174b0 g     F .text	00000074 memcmp
00014b50 g     F .text	00000048 altera_avalon_jtag_uart_close_fd
0001c704 g       *ABS*	00000000 __alt_stack_base
00014b98 g     F .text	00000050 altera_avalon_jtag_uart_ioctl_fd
00008e18 g     F .text	0000013c __swsetup_r
00012d8c g     F .text	00000258 __divdf3
0000ab20 g     F .text	000000f0 __sfp
0000cb08 g     F .text	00000058 __copybits
00018cf8 g     O .rwdata	00000408 __malloc_av_
0000a9b4 g     F .text	00000004 __sinit_lock_release
000129c8 g     F .text	000003c4 __muldf3
0000e198 g     F .text	00000060 __sread
0000ae0c g     F .text	00000040 fread
00004bb0 g     F .text	00000060 SEG7_Full
000171fc g     F .text	00000120 alt_find_file
00004d50 g     F .text	000000e0 SEG7_Decimal
00016870 g     F .text	000000b4 alt_dev_llist_insert
00014390 g     F .text	00000020 __malloc_lock
000145b0 g     F .text	000000bc sbrk
0000a720 g     F .text	000001fc _fflush_r
000106f0 g     F .text	000000b4 _calloc_r
0001c354 g     O .bss	00000020 y_coord
0001c060 g     O .bss	00000008 t1
00013dac g     F .text	0000021c gettimeofday
0001c054 g       *ABS*	00000000 __bss_start
0000496c g     F .text	0000009c LCD_Init
0000c5d0 g     F .text	00000098 memset
00000ea8 g     F .text	00003984 main
0001c09c g     O .bss	00000004 alt_envp
0001c07c g     O .bss	00000004 __malloc_max_total_mem
00014af8 g     F .text	00000058 altera_avalon_jtag_uart_write_fd
0001244c g     F .text	00000078 __ltsf2
0000ac10 g     F .text	000001fc _fread_r
00004e74 g     F .text	00000058 Set_Cursor_Color
000162f8 g     F .text	0000013c altera_avalon_lcd_16207_init
00004a90 g     F .text	0000003c LCD_Line2
0000e0ac g     F .text	00000008 __sclose
08000000 g       *ABS*	00000000 __alt_heap_limit
00010924 g     F .text	00000014 fclose
0000f920 g     F .text	00000244 _strtol_r
000133ec g     F .text	00000074 __truncdfsf2
0001c574 g     O .bss	00000190 _atexit0
0000916c g     F .text	000015b4 _dtoa_r
0000bb2c g     F .text	00000740 _malloc_r
0001a480 g     O .rwdata	00000004 alt_errno
000103e4 g     F .text	000000dc __submore
0000b7f0 g     F .text	000000b8 _fwalk
0000c32c g     F .text	00000040 _mbtowc_r
000050f0 g     F .text	00000060 __divsi3
00018890 g     O .rodata	00000014 __thenan_df
0000ae4c g     F .text	0000012c _malloc_trim_r
000178dc g       *ABS*	00000000 __CTOR_END__
0000e1f8 g     F .text	000000bc strcmp
000178dc g       *ABS*	00000000 __flash_rodata_start
000178dc g       *ABS*	00000000 __DTOR_LIST__
000002dc g     F .text	00000064 delay
0001306c g     F .text	00000088 __nedf2
00004870 g     F .text	00000040 UsbRead
000149c0 g     F .text	00000034 alt_irq_init
00004a08 g     F .text	00000088 LCD_Show_Text
00014550 g     F .text	00000060 alt_release_fd
00000200 g     F .text	00000054 maxmin
0000dfd8 g     F .text	00000074 sprintf
00018294 g     O .rodata	00000100 __clz_tab
00004c84 g     F .text	000000cc SEG7_Hex
0001c070 g     O .bss	00000004 _PathLocale
0000f7e0 g     F .text	00000124 strtof
00017464 g     F .text	00000014 atexit
00010678 g     F .text	00000078 _write_r
0000b97c g     F .text	0000001c setlocale
000056b4 g     F .text	00000048 scanf
0000dfd0 g     F .text	00000008 nanf
0001a454 g     O .rwdata	00000004 _impure_ptr
0001c094 g     O .bss	00000004 alt_argc
0000c26c g     F .text	00000080 _mbrtowc_r
000169e8 g     F .text	00000064 _do_dtors
0000dc50 g     F .text	000001c4 __srefill_r
00000020 g       .exceptions	00000000 alt_irq_entry
0000c824 g     F .text	00000080 __ulp
0000de30 g     F .text	00000040 __isinfd
0000aa6c g     F .text	00000018 __fp_unlock_all
00016434 g     F .text	00000058 altera_avalon_lcd_16207_write_fd
0001a46c g     O .rwdata	00000008 alt_fs_list
0001c08c g     O .bss	00000008 alt_resettime
00004f24 g     F .text	00000058 Set_Pixel_Off_Color
00000020 g       *ABS*	00000000 __ram_exceptions_start
0000b8e8 g     F .text	00000010 localeconv
00016a7c g     F .text	00000050 alt_ic_isr_register
000109d0 g     F .text	00000068 __hexdig_init
0001a498 g       *ABS*	00000000 _edata
0001c704 g       *ABS*	00000000 _end
0000482c g     F .text	00000044 UsbWrite
000001b4 g       *ABS*	00000000 __ram_exceptions_end
00008da4 g     F .text	00000074 vfscanf
00014ff4 g     F .text	000000f4 altera_avalon_jtag_uart_ioctl
00016b68 g     F .text	000000a0 alt_ic_irq_disable
0000e11c g     F .text	0000007c __swrite
0001a464 g     O .rwdata	00000004 __malloc_trim_threshold
00017148 g     F .text	00000020 altera_nios2_qsys_irq_init
00017478 g     F .text	00000038 exit
0000b728 g     F .text	000000c8 _fwalk_reent
0000ce20 g     F .text	0000018c __mdiff
00005150 g     F .text	00000060 __modsi3
08000000 g       *ABS*	00000000 __alt_data_end
00000020 g     F .exceptions	00000000 alt_exception
0000a9ac g     F .text	00000004 __sfp_lock_release
00000000 g       *ABS*	00000000 __alt_mem_sdram
0000df10 g     F .text	000000c0 __sccl
00018440 g     O .rodata	00000101 _ctype_
000136bc g     F .text	000000a8 __fpcmp_parts_f
0001784c g     F .text	00000020 _exit
0000de70 g     F .text	00000030 __isnand
0001658c g     F .text	00000154 alt_alarm_start
00011694 g     F .text	00000098 __muldi3
0000b998 g     F .text	00000194 __smakebuf_r
000056fc g     F .text	00000074 strlen
00016f60 g     F .text	00000188 open
0001317c g     F .text	00000088 __gedf2
00010ae8 g     F .text	000007b8 __gethex
00016a4c g     F .text	00000030 alt_icache_flush_all
0001a494 g     O .rwdata	00000004 alt_priority_mask
00016acc g     F .text	0000009c alt_ic_irq_enable
00007674 g     F .text	00000024 __vfprintf_internal
000128d4 g     F .text	00000080 __subdf3
0000c700 g     F .text	000000c4 __lo0bits
00007698 g     F .text	00001680 __svfscanf_r
0001a488 g     O .rwdata	00000008 alt_alarm_list
000104c0 g     F .text	0000019c _ungetc_r
00016984 g     F .text	00000064 _do_ctors
000048b0 g     F .text	000000bc UsbSoftReset
00013af0 g     F .text	000000fc close
000140e8 g     F .text	00000080 alt_load
00005240 g     F .text	00000314 __pack_d
00000000  w      *UND*	00000000 free
0000a9b0 g     F .text	00000004 __sinit_lock_acquire
0000d31c g     F .text	00000100 __multadd
0000c668 g     F .text	00000028 _Bfree



Disassembly of section .entry:

00000000 <__reset>:
   0:	00840014 	movui	r2,4096
   4:	1001483a 	initi	r2
   8:	10bff804 	addi	r2,r2,-32
   c:	00bffd16 	blt	zero,r2,4 <__reset+0x4>
  10:	00400034 	movhi	at,0
  14:	08406d14 	ori	at,at,436
  18:	0800683a 	jmp	at
  1c:	00000000 	call	0 <__reset>

Disassembly of section .exceptions:

00000020 <alt_exception>:
  20:	deffed04 	addi	sp,sp,-76
  24:	dfc00015 	stw	ra,0(sp)
  28:	d8400215 	stw	at,8(sp)
  2c:	d8800315 	stw	r2,12(sp)
  30:	d8c00415 	stw	r3,16(sp)
  34:	d9000515 	stw	r4,20(sp)
  38:	d9400615 	stw	r5,24(sp)
  3c:	d9800715 	stw	r6,28(sp)
  40:	d9c00815 	stw	r7,32(sp)
  44:	000b307a 	rdctl	r5,estatus
  48:	da000915 	stw	r8,36(sp)
  4c:	da400a15 	stw	r9,40(sp)
  50:	da800b15 	stw	r10,44(sp)
  54:	dac00c15 	stw	r11,48(sp)
  58:	db000d15 	stw	r12,52(sp)
  5c:	db400e15 	stw	r13,56(sp)
  60:	db800f15 	stw	r14,60(sp)
  64:	dbc01015 	stw	r15,64(sp)
  68:	d9401115 	stw	r5,68(sp)
  6c:	ebffff04 	addi	r15,ea,-4
  70:	dbc01215 	stw	r15,72(sp)
  74:	0009313a 	rdctl	r4,ipending
  78:	2880004c 	andi	r2,r5,1
  7c:	10000326 	beq	r2,zero,8c <alt_exception+0x6c>
  80:	20000226 	beq	r4,zero,8c <alt_exception+0x6c>
  84:	00000ec0 	call	ec <alt_irq_handler>
  88:	00000306 	br	98 <alt_exception+0x78>
  8c:	df401215 	stw	ea,72(sp)
  90:	e8bfff17 	ldw	r2,-4(ea)
  94:	003da03a 	break	0
  98:	d9401117 	ldw	r5,68(sp)
  9c:	df401217 	ldw	ea,72(sp)
  a0:	dfc00017 	ldw	ra,0(sp)
  a4:	2801707a 	wrctl	estatus,r5
  a8:	d8400217 	ldw	at,8(sp)
  ac:	d8800317 	ldw	r2,12(sp)
  b0:	d8c00417 	ldw	r3,16(sp)
  b4:	d9000517 	ldw	r4,20(sp)
  b8:	d9400617 	ldw	r5,24(sp)
  bc:	d9800717 	ldw	r6,28(sp)
  c0:	d9c00817 	ldw	r7,32(sp)
  c4:	da000917 	ldw	r8,36(sp)
  c8:	da400a17 	ldw	r9,40(sp)
  cc:	da800b17 	ldw	r10,44(sp)
  d0:	dac00c17 	ldw	r11,48(sp)
  d4:	db000d17 	ldw	r12,52(sp)
  d8:	db400e17 	ldw	r13,56(sp)
  dc:	db800f17 	ldw	r14,60(sp)
  e0:	dbc01017 	ldw	r15,64(sp)
  e4:	dec01304 	addi	sp,sp,76
  e8:	ef80083a 	eret

000000ec <alt_irq_handler>:
  ec:	defff904 	addi	sp,sp,-28
  f0:	dfc00615 	stw	ra,24(sp)
  f4:	df000515 	stw	fp,20(sp)
  f8:	df000504 	addi	fp,sp,20
  fc:	0005313a 	rdctl	r2,ipending
 100:	e0bffc15 	stw	r2,-16(fp)
 104:	e0bffc17 	ldw	r2,-16(fp)
 108:	e0bfff15 	stw	r2,-4(fp)
 10c:	e03ffd15 	stw	zero,-12(fp)
 110:	00800044 	movi	r2,1
 114:	e0bffe15 	stw	r2,-8(fp)
 118:	e0ffff17 	ldw	r3,-4(fp)
 11c:	e0bffe17 	ldw	r2,-8(fp)
 120:	1884703a 	and	r2,r3,r2
 124:	1005003a 	cmpeq	r2,r2,zero
 128:	1000161e 	bne	r2,zero,184 <alt_irq_handler+0x98>
 12c:	e0bffd17 	ldw	r2,-12(fp)
 130:	00c000b4 	movhi	r3,2
 134:	18f11d04 	addi	r3,r3,-15244
 138:	100490fa 	slli	r2,r2,3
 13c:	10c5883a 	add	r2,r2,r3
 140:	11400017 	ldw	r5,0(r2)
 144:	e0bffd17 	ldw	r2,-12(fp)
 148:	00c000b4 	movhi	r3,2
 14c:	18f11d04 	addi	r3,r3,-15244
 150:	100490fa 	slli	r2,r2,3
 154:	10c5883a 	add	r2,r2,r3
 158:	10800104 	addi	r2,r2,4
 15c:	11000017 	ldw	r4,0(r2)
 160:	283ee83a 	callr	r5
 164:	0005313a 	rdctl	r2,ipending
 168:	e0bffb15 	stw	r2,-20(fp)
 16c:	e0bffb17 	ldw	r2,-20(fp)
 170:	e0bfff15 	stw	r2,-4(fp)
 174:	e0bfff17 	ldw	r2,-4(fp)
 178:	1004c03a 	cmpne	r2,r2,zero
 17c:	103fe31e 	bne	r2,zero,10c <alt_irq_handler+0x20>
 180:	00000706 	br	1a0 <alt_irq_handler+0xb4>
 184:	e0bffe17 	ldw	r2,-8(fp)
 188:	1085883a 	add	r2,r2,r2
 18c:	e0bffe15 	stw	r2,-8(fp)
 190:	e0bffd17 	ldw	r2,-12(fp)
 194:	10800044 	addi	r2,r2,1
 198:	e0bffd15 	stw	r2,-12(fp)
 19c:	003fde06 	br	118 <alt_irq_handler+0x2c>
 1a0:	e037883a 	mov	sp,fp
 1a4:	dfc00117 	ldw	ra,4(sp)
 1a8:	df000017 	ldw	fp,0(sp)
 1ac:	dec00204 	addi	sp,sp,8
 1b0:	f800283a 	ret

Disassembly of section .text:

000001b4 <_start>:
     1b4:	00820014 	movui	r2,2048
     1b8:	10000033 	initd	0(r2)
     1bc:	10bff804 	addi	r2,r2,-32
     1c0:	00bffd16 	blt	zero,r2,1b8 <_start+0x4>
     1c4:	06c20034 	movhi	sp,2048
     1c8:	dec00014 	ori	sp,sp,0
     1cc:	068000b4 	movhi	gp,2
     1d0:	d6891414 	ori	gp,gp,9296
     1d4:	00800074 	movhi	r2,1
     1d8:	10b01514 	ori	r2,r2,49236
     1dc:	00c00074 	movhi	r3,1
     1e0:	18f1c114 	ori	r3,r3,50948
     1e4:	10c00326 	beq	r2,r3,1f4 <_start+0x40>
     1e8:	10000015 	stw	zero,0(r2)
     1ec:	10800104 	addi	r2,r2,4
     1f0:	10fffd36 	bltu	r2,r3,1e8 <_start+0x34>
     1f4:	00140e80 	call	140e8 <alt_load>
     1f8:	00143240 	call	14324 <alt_main>

000001fc <alt_after_alt_main>:
     1fc:	003fff06 	br	1fc <alt_after_alt_main>

00000200 <maxmin>:
*
******************************************************************************/
void UsbSoftReset();
//--------------------------------------
int maxmin(int no, int max, int min)
{
     200:	defffc04 	addi	sp,sp,-16
     204:	df000315 	stw	fp,12(sp)
     208:	df000304 	addi	fp,sp,12
     20c:	e13ffd15 	stw	r4,-12(fp)
     210:	e17ffe15 	stw	r5,-8(fp)
     214:	e1bfff15 	stw	r6,-4(fp)
 if(no>max) {no=max;}
     218:	e0fffd17 	ldw	r3,-12(fp)
     21c:	e0bffe17 	ldw	r2,-8(fp)
     220:	10c0020e 	bge	r2,r3,22c <maxmin+0x2c>
     224:	e0bffe17 	ldw	r2,-8(fp)
     228:	e0bffd15 	stw	r2,-12(fp)
 if(no<min) {no=min;}
     22c:	e0fffd17 	ldw	r3,-12(fp)
     230:	e0bfff17 	ldw	r2,-4(fp)
     234:	1880020e 	bge	r3,r2,240 <maxmin+0x40>
     238:	e0bfff17 	ldw	r2,-4(fp)
     23c:	e0bffd15 	stw	r2,-12(fp)

 return(no);
     240:	e0bffd17 	ldw	r2,-12(fp)
}
     244:	e037883a 	mov	sp,fp
     248:	df000017 	ldw	fp,0(sp)
     24c:	dec00104 	addi	sp,sp,4
     250:	f800283a 	ret

00000254 <Vga_clear_screen>:
//--------------------------------------
//----------clear screen----------------
void Vga_clear_screen(base)
{
     254:	defffd04 	addi	sp,sp,-12
     258:	df000215 	stw	fp,8(sp)
     25c:	df000204 	addi	fp,sp,8
     260:	e13fff15 	stw	r4,-4(fp)
    alt_u16 x_col,y_col;
    for(y_col=0;y_col<VGA_HEIGHT;y_col++)
     264:	e03ffe0d 	sth	zero,-8(fp)
     268:	00001506 	br	2c0 <Vga_clear_screen+0x6c>
      {
        for(x_col=0;x_col<VGA_WIDTH;x_col++)
     26c:	e03ffe8d 	sth	zero,-6(fp)
     270:	00000d06 	br	2a8 <Vga_clear_screen+0x54>
        {
            Vga_Clr_Pixel(base,x_col,y_col);
     274:	e0bffe0b 	ldhu	r2,-8(fp)
     278:	10c0a024 	muli	r3,r2,640
     27c:	e0bffe8b 	ldhu	r2,-6(fp)
     280:	1885883a 	add	r2,r3,r2
     284:	1085883a 	add	r2,r2,r2
     288:	1085883a 	add	r2,r2,r2
     28c:	1007883a 	mov	r3,r2
     290:	e0bfff17 	ldw	r2,-4(fp)
     294:	1885883a 	add	r2,r3,r2
     298:	10000035 	stwio	zero,0(r2)
void Vga_clear_screen(base)
{
    alt_u16 x_col,y_col;
    for(y_col=0;y_col<VGA_HEIGHT;y_col++)
      {
        for(x_col=0;x_col<VGA_WIDTH;x_col++)
     29c:	e0bffe8b 	ldhu	r2,-6(fp)
     2a0:	10800044 	addi	r2,r2,1
     2a4:	e0bffe8d 	sth	r2,-6(fp)
     2a8:	e0bffe8b 	ldhu	r2,-6(fp)
     2ac:	1080a030 	cmpltui	r2,r2,640
     2b0:	103ff01e 	bne	r2,zero,274 <Vga_clear_screen+0x20>
//--------------------------------------
//----------clear screen----------------
void Vga_clear_screen(base)
{
    alt_u16 x_col,y_col;
    for(y_col=0;y_col<VGA_HEIGHT;y_col++)
     2b4:	e0bffe0b 	ldhu	r2,-8(fp)
     2b8:	10800044 	addi	r2,r2,1
     2bc:	e0bffe0d 	sth	r2,-8(fp)
     2c0:	e0bffe0b 	ldhu	r2,-8(fp)
     2c4:	10807830 	cmpltui	r2,r2,480
     2c8:	103fe81e 	bne	r2,zero,26c <Vga_clear_screen+0x18>
        for(x_col=0;x_col<VGA_WIDTH;x_col++)
        {
            Vga_Clr_Pixel(base,x_col,y_col);
        }
      }
}
     2cc:	e037883a 	mov	sp,fp
     2d0:	df000017 	ldw	fp,0(sp)
     2d4:	dec00104 	addi	sp,sp,4
     2d8:	f800283a 	ret

000002dc <delay>:
alt_u16 x_coord[max];
alt_u16 y_coord[max];
/****************************************************************************************
// Delay
****************************************************************************************/
void delay(){
     2dc:	defffd04 	addi	sp,sp,-12
     2e0:	df000215 	stw	fp,8(sp)
     2e4:	df000204 	addi	fp,sp,8
   int c, d;

   for (c = 1; c <= 100; c++)
     2e8:	00800044 	movi	r2,1
     2ec:	e0bfff15 	stw	r2,-4(fp)
     2f0:	00000c06 	br	324 <delay+0x48>
       for (d = 1; d <= 100; d++)
     2f4:	00800044 	movi	r2,1
     2f8:	e0bffe15 	stw	r2,-8(fp)
     2fc:	00000306 	br	30c <delay+0x30>
     300:	e0bffe17 	ldw	r2,-8(fp)
     304:	10800044 	addi	r2,r2,1
     308:	e0bffe15 	stw	r2,-8(fp)
     30c:	e0bffe17 	ldw	r2,-8(fp)
     310:	10801950 	cmplti	r2,r2,101
     314:	103ffa1e 	bne	r2,zero,300 <delay+0x24>
// Delay
****************************************************************************************/
void delay(){
   int c, d;

   for (c = 1; c <= 100; c++)
     318:	e0bfff17 	ldw	r2,-4(fp)
     31c:	10800044 	addi	r2,r2,1
     320:	e0bfff15 	stw	r2,-4(fp)
     324:	e0bfff17 	ldw	r2,-4(fp)
     328:	10801950 	cmplti	r2,r2,101
     32c:	103ff11e 	bne	r2,zero,2f4 <delay+0x18>
       for (d = 1; d <= 100; d++)
       {
       }

}
     330:	e037883a 	mov	sp,fp
     334:	df000017 	ldw	fp,0(sp)
     338:	dec00104 	addi	sp,sp,4
     33c:	f800283a 	ret

00000340 <InitXY>:
void InitXY(){
     340:	deffff04 	addi	sp,sp,-4
     344:	df000015 	stw	fp,0(sp)
     348:	d839883a 	mov	fp,sp
	x_coord[0]  =107,	y_coord[0]  = 234;
     34c:	00c000b4 	movhi	r3,2
     350:	18f03504 	addi	r3,r3,-16172
     354:	00801ac4 	movi	r2,107
     358:	1880000d 	sth	r2,0(r3)
     35c:	00c000b4 	movhi	r3,2
     360:	18f0d504 	addi	r3,r3,-15532
     364:	00803a84 	movi	r2,234
     368:	1880000d 	sth	r2,0(r3)
	x_coord[1]  =183,	y_coord[1]  = 155;
     36c:	00c000b4 	movhi	r3,2
     370:	18f03504 	addi	r3,r3,-16172
     374:	00802dc4 	movi	r2,183
     378:	1880008d 	sth	r2,2(r3)
     37c:	00c000b4 	movhi	r3,2
     380:	18f0d504 	addi	r3,r3,-15532
     384:	008026c4 	movi	r2,155
     388:	1880008d 	sth	r2,2(r3)
	x_coord[2]  =185,	y_coord[2]  = 287;
     38c:	00c000b4 	movhi	r3,2
     390:	18f03504 	addi	r3,r3,-16172
     394:	00802e44 	movi	r2,185
     398:	1880010d 	sth	r2,4(r3)
     39c:	00c000b4 	movhi	r3,2
     3a0:	18f0d504 	addi	r3,r3,-15532
     3a4:	008047c4 	movi	r2,287
     3a8:	1880010d 	sth	r2,4(r3)
	x_coord[3]  =197,	y_coord[3]  = 347;
     3ac:	00c000b4 	movhi	r3,2
     3b0:	18f03504 	addi	r3,r3,-16172
     3b4:	00803144 	movi	r2,197
     3b8:	1880018d 	sth	r2,6(r3)
     3bc:	00c000b4 	movhi	r3,2
     3c0:	18f0d504 	addi	r3,r3,-15532
     3c4:	008056c4 	movi	r2,347
     3c8:	1880018d 	sth	r2,6(r3)
	x_coord[4]  =282,	y_coord[4]  = 223;
     3cc:	00c000b4 	movhi	r3,2
     3d0:	18f03504 	addi	r3,r3,-16172
     3d4:	00804684 	movi	r2,282
     3d8:	1880020d 	sth	r2,8(r3)
     3dc:	00c000b4 	movhi	r3,2
     3e0:	18f0d504 	addi	r3,r3,-15532
     3e4:	008037c4 	movi	r2,223
     3e8:	1880020d 	sth	r2,8(r3)
	x_coord[5]  =294,	y_coord[5]  = 130;
     3ec:	00c000b4 	movhi	r3,2
     3f0:	18f03504 	addi	r3,r3,-16172
     3f4:	00804984 	movi	r2,294
     3f8:	1880028d 	sth	r2,10(r3)
     3fc:	00c000b4 	movhi	r3,2
     400:	18f0d504 	addi	r3,r3,-15532
     404:	00802084 	movi	r2,130
     408:	1880028d 	sth	r2,10(r3)
	x_coord[6]  =301,	y_coord[6]  = 410;
     40c:	00c000b4 	movhi	r3,2
     410:	18f03504 	addi	r3,r3,-16172
     414:	00804b44 	movi	r2,301
     418:	1880030d 	sth	r2,12(r3)
     41c:	00c000b4 	movhi	r3,2
     420:	18f0d504 	addi	r3,r3,-15532
     424:	00806684 	movi	r2,410
     428:	1880030d 	sth	r2,12(r3)
	x_coord[7]  =307,	y_coord[7]  = 287;
     42c:	00c000b4 	movhi	r3,2
     430:	18f03504 	addi	r3,r3,-16172
     434:	00804cc4 	movi	r2,307
     438:	1880038d 	sth	r2,14(r3)
     43c:	00c000b4 	movhi	r3,2
     440:	18f0d504 	addi	r3,r3,-15532
     444:	008047c4 	movi	r2,287
     448:	1880038d 	sth	r2,14(r3)
	x_coord[8]  =380,	y_coord[8]  = 307;
     44c:	00c000b4 	movhi	r3,2
     450:	18f03504 	addi	r3,r3,-16172
     454:	00805f04 	movi	r2,380
     458:	1880040d 	sth	r2,16(r3)
     45c:	00c000b4 	movhi	r3,2
     460:	18f0d504 	addi	r3,r3,-15532
     464:	00804cc4 	movi	r2,307
     468:	1880040d 	sth	r2,16(r3)
	x_coord[9]  =429,	y_coord[9]  = 379;
     46c:	00c000b4 	movhi	r3,2
     470:	18f03504 	addi	r3,r3,-16172
     474:	00806b44 	movi	r2,429
     478:	1880048d 	sth	r2,18(r3)
     47c:	00c000b4 	movhi	r3,2
     480:	18f0d504 	addi	r3,r3,-15532
     484:	00805ec4 	movi	r2,379
     488:	1880048d 	sth	r2,18(r3)
	x_coord[10] =507,	y_coord[10] = 288;
     48c:	00c000b4 	movhi	r3,2
     490:	18f03504 	addi	r3,r3,-16172
     494:	00807ec4 	movi	r2,507
     498:	1880050d 	sth	r2,20(r3)
     49c:	00c000b4 	movhi	r3,2
     4a0:	18f0d504 	addi	r3,r3,-15532
     4a4:	00804804 	movi	r2,288
     4a8:	1880050d 	sth	r2,20(r3)
	x_coord[11] =380,	y_coord[11] = 200;
     4ac:	00c000b4 	movhi	r3,2
     4b0:	18f03504 	addi	r3,r3,-16172
     4b4:	00805f04 	movi	r2,380
     4b8:	1880058d 	sth	r2,22(r3)
     4bc:	00c000b4 	movhi	r3,2
     4c0:	18f0d504 	addi	r3,r3,-15532
     4c4:	00803204 	movi	r2,200
     4c8:	1880058d 	sth	r2,22(r3)
	x_coord[12] =428,	y_coord[12] = 228;
     4cc:	00c000b4 	movhi	r3,2
     4d0:	18f03504 	addi	r3,r3,-16172
     4d4:	00806b04 	movi	r2,428
     4d8:	1880060d 	sth	r2,24(r3)
     4dc:	00c000b4 	movhi	r3,2
     4e0:	18f0d504 	addi	r3,r3,-15532
     4e4:	00803904 	movi	r2,228
     4e8:	1880060d 	sth	r2,24(r3)
	x_coord[13] =413,	y_coord[13] = 151;
     4ec:	00c000b4 	movhi	r3,2
     4f0:	18f03504 	addi	r3,r3,-16172
     4f4:	00806744 	movi	r2,413
     4f8:	1880068d 	sth	r2,26(r3)
     4fc:	00c000b4 	movhi	r3,2
     500:	18f0d504 	addi	r3,r3,-15532
     504:	008025c4 	movi	r2,151
     508:	1880068d 	sth	r2,26(r3)
	x_coord[14] =445,	y_coord[14] = 91;
     50c:	00c000b4 	movhi	r3,2
     510:	18f03504 	addi	r3,r3,-16172
     514:	00806f44 	movi	r2,445
     518:	1880070d 	sth	r2,28(r3)
     51c:	00c000b4 	movhi	r3,2
     520:	18f0d504 	addi	r3,r3,-15532
     524:	008016c4 	movi	r2,91
     528:	1880070d 	sth	r2,28(r3)
	x_coord[15] =566,	y_coord[15] = 132;
     52c:	00c000b4 	movhi	r3,2
     530:	18f03504 	addi	r3,r3,-16172
     534:	00808d84 	movi	r2,566
     538:	1880078d 	sth	r2,30(r3)
     53c:	00c000b4 	movhi	r3,2
     540:	18f0d504 	addi	r3,r3,-15532
     544:	00802104 	movi	r2,132
     548:	1880078d 	sth	r2,30(r3)
}
     54c:	e037883a 	mov	sp,fp
     550:	df000017 	ldw	fp,0(sp)
     554:	dec00104 	addi	sp,sp,4
     558:	f800283a 	ret

0000055c <VGA_line>:
/****************************************************************************************
 * Draw a line on the VGA monitor
****************************************************************************************/

void VGA_line(int base,int x1, int y1, int x2, int y2) {
     55c:	defff004 	addi	sp,sp,-64
     560:	df000f15 	stw	fp,60(sp)
     564:	df000f04 	addi	fp,sp,60
     568:	e13ffc15 	stw	r4,-16(fp)
     56c:	e17ffd15 	stw	r5,-12(fp)
     570:	e1bffe15 	stw	r6,-8(fp)
     574:	e1ffff15 	stw	r7,-4(fp)
	signed int s1,s2, xchange;
     signed int x,y;
	char *pixel_ptr ;

	/* check and fix line coordinates to be valid */
	if (x1>639) x1 = 639;
     578:	e0bffd17 	ldw	r2,-12(fp)
     57c:	1080a010 	cmplti	r2,r2,640
     580:	1000021e 	bne	r2,zero,58c <VGA_line+0x30>
     584:	00809fc4 	movi	r2,639
     588:	e0bffd15 	stw	r2,-12(fp)
	if (y1>479) y1 = 479;
     58c:	e0bffe17 	ldw	r2,-8(fp)
     590:	10807810 	cmplti	r2,r2,480
     594:	1000021e 	bne	r2,zero,5a0 <VGA_line+0x44>
     598:	008077c4 	movi	r2,479
     59c:	e0bffe15 	stw	r2,-8(fp)
	if (x2>639) x2 = 639;
     5a0:	e0bfff17 	ldw	r2,-4(fp)
     5a4:	1080a010 	cmplti	r2,r2,640
     5a8:	1000021e 	bne	r2,zero,5b4 <VGA_line+0x58>
     5ac:	00809fc4 	movi	r2,639
     5b0:	e0bfff15 	stw	r2,-4(fp)
	if (y2>479) y2 = 479;
     5b4:	e0800117 	ldw	r2,4(fp)
     5b8:	10807810 	cmplti	r2,r2,480
     5bc:	1000021e 	bne	r2,zero,5c8 <VGA_line+0x6c>
     5c0:	008077c4 	movi	r2,479
     5c4:	e0800115 	stw	r2,4(fp)
	if (x1<0) x1 = 0;
     5c8:	e0bffd17 	ldw	r2,-12(fp)
     5cc:	1004403a 	cmpge	r2,r2,zero
     5d0:	1000011e 	bne	r2,zero,5d8 <VGA_line+0x7c>
     5d4:	e03ffd15 	stw	zero,-12(fp)
	if (y1<0) y1 = 0;
     5d8:	e0bffe17 	ldw	r2,-8(fp)
     5dc:	1004403a 	cmpge	r2,r2,zero
     5e0:	1000011e 	bne	r2,zero,5e8 <VGA_line+0x8c>
     5e4:	e03ffe15 	stw	zero,-8(fp)
	if (x2<0) x2 = 0;
     5e8:	e0bfff17 	ldw	r2,-4(fp)
     5ec:	1004403a 	cmpge	r2,r2,zero
     5f0:	1000011e 	bne	r2,zero,5f8 <VGA_line+0x9c>
     5f4:	e03fff15 	stw	zero,-4(fp)
	if (y2<0) y2 = 0;
     5f8:	e0800117 	ldw	r2,4(fp)
     5fc:	1004403a 	cmpge	r2,r2,zero
     600:	1000011e 	bne	r2,zero,608 <VGA_line+0xac>
     604:	e0000115 	stw	zero,4(fp)

	x = x1;
     608:	e0bffd17 	ldw	r2,-12(fp)
     60c:	e0bff315 	stw	r2,-52(fp)
	y = y1;
     610:	e0bffe17 	ldw	r2,-8(fp)
     614:	e0bff215 	stw	r2,-56(fp)

	//take absolute value
	if (x2 < x1) {
     618:	e0ffff17 	ldw	r3,-4(fp)
     61c:	e0bffd17 	ldw	r2,-12(fp)
     620:	1880070e 	bge	r3,r2,640 <VGA_line+0xe4>
		dx = x1 - x2;
     624:	e0fffd17 	ldw	r3,-12(fp)
     628:	e0bfff17 	ldw	r2,-4(fp)
     62c:	1885c83a 	sub	r2,r3,r2
     630:	e0bffa15 	stw	r2,-24(fp)
		s1 = -1;
     634:	00bfffc4 	movi	r2,-1
     638:	e0bff615 	stw	r2,-40(fp)
     63c:	00000c06 	br	670 <VGA_line+0x114>
	}

	else if (x2 == x1) {
     640:	e0ffff17 	ldw	r3,-4(fp)
     644:	e0bffd17 	ldw	r2,-12(fp)
     648:	1880031e 	bne	r3,r2,658 <VGA_line+0xfc>
		dx = 0;
     64c:	e03ffa15 	stw	zero,-24(fp)
		s1 = 0;
     650:	e03ff615 	stw	zero,-40(fp)
     654:	00000606 	br	670 <VGA_line+0x114>
	}

	else {
		dx = x2 - x1;
     658:	e0ffff17 	ldw	r3,-4(fp)
     65c:	e0bffd17 	ldw	r2,-12(fp)
     660:	1885c83a 	sub	r2,r3,r2
     664:	e0bffa15 	stw	r2,-24(fp)
		s1 = 1;
     668:	00800044 	movi	r2,1
     66c:	e0bff615 	stw	r2,-40(fp)
	}

	if (y2 < y1) {
     670:	e0c00117 	ldw	r3,4(fp)
     674:	e0bffe17 	ldw	r2,-8(fp)
     678:	1880070e 	bge	r3,r2,698 <VGA_line+0x13c>
		dy = y1 - y2;
     67c:	e0fffe17 	ldw	r3,-8(fp)
     680:	e0800117 	ldw	r2,4(fp)
     684:	1885c83a 	sub	r2,r3,r2
     688:	e0bff915 	stw	r2,-28(fp)
		s2 = -1;
     68c:	00bfffc4 	movi	r2,-1
     690:	e0bff515 	stw	r2,-44(fp)
     694:	00000c06 	br	6c8 <VGA_line+0x16c>
	}

	else if (y2 == y1) {
     698:	e0c00117 	ldw	r3,4(fp)
     69c:	e0bffe17 	ldw	r2,-8(fp)
     6a0:	1880031e 	bne	r3,r2,6b0 <VGA_line+0x154>
		dy = 0;
     6a4:	e03ff915 	stw	zero,-28(fp)
		s2 = 0;
     6a8:	e03ff515 	stw	zero,-44(fp)
     6ac:	00000606 	br	6c8 <VGA_line+0x16c>
	}

	else {
		dy = y2 - y1;
     6b0:	e0c00117 	ldw	r3,4(fp)
     6b4:	e0bffe17 	ldw	r2,-8(fp)
     6b8:	1885c83a 	sub	r2,r3,r2
     6bc:	e0bff915 	stw	r2,-28(fp)
		s2 = 1;
     6c0:	00800044 	movi	r2,1
     6c4:	e0bff515 	stw	r2,-44(fp)
	}

	xchange = 0;
     6c8:	e03ff415 	stw	zero,-48(fp)

	if (dy>dx) {
     6cc:	e0fff917 	ldw	r3,-28(fp)
     6d0:	e0bffa17 	ldw	r2,-24(fp)
     6d4:	10c0080e 	bge	r2,r3,6f8 <VGA_line+0x19c>
		temp = dx;
     6d8:	e0bffa17 	ldw	r2,-24(fp)
     6dc:	e0bff715 	stw	r2,-36(fp)
		dx = dy;
     6e0:	e0bff917 	ldw	r2,-28(fp)
     6e4:	e0bffa15 	stw	r2,-24(fp)
		dy = temp;
     6e8:	e0bff717 	ldw	r2,-36(fp)
     6ec:	e0bff915 	stw	r2,-28(fp)
		xchange = 1;
     6f0:	00800044 	movi	r2,1
     6f4:	e0bff415 	stw	r2,-48(fp)
	}

	e = ((int)dy<<1) - dx;
     6f8:	e0bff917 	ldw	r2,-28(fp)
     6fc:	1085883a 	add	r2,r2,r2
     700:	1007883a 	mov	r3,r2
     704:	e0bffa17 	ldw	r2,-24(fp)
     708:	1885c83a 	sub	r2,r3,r2
     70c:	e0bffb15 	stw	r2,-20(fp)

	for (j=0; j<=dx; j++) {
     710:	e03ff815 	stw	zero,-32(fp)
     714:	00003606 	br	7f0 <VGA_line+0x294>
		//video_pt(x,y,c); //640x480
		//pixel_ptr = (char *)vga_pixel_ptr + (y<<10)+ x;
		// set pixel color
		//*(char *)pixel_ptr = c;
		Vga_Set_Pixel(base,x,y);
     718:	e0bff217 	ldw	r2,-56(fp)
     71c:	10c0a024 	muli	r3,r2,640
     720:	e0bff317 	ldw	r2,-52(fp)
     724:	1885883a 	add	r2,r3,r2
     728:	1085883a 	add	r2,r2,r2
     72c:	1085883a 	add	r2,r2,r2
     730:	1007883a 	mov	r3,r2
     734:	e0bffc17 	ldw	r2,-16(fp)
     738:	1885883a 	add	r2,r3,r2
     73c:	1007883a 	mov	r3,r2
     740:	00800044 	movi	r2,1
     744:	18800035 	stwio	r2,0(r3)

		if (e>=0) {
     748:	e0bffb17 	ldw	r2,-20(fp)
     74c:	1004803a 	cmplt	r2,r2,zero
     750:	1000121e 	bne	r2,zero,79c <VGA_line+0x240>
			if (xchange==1) x = x + s1;
     754:	e0bff417 	ldw	r2,-48(fp)
     758:	10800058 	cmpnei	r2,r2,1
     75c:	1000051e 	bne	r2,zero,774 <VGA_line+0x218>
     760:	e0bff317 	ldw	r2,-52(fp)
     764:	e0fff617 	ldw	r3,-40(fp)
     768:	10c5883a 	add	r2,r2,r3
     76c:	e0bff315 	stw	r2,-52(fp)
     770:	00000406 	br	784 <VGA_line+0x228>
			else y = y + s2;
     774:	e0bff217 	ldw	r2,-56(fp)
     778:	e0fff517 	ldw	r3,-44(fp)
     77c:	10c5883a 	add	r2,r2,r3
     780:	e0bff215 	stw	r2,-56(fp)
			e = e - ((int)dx<<1);
     784:	e0bffa17 	ldw	r2,-24(fp)
     788:	1085883a 	add	r2,r2,r2
     78c:	1007883a 	mov	r3,r2
     790:	e0bffb17 	ldw	r2,-20(fp)
     794:	10c5c83a 	sub	r2,r2,r3
     798:	e0bffb15 	stw	r2,-20(fp)
		}

		if (xchange==1) y = y + s2;
     79c:	e0bff417 	ldw	r2,-48(fp)
     7a0:	10800058 	cmpnei	r2,r2,1
     7a4:	1000051e 	bne	r2,zero,7bc <VGA_line+0x260>
     7a8:	e0bff217 	ldw	r2,-56(fp)
     7ac:	e0fff517 	ldw	r3,-44(fp)
     7b0:	10c5883a 	add	r2,r2,r3
     7b4:	e0bff215 	stw	r2,-56(fp)
     7b8:	00000406 	br	7cc <VGA_line+0x270>
		else x = x + s1;
     7bc:	e0bff317 	ldw	r2,-52(fp)
     7c0:	e0fff617 	ldw	r3,-40(fp)
     7c4:	10c5883a 	add	r2,r2,r3
     7c8:	e0bff315 	stw	r2,-52(fp)

		e = e + ((int)dy<<1);
     7cc:	e0bff917 	ldw	r2,-28(fp)
     7d0:	1085883a 	add	r2,r2,r2
     7d4:	1007883a 	mov	r3,r2
     7d8:	e0bffb17 	ldw	r2,-20(fp)
     7dc:	10c5883a 	add	r2,r2,r3
     7e0:	e0bffb15 	stw	r2,-20(fp)
		xchange = 1;
	}

	e = ((int)dy<<1) - dx;

	for (j=0; j<=dx; j++) {
     7e4:	e0bff817 	ldw	r2,-32(fp)
     7e8:	10800044 	addi	r2,r2,1
     7ec:	e0bff815 	stw	r2,-32(fp)
     7f0:	e0fff817 	ldw	r3,-32(fp)
     7f4:	e0bffa17 	ldw	r2,-24(fp)
     7f8:	10ffc70e 	bge	r2,r3,718 <VGA_line+0x1bc>
		if (xchange==1) y = y + s2;
		else x = x + s1;

		e = e + ((int)dy<<1);
	}
}
     7fc:	e037883a 	mov	sp,fp
     800:	df000017 	ldw	fp,0(sp)
     804:	dec00104 	addi	sp,sp,4
     808:	f800283a 	ret

0000080c <min_path>:
////////////////////////////////////////////////////////////////
// min_path
////////////////////////////////////////////////////////////////

void min_path(int base,int start, int dest)
{
     80c:	defffa04 	addi	sp,sp,-24
     810:	dfc00515 	stw	ra,20(sp)
     814:	df000415 	stw	fp,16(sp)
     818:	df000404 	addi	fp,sp,16
     81c:	e13ffd15 	stw	r4,-12(fp)
     820:	e17ffe15 	stw	r5,-8(fp)
     824:	e1bfff15 	stw	r6,-4(fp)
  if(neighbor[dest]!=start)
     828:	e0bfff17 	ldw	r2,-4(fp)
     82c:	00c000b4 	movhi	r3,2
     830:	18f0c504 	addi	r3,r3,-15596
     834:	1085883a 	add	r2,r2,r2
     838:	10c5883a 	add	r2,r2,r3
     83c:	1080000b 	ldhu	r2,0(r2)
     840:	10ffffcc 	andi	r3,r2,65535
     844:	e0bffe17 	ldw	r2,-8(fp)
     848:	18803f26 	beq	r3,r2,948 <min_path+0x13c>
    {
      VGA_line(base,x_coord[dest],y_coord[dest],x_coord[neighbor[dest]],y_coord[neighbor[dest]]);
     84c:	e0bfff17 	ldw	r2,-4(fp)
     850:	00c000b4 	movhi	r3,2
     854:	18f03504 	addi	r3,r3,-16172
     858:	1085883a 	add	r2,r2,r2
     85c:	10c5883a 	add	r2,r2,r3
     860:	1080000b 	ldhu	r2,0(r2)
     864:	117fffcc 	andi	r5,r2,65535
     868:	e0bfff17 	ldw	r2,-4(fp)
     86c:	00c000b4 	movhi	r3,2
     870:	18f0d504 	addi	r3,r3,-15532
     874:	1085883a 	add	r2,r2,r2
     878:	10c5883a 	add	r2,r2,r3
     87c:	1080000b 	ldhu	r2,0(r2)
     880:	11bfffcc 	andi	r6,r2,65535
     884:	e0bfff17 	ldw	r2,-4(fp)
     888:	00c000b4 	movhi	r3,2
     88c:	18f0c504 	addi	r3,r3,-15596
     890:	1085883a 	add	r2,r2,r2
     894:	10c5883a 	add	r2,r2,r3
     898:	1080000b 	ldhu	r2,0(r2)
     89c:	10bfffcc 	andi	r2,r2,65535
     8a0:	00c000b4 	movhi	r3,2
     8a4:	18f03504 	addi	r3,r3,-16172
     8a8:	1085883a 	add	r2,r2,r2
     8ac:	10c5883a 	add	r2,r2,r3
     8b0:	1080000b 	ldhu	r2,0(r2)
     8b4:	11ffffcc 	andi	r7,r2,65535
     8b8:	e0bfff17 	ldw	r2,-4(fp)
     8bc:	00c000b4 	movhi	r3,2
     8c0:	18f0c504 	addi	r3,r3,-15596
     8c4:	1085883a 	add	r2,r2,r2
     8c8:	10c5883a 	add	r2,r2,r3
     8cc:	1080000b 	ldhu	r2,0(r2)
     8d0:	10bfffcc 	andi	r2,r2,65535
     8d4:	00c000b4 	movhi	r3,2
     8d8:	18f0d504 	addi	r3,r3,-15532
     8dc:	1085883a 	add	r2,r2,r2
     8e0:	10c5883a 	add	r2,r2,r3
     8e4:	1080000b 	ldhu	r2,0(r2)
     8e8:	10bfffcc 	andi	r2,r2,65535
     8ec:	d8800015 	stw	r2,0(sp)
     8f0:	e13ffd17 	ldw	r4,-12(fp)
     8f4:	000055c0 	call	55c <VGA_line>
      dest = neighbor[dest];
     8f8:	e0bfff17 	ldw	r2,-4(fp)
     8fc:	00c000b4 	movhi	r3,2
     900:	18f0c504 	addi	r3,r3,-15596
     904:	1085883a 	add	r2,r2,r2
     908:	10c5883a 	add	r2,r2,r3
     90c:	1080000b 	ldhu	r2,0(r2)
     910:	10bfffcc 	andi	r2,r2,65535
     914:	e0bfff15 	stw	r2,-4(fp)
      min_path(base,start, dest);
     918:	e13ffd17 	ldw	r4,-12(fp)
     91c:	e17ffe17 	ldw	r5,-8(fp)
     920:	e1bfff17 	ldw	r6,-4(fp)
     924:	000080c0 	call	80c <min_path>
      printf("%d",dest);
     928:	01000074 	movhi	r4,1
     92c:	211e3704 	addi	r4,r4,30940
     930:	e17fff17 	ldw	r5,-4(fp)
     934:	00055540 	call	5554 <printf>
      printf(" ->\n");
     938:	01000074 	movhi	r4,1
     93c:	211e3804 	addi	r4,r4,30944
     940:	000566c0 	call	566c <puts>
     944:	00003206 	br	a10 <min_path+0x204>
    }
  else
    {
      VGA_line(base,x_coord[dest],y_coord[dest],x_coord[neighbor[dest]],y_coord[neighbor[dest]]);
     948:	e0bfff17 	ldw	r2,-4(fp)
     94c:	00c000b4 	movhi	r3,2
     950:	18f03504 	addi	r3,r3,-16172
     954:	1085883a 	add	r2,r2,r2
     958:	10c5883a 	add	r2,r2,r3
     95c:	1080000b 	ldhu	r2,0(r2)
     960:	117fffcc 	andi	r5,r2,65535
     964:	e0bfff17 	ldw	r2,-4(fp)
     968:	00c000b4 	movhi	r3,2
     96c:	18f0d504 	addi	r3,r3,-15532
     970:	1085883a 	add	r2,r2,r2
     974:	10c5883a 	add	r2,r2,r3
     978:	1080000b 	ldhu	r2,0(r2)
     97c:	11bfffcc 	andi	r6,r2,65535
     980:	e0bfff17 	ldw	r2,-4(fp)
     984:	00c000b4 	movhi	r3,2
     988:	18f0c504 	addi	r3,r3,-15596
     98c:	1085883a 	add	r2,r2,r2
     990:	10c5883a 	add	r2,r2,r3
     994:	1080000b 	ldhu	r2,0(r2)
     998:	10bfffcc 	andi	r2,r2,65535
     99c:	00c000b4 	movhi	r3,2
     9a0:	18f03504 	addi	r3,r3,-16172
     9a4:	1085883a 	add	r2,r2,r2
     9a8:	10c5883a 	add	r2,r2,r3
     9ac:	1080000b 	ldhu	r2,0(r2)
     9b0:	11ffffcc 	andi	r7,r2,65535
     9b4:	e0bfff17 	ldw	r2,-4(fp)
     9b8:	00c000b4 	movhi	r3,2
     9bc:	18f0c504 	addi	r3,r3,-15596
     9c0:	1085883a 	add	r2,r2,r2
     9c4:	10c5883a 	add	r2,r2,r3
     9c8:	1080000b 	ldhu	r2,0(r2)
     9cc:	10bfffcc 	andi	r2,r2,65535
     9d0:	00c000b4 	movhi	r3,2
     9d4:	18f0d504 	addi	r3,r3,-15532
     9d8:	1085883a 	add	r2,r2,r2
     9dc:	10c5883a 	add	r2,r2,r3
     9e0:	1080000b 	ldhu	r2,0(r2)
     9e4:	10bfffcc 	andi	r2,r2,65535
     9e8:	d8800015 	stw	r2,0(sp)
     9ec:	e13ffd17 	ldw	r4,-12(fp)
     9f0:	000055c0 	call	55c <VGA_line>
      printf("%d",start);
     9f4:	01000074 	movhi	r4,1
     9f8:	211e3704 	addi	r4,r4,30940
     9fc:	e17ffe17 	ldw	r5,-8(fp)
     a00:	00055540 	call	5554 <printf>
      printf(" ->\n");
     a04:	01000074 	movhi	r4,1
     a08:	211e3804 	addi	r4,r4,30944
     a0c:	000566c0 	call	566c <puts>
    }
}
     a10:	e037883a 	mov	sp,fp
     a14:	dfc00117 	ldw	ra,4(sp)
     a18:	df000017 	ldw	fp,0(sp)
     a1c:	dec00204 	addi	sp,sp,8
     a20:	f800283a 	ret

00000a24 <shortestPathFind>:
#define DEBUG_ON
struct timeval t1,t2;
int shortestPathFind(int base){
     a24:	defff504 	addi	sp,sp,-44
     a28:	dfc00a15 	stw	ra,40(sp)
     a2c:	df000915 	stw	fp,36(sp)
     a30:	df000904 	addi	fp,sp,36
     a34:	e13fff15 	stw	r4,-4(fp)
	int start ;
    int dest ;
    int trans_count;
    int temp;
    start = - 1 ;
     a38:	00bfffc4 	movi	r2,-1
     a3c:	e0bffd15 	stw	r2,-12(fp)
    InitXY();
     a40:	00003400 	call	340 <InitXY>
    printf("init XY is done...\n");
     a44:	01000074 	movhi	r4,1
     a48:	211e3904 	addi	r4,r4,30948
     a4c:	000566c0 	call	566c <puts>
    while(start < 0 || start >= max)
     a50:	00000906 	br	a78 <shortestPathFind+0x54>
    {
        printf("please input start node index...%d - %d\n",0,max-1);
     a54:	01000074 	movhi	r4,1
     a58:	211e3e04 	addi	r4,r4,30968
     a5c:	000b883a 	mov	r5,zero
     a60:	018003c4 	movi	r6,15
     a64:	00055540 	call	5554 <printf>
        scanf("%d",&start);
     a68:	e17ffd04 	addi	r5,fp,-12
     a6c:	01000074 	movhi	r4,1
     a70:	211e3704 	addi	r4,r4,30940
     a74:	00056b40 	call	56b4 <scanf>
    int trans_count;
    int temp;
    start = - 1 ;
    InitXY();
    printf("init XY is done...\n");
    while(start < 0 || start >= max)
     a78:	e0bffd17 	ldw	r2,-12(fp)
     a7c:	1004803a 	cmplt	r2,r2,zero
     a80:	103ff41e 	bne	r2,zero,a54 <shortestPathFind+0x30>
     a84:	e0bffd17 	ldw	r2,-12(fp)
     a88:	10800408 	cmpgei	r2,r2,16
     a8c:	103ff11e 	bne	r2,zero,a54 <shortestPathFind+0x30>
        printf("please input start node index...%d - %d\n",0,max-1);
        scanf("%d",&start);
    }


    Dijstra_set_start(base,start);
     a90:	e0ffff17 	ldw	r3,-4(fp)
     a94:	008004f4 	movhi	r2,19
     a98:	10b00e04 	addi	r2,r2,-16328
     a9c:	1885883a 	add	r2,r3,r2
     aa0:	e0fffd17 	ldw	r3,-12(fp)
     aa4:	10c00035 	stwio	r3,0(r2)
    temp = Dijstra_start(base);
     aa8:	e0ffff17 	ldw	r3,-4(fp)
     aac:	008004f4 	movhi	r2,19
     ab0:	10b00e04 	addi	r2,r2,-16328
     ab4:	1885883a 	add	r2,r3,r2
     ab8:	10800037 	ldwio	r2,0(r2)
     abc:	e0bffb15 	stw	r2,-20(fp)
#ifdef DEBUG_ON
    temp = Dijstra_start(base);
     ac0:	e0ffff17 	ldw	r3,-4(fp)
     ac4:	008004f4 	movhi	r2,19
     ac8:	10b00e04 	addi	r2,r2,-16328
     acc:	1885883a 	add	r2,r3,r2
     ad0:	10800037 	ldwio	r2,0(r2)
     ad4:	e0bffb15 	stw	r2,-20(fp)
    if(temp != start )
     ad8:	e0fffd17 	ldw	r3,-12(fp)
     adc:	e0bffb17 	ldw	r2,-20(fp)
     ae0:	10c00426 	beq	r2,r3,af4 <shortestPathFind+0xd0>
    {
    	printf("error : start node index setting is failed value = %d \n", temp);
     ae4:	01000074 	movhi	r4,1
     ae8:	211e4904 	addi	r4,r4,31012
     aec:	e17ffb17 	ldw	r5,-20(fp)
     af0:	00055540 	call	5554 <printf>
    }
    #endif
    printf("start node index  :   %d\n",start);
     af4:	e17ffd17 	ldw	r5,-12(fp)
     af8:	01000074 	movhi	r4,1
     afc:	211e5704 	addi	r4,r4,31068
     b00:	00055540 	call	5554 <printf>
//    return 0;
    dest = -1 ;
     b04:	00bfffc4 	movi	r2,-1
     b08:	e0bffe15 	stw	r2,-8(fp)
    while(dest < 0 || dest >= max)
     b0c:	00000906 	br	b34 <shortestPathFind+0x110>
    {
        printf("please input destination node index...%d - %d",0,max-1);
     b10:	01000074 	movhi	r4,1
     b14:	211e5e04 	addi	r4,r4,31096
     b18:	000b883a 	mov	r5,zero
     b1c:	018003c4 	movi	r6,15
     b20:	00055540 	call	5554 <printf>
        scanf("%d",&dest);
     b24:	e17ffe04 	addi	r5,fp,-8
     b28:	01000074 	movhi	r4,1
     b2c:	211e3704 	addi	r4,r4,30940
     b30:	00056b40 	call	56b4 <scanf>
    }
    #endif
    printf("start node index  :   %d\n",start);
//    return 0;
    dest = -1 ;
    while(dest < 0 || dest >= max)
     b34:	e0bffe17 	ldw	r2,-8(fp)
     b38:	1004803a 	cmplt	r2,r2,zero
     b3c:	103ff41e 	bne	r2,zero,b10 <shortestPathFind+0xec>
     b40:	e0bffe17 	ldw	r2,-8(fp)
     b44:	10800408 	cmpgei	r2,r2,16
     b48:	103ff11e 	bne	r2,zero,b10 <shortestPathFind+0xec>
    {
        printf("please input destination node index...%d - %d",0,max-1);
        scanf("%d",&dest);
    }
    printf("destination node index :   %d\n",dest);
     b4c:	e17ffe17 	ldw	r5,-8(fp)
     b50:	01000074 	movhi	r4,1
     b54:	211e6a04 	addi	r4,r4,31144
     b58:	00055540 	call	5554 <printf>
//    return 0;
    Dijstra_set_clk_NIOS(base,0);
     b5c:	e0ffff17 	ldw	r3,-4(fp)
     b60:	008004f4 	movhi	r2,19
     b64:	10b00c04 	addi	r2,r2,-16336
     b68:	1885883a 	add	r2,r3,r2
     b6c:	10000035 	stwio	zero,0(r2)
#ifdef DEBUG_ON
    temp = Dijstra_clk_NIOS(base);
     b70:	e0ffff17 	ldw	r3,-4(fp)
     b74:	008004f4 	movhi	r2,19
     b78:	10b00c04 	addi	r2,r2,-16336
     b7c:	1885883a 	add	r2,r3,r2
     b80:	10800037 	ldwio	r2,0(r2)
     b84:	e0bffb15 	stw	r2,-20(fp)
    if(temp != 0 )
     b88:	e0bffb17 	ldw	r2,-20(fp)
     b8c:	1005003a 	cmpeq	r2,r2,zero
     b90:	1000041e 	bne	r2,zero,ba4 <shortestPathFind+0x180>
    {
    	printf("error : clk_NIOS setting is failed value = %d \n", temp);
     b94:	01000074 	movhi	r4,1
     b98:	211e7204 	addi	r4,r4,31176
     b9c:	e17ffb17 	ldw	r5,-20(fp)
     ba0:	00055540 	call	5554 <printf>
    }
    #endif
    Dijstra_set_trans_count(base,0);
     ba4:	e0ffff17 	ldw	r3,-4(fp)
     ba8:	008004f4 	movhi	r2,19
     bac:	10b01104 	addi	r2,r2,-16316
     bb0:	1885883a 	add	r2,r3,r2
     bb4:	10000035 	stwio	zero,0(r2)
#ifdef DEBUG_ON
    temp = Dijstra_trans_count(base);
     bb8:	e0ffff17 	ldw	r3,-4(fp)
     bbc:	008004f4 	movhi	r2,19
     bc0:	10b01104 	addi	r2,r2,-16316
     bc4:	1885883a 	add	r2,r3,r2
     bc8:	10800037 	ldwio	r2,0(r2)
     bcc:	e0bffb15 	stw	r2,-20(fp)
    if(temp != 0 )
     bd0:	e0bffb17 	ldw	r2,-20(fp)
     bd4:	1005003a 	cmpeq	r2,r2,zero
     bd8:	1000041e 	bne	r2,zero,bec <shortestPathFind+0x1c8>
    {
    	printf("error : trans_count setting is failed value = %d \n", temp);
     bdc:	01000074 	movhi	r4,1
     be0:	211e7e04 	addi	r4,r4,31224
     be4:	e17ffb17 	ldw	r5,-20(fp)
     be8:	00055540 	call	5554 <printf>
    }
    #endif

    Dijstra_set_reset(base,0);
     bec:	e0ffff17 	ldw	r3,-4(fp)
     bf0:	008004f4 	movhi	r2,19
     bf4:	10b00d04 	addi	r2,r2,-16332
     bf8:	1885883a 	add	r2,r3,r2
     bfc:	10000035 	stwio	zero,0(r2)
#ifdef DEBUG_ON
    temp = Dijstra_reset(base);
     c00:	e0ffff17 	ldw	r3,-4(fp)
     c04:	008004f4 	movhi	r2,19
     c08:	10b00d04 	addi	r2,r2,-16332
     c0c:	1885883a 	add	r2,r3,r2
     c10:	10800037 	ldwio	r2,0(r2)
     c14:	e0bffb15 	stw	r2,-20(fp)
    if(temp != 0 )
     c18:	e0bffb17 	ldw	r2,-20(fp)
     c1c:	1005003a 	cmpeq	r2,r2,zero
     c20:	1000041e 	bne	r2,zero,c34 <shortestPathFind+0x210>
    {
    	printf("error : reset setting is failed value = %d \n", temp);
     c24:	01000074 	movhi	r4,1
     c28:	211e8b04 	addi	r4,r4,31276
     c2c:	e17ffb17 	ldw	r5,-20(fp)
     c30:	00055540 	call	5554 <printf>
    }
    #endif
    //now starting shortest path finding on FPGA
    Dijstra_set_reset(base,1);
     c34:	e0ffff17 	ldw	r3,-4(fp)
     c38:	008004f4 	movhi	r2,19
     c3c:	10b00d04 	addi	r2,r2,-16332
     c40:	1885883a 	add	r2,r3,r2
     c44:	1007883a 	mov	r3,r2
     c48:	00800044 	movi	r2,1
     c4c:	18800035 	stwio	r2,0(r3)
#ifdef DEBUG_ON
    temp = Dijstra_reset(base);
     c50:	e0ffff17 	ldw	r3,-4(fp)
     c54:	008004f4 	movhi	r2,19
     c58:	10b00d04 	addi	r2,r2,-16332
     c5c:	1885883a 	add	r2,r3,r2
     c60:	10800037 	ldwio	r2,0(r2)
     c64:	e0bffb15 	stw	r2,-20(fp)
    if(temp != 1 )
     c68:	e0bffb17 	ldw	r2,-20(fp)
     c6c:	10800060 	cmpeqi	r2,r2,1
     c70:	1000041e 	bne	r2,zero,c84 <shortestPathFind+0x260>
    {
    	printf("error : reset setting is failed value = %d \n", temp);
     c74:	01000074 	movhi	r4,1
     c78:	211e8b04 	addi	r4,r4,31276
     c7c:	e17ffb17 	ldw	r5,-20(fp)
     c80:	00055540 	call	5554 <printf>
    }
    #endif

    alt_u16 state =0 ;
     c84:	e03ffa0d 	sth	zero,-24(fp)
    int count = 0 ;
     c88:	e03ff915 	stw	zero,-28(fp)
    gettimeofday(&t1,NULL);
     c8c:	d1270404 	addi	r4,gp,-25584
     c90:	000b883a 	mov	r5,zero
     c94:	0013dac0 	call	13dac <gettimeofday>
    while(state != 7 /*&& count < 1000*/)  //state done
     c98:	00000706 	br	cb8 <shortestPathFind+0x294>
    {
//    	count ++ ;
    	state = Dijstra_state(base);
     c9c:	e0ffff17 	ldw	r3,-4(fp)
     ca0:	008004f4 	movhi	r2,19
     ca4:	10b00f04 	addi	r2,r2,-16324
     ca8:	1885883a 	add	r2,r3,r2
     cac:	10800037 	ldwio	r2,0(r2)
     cb0:	e0bffa0d 	sth	r2,-24(fp)
    	delay();
     cb4:	00002dc0 	call	2dc <delay>
    #endif

    alt_u16 state =0 ;
    int count = 0 ;
    gettimeofday(&t1,NULL);
    while(state != 7 /*&& count < 1000*/)  //state done
     cb8:	e0bffa0b 	ldhu	r2,-24(fp)
     cbc:	108001d8 	cmpnei	r2,r2,7
     cc0:	103ff61e 	bne	r2,zero,c9c <shortestPathFind+0x278>
    	delay();
#ifdef DEBUG_ON
//    	printf("current state = %d \n" , state);
#endif
    }
    gettimeofday(&t2,NULL);
     cc4:	d1270204 	addi	r4,gp,-25592
     cc8:	000b883a 	mov	r5,zero
     ccc:	0013dac0 	call	13dac <gettimeofday>
    double eval_time_ms ;
    eval_time_ms = (double)(t2.tv_usec - t1.tv_usec);
     cd0:	008000b4 	movhi	r2,2
     cd4:	10b01704 	addi	r2,r2,-16292
     cd8:	10c00017 	ldw	r3,0(r2)
     cdc:	008000b4 	movhi	r2,2
     ce0:	10b01904 	addi	r2,r2,-16284
     ce4:	10800017 	ldw	r2,0(r2)
     ce8:	1889c83a 	sub	r4,r3,r2
     cec:	0004f7c0 	call	4f7c <__floatsidf>
     cf0:	1009883a 	mov	r4,r2
     cf4:	180b883a 	mov	r5,r3
     cf8:	e13ff715 	stw	r4,-36(fp)
     cfc:	e17ff815 	stw	r5,-32(fp)
//    eval_time_ms /= 1000.0f ; // ms
    printf("end of shortest path finding\n");
     d00:	01000074 	movhi	r4,1
     d04:	211e9704 	addi	r4,r4,31324
     d08:	000566c0 	call	566c <puts>
    printf("elapsed time = %7.5f us \n",eval_time_ms);
     d0c:	01000074 	movhi	r4,1
     d10:	211e9f04 	addi	r4,r4,31356
     d14:	e17ff717 	ldw	r5,-36(fp)
     d18:	e1bff817 	ldw	r6,-32(fp)
     d1c:	00055540 	call	5554 <printf>

//    return 0 ;
    trans_count = 0 ;
     d20:	e03ffc15 	stw	zero,-16(fp)
    while(trans_count < max)
     d24:	00004906 	br	e4c <shortestPathFind+0x428>
    {
		#ifdef DEBUG_ON
    		printf("trans_count = %d \n" , trans_count);
     d28:	01000074 	movhi	r4,1
     d2c:	211ea604 	addi	r4,r4,31384
     d30:	e17ffc17 	ldw	r5,-16(fp)
     d34:	00055540 	call	5554 <printf>
    	#endif
    	Dijstra_set_clk_NIOS(base,1);
     d38:	e0ffff17 	ldw	r3,-4(fp)
     d3c:	008004f4 	movhi	r2,19
     d40:	10b00c04 	addi	r2,r2,-16336
     d44:	1885883a 	add	r2,r3,r2
     d48:	1007883a 	mov	r3,r2
     d4c:	00800044 	movi	r2,1
     d50:	18800035 	stwio	r2,0(r3)
    	delay();
     d54:	00002dc0 	call	2dc <delay>
    	neighbor[trans_count] = Dijstra_neighbor(base);
     d58:	e17ffc17 	ldw	r5,-16(fp)
     d5c:	e0ffff17 	ldw	r3,-4(fp)
     d60:	008004f4 	movhi	r2,19
     d64:	10b01004 	addi	r2,r2,-16320
     d68:	1885883a 	add	r2,r3,r2
     d6c:	10800037 	ldwio	r2,0(r2)
     d70:	1009883a 	mov	r4,r2
     d74:	00c000b4 	movhi	r3,2
     d78:	18f0c504 	addi	r3,r3,-15596
     d7c:	2945883a 	add	r2,r5,r5
     d80:	10c5883a 	add	r2,r2,r3
     d84:	1100000d 	sth	r4,0(r2)
#ifdef DEBUG_ON
    	printf("neighbor[%d] = %d \n" , trans_count,neighbor[trans_count]);
     d88:	e0bffc17 	ldw	r2,-16(fp)
     d8c:	00c000b4 	movhi	r3,2
     d90:	18f0c504 	addi	r3,r3,-15596
     d94:	1085883a 	add	r2,r2,r2
     d98:	10c5883a 	add	r2,r2,r3
     d9c:	1080000b 	ldhu	r2,0(r2)
     da0:	11bfffcc 	andi	r6,r2,65535
     da4:	01000074 	movhi	r4,1
     da8:	211eab04 	addi	r4,r4,31404
     dac:	e17ffc17 	ldw	r5,-16(fp)
     db0:	00055540 	call	5554 <printf>
#endif
    	distance[trans_count] = Dijstra_distance(base);
     db4:	e17ffc17 	ldw	r5,-16(fp)
     db8:	e0ffff17 	ldw	r3,-4(fp)
     dbc:	008004f4 	movhi	r2,19
     dc0:	10b01204 	addi	r2,r2,-16312
     dc4:	1885883a 	add	r2,r3,r2
     dc8:	10800037 	ldwio	r2,0(r2)
     dcc:	1009883a 	mov	r4,r2
     dd0:	00c000b4 	movhi	r3,2
     dd4:	18f0bd04 	addi	r3,r3,-15628
     dd8:	2945883a 	add	r2,r5,r5
     ddc:	10c5883a 	add	r2,r2,r3
     de0:	1100000d 	sth	r4,0(r2)
#ifdef DEBUG_ON
    	printf("distance[%d] = %d \n" , trans_count,distance[trans_count]);
     de4:	e0bffc17 	ldw	r2,-16(fp)
     de8:	00c000b4 	movhi	r3,2
     dec:	18f0bd04 	addi	r3,r3,-15628
     df0:	1085883a 	add	r2,r2,r2
     df4:	10c5883a 	add	r2,r2,r3
     df8:	1080000b 	ldhu	r2,0(r2)
     dfc:	11bfffcc 	andi	r6,r2,65535
     e00:	01000074 	movhi	r4,1
     e04:	211eb004 	addi	r4,r4,31424
     e08:	e17ffc17 	ldw	r5,-16(fp)
     e0c:	00055540 	call	5554 <printf>
#endif
    	trans_count++;
     e10:	e0bffc17 	ldw	r2,-16(fp)
     e14:	10800044 	addi	r2,r2,1
     e18:	e0bffc15 	stw	r2,-16(fp)
    	Dijstra_set_trans_count(base,trans_count);
     e1c:	e0ffff17 	ldw	r3,-4(fp)
     e20:	008004f4 	movhi	r2,19
     e24:	10b01104 	addi	r2,r2,-16316
     e28:	1885883a 	add	r2,r3,r2
     e2c:	1007883a 	mov	r3,r2
     e30:	e0bffc17 	ldw	r2,-16(fp)
     e34:	18800035 	stwio	r2,0(r3)
    	Dijstra_set_clk_NIOS(base,0);
     e38:	e0ffff17 	ldw	r3,-4(fp)
     e3c:	008004f4 	movhi	r2,19
     e40:	10b00c04 	addi	r2,r2,-16336
     e44:	1885883a 	add	r2,r3,r2
     e48:	10000035 	stwio	zero,0(r2)
    printf("end of shortest path finding\n");
    printf("elapsed time = %7.5f us \n",eval_time_ms);

//    return 0 ;
    trans_count = 0 ;
    while(trans_count < max)
     e4c:	e0bffc17 	ldw	r2,-16(fp)
     e50:	10800410 	cmplti	r2,r2,16
     e54:	103fb41e 	bne	r2,zero,d28 <shortestPathFind+0x304>
    	trans_count++;
    	Dijstra_set_trans_count(base,trans_count);
    	Dijstra_set_clk_NIOS(base,0);
    }
 //   return 0 ;
    printf("Shortest Path is :\n\n");
     e58:	01000074 	movhi	r4,1
     e5c:	211eb504 	addi	r4,r4,31444
     e60:	000566c0 	call	566c <puts>
    min_path(base,start,dest);
     e64:	e17ffd17 	ldw	r5,-12(fp)
     e68:	e1bffe17 	ldw	r6,-8(fp)
     e6c:	e13fff17 	ldw	r4,-4(fp)
     e70:	000080c0 	call	80c <min_path>
    printf("%d",dest);
     e74:	e17ffe17 	ldw	r5,-8(fp)
     e78:	01000074 	movhi	r4,1
     e7c:	211e3704 	addi	r4,r4,30940
     e80:	00055540 	call	5554 <printf>
    printf("\n\n");
     e84:	01000074 	movhi	r4,1
     e88:	211eba04 	addi	r4,r4,31464
     e8c:	000566c0 	call	566c <puts>
    return 1 ;
     e90:	00800044 	movi	r2,1
}
     e94:	e037883a 	mov	sp,fp
     e98:	dfc00117 	ldw	ra,4(sp)
     e9c:	df000017 	ldw	fp,0(sp)
     ea0:	dec00204 	addi	sp,sp,8
     ea4:	f800283a 	ret

00000ea8 <main>:
//
//                                Main function
//
//----------------------------------------------------------------------------------------//
int main(void)
{
     ea8:	defff804 	addi	sp,sp,-32
     eac:	dfc00715 	stw	ra,28(sp)
     eb0:	df000615 	stw	fp,24(sp)
     eb4:	df000604 	addi	fp,sp,24
    alt_u16 intStat;
    alt_u16 usb_ctl_val;
    static alt_u16 ctl_reg = 0;
    static alt_u16 no_device = 0;
    alt_u16 fs_device = 0;
     eb8:	e03ffe0d 	sth	zero,-8(fp)
    int button_value;
    alt_u16 px = 320;
     ebc:	00805004 	movi	r2,320
     ec0:	e0bffc0d 	sth	r2,-16(fp)
    alt_u16 py = 240; 
     ec4:	00803c04 	movi	r2,240
     ec8:	e0bffb8d 	sth	r2,-18(fp)
    signed char  dx = 0;
     ecc:	e03ffb05 	stb	zero,-20(fp)
    signed char  dy = 0; 
     ed0:	e03ffac5 	stb	zero,-21(fp)
    alt_u8  pbutton = 0;
     ed4:	e03ffa85 	stb	zero,-22(fp)
    alt_u8 toggle=0;
     ed8:	e03ffa45 	stb	zero,-23(fp)
    
    //VGA display initial
    
    VGA_Ctrl_Reg vga_ctrl_set;

    vga_ctrl_set.VGA_Ctrl_Flags.RED_ON    = 1;
     edc:	e0bfff83 	ldbu	r2,-2(fp)
     ee0:	10800054 	ori	r2,r2,1
     ee4:	e0bfff85 	stb	r2,-2(fp)
    vga_ctrl_set.VGA_Ctrl_Flags.GREEN_ON  = 1;
     ee8:	e0bfff83 	ldbu	r2,-2(fp)
     eec:	10800094 	ori	r2,r2,2
     ef0:	e0bfff85 	stb	r2,-2(fp)
    vga_ctrl_set.VGA_Ctrl_Flags.BLUE_ON   = 1;
     ef4:	e0bfff83 	ldbu	r2,-2(fp)
     ef8:	10800114 	ori	r2,r2,4
     efc:	e0bfff85 	stb	r2,-2(fp)
    vga_ctrl_set.VGA_Ctrl_Flags.CURSOR_ON = 1;
     f00:	e0bfff83 	ldbu	r2,-2(fp)
     f04:	10800214 	ori	r2,r2,8
     f08:	e0bfff85 	stb	r2,-2(fp)

    Vga_Write_Ctrl(VPG_BASE, vga_ctrl_set.Value);
     f0c:	e0bfff83 	ldbu	r2,-2(fp)
     f10:	10c03fcc 	andi	r3,r2,255
     f14:	008244f4 	movhi	r2,2323
     f18:	10b00004 	addi	r2,r2,-16384
     f1c:	10c00035 	stwio	r3,0(r2)
    Vga_clear_screen(VPG_BASE); //clear the screen
     f20:	01024034 	movhi	r4,2304
     f24:	00002540 	call	254 <Vga_clear_screen>
    Set_Pixel_On_Color(512,512,512);
     f28:	01008004 	movi	r4,512
     f2c:	01408004 	movi	r5,512
     f30:	01808004 	movi	r6,512
     f34:	0004ecc0 	call	4ecc <Set_Pixel_On_Color>
    Set_Pixel_Off_Color(0,0,0);
     f38:	0009883a 	mov	r4,zero
     f3c:	000b883a 	mov	r5,zero
     f40:	000d883a 	mov	r6,zero
     f44:	0004f240 	call	4f24 <Set_Pixel_Off_Color>
    Set_Cursor_Color(0,1023,0);
     f48:	0009883a 	mov	r4,zero
     f4c:	0140ffc4 	movi	r5,1023
     f50:	000d883a 	mov	r6,zero
     f54:	0004e740 	call	4e74 <Set_Cursor_Color>
    LCD_Test();
     f58:	0004acc0 	call	4acc <LCD_Test>
    //newly added code
    shortestPathFind(VPG_BASE);
     f5c:	01024034 	movhi	r4,2304
     f60:	0000a240 	call	a24 <shortestPathFind>
     f64:	00000006 	br	f68 <main+0xc0>
    //end
    //--------------------------------------------------------------------------------------------------------//
    //----------------------------------------SIE1 initial----------------------------------------------------//
USB_HOT_PLUG:
    UsbSoftReset();
     f68:	00048b00 	call	48b0 <UsbSoftReset>
    UsbWrite (HPI_SIE1_MSG_ADR, 0);
     f6c:	01005104 	movi	r4,324
     f70:	000b883a 	mov	r5,zero
     f74:	000482c0 	call	482c <UsbWrite>
    UsbWrite (HOST1_STAT_REG, 0xFFFF);
     f78:	01302414 	movui	r4,49296
     f7c:	017fffd4 	movui	r5,65535
     f80:	000482c0 	call	482c <UsbWrite>
              
    /* Set HUSB_pEOT time */
    UsbWrite(HUSB_pEOT, 600); // adjust the according to your USB device speed
     f84:	01006d04 	movi	r4,436
     f88:	01409604 	movi	r5,600
     f8c:	000482c0 	call	482c <UsbWrite>
     
    usb_ctl_val = SOFEOP1_TO_CPU_EN | RESUME1_TO_HPI_EN;// | SOFEOP1_TO_HPI_EN;
     f90:	00811004 	movi	r2,1088
     f94:	e0bffe8d 	sth	r2,-6(fp)
    UsbWrite(HPI_IRQ_ROUTING_REG, usb_ctl_val);
     f98:	e17ffe8b 	ldhu	r5,-6(fp)
     f9c:	01005084 	movi	r4,322
     fa0:	000482c0 	call	482c <UsbWrite>
    
    intStat = A_CHG_IRQ_EN | SOF_EOP_IRQ_EN ;
     fa4:	00808404 	movi	r2,528
     fa8:	e0bfff0d 	sth	r2,-4(fp)
    UsbWrite(HOST1_IRQ_EN_REG, intStat); 
     fac:	e17fff0b 	ldhu	r5,-4(fp)
     fb0:	01302314 	movui	r4,49292
     fb4:	000482c0 	call	482c <UsbWrite>

    UsbWrite(COMM_R0,0x0000);//reset time 
     fb8:	01007104 	movi	r4,452
     fbc:	000b883a 	mov	r5,zero
     fc0:	000482c0 	call	482c <UsbWrite>
    UsbWrite(COMM_R1,0x0000);  //port number
     fc4:	01007184 	movi	r4,454
     fc8:	000b883a 	mov	r5,zero
     fcc:	000482c0 	call	482c <UsbWrite>
    UsbWrite(COMM_R2,0x0000);  //r1
     fd0:	01007204 	movi	r4,456
     fd4:	000b883a 	mov	r5,zero
     fd8:	000482c0 	call	482c <UsbWrite>
    UsbWrite(COMM_R3,0x0000);  //r1
     fdc:	01007284 	movi	r4,458
     fe0:	000b883a 	mov	r5,zero
     fe4:	000482c0 	call	482c <UsbWrite>
    UsbWrite(COMM_R4,0x0000);  //r1
     fe8:	01007304 	movi	r4,460
     fec:	000b883a 	mov	r5,zero
     ff0:	000482c0 	call	482c <UsbWrite>
    UsbWrite(COMM_R5,0x0000);  //r1
     ff4:	01007384 	movi	r4,462
     ff8:	000b883a 	mov	r5,zero
     ffc:	000482c0 	call	482c <UsbWrite>
    UsbWrite(COMM_R6,0x0000);  //r1
    1000:	01007404 	movi	r4,464
    1004:	000b883a 	mov	r5,zero
    1008:	000482c0 	call	482c <UsbWrite>
    UsbWrite(COMM_R7,0x0000);  //r1
    100c:	01007484 	movi	r4,466
    1010:	000b883a 	mov	r5,zero
    1014:	000482c0 	call	482c <UsbWrite>
    UsbWrite(COMM_R8,0x0000);  //r1
    1018:	01007504 	movi	r4,468
    101c:	000b883a 	mov	r5,zero
    1020:	000482c0 	call	482c <UsbWrite>
    UsbWrite(COMM_R9,0x0000);  //r1
    1024:	01007584 	movi	r4,470
    1028:	000b883a 	mov	r5,zero
    102c:	000482c0 	call	482c <UsbWrite>
    UsbWrite(COMM_R10,0x0000);  //r1
    1030:	01007604 	movi	r4,472
    1034:	000b883a 	mov	r5,zero
    1038:	000482c0 	call	482c <UsbWrite>
    UsbWrite(COMM_R11,0x0000);  //r1
    103c:	01007684 	movi	r4,474
    1040:	000b883a 	mov	r5,zero
    1044:	000482c0 	call	482c <UsbWrite>
    UsbWrite(COMM_R12,0x0000);  //r1
    1048:	01007704 	movi	r4,476
    104c:	000b883a 	mov	r5,zero
    1050:	000482c0 	call	482c <UsbWrite>
    UsbWrite(COMM_R13,0x0000);  //r1    
    1054:	01007784 	movi	r4,478
    1058:	000b883a 	mov	r5,zero
    105c:	000482c0 	call	482c <UsbWrite>
    UsbWrite(COMM_INT_NUM,HUSB_SIE1_INIT_INT); //HUSB_SIE1_INIT_INT
    1060:	01007084 	movi	r4,450
    1064:	01401c84 	movi	r5,114
    1068:	000482c0 	call	482c <UsbWrite>
    IOWR(CY7C67200_BASE,HPI_MAILBOX,0xCE01);
    106c:	00c24834 	movhi	r3,2336
    1070:	18c01d04 	addi	r3,r3,116
    1074:	00b38054 	movui	r2,52737
    1078:	18800035 	stwio	r2,0(r3)
     
    while (!(IORD(CY7C67200_BASE,HPI_STATUS) & 0xFFFF) )  //read sie1 msg register
    107c:	00824834 	movhi	r2,2336
    1080:	10801f04 	addi	r2,r2,124
    1084:	10800037 	ldwio	r2,0(r2)
    1088:	10bfffcc 	andi	r2,r2,65535
    108c:	1005003a 	cmpeq	r2,r2,zero
    1090:	103ffa1e 	bne	r2,zero,107c <main+0x1d4>
    {
    }
    while (IORD(CY7C67200_BASE,HPI_MAILBOX) != COMM_ACK) 
    1094:	00824834 	movhi	r2,2336
    1098:	10801d04 	addi	r2,r2,116
    109c:	10800037 	ldwio	r2,0(r2)
    10a0:	1083fb60 	cmpeqi	r2,r2,4077
    10a4:	1000071e 	bne	r2,zero,10c4 <main+0x21c>
    {
        printf("[ERROR]:routine mailbox data is %x\n",IORD(CY7C67200_BASE,HPI_MAILBOX));
    10a8:	00824834 	movhi	r2,2336
    10ac:	10801d04 	addi	r2,r2,116
    10b0:	11400037 	ldwio	r5,0(r2)
    10b4:	01000074 	movhi	r4,1
    10b8:	211ebb04 	addi	r4,r4,31468
    10bc:	00055540 	call	5554 <printf>
        goto USB_HOT_PLUG;
    10c0:	003fa906 	br	f68 <main+0xc0>
    }
    
  
    //usleep(30*1000);    
    UsbWrite(COMM_INT_NUM,HUSB_RESET_INT); //husb reset
    10c4:	01007084 	movi	r4,450
    10c8:	01401d04 	movi	r5,116
    10cc:	000482c0 	call	482c <UsbWrite>
    UsbWrite(COMM_R0,0x003c);//reset time 
    10d0:	01007104 	movi	r4,452
    10d4:	01400f04 	movi	r5,60
    10d8:	000482c0 	call	482c <UsbWrite>
    UsbWrite(COMM_R1,0x0000);  //port number
    10dc:	01007184 	movi	r4,454
    10e0:	000b883a 	mov	r5,zero
    10e4:	000482c0 	call	482c <UsbWrite>
    UsbWrite(COMM_R2,0x0000);  //r1
    10e8:	01007204 	movi	r4,456
    10ec:	000b883a 	mov	r5,zero
    10f0:	000482c0 	call	482c <UsbWrite>
    UsbWrite(COMM_R3,0x0000);  //r1
    10f4:	01007284 	movi	r4,458
    10f8:	000b883a 	mov	r5,zero
    10fc:	000482c0 	call	482c <UsbWrite>
    UsbWrite(COMM_R4,0x0000);  //r1
    1100:	01007304 	movi	r4,460
    1104:	000b883a 	mov	r5,zero
    1108:	000482c0 	call	482c <UsbWrite>
    UsbWrite(COMM_R5,0x0000);  //r1
    110c:	01007384 	movi	r4,462
    1110:	000b883a 	mov	r5,zero
    1114:	000482c0 	call	482c <UsbWrite>
    UsbWrite(COMM_R6,0x0000);  //r1
    1118:	01007404 	movi	r4,464
    111c:	000b883a 	mov	r5,zero
    1120:	000482c0 	call	482c <UsbWrite>
    UsbWrite(COMM_R7,0x0000);  //r1
    1124:	01007484 	movi	r4,466
    1128:	000b883a 	mov	r5,zero
    112c:	000482c0 	call	482c <UsbWrite>
    UsbWrite(COMM_R8,0x0000);  //r1
    1130:	01007504 	movi	r4,468
    1134:	000b883a 	mov	r5,zero
    1138:	000482c0 	call	482c <UsbWrite>
    UsbWrite(COMM_R9,0x0000);  //r1
    113c:	01007584 	movi	r4,470
    1140:	000b883a 	mov	r5,zero
    1144:	000482c0 	call	482c <UsbWrite>
    UsbWrite(COMM_R10,0x0000);  //r1
    1148:	01007604 	movi	r4,472
    114c:	000b883a 	mov	r5,zero
    1150:	000482c0 	call	482c <UsbWrite>
    UsbWrite(COMM_R11,0x0000);  //r1
    1154:	01007684 	movi	r4,474
    1158:	000b883a 	mov	r5,zero
    115c:	000482c0 	call	482c <UsbWrite>
    UsbWrite(COMM_R12,0x0000);  //r1
    1160:	01007704 	movi	r4,476
    1164:	000b883a 	mov	r5,zero
    1168:	000482c0 	call	482c <UsbWrite>
    UsbWrite(COMM_R13,0x0000);  //r1    
    116c:	01007784 	movi	r4,478
    1170:	000b883a 	mov	r5,zero
    1174:	000482c0 	call	482c <UsbWrite>

    IOWR(CY7C67200_BASE,HPI_MAILBOX,0xCE01);
    1178:	00c24834 	movhi	r3,2336
    117c:	18c01d04 	addi	r3,r3,116
    1180:	00b38054 	movui	r2,52737
    1184:	18800035 	stwio	r2,0(r3)
  
    while (IORD(CY7C67200_BASE,HPI_MAILBOX) != COMM_ACK) 
    1188:	00824834 	movhi	r2,2336
    118c:	10801d04 	addi	r2,r2,116
    1190:	10800037 	ldwio	r2,0(r2)
    1194:	1083fb60 	cmpeqi	r2,r2,4077
    1198:	1000071e 	bne	r2,zero,11b8 <main+0x310>
    {
        printf("[ERROR]:routine mailbox data is %x\n",IORD(CY7C67200_BASE,HPI_MAILBOX));
    119c:	00824834 	movhi	r2,2336
    11a0:	10801d04 	addi	r2,r2,116
    11a4:	11400037 	ldwio	r5,0(r2)
    11a8:	01000074 	movhi	r4,1
    11ac:	211ebb04 	addi	r4,r4,31468
    11b0:	00055540 	call	5554 <printf>
        goto USB_HOT_PLUG;
    11b4:	003f6c06 	br	f68 <main+0xc0>
    }

    //usleep(30*1000);    
    ctl_reg = USB1_CTL_REG;
    11b8:	00b02284 	movi	r2,-16246
    11bc:	d0a7018d 	sth	r2,-25594(gp)
    no_device = (A_DP_STAT | A_DM_STAT);
    11c0:	008c0004 	movi	r2,12288
    11c4:	d0a7010d 	sth	r2,-25596(gp)
    fs_device = A_DP_STAT;
    11c8:	00880004 	movi	r2,8192
    11cc:	e0bffe0d 	sth	r2,-8(fp)
    
    usb_ctl_val = UsbRead(ctl_reg);
    11d0:	d0a7018b 	ldhu	r2,-25594(gp)
    11d4:	113fffcc 	andi	r4,r2,65535
    11d8:	00048700 	call	4870 <UsbRead>
    11dc:	e0bffe8d 	sth	r2,-6(fp)
   
    if (!(usb_ctl_val & no_device))
    11e0:	d0e7010b 	ldhu	r3,-25596(gp)
    11e4:	e0bffe8b 	ldhu	r2,-6(fp)
    11e8:	1884703a 	and	r2,r3,r2
    11ec:	10bfffcc 	andi	r2,r2,65535
    11f0:	1004c03a 	cmpne	r2,r2,zero
    11f4:	10001a1e 	bne	r2,zero,1260 <main+0x3b8>
    {
      printf("\n[INFO]: no device is present in SIE1!\n");
    11f8:	01000074 	movhi	r4,1
    11fc:	211ec404 	addi	r4,r4,31504
    1200:	000566c0 	call	566c <puts>
      printf("[INFO]: please insert a USB mouse in SIE1!\n");
    1204:	01000074 	movhi	r4,1
    1208:	211ece04 	addi	r4,r4,31544
    120c:	000566c0 	call	566c <puts>
      while (!(usb_ctl_val & no_device))
    1210:	00000c06 	br	1244 <main+0x39c>
      {
       
         usb_ctl_val = UsbRead(ctl_reg);
    1214:	d0a7018b 	ldhu	r2,-25594(gp)
    1218:	113fffcc 	andi	r4,r2,65535
    121c:	00048700 	call	4870 <UsbRead>
    1220:	e0bffe8d 	sth	r2,-6(fp)
         if(usb_ctl_val & no_device)
    1224:	d0e7010b 	ldhu	r3,-25596(gp)
    1228:	e0bffe8b 	ldhu	r2,-6(fp)
    122c:	1884703a 	and	r2,r3,r2
    1230:	10bfffcc 	andi	r2,r2,65535
    1234:	1004c03a 	cmpne	r2,r2,zero
    1238:	103f4b1e 	bne	r2,zero,f68 <main+0xc0>
           goto USB_HOT_PLUG;
       
         usleep(2000);
    123c:	0101f404 	movi	r4,2000
    1240:	00148100 	call	14810 <usleep>
   
    if (!(usb_ctl_val & no_device))
    {
      printf("\n[INFO]: no device is present in SIE1!\n");
      printf("[INFO]: please insert a USB mouse in SIE1!\n");
      while (!(usb_ctl_val & no_device))
    1244:	d0e7010b 	ldhu	r3,-25596(gp)
    1248:	e0bffe8b 	ldhu	r2,-6(fp)
    124c:	1884703a 	and	r2,r3,r2
    1250:	10bfffcc 	andi	r2,r2,65535
    1254:	1005003a 	cmpeq	r2,r2,zero
    1258:	103fee1e 	bne	r2,zero,1214 <main+0x36c>
    125c:	00000d06 	br	1294 <main+0x3ec>
      }
    }
    else
    {
        /* check for low speed or full speed by reading D+ and D- lines */    
        if (usb_ctl_val & fs_device)
    1260:	e0fffe8b 	ldhu	r3,-6(fp)
    1264:	e0bffe0b 	ldhu	r2,-8(fp)
    1268:	1884703a 	and	r2,r3,r2
    126c:	10bfffcc 	andi	r2,r2,65535
    1270:	1005003a 	cmpeq	r2,r2,zero
    1274:	1000041e 	bne	r2,zero,1288 <main+0x3e0>
        {
            printf("[INFO]: full speed device\n");
    1278:	01000074 	movhi	r4,1
    127c:	211ed904 	addi	r4,r4,31588
    1280:	000566c0 	call	566c <puts>
    1284:	00000306 	br	1294 <main+0x3ec>
            
        }
        else
        {
            printf("[INFO]: low speed device\n");            
    1288:	01000074 	movhi	r4,1
    128c:	211ee004 	addi	r4,r4,31616
    1290:	000566c0 	call	566c <puts>

    //printf("[SIE1 INIT]:USB 1 Control Register reg is %x\n",UsbRead(0xC08A));
    
    //------------------------------------------------------set address -----------------------------------------------------------------
    //the starting address
    IOWR(CY7C67200_BASE,HPI_ADDR,0x0500); //the start address       
    1294:	00c24834 	movhi	r3,2336
    1298:	18c01e04 	addi	r3,r3,120
    129c:	00814004 	movi	r2,1280
    12a0:	18800035 	stwio	r2,0(r3)
    IOWR(CY7C67200_BASE,HPI_DATA,0x050C); 
    12a4:	00c24834 	movhi	r3,2336
    12a8:	18c01c04 	addi	r3,r3,112
    12ac:	00814304 	movi	r2,1292
    12b0:	18800035 	stwio	r2,0(r3)
    IOWR(CY7C67200_BASE,HPI_DATA,0x0008); //4 port number
    12b4:	00c24834 	movhi	r3,2336
    12b8:	18c01c04 	addi	r3,r3,112
    12bc:	00800204 	movi	r2,8
    12c0:	18800035 	stwio	r2,0(r3)
    IOWR(CY7C67200_BASE,HPI_DATA,0x00D0);
    12c4:	00c24834 	movhi	r3,2336
    12c8:	18c01c04 	addi	r3,r3,112
    12cc:	00803404 	movi	r2,208
    12d0:	18800035 	stwio	r2,0(r3)
    IOWR(CY7C67200_BASE,HPI_DATA,0x0001);
    12d4:	00c24834 	movhi	r3,2336
    12d8:	18c01c04 	addi	r3,r3,112
    12dc:	00800044 	movi	r2,1
    12e0:	18800035 	stwio	r2,0(r3)
    IOWR(CY7C67200_BASE,HPI_DATA,0x0013);
    12e4:	00c24834 	movhi	r3,2336
    12e8:	18c01c04 	addi	r3,r3,112
    12ec:	008004c4 	movi	r2,19
    12f0:	18800035 	stwio	r2,0(r3)
    IOWR(CY7C67200_BASE,HPI_DATA,0x0514);
    12f4:	00c24834 	movhi	r3,2336
    12f8:	18c01c04 	addi	r3,r3,112
    12fc:	00814504 	movi	r2,1300
    1300:	18800035 	stwio	r2,0(r3)
    
    //td content 4 bytes
    IOWR(CY7C67200_BASE,HPI_DATA,0x0500);
    1304:	00c24834 	movhi	r3,2336
    1308:	18c01c04 	addi	r3,r3,112
    130c:	00814004 	movi	r2,1280
    1310:	18800035 	stwio	r2,0(r3)
    IOWR(CY7C67200_BASE,HPI_DATA,0x0002);//device address   
    1314:	00c24834 	movhi	r3,2336
    1318:	18c01c04 	addi	r3,r3,112
    131c:	00800084 	movi	r2,2
    1320:	18800035 	stwio	r2,0(r3)
    IOWR(CY7C67200_BASE,HPI_DATA,0x0000);
    1324:	00824834 	movhi	r2,2336
    1328:	10801c04 	addi	r2,r2,112
    132c:	10000035 	stwio	zero,0(r2)
    IOWR(CY7C67200_BASE,HPI_DATA,0x0000);
    1330:	00824834 	movhi	r2,2336
    1334:	10801c04 	addi	r2,r2,112
    1338:	10000035 	stwio	zero,0(r2)
    
    IOWR(CY7C67200_BASE,HPI_DATA,0x0000); //don't care
    133c:	00824834 	movhi	r2,2336
    1340:	10801c04 	addi	r2,r2,112
    1344:	10000035 	stwio	zero,0(r2)
    IOWR(CY7C67200_BASE,HPI_DATA,0x0000);//port number
    1348:	00824834 	movhi	r2,2336
    134c:	10801c04 	addi	r2,r2,112
    1350:	10000035 	stwio	zero,0(r2)
    IOWR(CY7C67200_BASE,HPI_DATA,0x0090);//device address
    1354:	00c24834 	movhi	r3,2336
    1358:	18c01c04 	addi	r3,r3,112
    135c:	00802404 	movi	r2,144
    1360:	18800035 	stwio	r2,0(r3)
    IOWR(CY7C67200_BASE,HPI_DATA,0x0041);
    1364:	00c24834 	movhi	r3,2336
    1368:	18c01c04 	addi	r3,r3,112
    136c:	00801044 	movi	r2,65
    1370:	18800035 	stwio	r2,0(r3)
    IOWR(CY7C67200_BASE,HPI_DATA,0x0013);
    1374:	00c24834 	movhi	r3,2336
    1378:	18c01c04 	addi	r3,r3,112
    137c:	008004c4 	movi	r2,19
    1380:	18800035 	stwio	r2,0(r3)
    IOWR(CY7C67200_BASE,HPI_DATA,0x0000);
    1384:	00824834 	movhi	r2,2336
    1388:	10801c04 	addi	r2,r2,112
    138c:	10000035 	stwio	zero,0(r2)
     
    UsbWrite(HUSB_SIE1_pCurrentTDPtr,0x0500); //HUSB_SIE1_pCurrentTDPtr
    1390:	01006c04 	movi	r4,432
    1394:	01414004 	movi	r5,1280
    1398:	000482c0 	call	482c <UsbWrite>
    
   
    while (!(IORD(CY7C67200_BASE,HPI_STATUS) & HPI_STATUS_SIE1msg_FLAG) )  //read sie1 msg register
    139c:	00004406 	br	14b0 <main+0x608>
    {
        //the starting address
           IOWR(CY7C67200_BASE,HPI_ADDR,0x0500); //the start address       
    13a0:	00c24834 	movhi	r3,2336
    13a4:	18c01e04 	addi	r3,r3,120
    13a8:	00814004 	movi	r2,1280
    13ac:	18800035 	stwio	r2,0(r3)
           IOWR(CY7C67200_BASE,HPI_DATA,0x050C); 
    13b0:	00c24834 	movhi	r3,2336
    13b4:	18c01c04 	addi	r3,r3,112
    13b8:	00814304 	movi	r2,1292
    13bc:	18800035 	stwio	r2,0(r3)
           IOWR(CY7C67200_BASE,HPI_DATA,0x0008); //4 port number
    13c0:	00c24834 	movhi	r3,2336
    13c4:	18c01c04 	addi	r3,r3,112
    13c8:	00800204 	movi	r2,8
    13cc:	18800035 	stwio	r2,0(r3)
           IOWR(CY7C67200_BASE,HPI_DATA,0x00D0);
    13d0:	00c24834 	movhi	r3,2336
    13d4:	18c01c04 	addi	r3,r3,112
    13d8:	00803404 	movi	r2,208
    13dc:	18800035 	stwio	r2,0(r3)
           IOWR(CY7C67200_BASE,HPI_DATA,0x0001);
    13e0:	00c24834 	movhi	r3,2336
    13e4:	18c01c04 	addi	r3,r3,112
    13e8:	00800044 	movi	r2,1
    13ec:	18800035 	stwio	r2,0(r3)
           IOWR(CY7C67200_BASE,HPI_DATA,0x0013);
    13f0:	00c24834 	movhi	r3,2336
    13f4:	18c01c04 	addi	r3,r3,112
    13f8:	008004c4 	movi	r2,19
    13fc:	18800035 	stwio	r2,0(r3)
           IOWR(CY7C67200_BASE,HPI_DATA,0x0514); 
    1400:	00c24834 	movhi	r3,2336
    1404:	18c01c04 	addi	r3,r3,112
    1408:	00814504 	movi	r2,1300
    140c:	18800035 	stwio	r2,0(r3)
    
           //td content 4 bytes
           IOWR(CY7C67200_BASE,HPI_DATA,0x0500);
    1410:	00c24834 	movhi	r3,2336
    1414:	18c01c04 	addi	r3,r3,112
    1418:	00814004 	movi	r2,1280
    141c:	18800035 	stwio	r2,0(r3)
           IOWR(CY7C67200_BASE,HPI_DATA,0x0002);//device address   
    1420:	00c24834 	movhi	r3,2336
    1424:	18c01c04 	addi	r3,r3,112
    1428:	00800084 	movi	r2,2
    142c:	18800035 	stwio	r2,0(r3)
           IOWR(CY7C67200_BASE,HPI_DATA,0x0000);
    1430:	00824834 	movhi	r2,2336
    1434:	10801c04 	addi	r2,r2,112
    1438:	10000035 	stwio	zero,0(r2)
           IOWR(CY7C67200_BASE,HPI_DATA,0x0000);
    143c:	00824834 	movhi	r2,2336
    1440:	10801c04 	addi	r2,r2,112
    1444:	10000035 	stwio	zero,0(r2)
           //IN 
           IOWR(CY7C67200_BASE,HPI_DATA,0x0000); //don't care
    1448:	00824834 	movhi	r2,2336
    144c:	10801c04 	addi	r2,r2,112
    1450:	10000035 	stwio	zero,0(r2)
           IOWR(CY7C67200_BASE,HPI_DATA,0x0000);//port number
    1454:	00824834 	movhi	r2,2336
    1458:	10801c04 	addi	r2,r2,112
    145c:	10000035 	stwio	zero,0(r2)
           IOWR(CY7C67200_BASE,HPI_DATA,0x0090);//device address
    1460:	00c24834 	movhi	r3,2336
    1464:	18c01c04 	addi	r3,r3,112
    1468:	00802404 	movi	r2,144
    146c:	18800035 	stwio	r2,0(r3)
           IOWR(CY7C67200_BASE,HPI_DATA,0x0041);
    1470:	00c24834 	movhi	r3,2336
    1474:	18c01c04 	addi	r3,r3,112
    1478:	00801044 	movi	r2,65
    147c:	18800035 	stwio	r2,0(r3)
           IOWR(CY7C67200_BASE,HPI_DATA,0x0013);
    1480:	00c24834 	movhi	r3,2336
    1484:	18c01c04 	addi	r3,r3,112
    1488:	008004c4 	movi	r2,19
    148c:	18800035 	stwio	r2,0(r3)
           IOWR(CY7C67200_BASE,HPI_DATA,0x0000);
    1490:	00824834 	movhi	r2,2336
    1494:	10801c04 	addi	r2,r2,112
    1498:	10000035 	stwio	zero,0(r2)
        
           UsbWrite(HUSB_SIE1_pCurrentTDPtr,0x0500); //HUSB_SIE1_pCurrentTDPtr 
    149c:	01006c04 	movi	r4,432
    14a0:	01414004 	movi	r5,1280
    14a4:	000482c0 	call	482c <UsbWrite>
           usleep(10*1000);
    14a8:	0109c404 	movi	r4,10000
    14ac:	00148100 	call	14810 <usleep>
    IOWR(CY7C67200_BASE,HPI_DATA,0x0000);
     
    UsbWrite(HUSB_SIE1_pCurrentTDPtr,0x0500); //HUSB_SIE1_pCurrentTDPtr
    
   
    while (!(IORD(CY7C67200_BASE,HPI_STATUS) & HPI_STATUS_SIE1msg_FLAG) )  //read sie1 msg register
    14b0:	00824834 	movhi	r2,2336
    14b4:	10801f04 	addi	r2,r2,124
    14b8:	10800037 	ldwio	r2,0(r2)
    14bc:	1080040c 	andi	r2,r2,16
    14c0:	1005003a 	cmpeq	r2,r2,zero
    14c4:	103fb61e 	bne	r2,zero,13a0 <main+0x4f8>
           UsbWrite(HUSB_SIE1_pCurrentTDPtr,0x0500); //HUSB_SIE1_pCurrentTDPtr 
           usleep(10*1000);
    }
    
    //UsbRead(0x01B8);
    usb_ctl_val = UsbRead(HPI_SIE1_MSG_ADR);
    14c8:	01005104 	movi	r4,324
    14cc:	00048700 	call	4870 <UsbRead>
    14d0:	e0bffe8d 	sth	r2,-6(fp)
    UsbWrite(HPI_SIE1_MSG_ADR, 0);
    14d4:	01005104 	movi	r4,324
    14d8:	000b883a 	mov	r5,zero
    14dc:	000482c0 	call	482c <UsbWrite>
    while (usb_ctl_val != 0x1000)  //read sie1 msg register
    14e0:	00000d06 	br	1518 <main+0x670>
    {
       if(usb_ctl_val == 0x000)
    14e4:	e0bffe8b 	ldhu	r2,-6(fp)
    14e8:	1005003a 	cmpeq	r2,r2,zero
    14ec:	1000041e 	bne	r2,zero,1500 <main+0x658>
       {
       }
       else
       {
        printf("[SIE1 MSG]:SIE1 msg reg is %x\n",usb_ctl_val);
    14f0:	e17ffe8b 	ldhu	r5,-6(fp)
    14f4:	01000074 	movhi	r4,1
    14f8:	211ee704 	addi	r4,r4,31644
    14fc:	00055540 	call	5554 <printf>
       }
       usb_ctl_val = UsbRead(HPI_SIE1_MSG_ADR);
    1500:	01005104 	movi	r4,324
    1504:	00048700 	call	4870 <UsbRead>
    1508:	e0bffe8d 	sth	r2,-6(fp)
       UsbWrite(HPI_SIE1_MSG_ADR, 0);
    150c:	01005104 	movi	r4,324
    1510:	000b883a 	mov	r5,zero
    1514:	000482c0 	call	482c <UsbWrite>
    }
    
    //UsbRead(0x01B8);
    usb_ctl_val = UsbRead(HPI_SIE1_MSG_ADR);
    UsbWrite(HPI_SIE1_MSG_ADR, 0);
    while (usb_ctl_val != 0x1000)  //read sie1 msg register
    1518:	e0bffe8b 	ldhu	r2,-6(fp)
    151c:	10840018 	cmpnei	r2,r2,4096
    1520:	103ff01e 	bne	r2,zero,14e4 <main+0x63c>
       UsbWrite(HPI_SIE1_MSG_ADR, 0);
       //goto USB_HOT_PLUG;
      
    }

    IOWR(CY7C67200_BASE,HPI_ADDR,0x0506);
    1524:	00c24834 	movhi	r3,2336
    1528:	18c01e04 	addi	r3,r3,120
    152c:	00814184 	movi	r2,1286
    1530:	18800035 	stwio	r2,0(r3)
    printf("[ENUM PROCESS]:step 3 TD Status Byte is %x\n",IORD(CY7C67200_BASE,HPI_DATA));
    1534:	00824834 	movhi	r2,2336
    1538:	10801c04 	addi	r2,r2,112
    153c:	11400037 	ldwio	r5,0(r2)
    1540:	01000074 	movhi	r4,1
    1544:	211eef04 	addi	r4,r4,31676
    1548:	00055540 	call	5554 <printf>
    
    IOWR(CY7C67200_BASE,HPI_ADDR,0x0508);
    154c:	00c24834 	movhi	r3,2336
    1550:	18c01e04 	addi	r3,r3,120
    1554:	00814204 	movi	r2,1288
    1558:	18800035 	stwio	r2,0(r3)
    usb_ctl_val = IORD(CY7C67200_BASE,HPI_DATA);
    155c:	00824834 	movhi	r2,2336
    1560:	10801c04 	addi	r2,r2,112
    1564:	10800037 	ldwio	r2,0(r2)
    1568:	e0bffe8d 	sth	r2,-6(fp)
    printf("[ENUM PROCESS]:step 3 TD Control Byte is %x\n",usb_ctl_val);
    156c:	e17ffe8b 	ldhu	r5,-6(fp)
    1570:	01000074 	movhi	r4,1
    1574:	211efa04 	addi	r4,r4,31720
    1578:	00055540 	call	5554 <printf>
    while (usb_ctl_val != 0x03) 
    157c:	e0bffe8b 	ldhu	r2,-6(fp)
    1580:	108000e0 	cmpeqi	r2,r2,3
    1584:	10001a1e 	bne	r2,zero,15f0 <main+0x748>
    {
       IORD(CY7C67200_BASE,HPI_STATUS);
    1588:	00824834 	movhi	r2,2336
    158c:	10801f04 	addi	r2,r2,124
    1590:	10800037 	ldwio	r2,0(r2)
       if(UsbRead(HPI_SIE1_MSG_ADR) == 0x1000)
    1594:	01005104 	movi	r4,324
    1598:	00048700 	call	4870 <UsbRead>
    159c:	10bfffcc 	andi	r2,r2,65535
    15a0:	10840018 	cmpnei	r2,r2,4096
    15a4:	1000091e 	bne	r2,zero,15cc <main+0x724>
       {
           UsbWrite(HPI_SIE1_MSG_ADR, 0);
    15a8:	01005104 	movi	r4,324
    15ac:	000b883a 	mov	r5,zero
    15b0:	000482c0 	call	482c <UsbWrite>
           
           while (!(IORD(CY7C67200_BASE,HPI_STATUS) & HPI_STATUS_SIE1msg_FLAG) )  //read sie1 msg register
    15b4:	00824834 	movhi	r2,2336
    15b8:	10801f04 	addi	r2,r2,124
    15bc:	10800037 	ldwio	r2,0(r2)
    15c0:	1080040c 	andi	r2,r2,16
    15c4:	1005003a 	cmpeq	r2,r2,zero
    15c8:	103ffa1e 	bne	r2,zero,15b4 <main+0x70c>
           {
           }
        }
           //usleep(1000);
           IOWR(CY7C67200_BASE,HPI_ADDR,0x0508);
    15cc:	00c24834 	movhi	r3,2336
    15d0:	18c01e04 	addi	r3,r3,120
    15d4:	00814204 	movi	r2,1288
    15d8:	18800035 	stwio	r2,0(r3)
           usb_ctl_val = IORD(CY7C67200_BASE,HPI_DATA); 
    15dc:	00824834 	movhi	r2,2336
    15e0:	10801c04 	addi	r2,r2,112
    15e4:	10800037 	ldwio	r2,0(r2)
    15e8:	e0bffe8d 	sth	r2,-6(fp)
           
           goto USB_HOT_PLUG;
    15ec:	003e5e06 	br	f68 <main+0xc0>
    }    
       
    printf("------------[ENUM PROCESS]:set address pass!---------------\n");
    15f0:	01000074 	movhi	r4,1
    15f4:	211f0604 	addi	r4,r4,31768
    15f8:	000566c0 	call	566c <puts>
    
    
    //-------------------------------get device descriptor-1 -----------------------------------//
    //the starting address
    IOWR(CY7C67200_BASE,HPI_ADDR,0x0500); //the start address       
    15fc:	00c24834 	movhi	r3,2336
    1600:	18c01e04 	addi	r3,r3,120
    1604:	00814004 	movi	r2,1280
    1608:	18800035 	stwio	r2,0(r3)
    IOWR(CY7C67200_BASE,HPI_DATA,0x050C); 
    160c:	00c24834 	movhi	r3,2336
    1610:	18c01c04 	addi	r3,r3,112
    1614:	00814304 	movi	r2,1292
    1618:	18800035 	stwio	r2,0(r3)
    IOWR(CY7C67200_BASE,HPI_DATA,0x0008); //4 port number
    161c:	00c24834 	movhi	r3,2336
    1620:	18c01c04 	addi	r3,r3,112
    1624:	00800204 	movi	r2,8
    1628:	18800035 	stwio	r2,0(r3)
    IOWR(CY7C67200_BASE,HPI_DATA,0x02D0); //device address
    162c:	00c24834 	movhi	r3,2336
    1630:	18c01c04 	addi	r3,r3,112
    1634:	0080b404 	movi	r2,720
    1638:	18800035 	stwio	r2,0(r3)
    IOWR(CY7C67200_BASE,HPI_DATA,0x0001);
    163c:	00c24834 	movhi	r3,2336
    1640:	18c01c04 	addi	r3,r3,112
    1644:	00800044 	movi	r2,1
    1648:	18800035 	stwio	r2,0(r3)
    IOWR(CY7C67200_BASE,HPI_DATA,0x0013);
    164c:	00c24834 	movhi	r3,2336
    1650:	18c01c04 	addi	r3,r3,112
    1654:	008004c4 	movi	r2,19
    1658:	18800035 	stwio	r2,0(r3)
    IOWR(CY7C67200_BASE,HPI_DATA,0x0514);
    165c:	00c24834 	movhi	r3,2336
    1660:	18c01c04 	addi	r3,r3,112
    1664:	00814504 	movi	r2,1300
    1668:	18800035 	stwio	r2,0(r3)
    
    //td content 4 bytes
    IOWR(CY7C67200_BASE,HPI_DATA,0x0680);//c
    166c:	00c24834 	movhi	r3,2336
    1670:	18c01c04 	addi	r3,r3,112
    1674:	0081a004 	movi	r2,1664
    1678:	18800035 	stwio	r2,0(r3)
    IOWR(CY7C67200_BASE,HPI_DATA,0x0100);
    167c:	00c24834 	movhi	r3,2336
    1680:	18c01c04 	addi	r3,r3,112
    1684:	00804004 	movi	r2,256
    1688:	18800035 	stwio	r2,0(r3)
    IOWR(CY7C67200_BASE,HPI_DATA,0x0000);
    168c:	00824834 	movhi	r2,2336
    1690:	10801c04 	addi	r2,r2,112
    1694:	10000035 	stwio	zero,0(r2)
    IOWR(CY7C67200_BASE,HPI_DATA,0x0008);
    1698:	00c24834 	movhi	r3,2336
    169c:	18c01c04 	addi	r3,r3,112
    16a0:	00800204 	movi	r2,8
    16a4:	18800035 	stwio	r2,0(r3)
    
    //data phase IN
    IOWR(CY7C67200_BASE,HPI_DATA,0x052C); //
    16a8:	00c24834 	movhi	r3,2336
    16ac:	18c01c04 	addi	r3,r3,112
    16b0:	00814b04 	movi	r2,1324
    16b4:	18800035 	stwio	r2,0(r3)
    IOWR(CY7C67200_BASE,HPI_DATA,0x0008);//
    16b8:	00c24834 	movhi	r3,2336
    16bc:	18c01c04 	addi	r3,r3,112
    16c0:	00800204 	movi	r2,8
    16c4:	18800035 	stwio	r2,0(r3)
    IOWR(CY7C67200_BASE,HPI_DATA,0x0290);//
    16c8:	00c24834 	movhi	r3,2336
    16cc:	18c01c04 	addi	r3,r3,112
    16d0:	0080a404 	movi	r2,656
    16d4:	18800035 	stwio	r2,0(r3)
    IOWR(CY7C67200_BASE,HPI_DATA,0x0041);
    16d8:	00c24834 	movhi	r3,2336
    16dc:	18c01c04 	addi	r3,r3,112
    16e0:	00801044 	movi	r2,65
    16e4:	18800035 	stwio	r2,0(r3)
    IOWR(CY7C67200_BASE,HPI_DATA,0x0013);
    16e8:	00c24834 	movhi	r3,2336
    16ec:	18c01c04 	addi	r3,r3,112
    16f0:	008004c4 	movi	r2,19
    16f4:	18800035 	stwio	r2,0(r3)
    IOWR(CY7C67200_BASE,HPI_DATA,0x0520);
    16f8:	00c24834 	movhi	r3,2336
    16fc:	18c01c04 	addi	r3,r3,112
    1700:	00814804 	movi	r2,1312
    1704:	18800035 	stwio	r2,0(r3)
    
//    //status phase
    IOWR(CY7C67200_BASE,HPI_DATA,0x0000); //don't care
    1708:	00824834 	movhi	r2,2336
    170c:	10801c04 	addi	r2,r2,112
    1710:	10000035 	stwio	zero,0(r2)
    IOWR(CY7C67200_BASE,HPI_DATA,0x0000);//port number
    1714:	00824834 	movhi	r2,2336
    1718:	10801c04 	addi	r2,r2,112
    171c:	10000035 	stwio	zero,0(r2)
    IOWR(CY7C67200_BASE,HPI_DATA,0x0210);//device address
    1720:	00c24834 	movhi	r3,2336
    1724:	18c01c04 	addi	r3,r3,112
    1728:	00808404 	movi	r2,528
    172c:	18800035 	stwio	r2,0(r3)
    IOWR(CY7C67200_BASE,HPI_DATA,0x0041);
    1730:	00c24834 	movhi	r3,2336
    1734:	18c01c04 	addi	r3,r3,112
    1738:	00801044 	movi	r2,65
    173c:	18800035 	stwio	r2,0(r3)
    IOWR(CY7C67200_BASE,HPI_DATA,0x0013);
    1740:	00c24834 	movhi	r3,2336
    1744:	18c01c04 	addi	r3,r3,112
    1748:	008004c4 	movi	r2,19
    174c:	18800035 	stwio	r2,0(r3)
    IOWR(CY7C67200_BASE,HPI_DATA,0x0000);
    1750:	00824834 	movhi	r2,2336
    1754:	10801c04 	addi	r2,r2,112
    1758:	10000035 	stwio	zero,0(r2)
    
     
    UsbWrite(HUSB_SIE1_pCurrentTDPtr,0x0500); //HUSB_SIE1_pCurrentTDPtr
    175c:	01006c04 	movi	r4,432
    1760:	01414004 	movi	r5,1280
    1764:	000482c0 	call	482c <UsbWrite>
    
   //usleep(10*1000);
    while (!(IORD(CY7C67200_BASE,HPI_STATUS) & HPI_STATUS_SIE1msg_FLAG) )  //read sie1 msg register
    1768:	00005d06 	br	18e0 <main+0xa38>
    {
    //the starting address
    IOWR(CY7C67200_BASE,HPI_ADDR,0x0500); //the start address       
    176c:	00c24834 	movhi	r3,2336
    1770:	18c01e04 	addi	r3,r3,120
    1774:	00814004 	movi	r2,1280
    1778:	18800035 	stwio	r2,0(r3)
    IOWR(CY7C67200_BASE,HPI_DATA,0x050C); 
    177c:	00c24834 	movhi	r3,2336
    1780:	18c01c04 	addi	r3,r3,112
    1784:	00814304 	movi	r2,1292
    1788:	18800035 	stwio	r2,0(r3)
    IOWR(CY7C67200_BASE,HPI_DATA,0x0008); //4 port number
    178c:	00c24834 	movhi	r3,2336
    1790:	18c01c04 	addi	r3,r3,112
    1794:	00800204 	movi	r2,8
    1798:	18800035 	stwio	r2,0(r3)
    IOWR(CY7C67200_BASE,HPI_DATA,0x02D0); //device address
    179c:	00c24834 	movhi	r3,2336
    17a0:	18c01c04 	addi	r3,r3,112
    17a4:	0080b404 	movi	r2,720
    17a8:	18800035 	stwio	r2,0(r3)
    IOWR(CY7C67200_BASE,HPI_DATA,0x0001);
    17ac:	00c24834 	movhi	r3,2336
    17b0:	18c01c04 	addi	r3,r3,112
    17b4:	00800044 	movi	r2,1
    17b8:	18800035 	stwio	r2,0(r3)
    IOWR(CY7C67200_BASE,HPI_DATA,0x0013);
    17bc:	00c24834 	movhi	r3,2336
    17c0:	18c01c04 	addi	r3,r3,112
    17c4:	008004c4 	movi	r2,19
    17c8:	18800035 	stwio	r2,0(r3)
    IOWR(CY7C67200_BASE,HPI_DATA,0x0514);
    17cc:	00c24834 	movhi	r3,2336
    17d0:	18c01c04 	addi	r3,r3,112
    17d4:	00814504 	movi	r2,1300
    17d8:	18800035 	stwio	r2,0(r3)
    
    //td content 4 bytes
    IOWR(CY7C67200_BASE,HPI_DATA,0x0680);
    17dc:	00c24834 	movhi	r3,2336
    17e0:	18c01c04 	addi	r3,r3,112
    17e4:	0081a004 	movi	r2,1664
    17e8:	18800035 	stwio	r2,0(r3)
    IOWR(CY7C67200_BASE,HPI_DATA,0x0100);
    17ec:	00c24834 	movhi	r3,2336
    17f0:	18c01c04 	addi	r3,r3,112
    17f4:	00804004 	movi	r2,256
    17f8:	18800035 	stwio	r2,0(r3)
    IOWR(CY7C67200_BASE,HPI_DATA,0x0000);
    17fc:	00824834 	movhi	r2,2336
    1800:	10801c04 	addi	r2,r2,112
    1804:	10000035 	stwio	zero,0(r2)
    IOWR(CY7C67200_BASE,HPI_DATA,0x0008);
    1808:	00c24834 	movhi	r3,2336
    180c:	18c01c04 	addi	r3,r3,112
    1810:	00800204 	movi	r2,8
    1814:	18800035 	stwio	r2,0(r3)
    
    //data phase IN
    IOWR(CY7C67200_BASE,HPI_DATA,0x052C); //
    1818:	00c24834 	movhi	r3,2336
    181c:	18c01c04 	addi	r3,r3,112
    1820:	00814b04 	movi	r2,1324
    1824:	18800035 	stwio	r2,0(r3)
    IOWR(CY7C67200_BASE,HPI_DATA,0x0008);//
    1828:	00c24834 	movhi	r3,2336
    182c:	18c01c04 	addi	r3,r3,112
    1830:	00800204 	movi	r2,8
    1834:	18800035 	stwio	r2,0(r3)
    IOWR(CY7C67200_BASE,HPI_DATA,0x0290);//
    1838:	00c24834 	movhi	r3,2336
    183c:	18c01c04 	addi	r3,r3,112
    1840:	0080a404 	movi	r2,656
    1844:	18800035 	stwio	r2,0(r3)
    IOWR(CY7C67200_BASE,HPI_DATA,0x0041);
    1848:	00c24834 	movhi	r3,2336
    184c:	18c01c04 	addi	r3,r3,112
    1850:	00801044 	movi	r2,65
    1854:	18800035 	stwio	r2,0(r3)
    IOWR(CY7C67200_BASE,HPI_DATA,0x0013);
    1858:	00c24834 	movhi	r3,2336
    185c:	18c01c04 	addi	r3,r3,112
    1860:	008004c4 	movi	r2,19
    1864:	18800035 	stwio	r2,0(r3)
    IOWR(CY7C67200_BASE,HPI_DATA,0x0520);
    1868:	00c24834 	movhi	r3,2336
    186c:	18c01c04 	addi	r3,r3,112
    1870:	00814804 	movi	r2,1312
    1874:	18800035 	stwio	r2,0(r3)
    
//    //status phase
    IOWR(CY7C67200_BASE,HPI_DATA,0x0000); //don't care
    1878:	00824834 	movhi	r2,2336
    187c:	10801c04 	addi	r2,r2,112
    1880:	10000035 	stwio	zero,0(r2)
    IOWR(CY7C67200_BASE,HPI_DATA,0x0000);//port number
    1884:	00824834 	movhi	r2,2336
    1888:	10801c04 	addi	r2,r2,112
    188c:	10000035 	stwio	zero,0(r2)
    IOWR(CY7C67200_BASE,HPI_DATA,0x0210);//device address
    1890:	00c24834 	movhi	r3,2336
    1894:	18c01c04 	addi	r3,r3,112
    1898:	00808404 	movi	r2,528
    189c:	18800035 	stwio	r2,0(r3)
    IOWR(CY7C67200_BASE,HPI_DATA,0x0041);
    18a0:	00c24834 	movhi	r3,2336
    18a4:	18c01c04 	addi	r3,r3,112
    18a8:	00801044 	movi	r2,65
    18ac:	18800035 	stwio	r2,0(r3)
    IOWR(CY7C67200_BASE,HPI_DATA,0x0013);
    18b0:	00c24834 	movhi	r3,2336
    18b4:	18c01c04 	addi	r3,r3,112
    18b8:	008004c4 	movi	r2,19
    18bc:	18800035 	stwio	r2,0(r3)
    IOWR(CY7C67200_BASE,HPI_DATA,0x0000);
    18c0:	00824834 	movhi	r2,2336
    18c4:	10801c04 	addi	r2,r2,112
    18c8:	10000035 	stwio	zero,0(r2)
    
     
    UsbWrite(HUSB_SIE1_pCurrentTDPtr,0x0500); //HUSB_SIE1_pCurrentTDPtr
    18cc:	01006c04 	movi	r4,432
    18d0:	01414004 	movi	r5,1280
    18d4:	000482c0 	call	482c <UsbWrite>
    usleep(10*1000);
    18d8:	0109c404 	movi	r4,10000
    18dc:	00148100 	call	14810 <usleep>
    
     
    UsbWrite(HUSB_SIE1_pCurrentTDPtr,0x0500); //HUSB_SIE1_pCurrentTDPtr
    
   //usleep(10*1000);
    while (!(IORD(CY7C67200_BASE,HPI_STATUS) & HPI_STATUS_SIE1msg_FLAG) )  //read sie1 msg register
    18e0:	00824834 	movhi	r2,2336
    18e4:	10801f04 	addi	r2,r2,124
    18e8:	10800037 	ldwio	r2,0(r2)
    18ec:	1080040c 	andi	r2,r2,16
    18f0:	1005003a 	cmpeq	r2,r2,zero
    18f4:	103f9d1e 	bne	r2,zero,176c <main+0x8c4>
    UsbWrite(HUSB_SIE1_pCurrentTDPtr,0x0500); //HUSB_SIE1_pCurrentTDPtr
    usleep(10*1000);
    }
    
    //UsbRead(0x01B8);
    usb_ctl_val = UsbRead(HPI_SIE1_MSG_ADR);
    18f8:	01005104 	movi	r4,324
    18fc:	00048700 	call	4870 <UsbRead>
    1900:	e0bffe8d 	sth	r2,-6(fp)
    UsbWrite(HPI_SIE1_MSG_ADR, 0);
    1904:	01005104 	movi	r4,324
    1908:	000b883a 	mov	r5,zero
    190c:	000482c0 	call	482c <UsbWrite>
    while (usb_ctl_val != 0x1000)  //read sie1 msg register
    1910:	00000d06 	br	1948 <main+0xaa0>
    {
       if(usb_ctl_val == 0x000)
    1914:	e0bffe8b 	ldhu	r2,-6(fp)
    1918:	1005003a 	cmpeq	r2,r2,zero
    191c:	1000041e 	bne	r2,zero,1930 <main+0xa88>
       {
       }
       else
       {
        printf("[SIE1 MSG]:SIE1 msg reg is %x\n",usb_ctl_val);
    1920:	e17ffe8b 	ldhu	r5,-6(fp)
    1924:	01000074 	movhi	r4,1
    1928:	211ee704 	addi	r4,r4,31644
    192c:	00055540 	call	5554 <printf>
       }
       usb_ctl_val = UsbRead(HPI_SIE1_MSG_ADR);
    1930:	01005104 	movi	r4,324
    1934:	00048700 	call	4870 <UsbRead>
    1938:	e0bffe8d 	sth	r2,-6(fp)
       UsbWrite(HPI_SIE1_MSG_ADR, 0);
    193c:	01005104 	movi	r4,324
    1940:	000b883a 	mov	r5,zero
    1944:	000482c0 	call	482c <UsbWrite>
    }
    
    //UsbRead(0x01B8);
    usb_ctl_val = UsbRead(HPI_SIE1_MSG_ADR);
    UsbWrite(HPI_SIE1_MSG_ADR, 0);
    while (usb_ctl_val != 0x1000)  //read sie1 msg register
    1948:	e0bffe8b 	ldhu	r2,-6(fp)
    194c:	10840018 	cmpnei	r2,r2,4096
    1950:	103ff01e 	bne	r2,zero,1914 <main+0xa6c>
       usb_ctl_val = UsbRead(HPI_SIE1_MSG_ADR);
       UsbWrite(HPI_SIE1_MSG_ADR, 0);
      
    }

    IOWR(CY7C67200_BASE,HPI_ADDR,0x0506);
    1954:	00c24834 	movhi	r3,2336
    1958:	18c01e04 	addi	r3,r3,120
    195c:	00814184 	movi	r2,1286
    1960:	18800035 	stwio	r2,0(r3)
    printf("[ENUM PROCESS]:step 4 TD Status Byte is %x\n",IORD(CY7C67200_BASE,HPI_DATA));
    1964:	00824834 	movhi	r2,2336
    1968:	10801c04 	addi	r2,r2,112
    196c:	11400037 	ldwio	r5,0(r2)
    1970:	01000074 	movhi	r4,1
    1974:	211f1504 	addi	r4,r4,31828
    1978:	00055540 	call	5554 <printf>
    
    IOWR(CY7C67200_BASE,HPI_ADDR,0x0508);
    197c:	00c24834 	movhi	r3,2336
    1980:	18c01e04 	addi	r3,r3,120
    1984:	00814204 	movi	r2,1288
    1988:	18800035 	stwio	r2,0(r3)
    usb_ctl_val = IORD(CY7C67200_BASE,HPI_DATA);
    198c:	00824834 	movhi	r2,2336
    1990:	10801c04 	addi	r2,r2,112
    1994:	10800037 	ldwio	r2,0(r2)
    1998:	e0bffe8d 	sth	r2,-6(fp)
    printf("[ENUM PROCESS]:step 4 TD Control Byte is %x\n",usb_ctl_val);
    199c:	e17ffe8b 	ldhu	r5,-6(fp)
    19a0:	01000074 	movhi	r4,1
    19a4:	211f2004 	addi	r4,r4,31872
    19a8:	00055540 	call	5554 <printf>
    while (usb_ctl_val != 0x03) 
    19ac:	00001906 	br	1a14 <main+0xb6c>
    {
       IORD(CY7C67200_BASE,HPI_STATUS);
    19b0:	00824834 	movhi	r2,2336
    19b4:	10801f04 	addi	r2,r2,124
    19b8:	10800037 	ldwio	r2,0(r2)
       if(UsbRead(HPI_SIE1_MSG_ADR) == 0x1000)
    19bc:	01005104 	movi	r4,324
    19c0:	00048700 	call	4870 <UsbRead>
    19c4:	10bfffcc 	andi	r2,r2,65535
    19c8:	10840018 	cmpnei	r2,r2,4096
    19cc:	1000091e 	bne	r2,zero,19f4 <main+0xb4c>
       {
           UsbWrite(HPI_SIE1_MSG_ADR, 0);
    19d0:	01005104 	movi	r4,324
    19d4:	000b883a 	mov	r5,zero
    19d8:	000482c0 	call	482c <UsbWrite>
           
           while (!(IORD(CY7C67200_BASE,HPI_STATUS) & HPI_STATUS_SIE1msg_FLAG) )  //read sie1 msg register
    19dc:	00824834 	movhi	r2,2336
    19e0:	10801f04 	addi	r2,r2,124
    19e4:	10800037 	ldwio	r2,0(r2)
    19e8:	1080040c 	andi	r2,r2,16
    19ec:	1005003a 	cmpeq	r2,r2,zero
    19f0:	103ffa1e 	bne	r2,zero,19dc <main+0xb34>
           {
           }
        }
           //usleep(1000);
           IOWR(CY7C67200_BASE,HPI_ADDR,0x0508);
    19f4:	00c24834 	movhi	r3,2336
    19f8:	18c01e04 	addi	r3,r3,120
    19fc:	00814204 	movi	r2,1288
    1a00:	18800035 	stwio	r2,0(r3)
           usb_ctl_val = IORD(CY7C67200_BASE,HPI_DATA); 
    1a04:	00824834 	movhi	r2,2336
    1a08:	10801c04 	addi	r2,r2,112
    1a0c:	10800037 	ldwio	r2,0(r2)
    1a10:	e0bffe8d 	sth	r2,-6(fp)
    printf("[ENUM PROCESS]:step 4 TD Status Byte is %x\n",IORD(CY7C67200_BASE,HPI_DATA));
    
    IOWR(CY7C67200_BASE,HPI_ADDR,0x0508);
    usb_ctl_val = IORD(CY7C67200_BASE,HPI_DATA);
    printf("[ENUM PROCESS]:step 4 TD Control Byte is %x\n",usb_ctl_val);
    while (usb_ctl_val != 0x03) 
    1a14:	e0bffe8b 	ldhu	r2,-6(fp)
    1a18:	108000d8 	cmpnei	r2,r2,3
    1a1c:	103fe41e 	bne	r2,zero,19b0 <main+0xb08>
           //usleep(1000);
           IOWR(CY7C67200_BASE,HPI_ADDR,0x0508);
           usb_ctl_val = IORD(CY7C67200_BASE,HPI_DATA); 
    }    
       
    printf("---------------[ENUM PROCESS]:get device descriptor-1 pass!-----------------\n");
    1a20:	01000074 	movhi	r4,1
    1a24:	211f2c04 	addi	r4,r4,31920
    1a28:	000566c0 	call	566c <puts>
    
    
    //--------------------------------get device descriptor-1---------------------------------------------//
    //get device descriptor
    //the starting address
    IOWR(CY7C67200_BASE,HPI_ADDR,0x0500); //the start address       
    1a2c:	00c24834 	movhi	r3,2336
    1a30:	18c01e04 	addi	r3,r3,120
    1a34:	00814004 	movi	r2,1280
    1a38:	18800035 	stwio	r2,0(r3)
    IOWR(CY7C67200_BASE,HPI_DATA,0x050C); 
    1a3c:	00c24834 	movhi	r3,2336
    1a40:	18c01c04 	addi	r3,r3,112
    1a44:	00814304 	movi	r2,1292
    1a48:	18800035 	stwio	r2,0(r3)
    IOWR(CY7C67200_BASE,HPI_DATA,0x0008); //4 port number
    1a4c:	00c24834 	movhi	r3,2336
    1a50:	18c01c04 	addi	r3,r3,112
    1a54:	00800204 	movi	r2,8
    1a58:	18800035 	stwio	r2,0(r3)
    IOWR(CY7C67200_BASE,HPI_DATA,0x02D0); //device address
    1a5c:	00c24834 	movhi	r3,2336
    1a60:	18c01c04 	addi	r3,r3,112
    1a64:	0080b404 	movi	r2,720
    1a68:	18800035 	stwio	r2,0(r3)
    IOWR(CY7C67200_BASE,HPI_DATA,0x0001);
    1a6c:	00c24834 	movhi	r3,2336
    1a70:	18c01c04 	addi	r3,r3,112
    1a74:	00800044 	movi	r2,1
    1a78:	18800035 	stwio	r2,0(r3)
    IOWR(CY7C67200_BASE,HPI_DATA,0x0013);
    1a7c:	00c24834 	movhi	r3,2336
    1a80:	18c01c04 	addi	r3,r3,112
    1a84:	008004c4 	movi	r2,19
    1a88:	18800035 	stwio	r2,0(r3)
    IOWR(CY7C67200_BASE,HPI_DATA,0x0514);
    1a8c:	00c24834 	movhi	r3,2336
    1a90:	18c01c04 	addi	r3,r3,112
    1a94:	00814504 	movi	r2,1300
    1a98:	18800035 	stwio	r2,0(r3)
    
    //td content 4 bytes
    IOWR(CY7C67200_BASE,HPI_DATA,0x0680);//c
    1a9c:	00c24834 	movhi	r3,2336
    1aa0:	18c01c04 	addi	r3,r3,112
    1aa4:	0081a004 	movi	r2,1664
    1aa8:	18800035 	stwio	r2,0(r3)
    IOWR(CY7C67200_BASE,HPI_DATA,0x0100);//e
    1aac:	00c24834 	movhi	r3,2336
    1ab0:	18c01c04 	addi	r3,r3,112
    1ab4:	00804004 	movi	r2,256
    1ab8:	18800035 	stwio	r2,0(r3)
    IOWR(CY7C67200_BASE,HPI_DATA,0x0000);//0
    1abc:	00824834 	movhi	r2,2336
    1ac0:	10801c04 	addi	r2,r2,112
    1ac4:	10000035 	stwio	zero,0(r2)
    IOWR(CY7C67200_BASE,HPI_DATA,0x0012);//2
    1ac8:	00c24834 	movhi	r3,2336
    1acc:	18c01c04 	addi	r3,r3,112
    1ad0:	00800484 	movi	r2,18
    1ad4:	18800035 	stwio	r2,0(r3)
    
    //data phase IN-1
    IOWR(CY7C67200_BASE,HPI_DATA,0x0544); //514
    1ad8:	00c24834 	movhi	r3,2336
    1adc:	18c01c04 	addi	r3,r3,112
    1ae0:	00815104 	movi	r2,1348
    1ae4:	18800035 	stwio	r2,0(r3)
    IOWR(CY7C67200_BASE,HPI_DATA,0x0008);//6
    1ae8:	00c24834 	movhi	r3,2336
    1aec:	18c01c04 	addi	r3,r3,112
    1af0:	00800204 	movi	r2,8
    1af4:	18800035 	stwio	r2,0(r3)
    IOWR(CY7C67200_BASE,HPI_DATA,0x0290);//8
    1af8:	00c24834 	movhi	r3,2336
    1afc:	18c01c04 	addi	r3,r3,112
    1b00:	0080a404 	movi	r2,656
    1b04:	18800035 	stwio	r2,0(r3)
    IOWR(CY7C67200_BASE,HPI_DATA,0x0041);//a
    1b08:	00c24834 	movhi	r3,2336
    1b0c:	18c01c04 	addi	r3,r3,112
    1b10:	00801044 	movi	r2,65
    1b14:	18800035 	stwio	r2,0(r3)
    IOWR(CY7C67200_BASE,HPI_DATA,0x0013);//c
    1b18:	00c24834 	movhi	r3,2336
    1b1c:	18c01c04 	addi	r3,r3,112
    1b20:	008004c4 	movi	r2,19
    1b24:	18800035 	stwio	r2,0(r3)
    IOWR(CY7C67200_BASE,HPI_DATA,0x0520);//e
    1b28:	00c24834 	movhi	r3,2336
    1b2c:	18c01c04 	addi	r3,r3,112
    1b30:	00814804 	movi	r2,1312
    1b34:	18800035 	stwio	r2,0(r3)
    
    //data phase IN-2
    IOWR(CY7C67200_BASE,HPI_DATA,0x054c); //520
    1b38:	00c24834 	movhi	r3,2336
    1b3c:	18c01c04 	addi	r3,r3,112
    1b40:	00815304 	movi	r2,1356
    1b44:	18800035 	stwio	r2,0(r3)
    IOWR(CY7C67200_BASE,HPI_DATA,0x0008);//2
    1b48:	00c24834 	movhi	r3,2336
    1b4c:	18c01c04 	addi	r3,r3,112
    1b50:	00800204 	movi	r2,8
    1b54:	18800035 	stwio	r2,0(r3)
    IOWR(CY7C67200_BASE,HPI_DATA,0x0290);//4
    1b58:	00c24834 	movhi	r3,2336
    1b5c:	18c01c04 	addi	r3,r3,112
    1b60:	0080a404 	movi	r2,656
    1b64:	18800035 	stwio	r2,0(r3)
    IOWR(CY7C67200_BASE,HPI_DATA,0x0001);//6 //data0
    1b68:	00c24834 	movhi	r3,2336
    1b6c:	18c01c04 	addi	r3,r3,112
    1b70:	00800044 	movi	r2,1
    1b74:	18800035 	stwio	r2,0(r3)
    IOWR(CY7C67200_BASE,HPI_DATA,0x0013);//8
    1b78:	00c24834 	movhi	r3,2336
    1b7c:	18c01c04 	addi	r3,r3,112
    1b80:	008004c4 	movi	r2,19
    1b84:	18800035 	stwio	r2,0(r3)
    IOWR(CY7C67200_BASE,HPI_DATA,0x052c);//a
    1b88:	00c24834 	movhi	r3,2336
    1b8c:	18c01c04 	addi	r3,r3,112
    1b90:	00814b04 	movi	r2,1324
    1b94:	18800035 	stwio	r2,0(r3)
    
    //data phase IN-3
    IOWR(CY7C67200_BASE,HPI_DATA,0x0554); //c
    1b98:	00c24834 	movhi	r3,2336
    1b9c:	18c01c04 	addi	r3,r3,112
    1ba0:	00815504 	movi	r2,1364
    1ba4:	18800035 	stwio	r2,0(r3)
    IOWR(CY7C67200_BASE,HPI_DATA,0x0002);//e
    1ba8:	00c24834 	movhi	r3,2336
    1bac:	18c01c04 	addi	r3,r3,112
    1bb0:	00800084 	movi	r2,2
    1bb4:	18800035 	stwio	r2,0(r3)
    IOWR(CY7C67200_BASE,HPI_DATA,0x0290);//530
    1bb8:	00c24834 	movhi	r3,2336
    1bbc:	18c01c04 	addi	r3,r3,112
    1bc0:	0080a404 	movi	r2,656
    1bc4:	18800035 	stwio	r2,0(r3)
    IOWR(CY7C67200_BASE,HPI_DATA,0x0041);//2
    1bc8:	00c24834 	movhi	r3,2336
    1bcc:	18c01c04 	addi	r3,r3,112
    1bd0:	00801044 	movi	r2,65
    1bd4:	18800035 	stwio	r2,0(r3)
    IOWR(CY7C67200_BASE,HPI_DATA,0x0013);//4
    1bd8:	00c24834 	movhi	r3,2336
    1bdc:	18c01c04 	addi	r3,r3,112
    1be0:	008004c4 	movi	r2,19
    1be4:	18800035 	stwio	r2,0(r3)
    IOWR(CY7C67200_BASE,HPI_DATA,0x0538);//6
    1be8:	00c24834 	movhi	r3,2336
    1bec:	18c01c04 	addi	r3,r3,112
    1bf0:	00814e04 	movi	r2,1336
    1bf4:	18800035 	stwio	r2,0(r3)
    
    //status phase
    IOWR(CY7C67200_BASE,HPI_DATA,0x0000); //538
    1bf8:	00824834 	movhi	r2,2336
    1bfc:	10801c04 	addi	r2,r2,112
    1c00:	10000035 	stwio	zero,0(r2)
    IOWR(CY7C67200_BASE,HPI_DATA,0x0000);//a
    1c04:	00824834 	movhi	r2,2336
    1c08:	10801c04 	addi	r2,r2,112
    1c0c:	10000035 	stwio	zero,0(r2)
    IOWR(CY7C67200_BASE,HPI_DATA,0x0210);//c
    1c10:	00c24834 	movhi	r3,2336
    1c14:	18c01c04 	addi	r3,r3,112
    1c18:	00808404 	movi	r2,528
    1c1c:	18800035 	stwio	r2,0(r3)
    IOWR(CY7C67200_BASE,HPI_DATA,0x0041);//e
    1c20:	00c24834 	movhi	r3,2336
    1c24:	18c01c04 	addi	r3,r3,112
    1c28:	00801044 	movi	r2,65
    1c2c:	18800035 	stwio	r2,0(r3)
    IOWR(CY7C67200_BASE,HPI_DATA,0x0013);//540
    1c30:	00c24834 	movhi	r3,2336
    1c34:	18c01c04 	addi	r3,r3,112
    1c38:	008004c4 	movi	r2,19
    1c3c:	18800035 	stwio	r2,0(r3)
    IOWR(CY7C67200_BASE,HPI_DATA,0x0000);//2
    1c40:	00824834 	movhi	r2,2336
    1c44:	10801c04 	addi	r2,r2,112
    1c48:	10000035 	stwio	zero,0(r2)
     
    UsbWrite(HUSB_SIE1_pCurrentTDPtr,0x0500); //HUSB_SIE1_pCurrentTDPtr
    1c4c:	01006c04 	movi	r4,432
    1c50:	01414004 	movi	r5,1280
    1c54:	000482c0 	call	482c <UsbWrite>
    
    //usleep(100*1000);
    //if no message
    while (!(IORD(CY7C67200_BASE,HPI_STATUS) & HPI_STATUS_SIE1msg_FLAG) )  //read sie1 msg register
    1c58:	00008d06 	br	1e90 <main+0xfe8>
    {
        //resend the get device descriptor
        //get device descriptor

    //the starting address
    IOWR(CY7C67200_BASE,HPI_ADDR,0x0500); //the start address       
    1c5c:	00c24834 	movhi	r3,2336
    1c60:	18c01e04 	addi	r3,r3,120
    1c64:	00814004 	movi	r2,1280
    1c68:	18800035 	stwio	r2,0(r3)
    IOWR(CY7C67200_BASE,HPI_DATA,0x050C); 
    1c6c:	00c24834 	movhi	r3,2336
    1c70:	18c01c04 	addi	r3,r3,112
    1c74:	00814304 	movi	r2,1292
    1c78:	18800035 	stwio	r2,0(r3)
    IOWR(CY7C67200_BASE,HPI_DATA,0x0008); //4 port number
    1c7c:	00c24834 	movhi	r3,2336
    1c80:	18c01c04 	addi	r3,r3,112
    1c84:	00800204 	movi	r2,8
    1c88:	18800035 	stwio	r2,0(r3)
    IOWR(CY7C67200_BASE,HPI_DATA,0x02D0); //device address
    1c8c:	00c24834 	movhi	r3,2336
    1c90:	18c01c04 	addi	r3,r3,112
    1c94:	0080b404 	movi	r2,720
    1c98:	18800035 	stwio	r2,0(r3)
    IOWR(CY7C67200_BASE,HPI_DATA,0x0001);
    1c9c:	00c24834 	movhi	r3,2336
    1ca0:	18c01c04 	addi	r3,r3,112
    1ca4:	00800044 	movi	r2,1
    1ca8:	18800035 	stwio	r2,0(r3)
    IOWR(CY7C67200_BASE,HPI_DATA,0x0013);
    1cac:	00c24834 	movhi	r3,2336
    1cb0:	18c01c04 	addi	r3,r3,112
    1cb4:	008004c4 	movi	r2,19
    1cb8:	18800035 	stwio	r2,0(r3)
    IOWR(CY7C67200_BASE,HPI_DATA,0x0514);
    1cbc:	00c24834 	movhi	r3,2336
    1cc0:	18c01c04 	addi	r3,r3,112
    1cc4:	00814504 	movi	r2,1300
    1cc8:	18800035 	stwio	r2,0(r3)
    
    //td content 4 bytes
    IOWR(CY7C67200_BASE,HPI_DATA,0x0680);//c
    1ccc:	00c24834 	movhi	r3,2336
    1cd0:	18c01c04 	addi	r3,r3,112
    1cd4:	0081a004 	movi	r2,1664
    1cd8:	18800035 	stwio	r2,0(r3)
    IOWR(CY7C67200_BASE,HPI_DATA,0x0100);//e
    1cdc:	00c24834 	movhi	r3,2336
    1ce0:	18c01c04 	addi	r3,r3,112
    1ce4:	00804004 	movi	r2,256
    1ce8:	18800035 	stwio	r2,0(r3)
    IOWR(CY7C67200_BASE,HPI_DATA,0x0000);//0
    1cec:	00824834 	movhi	r2,2336
    1cf0:	10801c04 	addi	r2,r2,112
    1cf4:	10000035 	stwio	zero,0(r2)
    IOWR(CY7C67200_BASE,HPI_DATA,0x0012);//2
    1cf8:	00c24834 	movhi	r3,2336
    1cfc:	18c01c04 	addi	r3,r3,112
    1d00:	00800484 	movi	r2,18
    1d04:	18800035 	stwio	r2,0(r3)
    
    //data phase IN-1
    IOWR(CY7C67200_BASE,HPI_DATA,0x0544); //514
    1d08:	00c24834 	movhi	r3,2336
    1d0c:	18c01c04 	addi	r3,r3,112
    1d10:	00815104 	movi	r2,1348
    1d14:	18800035 	stwio	r2,0(r3)
    IOWR(CY7C67200_BASE,HPI_DATA,0x0008);//6
    1d18:	00c24834 	movhi	r3,2336
    1d1c:	18c01c04 	addi	r3,r3,112
    1d20:	00800204 	movi	r2,8
    1d24:	18800035 	stwio	r2,0(r3)
    IOWR(CY7C67200_BASE,HPI_DATA,0x0290);//8
    1d28:	00c24834 	movhi	r3,2336
    1d2c:	18c01c04 	addi	r3,r3,112
    1d30:	0080a404 	movi	r2,656
    1d34:	18800035 	stwio	r2,0(r3)
    IOWR(CY7C67200_BASE,HPI_DATA,0x0041);//a
    1d38:	00c24834 	movhi	r3,2336
    1d3c:	18c01c04 	addi	r3,r3,112
    1d40:	00801044 	movi	r2,65
    1d44:	18800035 	stwio	r2,0(r3)
    IOWR(CY7C67200_BASE,HPI_DATA,0x0013);//c
    1d48:	00c24834 	movhi	r3,2336
    1d4c:	18c01c04 	addi	r3,r3,112
    1d50:	008004c4 	movi	r2,19
    1d54:	18800035 	stwio	r2,0(r3)
    IOWR(CY7C67200_BASE,HPI_DATA,0x0520);//e
    1d58:	00c24834 	movhi	r3,2336
    1d5c:	18c01c04 	addi	r3,r3,112
    1d60:	00814804 	movi	r2,1312
    1d64:	18800035 	stwio	r2,0(r3)
    
    //data phase IN-2
    IOWR(CY7C67200_BASE,HPI_DATA,0x054c); //520
    1d68:	00c24834 	movhi	r3,2336
    1d6c:	18c01c04 	addi	r3,r3,112
    1d70:	00815304 	movi	r2,1356
    1d74:	18800035 	stwio	r2,0(r3)
    IOWR(CY7C67200_BASE,HPI_DATA,0x0008);//2
    1d78:	00c24834 	movhi	r3,2336
    1d7c:	18c01c04 	addi	r3,r3,112
    1d80:	00800204 	movi	r2,8
    1d84:	18800035 	stwio	r2,0(r3)
    IOWR(CY7C67200_BASE,HPI_DATA,0x0290);//4
    1d88:	00c24834 	movhi	r3,2336
    1d8c:	18c01c04 	addi	r3,r3,112
    1d90:	0080a404 	movi	r2,656
    1d94:	18800035 	stwio	r2,0(r3)
    IOWR(CY7C67200_BASE,HPI_DATA,0x0001);//6
    1d98:	00c24834 	movhi	r3,2336
    1d9c:	18c01c04 	addi	r3,r3,112
    1da0:	00800044 	movi	r2,1
    1da4:	18800035 	stwio	r2,0(r3)
    IOWR(CY7C67200_BASE,HPI_DATA,0x0013);//8
    1da8:	00c24834 	movhi	r3,2336
    1dac:	18c01c04 	addi	r3,r3,112
    1db0:	008004c4 	movi	r2,19
    1db4:	18800035 	stwio	r2,0(r3)
    IOWR(CY7C67200_BASE,HPI_DATA,0x052c);//a
    1db8:	00c24834 	movhi	r3,2336
    1dbc:	18c01c04 	addi	r3,r3,112
    1dc0:	00814b04 	movi	r2,1324
    1dc4:	18800035 	stwio	r2,0(r3)
    
    //data phase IN-3
    IOWR(CY7C67200_BASE,HPI_DATA,0x0554); //c
    1dc8:	00c24834 	movhi	r3,2336
    1dcc:	18c01c04 	addi	r3,r3,112
    1dd0:	00815504 	movi	r2,1364
    1dd4:	18800035 	stwio	r2,0(r3)
    IOWR(CY7C67200_BASE,HPI_DATA,0x0002);//e
    1dd8:	00c24834 	movhi	r3,2336
    1ddc:	18c01c04 	addi	r3,r3,112
    1de0:	00800084 	movi	r2,2
    1de4:	18800035 	stwio	r2,0(r3)
    IOWR(CY7C67200_BASE,HPI_DATA,0x0290);//530
    1de8:	00c24834 	movhi	r3,2336
    1dec:	18c01c04 	addi	r3,r3,112
    1df0:	0080a404 	movi	r2,656
    1df4:	18800035 	stwio	r2,0(r3)
    IOWR(CY7C67200_BASE,HPI_DATA,0x0041);//2
    1df8:	00c24834 	movhi	r3,2336
    1dfc:	18c01c04 	addi	r3,r3,112
    1e00:	00801044 	movi	r2,65
    1e04:	18800035 	stwio	r2,0(r3)
    IOWR(CY7C67200_BASE,HPI_DATA,0x0013);//4
    1e08:	00c24834 	movhi	r3,2336
    1e0c:	18c01c04 	addi	r3,r3,112
    1e10:	008004c4 	movi	r2,19
    1e14:	18800035 	stwio	r2,0(r3)
    IOWR(CY7C67200_BASE,HPI_DATA,0x0538);//6
    1e18:	00c24834 	movhi	r3,2336
    1e1c:	18c01c04 	addi	r3,r3,112
    1e20:	00814e04 	movi	r2,1336
    1e24:	18800035 	stwio	r2,0(r3)
    
    //status phase
    IOWR(CY7C67200_BASE,HPI_DATA,0x0000); //538
    1e28:	00824834 	movhi	r2,2336
    1e2c:	10801c04 	addi	r2,r2,112
    1e30:	10000035 	stwio	zero,0(r2)
    IOWR(CY7C67200_BASE,HPI_DATA,0x0000);//a
    1e34:	00824834 	movhi	r2,2336
    1e38:	10801c04 	addi	r2,r2,112
    1e3c:	10000035 	stwio	zero,0(r2)
    IOWR(CY7C67200_BASE,HPI_DATA,0x0210);//c
    1e40:	00c24834 	movhi	r3,2336
    1e44:	18c01c04 	addi	r3,r3,112
    1e48:	00808404 	movi	r2,528
    1e4c:	18800035 	stwio	r2,0(r3)
    IOWR(CY7C67200_BASE,HPI_DATA,0x0041);//e
    1e50:	00c24834 	movhi	r3,2336
    1e54:	18c01c04 	addi	r3,r3,112
    1e58:	00801044 	movi	r2,65
    1e5c:	18800035 	stwio	r2,0(r3)
    IOWR(CY7C67200_BASE,HPI_DATA,0x0013);//540
    1e60:	00c24834 	movhi	r3,2336
    1e64:	18c01c04 	addi	r3,r3,112
    1e68:	008004c4 	movi	r2,19
    1e6c:	18800035 	stwio	r2,0(r3)
    IOWR(CY7C67200_BASE,HPI_DATA,0x0000);//2
    1e70:	00824834 	movhi	r2,2336
    1e74:	10801c04 	addi	r2,r2,112
    1e78:	10000035 	stwio	zero,0(r2)
    
     
    UsbWrite(HUSB_SIE1_pCurrentTDPtr,0x0500); //HUSB_SIE1_pCurrentTDPtr
    1e7c:	01006c04 	movi	r4,432
    1e80:	01414004 	movi	r5,1280
    1e84:	000482c0 	call	482c <UsbWrite>
    usleep(10*1000);
    1e88:	0109c404 	movi	r4,10000
    1e8c:	00148100 	call	14810 <usleep>
     
    UsbWrite(HUSB_SIE1_pCurrentTDPtr,0x0500); //HUSB_SIE1_pCurrentTDPtr
    
    //usleep(100*1000);
    //if no message
    while (!(IORD(CY7C67200_BASE,HPI_STATUS) & HPI_STATUS_SIE1msg_FLAG) )  //read sie1 msg register
    1e90:	00824834 	movhi	r2,2336
    1e94:	10801f04 	addi	r2,r2,124
    1e98:	10800037 	ldwio	r2,0(r2)
    1e9c:	1080040c 	andi	r2,r2,16
    1ea0:	1005003a 	cmpeq	r2,r2,zero
    1ea4:	103f6d1e 	bne	r2,zero,1c5c <main+0xdb4>
    UsbWrite(HUSB_SIE1_pCurrentTDPtr,0x0500); //HUSB_SIE1_pCurrentTDPtr
    usleep(10*1000);
    }
    
    //UsbRead(0x01B8);
    usb_ctl_val = UsbRead(HPI_SIE1_MSG_ADR);
    1ea8:	01005104 	movi	r4,324
    1eac:	00048700 	call	4870 <UsbRead>
    1eb0:	e0bffe8d 	sth	r2,-6(fp)
    UsbWrite(HPI_SIE1_MSG_ADR, 0);
    1eb4:	01005104 	movi	r4,324
    1eb8:	000b883a 	mov	r5,zero
    1ebc:	000482c0 	call	482c <UsbWrite>
    while (usb_ctl_val != 0x1000)  //read sie1 msg register
    1ec0:	00000d06 	br	1ef8 <main+0x1050>
    {
       if(usb_ctl_val == 0x000)
    1ec4:	e0bffe8b 	ldhu	r2,-6(fp)
    1ec8:	1005003a 	cmpeq	r2,r2,zero
    1ecc:	1000041e 	bne	r2,zero,1ee0 <main+0x1038>
       {
       }
       else
       {
        printf("[SIE1 MSG]:SIE1 msg reg is %x\n",usb_ctl_val);
    1ed0:	e17ffe8b 	ldhu	r5,-6(fp)
    1ed4:	01000074 	movhi	r4,1
    1ed8:	211ee704 	addi	r4,r4,31644
    1edc:	00055540 	call	5554 <printf>
       }
       usb_ctl_val = UsbRead(HPI_SIE1_MSG_ADR);
    1ee0:	01005104 	movi	r4,324
    1ee4:	00048700 	call	4870 <UsbRead>
    1ee8:	e0bffe8d 	sth	r2,-6(fp)
       UsbWrite(HPI_SIE1_MSG_ADR, 0);
    1eec:	01005104 	movi	r4,324
    1ef0:	000b883a 	mov	r5,zero
    1ef4:	000482c0 	call	482c <UsbWrite>
    }
    
    //UsbRead(0x01B8);
    usb_ctl_val = UsbRead(HPI_SIE1_MSG_ADR);
    UsbWrite(HPI_SIE1_MSG_ADR, 0);
    while (usb_ctl_val != 0x1000)  //read sie1 msg register
    1ef8:	e0bffe8b 	ldhu	r2,-6(fp)
    1efc:	10840018 	cmpnei	r2,r2,4096
    1f00:	103ff01e 	bne	r2,zero,1ec4 <main+0x101c>
       usb_ctl_val = UsbRead(HPI_SIE1_MSG_ADR);
       UsbWrite(HPI_SIE1_MSG_ADR, 0);
      
    }

    IOWR(CY7C67200_BASE,HPI_ADDR,0x0506);
    1f04:	00c24834 	movhi	r3,2336
    1f08:	18c01e04 	addi	r3,r3,120
    1f0c:	00814184 	movi	r2,1286
    1f10:	18800035 	stwio	r2,0(r3)
    printf("[ENUM PROCESS]:step 4 TD Status Byte is %x\n",IORD(CY7C67200_BASE,HPI_DATA));
    1f14:	00824834 	movhi	r2,2336
    1f18:	10801c04 	addi	r2,r2,112
    1f1c:	11400037 	ldwio	r5,0(r2)
    1f20:	01000074 	movhi	r4,1
    1f24:	211f1504 	addi	r4,r4,31828
    1f28:	00055540 	call	5554 <printf>
    
    IOWR(CY7C67200_BASE,HPI_ADDR,0x0508);
    1f2c:	00c24834 	movhi	r3,2336
    1f30:	18c01e04 	addi	r3,r3,120
    1f34:	00814204 	movi	r2,1288
    1f38:	18800035 	stwio	r2,0(r3)
    usb_ctl_val = IORD(CY7C67200_BASE,HPI_DATA);
    1f3c:	00824834 	movhi	r2,2336
    1f40:	10801c04 	addi	r2,r2,112
    1f44:	10800037 	ldwio	r2,0(r2)
    1f48:	e0bffe8d 	sth	r2,-6(fp)
    printf("[ENUM PROCESS]:step 4 TD Control Byte is %x\n",usb_ctl_val);
    1f4c:	e17ffe8b 	ldhu	r5,-6(fp)
    1f50:	01000074 	movhi	r4,1
    1f54:	211f2004 	addi	r4,r4,31872
    1f58:	00055540 	call	5554 <printf>
    while (usb_ctl_val != 0x03) 
    1f5c:	00001906 	br	1fc4 <main+0x111c>
    {
       IORD(CY7C67200_BASE,HPI_STATUS);
    1f60:	00824834 	movhi	r2,2336
    1f64:	10801f04 	addi	r2,r2,124
    1f68:	10800037 	ldwio	r2,0(r2)
       if(UsbRead(HPI_SIE1_MSG_ADR) == 0x1000)
    1f6c:	01005104 	movi	r4,324
    1f70:	00048700 	call	4870 <UsbRead>
    1f74:	10bfffcc 	andi	r2,r2,65535
    1f78:	10840018 	cmpnei	r2,r2,4096
    1f7c:	1000091e 	bne	r2,zero,1fa4 <main+0x10fc>
       {
           UsbWrite(HPI_SIE1_MSG_ADR, 0);
    1f80:	01005104 	movi	r4,324
    1f84:	000b883a 	mov	r5,zero
    1f88:	000482c0 	call	482c <UsbWrite>
                   
           while (!(IORD(CY7C67200_BASE,HPI_STATUS) & HPI_STATUS_SIE1msg_FLAG) )  //read sie1 msg register
    1f8c:	00824834 	movhi	r2,2336
    1f90:	10801f04 	addi	r2,r2,124
    1f94:	10800037 	ldwio	r2,0(r2)
    1f98:	1080040c 	andi	r2,r2,16
    1f9c:	1005003a 	cmpeq	r2,r2,zero
    1fa0:	103ffa1e 	bne	r2,zero,1f8c <main+0x10e4>
           {
            
           }
        }
           //usleep(1000);
           IOWR(CY7C67200_BASE,HPI_ADDR,0x0508);
    1fa4:	00c24834 	movhi	r3,2336
    1fa8:	18c01e04 	addi	r3,r3,120
    1fac:	00814204 	movi	r2,1288
    1fb0:	18800035 	stwio	r2,0(r3)
           usb_ctl_val = IORD(CY7C67200_BASE,HPI_DATA); 
    1fb4:	00824834 	movhi	r2,2336
    1fb8:	10801c04 	addi	r2,r2,112
    1fbc:	10800037 	ldwio	r2,0(r2)
    1fc0:	e0bffe8d 	sth	r2,-6(fp)
    printf("[ENUM PROCESS]:step 4 TD Status Byte is %x\n",IORD(CY7C67200_BASE,HPI_DATA));
    
    IOWR(CY7C67200_BASE,HPI_ADDR,0x0508);
    usb_ctl_val = IORD(CY7C67200_BASE,HPI_DATA);
    printf("[ENUM PROCESS]:step 4 TD Control Byte is %x\n",usb_ctl_val);
    while (usb_ctl_val != 0x03) 
    1fc4:	e0bffe8b 	ldhu	r2,-6(fp)
    1fc8:	108000d8 	cmpnei	r2,r2,3
    1fcc:	103fe41e 	bne	r2,zero,1f60 <main+0x10b8>
           //usleep(1000);
           IOWR(CY7C67200_BASE,HPI_ADDR,0x0508);
           usb_ctl_val = IORD(CY7C67200_BASE,HPI_DATA); 
    }    
       
    printf("------------[ENUM PROCESS]:get device descriptor-2 pass!--------------\n");
    1fd0:	01000074 	movhi	r4,1
    1fd4:	211f4004 	addi	r4,r4,32000
    1fd8:	000566c0 	call	566c <puts>
//    printf("\n[ENUM PROCESS]:TD rec data8 is %x\n",IORD(CY7C67200_BASE,HPI_DATA));
    
    //-----------------------------------get configuration descriptor -1 ----------------------------------//
    //usleep(1000);
    //the starting address
    IOWR(CY7C67200_BASE,HPI_ADDR,0x0500); //the start address       
    1fdc:	00c24834 	movhi	r3,2336
    1fe0:	18c01e04 	addi	r3,r3,120
    1fe4:	00814004 	movi	r2,1280
    1fe8:	18800035 	stwio	r2,0(r3)
    IOWR(CY7C67200_BASE,HPI_DATA,0x050C); 
    1fec:	00c24834 	movhi	r3,2336
    1ff0:	18c01c04 	addi	r3,r3,112
    1ff4:	00814304 	movi	r2,1292
    1ff8:	18800035 	stwio	r2,0(r3)
    IOWR(CY7C67200_BASE,HPI_DATA,0x0008); //4 port number
    1ffc:	00c24834 	movhi	r3,2336
    2000:	18c01c04 	addi	r3,r3,112
    2004:	00800204 	movi	r2,8
    2008:	18800035 	stwio	r2,0(r3)
    IOWR(CY7C67200_BASE,HPI_DATA,0x02D0); //device address
    200c:	00c24834 	movhi	r3,2336
    2010:	18c01c04 	addi	r3,r3,112
    2014:	0080b404 	movi	r2,720
    2018:	18800035 	stwio	r2,0(r3)
    IOWR(CY7C67200_BASE,HPI_DATA,0x0001);
    201c:	00c24834 	movhi	r3,2336
    2020:	18c01c04 	addi	r3,r3,112
    2024:	00800044 	movi	r2,1
    2028:	18800035 	stwio	r2,0(r3)
    IOWR(CY7C67200_BASE,HPI_DATA,0x0013);
    202c:	00c24834 	movhi	r3,2336
    2030:	18c01c04 	addi	r3,r3,112
    2034:	008004c4 	movi	r2,19
    2038:	18800035 	stwio	r2,0(r3)
    IOWR(CY7C67200_BASE,HPI_DATA,0x0514);
    203c:	00c24834 	movhi	r3,2336
    2040:	18c01c04 	addi	r3,r3,112
    2044:	00814504 	movi	r2,1300
    2048:	18800035 	stwio	r2,0(r3)
    
    //td content 4 bytes
    IOWR(CY7C67200_BASE,HPI_DATA,0x0680);//c
    204c:	00c24834 	movhi	r3,2336
    2050:	18c01c04 	addi	r3,r3,112
    2054:	0081a004 	movi	r2,1664
    2058:	18800035 	stwio	r2,0(r3)
    IOWR(CY7C67200_BASE,HPI_DATA,0x0200);//e
    205c:	00c24834 	movhi	r3,2336
    2060:	18c01c04 	addi	r3,r3,112
    2064:	00808004 	movi	r2,512
    2068:	18800035 	stwio	r2,0(r3)
    IOWR(CY7C67200_BASE,HPI_DATA,0x0000);//0
    206c:	00824834 	movhi	r2,2336
    2070:	10801c04 	addi	r2,r2,112
    2074:	10000035 	stwio	zero,0(r2)
    IOWR(CY7C67200_BASE,HPI_DATA,0x0009);//2
    2078:	00c24834 	movhi	r3,2336
    207c:	18c01c04 	addi	r3,r3,112
    2080:	00800244 	movi	r2,9
    2084:	18800035 	stwio	r2,0(r3)
    
    //data phase IN-1
    IOWR(CY7C67200_BASE,HPI_DATA,0x0544); //514
    2088:	00c24834 	movhi	r3,2336
    208c:	18c01c04 	addi	r3,r3,112
    2090:	00815104 	movi	r2,1348
    2094:	18800035 	stwio	r2,0(r3)
    IOWR(CY7C67200_BASE,HPI_DATA,0x0008);//6
    2098:	00c24834 	movhi	r3,2336
    209c:	18c01c04 	addi	r3,r3,112
    20a0:	00800204 	movi	r2,8
    20a4:	18800035 	stwio	r2,0(r3)
    IOWR(CY7C67200_BASE,HPI_DATA,0x0290);//8
    20a8:	00c24834 	movhi	r3,2336
    20ac:	18c01c04 	addi	r3,r3,112
    20b0:	0080a404 	movi	r2,656
    20b4:	18800035 	stwio	r2,0(r3)
    IOWR(CY7C67200_BASE,HPI_DATA,0x0041);//a
    20b8:	00c24834 	movhi	r3,2336
    20bc:	18c01c04 	addi	r3,r3,112
    20c0:	00801044 	movi	r2,65
    20c4:	18800035 	stwio	r2,0(r3)
    IOWR(CY7C67200_BASE,HPI_DATA,0x0013);//c
    20c8:	00c24834 	movhi	r3,2336
    20cc:	18c01c04 	addi	r3,r3,112
    20d0:	008004c4 	movi	r2,19
    20d4:	18800035 	stwio	r2,0(r3)
    IOWR(CY7C67200_BASE,HPI_DATA,0x0520);//e
    20d8:	00c24834 	movhi	r3,2336
    20dc:	18c01c04 	addi	r3,r3,112
    20e0:	00814804 	movi	r2,1312
    20e4:	18800035 	stwio	r2,0(r3)
    
    //data phase IN-2
    IOWR(CY7C67200_BASE,HPI_DATA,0x054c); //520
    20e8:	00c24834 	movhi	r3,2336
    20ec:	18c01c04 	addi	r3,r3,112
    20f0:	00815304 	movi	r2,1356
    20f4:	18800035 	stwio	r2,0(r3)
    IOWR(CY7C67200_BASE,HPI_DATA,0x0001);//2
    20f8:	00c24834 	movhi	r3,2336
    20fc:	18c01c04 	addi	r3,r3,112
    2100:	00800044 	movi	r2,1
    2104:	18800035 	stwio	r2,0(r3)
    IOWR(CY7C67200_BASE,HPI_DATA,0x0290);//4
    2108:	00c24834 	movhi	r3,2336
    210c:	18c01c04 	addi	r3,r3,112
    2110:	0080a404 	movi	r2,656
    2114:	18800035 	stwio	r2,0(r3)
    IOWR(CY7C67200_BASE,HPI_DATA,0x0001);//6 //data0
    2118:	00c24834 	movhi	r3,2336
    211c:	18c01c04 	addi	r3,r3,112
    2120:	00800044 	movi	r2,1
    2124:	18800035 	stwio	r2,0(r3)
    IOWR(CY7C67200_BASE,HPI_DATA,0x0013);//8
    2128:	00c24834 	movhi	r3,2336
    212c:	18c01c04 	addi	r3,r3,112
    2130:	008004c4 	movi	r2,19
    2134:	18800035 	stwio	r2,0(r3)
    IOWR(CY7C67200_BASE,HPI_DATA,0x052c);//a
    2138:	00c24834 	movhi	r3,2336
    213c:	18c01c04 	addi	r3,r3,112
    2140:	00814b04 	movi	r2,1324
    2144:	18800035 	stwio	r2,0(r3)
    
    //status phase
    IOWR(CY7C67200_BASE,HPI_DATA,0x0000); //52c
    2148:	00824834 	movhi	r2,2336
    214c:	10801c04 	addi	r2,r2,112
    2150:	10000035 	stwio	zero,0(r2)
    IOWR(CY7C67200_BASE,HPI_DATA,0x0000);//e
    2154:	00824834 	movhi	r2,2336
    2158:	10801c04 	addi	r2,r2,112
    215c:	10000035 	stwio	zero,0(r2)
    IOWR(CY7C67200_BASE,HPI_DATA,0x0210);//530
    2160:	00c24834 	movhi	r3,2336
    2164:	18c01c04 	addi	r3,r3,112
    2168:	00808404 	movi	r2,528
    216c:	18800035 	stwio	r2,0(r3)
    IOWR(CY7C67200_BASE,HPI_DATA,0x0041);//2
    2170:	00c24834 	movhi	r3,2336
    2174:	18c01c04 	addi	r3,r3,112
    2178:	00801044 	movi	r2,65
    217c:	18800035 	stwio	r2,0(r3)
    IOWR(CY7C67200_BASE,HPI_DATA,0x0013);//4
    2180:	00c24834 	movhi	r3,2336
    2184:	18c01c04 	addi	r3,r3,112
    2188:	008004c4 	movi	r2,19
    218c:	18800035 	stwio	r2,0(r3)
    IOWR(CY7C67200_BASE,HPI_DATA,0x0000);//6
    2190:	00824834 	movhi	r2,2336
    2194:	10801c04 	addi	r2,r2,112
    2198:	10000035 	stwio	zero,0(r2)
     
    UsbWrite(HUSB_SIE1_pCurrentTDPtr,0x0500); //HUSB_SIE1_pCurrentTDPtr
    219c:	01006c04 	movi	r4,432
    21a0:	01414004 	movi	r5,1280
    21a4:	000482c0 	call	482c <UsbWrite>
    
   //usleep(10*1000);
   //if no message
    while (!(IORD(CY7C67200_BASE,HPI_STATUS) & HPI_STATUS_SIE1msg_FLAG) )  //read sie1 msg register
    21a8:	00007506 	br	2380 <main+0x14d8>
    {
        //resend the get device descriptor
        //get device descriptor

    //the starting address
    IOWR(CY7C67200_BASE,HPI_ADDR,0x0500); //the start address       
    21ac:	00c24834 	movhi	r3,2336
    21b0:	18c01e04 	addi	r3,r3,120
    21b4:	00814004 	movi	r2,1280
    21b8:	18800035 	stwio	r2,0(r3)
    IOWR(CY7C67200_BASE,HPI_DATA,0x050C); 
    21bc:	00c24834 	movhi	r3,2336
    21c0:	18c01c04 	addi	r3,r3,112
    21c4:	00814304 	movi	r2,1292
    21c8:	18800035 	stwio	r2,0(r3)
    IOWR(CY7C67200_BASE,HPI_DATA,0x0008); //4 port number
    21cc:	00c24834 	movhi	r3,2336
    21d0:	18c01c04 	addi	r3,r3,112
    21d4:	00800204 	movi	r2,8
    21d8:	18800035 	stwio	r2,0(r3)
    IOWR(CY7C67200_BASE,HPI_DATA,0x02D0); //device address
    21dc:	00c24834 	movhi	r3,2336
    21e0:	18c01c04 	addi	r3,r3,112
    21e4:	0080b404 	movi	r2,720
    21e8:	18800035 	stwio	r2,0(r3)
    IOWR(CY7C67200_BASE,HPI_DATA,0x0001);
    21ec:	00c24834 	movhi	r3,2336
    21f0:	18c01c04 	addi	r3,r3,112
    21f4:	00800044 	movi	r2,1
    21f8:	18800035 	stwio	r2,0(r3)
    IOWR(CY7C67200_BASE,HPI_DATA,0x0013);
    21fc:	00c24834 	movhi	r3,2336
    2200:	18c01c04 	addi	r3,r3,112
    2204:	008004c4 	movi	r2,19
    2208:	18800035 	stwio	r2,0(r3)
    IOWR(CY7C67200_BASE,HPI_DATA,0x0514);
    220c:	00c24834 	movhi	r3,2336
    2210:	18c01c04 	addi	r3,r3,112
    2214:	00814504 	movi	r2,1300
    2218:	18800035 	stwio	r2,0(r3)
    
    //td content 4 bytes
    IOWR(CY7C67200_BASE,HPI_DATA,0x0680);//c
    221c:	00c24834 	movhi	r3,2336
    2220:	18c01c04 	addi	r3,r3,112
    2224:	0081a004 	movi	r2,1664
    2228:	18800035 	stwio	r2,0(r3)
    IOWR(CY7C67200_BASE,HPI_DATA,0x0200);//e
    222c:	00c24834 	movhi	r3,2336
    2230:	18c01c04 	addi	r3,r3,112
    2234:	00808004 	movi	r2,512
    2238:	18800035 	stwio	r2,0(r3)
    IOWR(CY7C67200_BASE,HPI_DATA,0x0000);//0
    223c:	00824834 	movhi	r2,2336
    2240:	10801c04 	addi	r2,r2,112
    2244:	10000035 	stwio	zero,0(r2)
    IOWR(CY7C67200_BASE,HPI_DATA,0x0009);//2
    2248:	00c24834 	movhi	r3,2336
    224c:	18c01c04 	addi	r3,r3,112
    2250:	00800244 	movi	r2,9
    2254:	18800035 	stwio	r2,0(r3)
    
    //data phase IN-1
    IOWR(CY7C67200_BASE,HPI_DATA,0x0544); //514
    2258:	00c24834 	movhi	r3,2336
    225c:	18c01c04 	addi	r3,r3,112
    2260:	00815104 	movi	r2,1348
    2264:	18800035 	stwio	r2,0(r3)
    IOWR(CY7C67200_BASE,HPI_DATA,0x0008);//6
    2268:	00c24834 	movhi	r3,2336
    226c:	18c01c04 	addi	r3,r3,112
    2270:	00800204 	movi	r2,8
    2274:	18800035 	stwio	r2,0(r3)
    IOWR(CY7C67200_BASE,HPI_DATA,0x0290);//8
    2278:	00c24834 	movhi	r3,2336
    227c:	18c01c04 	addi	r3,r3,112
    2280:	0080a404 	movi	r2,656
    2284:	18800035 	stwio	r2,0(r3)
    IOWR(CY7C67200_BASE,HPI_DATA,0x0041);//a
    2288:	00c24834 	movhi	r3,2336
    228c:	18c01c04 	addi	r3,r3,112
    2290:	00801044 	movi	r2,65
    2294:	18800035 	stwio	r2,0(r3)
    IOWR(CY7C67200_BASE,HPI_DATA,0x0013);//c
    2298:	00c24834 	movhi	r3,2336
    229c:	18c01c04 	addi	r3,r3,112
    22a0:	008004c4 	movi	r2,19
    22a4:	18800035 	stwio	r2,0(r3)
    IOWR(CY7C67200_BASE,HPI_DATA,0x0520);//e
    22a8:	00c24834 	movhi	r3,2336
    22ac:	18c01c04 	addi	r3,r3,112
    22b0:	00814804 	movi	r2,1312
    22b4:	18800035 	stwio	r2,0(r3)
    
    //data phase IN-2
    IOWR(CY7C67200_BASE,HPI_DATA,0x054c); //520
    22b8:	00c24834 	movhi	r3,2336
    22bc:	18c01c04 	addi	r3,r3,112
    22c0:	00815304 	movi	r2,1356
    22c4:	18800035 	stwio	r2,0(r3)
    IOWR(CY7C67200_BASE,HPI_DATA,0x0001);//2
    22c8:	00c24834 	movhi	r3,2336
    22cc:	18c01c04 	addi	r3,r3,112
    22d0:	00800044 	movi	r2,1
    22d4:	18800035 	stwio	r2,0(r3)
    IOWR(CY7C67200_BASE,HPI_DATA,0x0290);//4
    22d8:	00c24834 	movhi	r3,2336
    22dc:	18c01c04 	addi	r3,r3,112
    22e0:	0080a404 	movi	r2,656
    22e4:	18800035 	stwio	r2,0(r3)
    IOWR(CY7C67200_BASE,HPI_DATA,0x0001);//6 //data0
    22e8:	00c24834 	movhi	r3,2336
    22ec:	18c01c04 	addi	r3,r3,112
    22f0:	00800044 	movi	r2,1
    22f4:	18800035 	stwio	r2,0(r3)
    IOWR(CY7C67200_BASE,HPI_DATA,0x0013);//8
    22f8:	00c24834 	movhi	r3,2336
    22fc:	18c01c04 	addi	r3,r3,112
    2300:	008004c4 	movi	r2,19
    2304:	18800035 	stwio	r2,0(r3)
    IOWR(CY7C67200_BASE,HPI_DATA,0x052c);//a
    2308:	00c24834 	movhi	r3,2336
    230c:	18c01c04 	addi	r3,r3,112
    2310:	00814b04 	movi	r2,1324
    2314:	18800035 	stwio	r2,0(r3)
    
    //status phase
    IOWR(CY7C67200_BASE,HPI_DATA,0x0000); //52c
    2318:	00824834 	movhi	r2,2336
    231c:	10801c04 	addi	r2,r2,112
    2320:	10000035 	stwio	zero,0(r2)
    IOWR(CY7C67200_BASE,HPI_DATA,0x0000);//e
    2324:	00824834 	movhi	r2,2336
    2328:	10801c04 	addi	r2,r2,112
    232c:	10000035 	stwio	zero,0(r2)
    IOWR(CY7C67200_BASE,HPI_DATA,0x0210);//530
    2330:	00c24834 	movhi	r3,2336
    2334:	18c01c04 	addi	r3,r3,112
    2338:	00808404 	movi	r2,528
    233c:	18800035 	stwio	r2,0(r3)
    IOWR(CY7C67200_BASE,HPI_DATA,0x0041);//2
    2340:	00c24834 	movhi	r3,2336
    2344:	18c01c04 	addi	r3,r3,112
    2348:	00801044 	movi	r2,65
    234c:	18800035 	stwio	r2,0(r3)
    IOWR(CY7C67200_BASE,HPI_DATA,0x0013);//4
    2350:	00c24834 	movhi	r3,2336
    2354:	18c01c04 	addi	r3,r3,112
    2358:	008004c4 	movi	r2,19
    235c:	18800035 	stwio	r2,0(r3)
    IOWR(CY7C67200_BASE,HPI_DATA,0x0000);//6
    2360:	00824834 	movhi	r2,2336
    2364:	10801c04 	addi	r2,r2,112
    2368:	10000035 	stwio	zero,0(r2)
     
    UsbWrite(HUSB_SIE1_pCurrentTDPtr,0x0500); //HUSB_SIE1_pCurrentTDPtr
    236c:	01006c04 	movi	r4,432
    2370:	01414004 	movi	r5,1280
    2374:	000482c0 	call	482c <UsbWrite>
    usleep(10*1000);
    2378:	0109c404 	movi	r4,10000
    237c:	00148100 	call	14810 <usleep>
     
    UsbWrite(HUSB_SIE1_pCurrentTDPtr,0x0500); //HUSB_SIE1_pCurrentTDPtr
    
   //usleep(10*1000);
   //if no message
    while (!(IORD(CY7C67200_BASE,HPI_STATUS) & HPI_STATUS_SIE1msg_FLAG) )  //read sie1 msg register
    2380:	00824834 	movhi	r2,2336
    2384:	10801f04 	addi	r2,r2,124
    2388:	10800037 	ldwio	r2,0(r2)
    238c:	1080040c 	andi	r2,r2,16
    2390:	1005003a 	cmpeq	r2,r2,zero
    2394:	103f851e 	bne	r2,zero,21ac <main+0x1304>
     
    UsbWrite(HUSB_SIE1_pCurrentTDPtr,0x0500); //HUSB_SIE1_pCurrentTDPtr
    usleep(10*1000);
    }
    
    usb_ctl_val = UsbRead(HPI_SIE1_MSG_ADR);
    2398:	01005104 	movi	r4,324
    239c:	00048700 	call	4870 <UsbRead>
    23a0:	e0bffe8d 	sth	r2,-6(fp)
    UsbWrite(HPI_SIE1_MSG_ADR, 0);
    23a4:	01005104 	movi	r4,324
    23a8:	000b883a 	mov	r5,zero
    23ac:	000482c0 	call	482c <UsbWrite>
    while (usb_ctl_val != 0x1000)  //read sie1 msg register
    23b0:	00000d06 	br	23e8 <main+0x1540>
    {
       if(usb_ctl_val == 0x000)
    23b4:	e0bffe8b 	ldhu	r2,-6(fp)
    23b8:	1005003a 	cmpeq	r2,r2,zero
    23bc:	1000041e 	bne	r2,zero,23d0 <main+0x1528>
       {
       }
       else
       {
        printf("[SIE1 MSG]:SIE1 msg reg is %x\n",usb_ctl_val);
    23c0:	e17ffe8b 	ldhu	r5,-6(fp)
    23c4:	01000074 	movhi	r4,1
    23c8:	211ee704 	addi	r4,r4,31644
    23cc:	00055540 	call	5554 <printf>
       }
       usb_ctl_val = UsbRead(HPI_SIE1_MSG_ADR);
    23d0:	01005104 	movi	r4,324
    23d4:	00048700 	call	4870 <UsbRead>
    23d8:	e0bffe8d 	sth	r2,-6(fp)
       UsbWrite(HPI_SIE1_MSG_ADR, 0);
    23dc:	01005104 	movi	r4,324
    23e0:	000b883a 	mov	r5,zero
    23e4:	000482c0 	call	482c <UsbWrite>
    usleep(10*1000);
    }
    
    usb_ctl_val = UsbRead(HPI_SIE1_MSG_ADR);
    UsbWrite(HPI_SIE1_MSG_ADR, 0);
    while (usb_ctl_val != 0x1000)  //read sie1 msg register
    23e8:	e0bffe8b 	ldhu	r2,-6(fp)
    23ec:	10840018 	cmpnei	r2,r2,4096
    23f0:	103ff01e 	bne	r2,zero,23b4 <main+0x150c>
       usb_ctl_val = UsbRead(HPI_SIE1_MSG_ADR);
       UsbWrite(HPI_SIE1_MSG_ADR, 0);
      
    }

    IOWR(CY7C67200_BASE,HPI_ADDR,0x0506);
    23f4:	00c24834 	movhi	r3,2336
    23f8:	18c01e04 	addi	r3,r3,120
    23fc:	00814184 	movi	r2,1286
    2400:	18800035 	stwio	r2,0(r3)
    printf("[ENUM PROCESS]:step 5 TD Status Byte is %x\n",IORD(CY7C67200_BASE,HPI_DATA));
    2404:	00824834 	movhi	r2,2336
    2408:	10801c04 	addi	r2,r2,112
    240c:	11400037 	ldwio	r5,0(r2)
    2410:	01000074 	movhi	r4,1
    2414:	211f5204 	addi	r4,r4,32072
    2418:	00055540 	call	5554 <printf>
    
    IOWR(CY7C67200_BASE,HPI_ADDR,0x0508);
    241c:	00c24834 	movhi	r3,2336
    2420:	18c01e04 	addi	r3,r3,120
    2424:	00814204 	movi	r2,1288
    2428:	18800035 	stwio	r2,0(r3)
    usb_ctl_val = IORD(CY7C67200_BASE,HPI_DATA);
    242c:	00824834 	movhi	r2,2336
    2430:	10801c04 	addi	r2,r2,112
    2434:	10800037 	ldwio	r2,0(r2)
    2438:	e0bffe8d 	sth	r2,-6(fp)
    printf("[ENUM PROCESS]:step 5 TD Control Byte is %x\n",usb_ctl_val);
    243c:	e17ffe8b 	ldhu	r5,-6(fp)
    2440:	01000074 	movhi	r4,1
    2444:	211f5d04 	addi	r4,r4,32116
    2448:	00055540 	call	5554 <printf>
    while (usb_ctl_val != 0x03) 
    244c:	00001906 	br	24b4 <main+0x160c>
    {
       IORD(CY7C67200_BASE,HPI_STATUS);
    2450:	00824834 	movhi	r2,2336
    2454:	10801f04 	addi	r2,r2,124
    2458:	10800037 	ldwio	r2,0(r2)
       if(UsbRead(HPI_SIE1_MSG_ADR) == 0x1000)
    245c:	01005104 	movi	r4,324
    2460:	00048700 	call	4870 <UsbRead>
    2464:	10bfffcc 	andi	r2,r2,65535
    2468:	10840018 	cmpnei	r2,r2,4096
    246c:	1000091e 	bne	r2,zero,2494 <main+0x15ec>
       {
           UsbWrite(HPI_SIE1_MSG_ADR, 0);
    2470:	01005104 	movi	r4,324
    2474:	000b883a 	mov	r5,zero
    2478:	000482c0 	call	482c <UsbWrite>
                   
           while (!(IORD(CY7C67200_BASE,HPI_STATUS) & HPI_STATUS_SIE1msg_FLAG) )  //read sie1 msg register
    247c:	00824834 	movhi	r2,2336
    2480:	10801f04 	addi	r2,r2,124
    2484:	10800037 	ldwio	r2,0(r2)
    2488:	1080040c 	andi	r2,r2,16
    248c:	1005003a 	cmpeq	r2,r2,zero
    2490:	103ffa1e 	bne	r2,zero,247c <main+0x15d4>
           {
            
           }
        }
           //usleep(1000);
           IOWR(CY7C67200_BASE,HPI_ADDR,0x0508);
    2494:	00c24834 	movhi	r3,2336
    2498:	18c01e04 	addi	r3,r3,120
    249c:	00814204 	movi	r2,1288
    24a0:	18800035 	stwio	r2,0(r3)
           usb_ctl_val = IORD(CY7C67200_BASE,HPI_DATA); 
    24a4:	00824834 	movhi	r2,2336
    24a8:	10801c04 	addi	r2,r2,112
    24ac:	10800037 	ldwio	r2,0(r2)
    24b0:	e0bffe8d 	sth	r2,-6(fp)
    printf("[ENUM PROCESS]:step 5 TD Status Byte is %x\n",IORD(CY7C67200_BASE,HPI_DATA));
    
    IOWR(CY7C67200_BASE,HPI_ADDR,0x0508);
    usb_ctl_val = IORD(CY7C67200_BASE,HPI_DATA);
    printf("[ENUM PROCESS]:step 5 TD Control Byte is %x\n",usb_ctl_val);
    while (usb_ctl_val != 0x03) 
    24b4:	e0bffe8b 	ldhu	r2,-6(fp)
    24b8:	108000d8 	cmpnei	r2,r2,3
    24bc:	103fe41e 	bne	r2,zero,2450 <main+0x15a8>
        }
           //usleep(1000);
           IOWR(CY7C67200_BASE,HPI_ADDR,0x0508);
           usb_ctl_val = IORD(CY7C67200_BASE,HPI_DATA); 
    }    
    printf("------------[ENUM PROCESS]:get configuration descriptor-1 pass------------\n");
    24c0:	01000074 	movhi	r4,1
    24c4:	211f6904 	addi	r4,r4,32164
    24c8:	000566c0 	call	566c <puts>
    
    //-----------------------------------get configuration descriptor-2------------------------------------//
    //get device descriptor
    //the starting address
    IOWR(CY7C67200_BASE,HPI_ADDR,0x0500); //the start address       
    24cc:	00c24834 	movhi	r3,2336
    24d0:	18c01e04 	addi	r3,r3,120
    24d4:	00814004 	movi	r2,1280
    24d8:	18800035 	stwio	r2,0(r3)
    IOWR(CY7C67200_BASE,HPI_DATA,0x050C); 
    24dc:	00c24834 	movhi	r3,2336
    24e0:	18c01c04 	addi	r3,r3,112
    24e4:	00814304 	movi	r2,1292
    24e8:	18800035 	stwio	r2,0(r3)
    IOWR(CY7C67200_BASE,HPI_DATA,0x0008); //4 port number
    24ec:	00c24834 	movhi	r3,2336
    24f0:	18c01c04 	addi	r3,r3,112
    24f4:	00800204 	movi	r2,8
    24f8:	18800035 	stwio	r2,0(r3)
    IOWR(CY7C67200_BASE,HPI_DATA,0x02D0); //device address
    24fc:	00c24834 	movhi	r3,2336
    2500:	18c01c04 	addi	r3,r3,112
    2504:	0080b404 	movi	r2,720
    2508:	18800035 	stwio	r2,0(r3)
    IOWR(CY7C67200_BASE,HPI_DATA,0x0001);
    250c:	00c24834 	movhi	r3,2336
    2510:	18c01c04 	addi	r3,r3,112
    2514:	00800044 	movi	r2,1
    2518:	18800035 	stwio	r2,0(r3)
    IOWR(CY7C67200_BASE,HPI_DATA,0x0013);
    251c:	00c24834 	movhi	r3,2336
    2520:	18c01c04 	addi	r3,r3,112
    2524:	008004c4 	movi	r2,19
    2528:	18800035 	stwio	r2,0(r3)
    IOWR(CY7C67200_BASE,HPI_DATA,0x0514);
    252c:	00c24834 	movhi	r3,2336
    2530:	18c01c04 	addi	r3,r3,112
    2534:	00814504 	movi	r2,1300
    2538:	18800035 	stwio	r2,0(r3)
    
    //td content 4 bytes
    IOWR(CY7C67200_BASE,HPI_DATA,0x0680);//c
    253c:	00c24834 	movhi	r3,2336
    2540:	18c01c04 	addi	r3,r3,112
    2544:	0081a004 	movi	r2,1664
    2548:	18800035 	stwio	r2,0(r3)
    IOWR(CY7C67200_BASE,HPI_DATA,0x0200);//e //config 
    254c:	00c24834 	movhi	r3,2336
    2550:	18c01c04 	addi	r3,r3,112
    2554:	00808004 	movi	r2,512
    2558:	18800035 	stwio	r2,0(r3)
    IOWR(CY7C67200_BASE,HPI_DATA,0x0000);//0
    255c:	00824834 	movhi	r2,2336
    2560:	10801c04 	addi	r2,r2,112
    2564:	10000035 	stwio	zero,0(r2)
    IOWR(CY7C67200_BASE,HPI_DATA,0x00FF);//2
    2568:	00c24834 	movhi	r3,2336
    256c:	18c01c04 	addi	r3,r3,112
    2570:	00803fc4 	movi	r2,255
    2574:	18800035 	stwio	r2,0(r3)
    
    //data phase IN-1
    IOWR(CY7C67200_BASE,HPI_DATA,0x055c); //514
    2578:	00c24834 	movhi	r3,2336
    257c:	18c01c04 	addi	r3,r3,112
    2580:	00815704 	movi	r2,1372
    2584:	18800035 	stwio	r2,0(r3)
    IOWR(CY7C67200_BASE,HPI_DATA,0x0008);//6
    2588:	00c24834 	movhi	r3,2336
    258c:	18c01c04 	addi	r3,r3,112
    2590:	00800204 	movi	r2,8
    2594:	18800035 	stwio	r2,0(r3)
    IOWR(CY7C67200_BASE,HPI_DATA,0x0290);//8
    2598:	00c24834 	movhi	r3,2336
    259c:	18c01c04 	addi	r3,r3,112
    25a0:	0080a404 	movi	r2,656
    25a4:	18800035 	stwio	r2,0(r3)
    IOWR(CY7C67200_BASE,HPI_DATA,0x0041);//a
    25a8:	00c24834 	movhi	r3,2336
    25ac:	18c01c04 	addi	r3,r3,112
    25b0:	00801044 	movi	r2,65
    25b4:	18800035 	stwio	r2,0(r3)
    IOWR(CY7C67200_BASE,HPI_DATA,0x0013);//c
    25b8:	00c24834 	movhi	r3,2336
    25bc:	18c01c04 	addi	r3,r3,112
    25c0:	008004c4 	movi	r2,19
    25c4:	18800035 	stwio	r2,0(r3)
    IOWR(CY7C67200_BASE,HPI_DATA,0x0520);//e
    25c8:	00c24834 	movhi	r3,2336
    25cc:	18c01c04 	addi	r3,r3,112
    25d0:	00814804 	movi	r2,1312
    25d4:	18800035 	stwio	r2,0(r3)
    
    //data phase IN-2
    IOWR(CY7C67200_BASE,HPI_DATA,0x0564); //520
    25d8:	00c24834 	movhi	r3,2336
    25dc:	18c01c04 	addi	r3,r3,112
    25e0:	00815904 	movi	r2,1380
    25e4:	18800035 	stwio	r2,0(r3)
    IOWR(CY7C67200_BASE,HPI_DATA,0x0008);//2
    25e8:	00c24834 	movhi	r3,2336
    25ec:	18c01c04 	addi	r3,r3,112
    25f0:	00800204 	movi	r2,8
    25f4:	18800035 	stwio	r2,0(r3)
    IOWR(CY7C67200_BASE,HPI_DATA,0x0290);//4
    25f8:	00c24834 	movhi	r3,2336
    25fc:	18c01c04 	addi	r3,r3,112
    2600:	0080a404 	movi	r2,656
    2604:	18800035 	stwio	r2,0(r3)
    IOWR(CY7C67200_BASE,HPI_DATA,0x0001);//6 //data0
    2608:	00c24834 	movhi	r3,2336
    260c:	18c01c04 	addi	r3,r3,112
    2610:	00800044 	movi	r2,1
    2614:	18800035 	stwio	r2,0(r3)
    IOWR(CY7C67200_BASE,HPI_DATA,0x0013);//8
    2618:	00c24834 	movhi	r3,2336
    261c:	18c01c04 	addi	r3,r3,112
    2620:	008004c4 	movi	r2,19
    2624:	18800035 	stwio	r2,0(r3)
    IOWR(CY7C67200_BASE,HPI_DATA,0x052c);//a
    2628:	00c24834 	movhi	r3,2336
    262c:	18c01c04 	addi	r3,r3,112
    2630:	00814b04 	movi	r2,1324
    2634:	18800035 	stwio	r2,0(r3)
    
    //data phase IN-3
    IOWR(CY7C67200_BASE,HPI_DATA,0x056c); //52c
    2638:	00c24834 	movhi	r3,2336
    263c:	18c01c04 	addi	r3,r3,112
    2640:	00815b04 	movi	r2,1388
    2644:	18800035 	stwio	r2,0(r3)
    IOWR(CY7C67200_BASE,HPI_DATA,0x0008);//e
    2648:	00c24834 	movhi	r3,2336
    264c:	18c01c04 	addi	r3,r3,112
    2650:	00800204 	movi	r2,8
    2654:	18800035 	stwio	r2,0(r3)
    IOWR(CY7C67200_BASE,HPI_DATA,0x0290);//530
    2658:	00c24834 	movhi	r3,2336
    265c:	18c01c04 	addi	r3,r3,112
    2660:	0080a404 	movi	r2,656
    2664:	18800035 	stwio	r2,0(r3)
    IOWR(CY7C67200_BASE,HPI_DATA,0x0041);//2
    2668:	00c24834 	movhi	r3,2336
    266c:	18c01c04 	addi	r3,r3,112
    2670:	00801044 	movi	r2,65
    2674:	18800035 	stwio	r2,0(r3)
    IOWR(CY7C67200_BASE,HPI_DATA,0x0013);//4
    2678:	00c24834 	movhi	r3,2336
    267c:	18c01c04 	addi	r3,r3,112
    2680:	008004c4 	movi	r2,19
    2684:	18800035 	stwio	r2,0(r3)
    IOWR(CY7C67200_BASE,HPI_DATA,0x0538);//6
    2688:	00c24834 	movhi	r3,2336
    268c:	18c01c04 	addi	r3,r3,112
    2690:	00814e04 	movi	r2,1336
    2694:	18800035 	stwio	r2,0(r3)
    
    //data phase IN-4
    IOWR(CY7C67200_BASE,HPI_DATA,0x0574); //538
    2698:	00c24834 	movhi	r3,2336
    269c:	18c01c04 	addi	r3,r3,112
    26a0:	00815d04 	movi	r2,1396
    26a4:	18800035 	stwio	r2,0(r3)
    IOWR(CY7C67200_BASE,HPI_DATA,0x0008);//a
    26a8:	00c24834 	movhi	r3,2336
    26ac:	18c01c04 	addi	r3,r3,112
    26b0:	00800204 	movi	r2,8
    26b4:	18800035 	stwio	r2,0(r3)
    IOWR(CY7C67200_BASE,HPI_DATA,0x0290);//c
    26b8:	00c24834 	movhi	r3,2336
    26bc:	18c01c04 	addi	r3,r3,112
    26c0:	0080a404 	movi	r2,656
    26c4:	18800035 	stwio	r2,0(r3)
    IOWR(CY7C67200_BASE,HPI_DATA,0x0001);//e //data0
    26c8:	00c24834 	movhi	r3,2336
    26cc:	18c01c04 	addi	r3,r3,112
    26d0:	00800044 	movi	r2,1
    26d4:	18800035 	stwio	r2,0(r3)
    IOWR(CY7C67200_BASE,HPI_DATA,0x0013);//540
    26d8:	00c24834 	movhi	r3,2336
    26dc:	18c01c04 	addi	r3,r3,112
    26e0:	008004c4 	movi	r2,19
    26e4:	18800035 	stwio	r2,0(r3)
    IOWR(CY7C67200_BASE,HPI_DATA,0x0544);//2
    26e8:	00c24834 	movhi	r3,2336
    26ec:	18c01c04 	addi	r3,r3,112
    26f0:	00815104 	movi	r2,1348
    26f4:	18800035 	stwio	r2,0(r3)
    
    //data phase IN-5
    IOWR(CY7C67200_BASE,HPI_DATA,0x057c); //544
    26f8:	00c24834 	movhi	r3,2336
    26fc:	18c01c04 	addi	r3,r3,112
    2700:	00815f04 	movi	r2,1404
    2704:	18800035 	stwio	r2,0(r3)
    IOWR(CY7C67200_BASE,HPI_DATA,0x0002);//6
    2708:	00c24834 	movhi	r3,2336
    270c:	18c01c04 	addi	r3,r3,112
    2710:	00800084 	movi	r2,2
    2714:	18800035 	stwio	r2,0(r3)
    IOWR(CY7C67200_BASE,HPI_DATA,0x0290);//8
    2718:	00c24834 	movhi	r3,2336
    271c:	18c01c04 	addi	r3,r3,112
    2720:	0080a404 	movi	r2,656
    2724:	18800035 	stwio	r2,0(r3)
    IOWR(CY7C67200_BASE,HPI_DATA,0x0041);//a //data1
    2728:	00c24834 	movhi	r3,2336
    272c:	18c01c04 	addi	r3,r3,112
    2730:	00801044 	movi	r2,65
    2734:	18800035 	stwio	r2,0(r3)
    IOWR(CY7C67200_BASE,HPI_DATA,0x0013);//c
    2738:	00c24834 	movhi	r3,2336
    273c:	18c01c04 	addi	r3,r3,112
    2740:	008004c4 	movi	r2,19
    2744:	18800035 	stwio	r2,0(r3)
    IOWR(CY7C67200_BASE,HPI_DATA,0x0550);//e
    2748:	00c24834 	movhi	r3,2336
    274c:	18c01c04 	addi	r3,r3,112
    2750:	00815404 	movi	r2,1360
    2754:	18800035 	stwio	r2,0(r3)
    
    //status phase
    IOWR(CY7C67200_BASE,HPI_DATA,0x0000); //550
    2758:	00824834 	movhi	r2,2336
    275c:	10801c04 	addi	r2,r2,112
    2760:	10000035 	stwio	zero,0(r2)
    IOWR(CY7C67200_BASE,HPI_DATA,0x0000);//2
    2764:	00824834 	movhi	r2,2336
    2768:	10801c04 	addi	r2,r2,112
    276c:	10000035 	stwio	zero,0(r2)
    IOWR(CY7C67200_BASE,HPI_DATA,0x0210);//4
    2770:	00c24834 	movhi	r3,2336
    2774:	18c01c04 	addi	r3,r3,112
    2778:	00808404 	movi	r2,528
    277c:	18800035 	stwio	r2,0(r3)
    IOWR(CY7C67200_BASE,HPI_DATA,0x0041);//6
    2780:	00c24834 	movhi	r3,2336
    2784:	18c01c04 	addi	r3,r3,112
    2788:	00801044 	movi	r2,65
    278c:	18800035 	stwio	r2,0(r3)
    IOWR(CY7C67200_BASE,HPI_DATA,0x0013);//8
    2790:	00c24834 	movhi	r3,2336
    2794:	18c01c04 	addi	r3,r3,112
    2798:	008004c4 	movi	r2,19
    279c:	18800035 	stwio	r2,0(r3)
    IOWR(CY7C67200_BASE,HPI_DATA,0x0000);//a
    27a0:	00824834 	movhi	r2,2336
    27a4:	10801c04 	addi	r2,r2,112
    27a8:	10000035 	stwio	zero,0(r2)
     
    UsbWrite(HUSB_SIE1_pCurrentTDPtr,0x0500); //HUSB_SIE1_pCurrentTDPtr
    27ac:	01006c04 	movi	r4,432
    27b0:	01414004 	movi	r5,1280
    27b4:	000482c0 	call	482c <UsbWrite>
    
   usleep(100*1000);
    27b8:	010000b4 	movhi	r4,2
    27bc:	2121a804 	addi	r4,r4,-31072
    27c0:	00148100 	call	14810 <usleep>
   //if no message
    while (!(IORD(CY7C67200_BASE,HPI_STATUS) & HPI_STATUS_SIE1msg_FLAG) )  //read sie1 msg register
    27c4:	0000bd06 	br	2abc <main+0x1c14>
    {
    //the starting address
    IOWR(CY7C67200_BASE,HPI_ADDR,0x0500); //the start address       
    27c8:	00c24834 	movhi	r3,2336
    27cc:	18c01e04 	addi	r3,r3,120
    27d0:	00814004 	movi	r2,1280
    27d4:	18800035 	stwio	r2,0(r3)
    IOWR(CY7C67200_BASE,HPI_DATA,0x050C); 
    27d8:	00c24834 	movhi	r3,2336
    27dc:	18c01c04 	addi	r3,r3,112
    27e0:	00814304 	movi	r2,1292
    27e4:	18800035 	stwio	r2,0(r3)
    IOWR(CY7C67200_BASE,HPI_DATA,0x0008); //4 port number
    27e8:	00c24834 	movhi	r3,2336
    27ec:	18c01c04 	addi	r3,r3,112
    27f0:	00800204 	movi	r2,8
    27f4:	18800035 	stwio	r2,0(r3)
    IOWR(CY7C67200_BASE,HPI_DATA,0x02D0); //device address
    27f8:	00c24834 	movhi	r3,2336
    27fc:	18c01c04 	addi	r3,r3,112
    2800:	0080b404 	movi	r2,720
    2804:	18800035 	stwio	r2,0(r3)
    IOWR(CY7C67200_BASE,HPI_DATA,0x0001);
    2808:	00c24834 	movhi	r3,2336
    280c:	18c01c04 	addi	r3,r3,112
    2810:	00800044 	movi	r2,1
    2814:	18800035 	stwio	r2,0(r3)
    IOWR(CY7C67200_BASE,HPI_DATA,0x0013);
    2818:	00c24834 	movhi	r3,2336
    281c:	18c01c04 	addi	r3,r3,112
    2820:	008004c4 	movi	r2,19
    2824:	18800035 	stwio	r2,0(r3)
    IOWR(CY7C67200_BASE,HPI_DATA,0x0514);
    2828:	00c24834 	movhi	r3,2336
    282c:	18c01c04 	addi	r3,r3,112
    2830:	00814504 	movi	r2,1300
    2834:	18800035 	stwio	r2,0(r3)
    
    //td content 4 bytes
    IOWR(CY7C67200_BASE,HPI_DATA,0x0680);//c
    2838:	00c24834 	movhi	r3,2336
    283c:	18c01c04 	addi	r3,r3,112
    2840:	0081a004 	movi	r2,1664
    2844:	18800035 	stwio	r2,0(r3)
    IOWR(CY7C67200_BASE,HPI_DATA,0x0200);//e //config 
    2848:	00c24834 	movhi	r3,2336
    284c:	18c01c04 	addi	r3,r3,112
    2850:	00808004 	movi	r2,512
    2854:	18800035 	stwio	r2,0(r3)
    IOWR(CY7C67200_BASE,HPI_DATA,0x0000);//0
    2858:	00824834 	movhi	r2,2336
    285c:	10801c04 	addi	r2,r2,112
    2860:	10000035 	stwio	zero,0(r2)
    IOWR(CY7C67200_BASE,HPI_DATA,0x00FF);//2
    2864:	00c24834 	movhi	r3,2336
    2868:	18c01c04 	addi	r3,r3,112
    286c:	00803fc4 	movi	r2,255
    2870:	18800035 	stwio	r2,0(r3)
    
    //data phase IN-1
    IOWR(CY7C67200_BASE,HPI_DATA,0x055c); //514
    2874:	00c24834 	movhi	r3,2336
    2878:	18c01c04 	addi	r3,r3,112
    287c:	00815704 	movi	r2,1372
    2880:	18800035 	stwio	r2,0(r3)
    IOWR(CY7C67200_BASE,HPI_DATA,0x0008);//6
    2884:	00c24834 	movhi	r3,2336
    2888:	18c01c04 	addi	r3,r3,112
    288c:	00800204 	movi	r2,8
    2890:	18800035 	stwio	r2,0(r3)
    IOWR(CY7C67200_BASE,HPI_DATA,0x0290);//8
    2894:	00c24834 	movhi	r3,2336
    2898:	18c01c04 	addi	r3,r3,112
    289c:	0080a404 	movi	r2,656
    28a0:	18800035 	stwio	r2,0(r3)
    IOWR(CY7C67200_BASE,HPI_DATA,0x0041);//a
    28a4:	00c24834 	movhi	r3,2336
    28a8:	18c01c04 	addi	r3,r3,112
    28ac:	00801044 	movi	r2,65
    28b0:	18800035 	stwio	r2,0(r3)
    IOWR(CY7C67200_BASE,HPI_DATA,0x0013);//c
    28b4:	00c24834 	movhi	r3,2336
    28b8:	18c01c04 	addi	r3,r3,112
    28bc:	008004c4 	movi	r2,19
    28c0:	18800035 	stwio	r2,0(r3)
    IOWR(CY7C67200_BASE,HPI_DATA,0x0520);//e
    28c4:	00c24834 	movhi	r3,2336
    28c8:	18c01c04 	addi	r3,r3,112
    28cc:	00814804 	movi	r2,1312
    28d0:	18800035 	stwio	r2,0(r3)
    
    //data phase IN-2
    IOWR(CY7C67200_BASE,HPI_DATA,0x0564); //520
    28d4:	00c24834 	movhi	r3,2336
    28d8:	18c01c04 	addi	r3,r3,112
    28dc:	00815904 	movi	r2,1380
    28e0:	18800035 	stwio	r2,0(r3)
    IOWR(CY7C67200_BASE,HPI_DATA,0x0008);//2
    28e4:	00c24834 	movhi	r3,2336
    28e8:	18c01c04 	addi	r3,r3,112
    28ec:	00800204 	movi	r2,8
    28f0:	18800035 	stwio	r2,0(r3)
    IOWR(CY7C67200_BASE,HPI_DATA,0x0290);//4
    28f4:	00c24834 	movhi	r3,2336
    28f8:	18c01c04 	addi	r3,r3,112
    28fc:	0080a404 	movi	r2,656
    2900:	18800035 	stwio	r2,0(r3)
    IOWR(CY7C67200_BASE,HPI_DATA,0x0001);//6 //data0
    2904:	00c24834 	movhi	r3,2336
    2908:	18c01c04 	addi	r3,r3,112
    290c:	00800044 	movi	r2,1
    2910:	18800035 	stwio	r2,0(r3)
    IOWR(CY7C67200_BASE,HPI_DATA,0x0013);//8
    2914:	00c24834 	movhi	r3,2336
    2918:	18c01c04 	addi	r3,r3,112
    291c:	008004c4 	movi	r2,19
    2920:	18800035 	stwio	r2,0(r3)
    IOWR(CY7C67200_BASE,HPI_DATA,0x052c);//a
    2924:	00c24834 	movhi	r3,2336
    2928:	18c01c04 	addi	r3,r3,112
    292c:	00814b04 	movi	r2,1324
    2930:	18800035 	stwio	r2,0(r3)
    
    //data phase IN-3
    IOWR(CY7C67200_BASE,HPI_DATA,0x056c); //52c
    2934:	00c24834 	movhi	r3,2336
    2938:	18c01c04 	addi	r3,r3,112
    293c:	00815b04 	movi	r2,1388
    2940:	18800035 	stwio	r2,0(r3)
    IOWR(CY7C67200_BASE,HPI_DATA,0x0008);//e
    2944:	00c24834 	movhi	r3,2336
    2948:	18c01c04 	addi	r3,r3,112
    294c:	00800204 	movi	r2,8
    2950:	18800035 	stwio	r2,0(r3)
    IOWR(CY7C67200_BASE,HPI_DATA,0x0290);//530
    2954:	00c24834 	movhi	r3,2336
    2958:	18c01c04 	addi	r3,r3,112
    295c:	0080a404 	movi	r2,656
    2960:	18800035 	stwio	r2,0(r3)
    IOWR(CY7C67200_BASE,HPI_DATA,0x0041);//2
    2964:	00c24834 	movhi	r3,2336
    2968:	18c01c04 	addi	r3,r3,112
    296c:	00801044 	movi	r2,65
    2970:	18800035 	stwio	r2,0(r3)
    IOWR(CY7C67200_BASE,HPI_DATA,0x0013);//4
    2974:	00c24834 	movhi	r3,2336
    2978:	18c01c04 	addi	r3,r3,112
    297c:	008004c4 	movi	r2,19
    2980:	18800035 	stwio	r2,0(r3)
    IOWR(CY7C67200_BASE,HPI_DATA,0x0538);//6
    2984:	00c24834 	movhi	r3,2336
    2988:	18c01c04 	addi	r3,r3,112
    298c:	00814e04 	movi	r2,1336
    2990:	18800035 	stwio	r2,0(r3)
    
    //data phase IN-4
    IOWR(CY7C67200_BASE,HPI_DATA,0x0574); //538
    2994:	00c24834 	movhi	r3,2336
    2998:	18c01c04 	addi	r3,r3,112
    299c:	00815d04 	movi	r2,1396
    29a0:	18800035 	stwio	r2,0(r3)
    IOWR(CY7C67200_BASE,HPI_DATA,0x0008);//a
    29a4:	00c24834 	movhi	r3,2336
    29a8:	18c01c04 	addi	r3,r3,112
    29ac:	00800204 	movi	r2,8
    29b0:	18800035 	stwio	r2,0(r3)
    IOWR(CY7C67200_BASE,HPI_DATA,0x0290);//c
    29b4:	00c24834 	movhi	r3,2336
    29b8:	18c01c04 	addi	r3,r3,112
    29bc:	0080a404 	movi	r2,656
    29c0:	18800035 	stwio	r2,0(r3)
    IOWR(CY7C67200_BASE,HPI_DATA,0x0001);//e //data0
    29c4:	00c24834 	movhi	r3,2336
    29c8:	18c01c04 	addi	r3,r3,112
    29cc:	00800044 	movi	r2,1
    29d0:	18800035 	stwio	r2,0(r3)
    IOWR(CY7C67200_BASE,HPI_DATA,0x0013);//540
    29d4:	00c24834 	movhi	r3,2336
    29d8:	18c01c04 	addi	r3,r3,112
    29dc:	008004c4 	movi	r2,19
    29e0:	18800035 	stwio	r2,0(r3)
    IOWR(CY7C67200_BASE,HPI_DATA,0x0544);//2
    29e4:	00c24834 	movhi	r3,2336
    29e8:	18c01c04 	addi	r3,r3,112
    29ec:	00815104 	movi	r2,1348
    29f0:	18800035 	stwio	r2,0(r3)
    
    //data phase IN-5
    IOWR(CY7C67200_BASE,HPI_DATA,0x057c); //544
    29f4:	00c24834 	movhi	r3,2336
    29f8:	18c01c04 	addi	r3,r3,112
    29fc:	00815f04 	movi	r2,1404
    2a00:	18800035 	stwio	r2,0(r3)
    IOWR(CY7C67200_BASE,HPI_DATA,0x0002);//6
    2a04:	00c24834 	movhi	r3,2336
    2a08:	18c01c04 	addi	r3,r3,112
    2a0c:	00800084 	movi	r2,2
    2a10:	18800035 	stwio	r2,0(r3)
    IOWR(CY7C67200_BASE,HPI_DATA,0x0290);//8
    2a14:	00c24834 	movhi	r3,2336
    2a18:	18c01c04 	addi	r3,r3,112
    2a1c:	0080a404 	movi	r2,656
    2a20:	18800035 	stwio	r2,0(r3)
    IOWR(CY7C67200_BASE,HPI_DATA,0x0041);//a //data1
    2a24:	00c24834 	movhi	r3,2336
    2a28:	18c01c04 	addi	r3,r3,112
    2a2c:	00801044 	movi	r2,65
    2a30:	18800035 	stwio	r2,0(r3)
    IOWR(CY7C67200_BASE,HPI_DATA,0x0013);//c
    2a34:	00c24834 	movhi	r3,2336
    2a38:	18c01c04 	addi	r3,r3,112
    2a3c:	008004c4 	movi	r2,19
    2a40:	18800035 	stwio	r2,0(r3)
    IOWR(CY7C67200_BASE,HPI_DATA,0x0550);//e
    2a44:	00c24834 	movhi	r3,2336
    2a48:	18c01c04 	addi	r3,r3,112
    2a4c:	00815404 	movi	r2,1360
    2a50:	18800035 	stwio	r2,0(r3)
    
    //status phase
    IOWR(CY7C67200_BASE,HPI_DATA,0x0000); //550
    2a54:	00824834 	movhi	r2,2336
    2a58:	10801c04 	addi	r2,r2,112
    2a5c:	10000035 	stwio	zero,0(r2)
    IOWR(CY7C67200_BASE,HPI_DATA,0x0000);//2
    2a60:	00824834 	movhi	r2,2336
    2a64:	10801c04 	addi	r2,r2,112
    2a68:	10000035 	stwio	zero,0(r2)
    IOWR(CY7C67200_BASE,HPI_DATA,0x0210);//4
    2a6c:	00c24834 	movhi	r3,2336
    2a70:	18c01c04 	addi	r3,r3,112
    2a74:	00808404 	movi	r2,528
    2a78:	18800035 	stwio	r2,0(r3)
    IOWR(CY7C67200_BASE,HPI_DATA,0x0041);//6
    2a7c:	00c24834 	movhi	r3,2336
    2a80:	18c01c04 	addi	r3,r3,112
    2a84:	00801044 	movi	r2,65
    2a88:	18800035 	stwio	r2,0(r3)
    IOWR(CY7C67200_BASE,HPI_DATA,0x0013);//8
    2a8c:	00c24834 	movhi	r3,2336
    2a90:	18c01c04 	addi	r3,r3,112
    2a94:	008004c4 	movi	r2,19
    2a98:	18800035 	stwio	r2,0(r3)
    IOWR(CY7C67200_BASE,HPI_DATA,0x0000);//a
    2a9c:	00824834 	movhi	r2,2336
    2aa0:	10801c04 	addi	r2,r2,112
    2aa4:	10000035 	stwio	zero,0(r2)
          
    UsbWrite(HUSB_SIE1_pCurrentTDPtr,0x0500); //HUSB_SIE1_pCurrentTDPtr
    2aa8:	01006c04 	movi	r4,432
    2aac:	01414004 	movi	r5,1280
    2ab0:	000482c0 	call	482c <UsbWrite>
    usleep(10*1000);
    2ab4:	0109c404 	movi	r4,10000
    2ab8:	00148100 	call	14810 <usleep>
     
    UsbWrite(HUSB_SIE1_pCurrentTDPtr,0x0500); //HUSB_SIE1_pCurrentTDPtr
    
   usleep(100*1000);
   //if no message
    while (!(IORD(CY7C67200_BASE,HPI_STATUS) & HPI_STATUS_SIE1msg_FLAG) )  //read sie1 msg register
    2abc:	00824834 	movhi	r2,2336
    2ac0:	10801f04 	addi	r2,r2,124
    2ac4:	10800037 	ldwio	r2,0(r2)
    2ac8:	1080040c 	andi	r2,r2,16
    2acc:	1005003a 	cmpeq	r2,r2,zero
    2ad0:	103f3d1e 	bne	r2,zero,27c8 <main+0x1920>
          
    UsbWrite(HUSB_SIE1_pCurrentTDPtr,0x0500); //HUSB_SIE1_pCurrentTDPtr
    usleep(10*1000);
    }
    //UsbRead(0x01B8);
    usb_ctl_val = UsbRead(HPI_SIE1_MSG_ADR);
    2ad4:	01005104 	movi	r4,324
    2ad8:	00048700 	call	4870 <UsbRead>
    2adc:	e0bffe8d 	sth	r2,-6(fp)
    UsbWrite(HPI_SIE1_MSG_ADR, 0);
    2ae0:	01005104 	movi	r4,324
    2ae4:	000b883a 	mov	r5,zero
    2ae8:	000482c0 	call	482c <UsbWrite>
    while (usb_ctl_val != 0x1000)  //read sie1 msg register
    2aec:	00000d06 	br	2b24 <main+0x1c7c>
    {
       if(usb_ctl_val == 0x000)
    2af0:	e0bffe8b 	ldhu	r2,-6(fp)
    2af4:	1005003a 	cmpeq	r2,r2,zero
    2af8:	1000041e 	bne	r2,zero,2b0c <main+0x1c64>
       {
       }
       else
       {
        printf("[SIE MSG]:SIE1 msg reg is %x\n",usb_ctl_val);
    2afc:	e17ffe8b 	ldhu	r5,-6(fp)
    2b00:	01000074 	movhi	r4,1
    2b04:	211f7c04 	addi	r4,r4,32240
    2b08:	00055540 	call	5554 <printf>
       }
       usb_ctl_val = UsbRead(HPI_SIE1_MSG_ADR);
    2b0c:	01005104 	movi	r4,324
    2b10:	00048700 	call	4870 <UsbRead>
    2b14:	e0bffe8d 	sth	r2,-6(fp)
       UsbWrite(HPI_SIE1_MSG_ADR, 0);
    2b18:	01005104 	movi	r4,324
    2b1c:	000b883a 	mov	r5,zero
    2b20:	000482c0 	call	482c <UsbWrite>
    usleep(10*1000);
    }
    //UsbRead(0x01B8);
    usb_ctl_val = UsbRead(HPI_SIE1_MSG_ADR);
    UsbWrite(HPI_SIE1_MSG_ADR, 0);
    while (usb_ctl_val != 0x1000)  //read sie1 msg register
    2b24:	e0bffe8b 	ldhu	r2,-6(fp)
    2b28:	10840018 	cmpnei	r2,r2,4096
    2b2c:	103ff01e 	bne	r2,zero,2af0 <main+0x1c48>
       usb_ctl_val = UsbRead(HPI_SIE1_MSG_ADR);
       UsbWrite(HPI_SIE1_MSG_ADR, 0);
      
    }

    IOWR(CY7C67200_BASE,HPI_ADDR,0x0506);
    2b30:	00c24834 	movhi	r3,2336
    2b34:	18c01e04 	addi	r3,r3,120
    2b38:	00814184 	movi	r2,1286
    2b3c:	18800035 	stwio	r2,0(r3)
    printf("[ENUM PROCESS]:step 6 TD Status Byte is %x\n",IORD(CY7C67200_BASE,HPI_DATA));
    2b40:	00824834 	movhi	r2,2336
    2b44:	10801c04 	addi	r2,r2,112
    2b48:	11400037 	ldwio	r5,0(r2)
    2b4c:	01000074 	movhi	r4,1
    2b50:	211f8404 	addi	r4,r4,32272
    2b54:	00055540 	call	5554 <printf>
    
    IOWR(CY7C67200_BASE,HPI_ADDR,0x0508);
    2b58:	00c24834 	movhi	r3,2336
    2b5c:	18c01e04 	addi	r3,r3,120
    2b60:	00814204 	movi	r2,1288
    2b64:	18800035 	stwio	r2,0(r3)
    usb_ctl_val = IORD(CY7C67200_BASE,HPI_DATA);
    2b68:	00824834 	movhi	r2,2336
    2b6c:	10801c04 	addi	r2,r2,112
    2b70:	10800037 	ldwio	r2,0(r2)
    2b74:	e0bffe8d 	sth	r2,-6(fp)
    printf("[ENUM PROCESS]:step 6 TD Control Byte is %x\n",usb_ctl_val);
    2b78:	e17ffe8b 	ldhu	r5,-6(fp)
    2b7c:	01000074 	movhi	r4,1
    2b80:	211f8f04 	addi	r4,r4,32316
    2b84:	00055540 	call	5554 <printf>
    while (usb_ctl_val != 0x03) 
    2b88:	00001906 	br	2bf0 <main+0x1d48>
    {
       IORD(CY7C67200_BASE,HPI_STATUS);
    2b8c:	00824834 	movhi	r2,2336
    2b90:	10801f04 	addi	r2,r2,124
    2b94:	10800037 	ldwio	r2,0(r2)
       if(UsbRead(HPI_SIE1_MSG_ADR) == 0x1000)
    2b98:	01005104 	movi	r4,324
    2b9c:	00048700 	call	4870 <UsbRead>
    2ba0:	10bfffcc 	andi	r2,r2,65535
    2ba4:	10840018 	cmpnei	r2,r2,4096
    2ba8:	1000091e 	bne	r2,zero,2bd0 <main+0x1d28>
       {
           UsbWrite(HPI_SIE1_MSG_ADR, 0);
    2bac:	01005104 	movi	r4,324
    2bb0:	000b883a 	mov	r5,zero
    2bb4:	000482c0 	call	482c <UsbWrite>
                   
           while (!(IORD(CY7C67200_BASE,HPI_STATUS) & HPI_STATUS_SIE1msg_FLAG) )  //read sie1 msg register
    2bb8:	00824834 	movhi	r2,2336
    2bbc:	10801f04 	addi	r2,r2,124
    2bc0:	10800037 	ldwio	r2,0(r2)
    2bc4:	1080040c 	andi	r2,r2,16
    2bc8:	1005003a 	cmpeq	r2,r2,zero
    2bcc:	103ffa1e 	bne	r2,zero,2bb8 <main+0x1d10>
           {
            
           }
        }
           //usleep(1000);
           IOWR(CY7C67200_BASE,HPI_ADDR,0x0508);
    2bd0:	00c24834 	movhi	r3,2336
    2bd4:	18c01e04 	addi	r3,r3,120
    2bd8:	00814204 	movi	r2,1288
    2bdc:	18800035 	stwio	r2,0(r3)
           usb_ctl_val = IORD(CY7C67200_BASE,HPI_DATA); 
    2be0:	00824834 	movhi	r2,2336
    2be4:	10801c04 	addi	r2,r2,112
    2be8:	10800037 	ldwio	r2,0(r2)
    2bec:	e0bffe8d 	sth	r2,-6(fp)
    printf("[ENUM PROCESS]:step 6 TD Status Byte is %x\n",IORD(CY7C67200_BASE,HPI_DATA));
    
    IOWR(CY7C67200_BASE,HPI_ADDR,0x0508);
    usb_ctl_val = IORD(CY7C67200_BASE,HPI_DATA);
    printf("[ENUM PROCESS]:step 6 TD Control Byte is %x\n",usb_ctl_val);
    while (usb_ctl_val != 0x03) 
    2bf0:	e0bffe8b 	ldhu	r2,-6(fp)
    2bf4:	108000d8 	cmpnei	r2,r2,3
    2bf8:	103fe41e 	bne	r2,zero,2b8c <main+0x1ce4>
           IOWR(CY7C67200_BASE,HPI_ADDR,0x0508);
           usb_ctl_val = IORD(CY7C67200_BASE,HPI_DATA); 
    }    
       
       
    printf("-----------[ENUM PROCESS]:get configuration descriptor-2 pass!------------\n");
    2bfc:	01000074 	movhi	r4,1
    2c00:	211f9b04 	addi	r4,r4,32364
    2c04:	000566c0 	call	566c <puts>
    

    IOWR(CY7C67200_BASE,HPI_ADDR,0x056c); //the start address
    2c08:	00c24834 	movhi	r3,2336
    2c0c:	18c01e04 	addi	r3,r3,120
    2c10:	00815b04 	movi	r2,1388
    2c14:	18800035 	stwio	r2,0(r3)

    if(  ( IORD(CY7C67200_BASE,HPI_DATA) & 0x0ff)  ==0x02)
    2c18:	00824834 	movhi	r2,2336
    2c1c:	10801c04 	addi	r2,r2,112
    2c20:	10800037 	ldwio	r2,0(r2)
    2c24:	10803fcc 	andi	r2,r2,255
    2c28:	10800098 	cmpnei	r2,r2,2
    2c2c:	1000041e 	bne	r2,zero,2c40 <main+0x1d98>
    {
         printf("\n[INFO]:check TD rec data7 \n[INFO]:Mouse Detected!!!\n\n");
    2c30:	01000074 	movhi	r4,1
    2c34:	211fae04 	addi	r4,r4,32440
    2c38:	000566c0 	call	566c <puts>
    2c3c:	00000306 	br	2c4c <main+0x1da4>
    }
    else
    {
        printf("\n[INFO]:Mouse Not Detected!!! \n\n");
    2c40:	01000074 	movhi	r4,1
    2c44:	211fbc04 	addi	r4,r4,32496
    2c48:	000566c0 	call	566c <puts>
    }
    
    IOWR(CY7C67200_BASE,HPI_ADDR,0x057a); //the start address   
    2c4c:	00c24834 	movhi	r3,2336
    2c50:	18c01e04 	addi	r3,r3,120
    2c54:	00815e84 	movi	r2,1402
    2c58:	18800035 	stwio	r2,0(r3)
      
    data_size = (IORD(CY7C67200_BASE,HPI_DATA)>>8)&0x0ff; 
    2c5c:	00824834 	movhi	r2,2336
    2c60:	10801c04 	addi	r2,r2,112
    2c64:	10800037 	ldwio	r2,0(r2)
    2c68:	1005d23a 	srai	r2,r2,8
    2c6c:	1007883a 	mov	r3,r2
    2c70:	00bfffc4 	movi	r2,-1
    2c74:	1884703a 	and	r2,r3,r2
    2c78:	e0bffa05 	stb	r2,-24(fp)
    printf("[ENUM PROCESS]:data packet size is %d\n",data_size);
    2c7c:	e17ffa03 	ldbu	r5,-24(fp)
    2c80:	01000074 	movhi	r4,1
    2c84:	211fc404 	addi	r4,r4,32528
    2c88:	00055540 	call	5554 <printf>
    
    //------------------------------------set configuration -----------------------------------------//
    //the starting address
    IOWR(CY7C67200_BASE,HPI_ADDR,0x0500); //the start address       
    2c8c:	00c24834 	movhi	r3,2336
    2c90:	18c01e04 	addi	r3,r3,120
    2c94:	00814004 	movi	r2,1280
    2c98:	18800035 	stwio	r2,0(r3)
    IOWR(CY7C67200_BASE,HPI_DATA,0x050C); 
    2c9c:	00c24834 	movhi	r3,2336
    2ca0:	18c01c04 	addi	r3,r3,112
    2ca4:	00814304 	movi	r2,1292
    2ca8:	18800035 	stwio	r2,0(r3)
    IOWR(CY7C67200_BASE,HPI_DATA,0x0008); //4 port number
    2cac:	00c24834 	movhi	r3,2336
    2cb0:	18c01c04 	addi	r3,r3,112
    2cb4:	00800204 	movi	r2,8
    2cb8:	18800035 	stwio	r2,0(r3)
    IOWR(CY7C67200_BASE,HPI_DATA,0x02D0); //port address
    2cbc:	00c24834 	movhi	r3,2336
    2cc0:	18c01c04 	addi	r3,r3,112
    2cc4:	0080b404 	movi	r2,720
    2cc8:	18800035 	stwio	r2,0(r3)
    IOWR(CY7C67200_BASE,HPI_DATA,0x0001);
    2ccc:	00c24834 	movhi	r3,2336
    2cd0:	18c01c04 	addi	r3,r3,112
    2cd4:	00800044 	movi	r2,1
    2cd8:	18800035 	stwio	r2,0(r3)
    IOWR(CY7C67200_BASE,HPI_DATA,0x0013);
    2cdc:	00c24834 	movhi	r3,2336
    2ce0:	18c01c04 	addi	r3,r3,112
    2ce4:	008004c4 	movi	r2,19
    2ce8:	18800035 	stwio	r2,0(r3)
    IOWR(CY7C67200_BASE,HPI_DATA,0x0514);
    2cec:	00c24834 	movhi	r3,2336
    2cf0:	18c01c04 	addi	r3,r3,112
    2cf4:	00814504 	movi	r2,1300
    2cf8:	18800035 	stwio	r2,0(r3)
    
    //td content 4 bytes
    IOWR(CY7C67200_BASE,HPI_DATA,0x0900);
    2cfc:	00c24834 	movhi	r3,2336
    2d00:	18c01c04 	addi	r3,r3,112
    2d04:	00824004 	movi	r2,2304
    2d08:	18800035 	stwio	r2,0(r3)
    IOWR(CY7C67200_BASE,HPI_DATA,0x0001);//device address   
    2d0c:	00c24834 	movhi	r3,2336
    2d10:	18c01c04 	addi	r3,r3,112
    2d14:	00800044 	movi	r2,1
    2d18:	18800035 	stwio	r2,0(r3)
    IOWR(CY7C67200_BASE,HPI_DATA,0x0000);
    2d1c:	00824834 	movhi	r2,2336
    2d20:	10801c04 	addi	r2,r2,112
    2d24:	10000035 	stwio	zero,0(r2)
    IOWR(CY7C67200_BASE,HPI_DATA,0x0000);
    2d28:	00824834 	movhi	r2,2336
    2d2c:	10801c04 	addi	r2,r2,112
    2d30:	10000035 	stwio	zero,0(r2)
    //in packet
    IOWR(CY7C67200_BASE,HPI_DATA,0x0000); //don't care
    2d34:	00824834 	movhi	r2,2336
    2d38:	10801c04 	addi	r2,r2,112
    2d3c:	10000035 	stwio	zero,0(r2)
    IOWR(CY7C67200_BASE,HPI_DATA,0x0000);//port number
    2d40:	00824834 	movhi	r2,2336
    2d44:	10801c04 	addi	r2,r2,112
    2d48:	10000035 	stwio	zero,0(r2)
    IOWR(CY7C67200_BASE,HPI_DATA,0x0290);//device address
    2d4c:	00c24834 	movhi	r3,2336
    2d50:	18c01c04 	addi	r3,r3,112
    2d54:	0080a404 	movi	r2,656
    2d58:	18800035 	stwio	r2,0(r3)
    IOWR(CY7C67200_BASE,HPI_DATA,0x0041); //data 1
    2d5c:	00c24834 	movhi	r3,2336
    2d60:	18c01c04 	addi	r3,r3,112
    2d64:	00801044 	movi	r2,65
    2d68:	18800035 	stwio	r2,0(r3)
    IOWR(CY7C67200_BASE,HPI_DATA,0x0013);
    2d6c:	00c24834 	movhi	r3,2336
    2d70:	18c01c04 	addi	r3,r3,112
    2d74:	008004c4 	movi	r2,19
    2d78:	18800035 	stwio	r2,0(r3)
    IOWR(CY7C67200_BASE,HPI_DATA,0x0000);
    2d7c:	00824834 	movhi	r2,2336
    2d80:	10801c04 	addi	r2,r2,112
    2d84:	10000035 	stwio	zero,0(r2)
     
    UsbWrite(HUSB_SIE1_pCurrentTDPtr,0x0500); //HUSB_SIE1_pCurrentTDPtr
    2d88:	01006c04 	movi	r4,432
    2d8c:	01414004 	movi	r5,1280
    2d90:	000482c0 	call	482c <UsbWrite>
    //usleep(10*1000);
   
    while (!(IORD(CY7C67200_BASE,HPI_STATUS) & HPI_STATUS_SIE1msg_FLAG) )  //read sie1 msg register
    2d94:	00004406 	br	2ea8 <main+0x2000>
    {
        IOWR(CY7C67200_BASE,HPI_ADDR,0x0500); //the start address       
    2d98:	00c24834 	movhi	r3,2336
    2d9c:	18c01e04 	addi	r3,r3,120
    2da0:	00814004 	movi	r2,1280
    2da4:	18800035 	stwio	r2,0(r3)
        IOWR(CY7C67200_BASE,HPI_DATA,0x050C); 
    2da8:	00c24834 	movhi	r3,2336
    2dac:	18c01c04 	addi	r3,r3,112
    2db0:	00814304 	movi	r2,1292
    2db4:	18800035 	stwio	r2,0(r3)
        IOWR(CY7C67200_BASE,HPI_DATA,0x0008); //4 port number
    2db8:	00c24834 	movhi	r3,2336
    2dbc:	18c01c04 	addi	r3,r3,112
    2dc0:	00800204 	movi	r2,8
    2dc4:	18800035 	stwio	r2,0(r3)
        IOWR(CY7C67200_BASE,HPI_DATA,0x02D0);
    2dc8:	00c24834 	movhi	r3,2336
    2dcc:	18c01c04 	addi	r3,r3,112
    2dd0:	0080b404 	movi	r2,720
    2dd4:	18800035 	stwio	r2,0(r3)
        IOWR(CY7C67200_BASE,HPI_DATA,0x0001);
    2dd8:	00c24834 	movhi	r3,2336
    2ddc:	18c01c04 	addi	r3,r3,112
    2de0:	00800044 	movi	r2,1
    2de4:	18800035 	stwio	r2,0(r3)
        IOWR(CY7C67200_BASE,HPI_DATA,0x0013);
    2de8:	00c24834 	movhi	r3,2336
    2dec:	18c01c04 	addi	r3,r3,112
    2df0:	008004c4 	movi	r2,19
    2df4:	18800035 	stwio	r2,0(r3)
        IOWR(CY7C67200_BASE,HPI_DATA,0x0514);
    2df8:	00c24834 	movhi	r3,2336
    2dfc:	18c01c04 	addi	r3,r3,112
    2e00:	00814504 	movi	r2,1300
    2e04:	18800035 	stwio	r2,0(r3)
    
        //td content 4 bytes
        IOWR(CY7C67200_BASE,HPI_DATA,0x0900);
    2e08:	00c24834 	movhi	r3,2336
    2e0c:	18c01c04 	addi	r3,r3,112
    2e10:	00824004 	movi	r2,2304
    2e14:	18800035 	stwio	r2,0(r3)
        IOWR(CY7C67200_BASE,HPI_DATA,0x0001);//device address   
    2e18:	00c24834 	movhi	r3,2336
    2e1c:	18c01c04 	addi	r3,r3,112
    2e20:	00800044 	movi	r2,1
    2e24:	18800035 	stwio	r2,0(r3)
        IOWR(CY7C67200_BASE,HPI_DATA,0x0000);
    2e28:	00824834 	movhi	r2,2336
    2e2c:	10801c04 	addi	r2,r2,112
    2e30:	10000035 	stwio	zero,0(r2)
        IOWR(CY7C67200_BASE,HPI_DATA,0x0000);
    2e34:	00824834 	movhi	r2,2336
    2e38:	10801c04 	addi	r2,r2,112
    2e3c:	10000035 	stwio	zero,0(r2)
        //in packet
        IOWR(CY7C67200_BASE,HPI_DATA,0x0000); //don't care
    2e40:	00824834 	movhi	r2,2336
    2e44:	10801c04 	addi	r2,r2,112
    2e48:	10000035 	stwio	zero,0(r2)
        IOWR(CY7C67200_BASE,HPI_DATA,0x0000);//port number
    2e4c:	00824834 	movhi	r2,2336
    2e50:	10801c04 	addi	r2,r2,112
    2e54:	10000035 	stwio	zero,0(r2)
        IOWR(CY7C67200_BASE,HPI_DATA,0x0290);//device address
    2e58:	00c24834 	movhi	r3,2336
    2e5c:	18c01c04 	addi	r3,r3,112
    2e60:	0080a404 	movi	r2,656
    2e64:	18800035 	stwio	r2,0(r3)
        IOWR(CY7C67200_BASE,HPI_DATA,0x0041); //data 1
    2e68:	00c24834 	movhi	r3,2336
    2e6c:	18c01c04 	addi	r3,r3,112
    2e70:	00801044 	movi	r2,65
    2e74:	18800035 	stwio	r2,0(r3)
        IOWR(CY7C67200_BASE,HPI_DATA,0x0013);
    2e78:	00c24834 	movhi	r3,2336
    2e7c:	18c01c04 	addi	r3,r3,112
    2e80:	008004c4 	movi	r2,19
    2e84:	18800035 	stwio	r2,0(r3)
        IOWR(CY7C67200_BASE,HPI_DATA,0x0000);
    2e88:	00824834 	movhi	r2,2336
    2e8c:	10801c04 	addi	r2,r2,112
    2e90:	10000035 	stwio	zero,0(r2)
        
        UsbWrite(HUSB_SIE1_pCurrentTDPtr,0x0500); //HUSB_SIE1_pCurrentTDPtr
    2e94:	01006c04 	movi	r4,432
    2e98:	01414004 	movi	r5,1280
    2e9c:	000482c0 	call	482c <UsbWrite>
        usleep(10*1000);
    2ea0:	0109c404 	movi	r4,10000
    2ea4:	00148100 	call	14810 <usleep>
    IOWR(CY7C67200_BASE,HPI_DATA,0x0000);
     
    UsbWrite(HUSB_SIE1_pCurrentTDPtr,0x0500); //HUSB_SIE1_pCurrentTDPtr
    //usleep(10*1000);
   
    while (!(IORD(CY7C67200_BASE,HPI_STATUS) & HPI_STATUS_SIE1msg_FLAG) )  //read sie1 msg register
    2ea8:	00824834 	movhi	r2,2336
    2eac:	10801f04 	addi	r2,r2,124
    2eb0:	10800037 	ldwio	r2,0(r2)
    2eb4:	1080040c 	andi	r2,r2,16
    2eb8:	1005003a 	cmpeq	r2,r2,zero
    2ebc:	103fb61e 	bne	r2,zero,2d98 <main+0x1ef0>
        
        UsbWrite(HUSB_SIE1_pCurrentTDPtr,0x0500); //HUSB_SIE1_pCurrentTDPtr
        usleep(10*1000);
    }
    
    usb_ctl_val = UsbRead(HPI_SIE1_MSG_ADR);
    2ec0:	01005104 	movi	r4,324
    2ec4:	00048700 	call	4870 <UsbRead>
    2ec8:	e0bffe8d 	sth	r2,-6(fp)
    UsbWrite(HPI_SIE1_MSG_ADR, 0);
    2ecc:	01005104 	movi	r4,324
    2ed0:	000b883a 	mov	r5,zero
    2ed4:	000482c0 	call	482c <UsbWrite>
    while (usb_ctl_val != 0x1000)  //read sie1 msg register
    2ed8:	00000d06 	br	2f10 <main+0x2068>
    {
       if(usb_ctl_val == 0x000)
    2edc:	e0bffe8b 	ldhu	r2,-6(fp)
    2ee0:	1005003a 	cmpeq	r2,r2,zero
    2ee4:	1000041e 	bne	r2,zero,2ef8 <main+0x2050>
       {
       }
       else
       {
        printf("[SIE1 MSG]:SIE1 msg reg is %x\n",usb_ctl_val);
    2ee8:	e17ffe8b 	ldhu	r5,-6(fp)
    2eec:	01000074 	movhi	r4,1
    2ef0:	211ee704 	addi	r4,r4,31644
    2ef4:	00055540 	call	5554 <printf>
       }
       usb_ctl_val = UsbRead(HPI_SIE1_MSG_ADR);
    2ef8:	01005104 	movi	r4,324
    2efc:	00048700 	call	4870 <UsbRead>
    2f00:	e0bffe8d 	sth	r2,-6(fp)
       UsbWrite(HPI_SIE1_MSG_ADR, 0);
    2f04:	01005104 	movi	r4,324
    2f08:	000b883a 	mov	r5,zero
    2f0c:	000482c0 	call	482c <UsbWrite>
        usleep(10*1000);
    }
    
    usb_ctl_val = UsbRead(HPI_SIE1_MSG_ADR);
    UsbWrite(HPI_SIE1_MSG_ADR, 0);
    while (usb_ctl_val != 0x1000)  //read sie1 msg register
    2f10:	e0bffe8b 	ldhu	r2,-6(fp)
    2f14:	10840018 	cmpnei	r2,r2,4096
    2f18:	103ff01e 	bne	r2,zero,2edc <main+0x2034>
       usb_ctl_val = UsbRead(HPI_SIE1_MSG_ADR);
       UsbWrite(HPI_SIE1_MSG_ADR, 0);
      
    }

    IOWR(CY7C67200_BASE,HPI_ADDR,0x0506);
    2f1c:	00c24834 	movhi	r3,2336
    2f20:	18c01e04 	addi	r3,r3,120
    2f24:	00814184 	movi	r2,1286
    2f28:	18800035 	stwio	r2,0(r3)
    printf("[ENUM PROCESS]:step 7 TD Status Byte is %x\n",IORD(CY7C67200_BASE,HPI_DATA));
    2f2c:	00824834 	movhi	r2,2336
    2f30:	10801c04 	addi	r2,r2,112
    2f34:	11400037 	ldwio	r5,0(r2)
    2f38:	01000074 	movhi	r4,1
    2f3c:	211fce04 	addi	r4,r4,32568
    2f40:	00055540 	call	5554 <printf>
    
    IOWR(CY7C67200_BASE,HPI_ADDR,0x0508);
    2f44:	00c24834 	movhi	r3,2336
    2f48:	18c01e04 	addi	r3,r3,120
    2f4c:	00814204 	movi	r2,1288
    2f50:	18800035 	stwio	r2,0(r3)
    usb_ctl_val = IORD(CY7C67200_BASE,HPI_DATA);
    2f54:	00824834 	movhi	r2,2336
    2f58:	10801c04 	addi	r2,r2,112
    2f5c:	10800037 	ldwio	r2,0(r2)
    2f60:	e0bffe8d 	sth	r2,-6(fp)
    printf("[ENUM PROCESS]:step 7 TD Control Byte is %x\n",usb_ctl_val);
    2f64:	e17ffe8b 	ldhu	r5,-6(fp)
    2f68:	01000074 	movhi	r4,1
    2f6c:	211fd904 	addi	r4,r4,32612
    2f70:	00055540 	call	5554 <printf>
    while (usb_ctl_val != 0x03) 
    2f74:	00001906 	br	2fdc <main+0x2134>
    {
       IORD(CY7C67200_BASE,HPI_STATUS);
    2f78:	00824834 	movhi	r2,2336
    2f7c:	10801f04 	addi	r2,r2,124
    2f80:	10800037 	ldwio	r2,0(r2)
       if(UsbRead(HPI_SIE1_MSG_ADR) == 0x1000)
    2f84:	01005104 	movi	r4,324
    2f88:	00048700 	call	4870 <UsbRead>
    2f8c:	10bfffcc 	andi	r2,r2,65535
    2f90:	10840018 	cmpnei	r2,r2,4096
    2f94:	1000091e 	bne	r2,zero,2fbc <main+0x2114>
       {
           UsbWrite(HPI_SIE1_MSG_ADR, 0);
    2f98:	01005104 	movi	r4,324
    2f9c:	000b883a 	mov	r5,zero
    2fa0:	000482c0 	call	482c <UsbWrite>
           
        
           while (!(IORD(CY7C67200_BASE,HPI_STATUS) & HPI_STATUS_SIE1msg_FLAG) )  //read sie1 msg register
    2fa4:	00824834 	movhi	r2,2336
    2fa8:	10801f04 	addi	r2,r2,124
    2fac:	10800037 	ldwio	r2,0(r2)
    2fb0:	1080040c 	andi	r2,r2,16
    2fb4:	1005003a 	cmpeq	r2,r2,zero
    2fb8:	103ffa1e 	bne	r2,zero,2fa4 <main+0x20fc>
           {
           }
        }
           //usleep(1000);
           IOWR(CY7C67200_BASE,HPI_ADDR,0x0508);
    2fbc:	00c24834 	movhi	r3,2336
    2fc0:	18c01e04 	addi	r3,r3,120
    2fc4:	00814204 	movi	r2,1288
    2fc8:	18800035 	stwio	r2,0(r3)
           usb_ctl_val = IORD(CY7C67200_BASE,HPI_DATA); 
    2fcc:	00824834 	movhi	r2,2336
    2fd0:	10801c04 	addi	r2,r2,112
    2fd4:	10800037 	ldwio	r2,0(r2)
    2fd8:	e0bffe8d 	sth	r2,-6(fp)
    printf("[ENUM PROCESS]:step 7 TD Status Byte is %x\n",IORD(CY7C67200_BASE,HPI_DATA));
    
    IOWR(CY7C67200_BASE,HPI_ADDR,0x0508);
    usb_ctl_val = IORD(CY7C67200_BASE,HPI_DATA);
    printf("[ENUM PROCESS]:step 7 TD Control Byte is %x\n",usb_ctl_val);
    while (usb_ctl_val != 0x03) 
    2fdc:	e0bffe8b 	ldhu	r2,-6(fp)
    2fe0:	108000d8 	cmpnei	r2,r2,3
    2fe4:	103fe41e 	bne	r2,zero,2f78 <main+0x20d0>
           //usleep(1000);
           IOWR(CY7C67200_BASE,HPI_ADDR,0x0508);
           usb_ctl_val = IORD(CY7C67200_BASE,HPI_DATA); 
    }    
    
    printf("------------[ENUM PROCESS]:set configuration pass!-------------------\n");
    2fe8:	01000074 	movhi	r4,1
    2fec:	211fe504 	addi	r4,r4,32660
    2ff0:	000566c0 	call	566c <puts>
    
    //----------------------------------------------classe request out ------------------------------------------//
    //the starting address
    IOWR(CY7C67200_BASE,HPI_ADDR,0x0500); //the start address       
    2ff4:	00c24834 	movhi	r3,2336
    2ff8:	18c01e04 	addi	r3,r3,120
    2ffc:	00814004 	movi	r2,1280
    3000:	18800035 	stwio	r2,0(r3)
    IOWR(CY7C67200_BASE,HPI_DATA,0x050C); 
    3004:	00c24834 	movhi	r3,2336
    3008:	18c01c04 	addi	r3,r3,112
    300c:	00814304 	movi	r2,1292
    3010:	18800035 	stwio	r2,0(r3)
    IOWR(CY7C67200_BASE,HPI_DATA,0x0008); //4 port number
    3014:	00c24834 	movhi	r3,2336
    3018:	18c01c04 	addi	r3,r3,112
    301c:	00800204 	movi	r2,8
    3020:	18800035 	stwio	r2,0(r3)
    IOWR(CY7C67200_BASE,HPI_DATA,0x02D0); //port address
    3024:	00c24834 	movhi	r3,2336
    3028:	18c01c04 	addi	r3,r3,112
    302c:	0080b404 	movi	r2,720
    3030:	18800035 	stwio	r2,0(r3)
    IOWR(CY7C67200_BASE,HPI_DATA,0x0001);
    3034:	00c24834 	movhi	r3,2336
    3038:	18c01c04 	addi	r3,r3,112
    303c:	00800044 	movi	r2,1
    3040:	18800035 	stwio	r2,0(r3)
    IOWR(CY7C67200_BASE,HPI_DATA,0x0013);
    3044:	00c24834 	movhi	r3,2336
    3048:	18c01c04 	addi	r3,r3,112
    304c:	008004c4 	movi	r2,19
    3050:	18800035 	stwio	r2,0(r3)
    IOWR(CY7C67200_BASE,HPI_DATA,0x0514);
    3054:	00c24834 	movhi	r3,2336
    3058:	18c01c04 	addi	r3,r3,112
    305c:	00814504 	movi	r2,1300
    3060:	18800035 	stwio	r2,0(r3)
    
    //td content 4 bytes
    IOWR(CY7C67200_BASE,HPI_DATA,0x0A21);
    3064:	00c24834 	movhi	r3,2336
    3068:	18c01c04 	addi	r3,r3,112
    306c:	00828844 	movi	r2,2593
    3070:	18800035 	stwio	r2,0(r3)
    IOWR(CY7C67200_BASE,HPI_DATA,0x0000);//device address   
    3074:	00824834 	movhi	r2,2336
    3078:	10801c04 	addi	r2,r2,112
    307c:	10000035 	stwio	zero,0(r2)
    IOWR(CY7C67200_BASE,HPI_DATA,0x0000);
    3080:	00824834 	movhi	r2,2336
    3084:	10801c04 	addi	r2,r2,112
    3088:	10000035 	stwio	zero,0(r2)
    IOWR(CY7C67200_BASE,HPI_DATA,0x0000);
    308c:	00824834 	movhi	r2,2336
    3090:	10801c04 	addi	r2,r2,112
    3094:	10000035 	stwio	zero,0(r2)
    //in packet
    IOWR(CY7C67200_BASE,HPI_DATA,0x0000); //don't care
    3098:	00824834 	movhi	r2,2336
    309c:	10801c04 	addi	r2,r2,112
    30a0:	10000035 	stwio	zero,0(r2)
    IOWR(CY7C67200_BASE,HPI_DATA,0x0000);//port number /data length
    30a4:	00824834 	movhi	r2,2336
    30a8:	10801c04 	addi	r2,r2,112
    30ac:	10000035 	stwio	zero,0(r2)
    IOWR(CY7C67200_BASE,HPI_DATA,0x0290);//device address
    30b0:	00c24834 	movhi	r3,2336
    30b4:	18c01c04 	addi	r3,r3,112
    30b8:	0080a404 	movi	r2,656
    30bc:	18800035 	stwio	r2,0(r3)
    IOWR(CY7C67200_BASE,HPI_DATA,0x0041); //data 1
    30c0:	00c24834 	movhi	r3,2336
    30c4:	18c01c04 	addi	r3,r3,112
    30c8:	00801044 	movi	r2,65
    30cc:	18800035 	stwio	r2,0(r3)
    IOWR(CY7C67200_BASE,HPI_DATA,0x0013);
    30d0:	00c24834 	movhi	r3,2336
    30d4:	18c01c04 	addi	r3,r3,112
    30d8:	008004c4 	movi	r2,19
    30dc:	18800035 	stwio	r2,0(r3)
    IOWR(CY7C67200_BASE,HPI_DATA,0x0000);
    30e0:	00824834 	movhi	r2,2336
    30e4:	10801c04 	addi	r2,r2,112
    30e8:	10000035 	stwio	zero,0(r2)
     
    UsbWrite(HUSB_SIE1_pCurrentTDPtr,0x0500); //HUSB_SIE1_pCurrentTDPtr
    30ec:	01006c04 	movi	r4,432
    30f0:	01414004 	movi	r5,1280
    30f4:	000482c0 	call	482c <UsbWrite>
    //usleep(10*1000);
   
    while (!(IORD(CY7C67200_BASE,HPI_STATUS) & HPI_STATUS_SIE1msg_FLAG) )  //read sie1 msg register
    30f8:	00004306 	br	3208 <main+0x2360>
    {
        IOWR(CY7C67200_BASE,HPI_ADDR,0x0500); //the start address       
    30fc:	00c24834 	movhi	r3,2336
    3100:	18c01e04 	addi	r3,r3,120
    3104:	00814004 	movi	r2,1280
    3108:	18800035 	stwio	r2,0(r3)
        IOWR(CY7C67200_BASE,HPI_DATA,0x050C); 
    310c:	00c24834 	movhi	r3,2336
    3110:	18c01c04 	addi	r3,r3,112
    3114:	00814304 	movi	r2,1292
    3118:	18800035 	stwio	r2,0(r3)
        IOWR(CY7C67200_BASE,HPI_DATA,0x0008); //4 port number
    311c:	00c24834 	movhi	r3,2336
    3120:	18c01c04 	addi	r3,r3,112
    3124:	00800204 	movi	r2,8
    3128:	18800035 	stwio	r2,0(r3)
        IOWR(CY7C67200_BASE,HPI_DATA,0x02D0);
    312c:	00c24834 	movhi	r3,2336
    3130:	18c01c04 	addi	r3,r3,112
    3134:	0080b404 	movi	r2,720
    3138:	18800035 	stwio	r2,0(r3)
        IOWR(CY7C67200_BASE,HPI_DATA,0x0001);
    313c:	00c24834 	movhi	r3,2336
    3140:	18c01c04 	addi	r3,r3,112
    3144:	00800044 	movi	r2,1
    3148:	18800035 	stwio	r2,0(r3)
        IOWR(CY7C67200_BASE,HPI_DATA,0x0013);
    314c:	00c24834 	movhi	r3,2336
    3150:	18c01c04 	addi	r3,r3,112
    3154:	008004c4 	movi	r2,19
    3158:	18800035 	stwio	r2,0(r3)
        IOWR(CY7C67200_BASE,HPI_DATA,0x0514);
    315c:	00c24834 	movhi	r3,2336
    3160:	18c01c04 	addi	r3,r3,112
    3164:	00814504 	movi	r2,1300
    3168:	18800035 	stwio	r2,0(r3)
    
        //td content 4 bytes
        IOWR(CY7C67200_BASE,HPI_DATA,0x0A21);
    316c:	00c24834 	movhi	r3,2336
    3170:	18c01c04 	addi	r3,r3,112
    3174:	00828844 	movi	r2,2593
    3178:	18800035 	stwio	r2,0(r3)
        IOWR(CY7C67200_BASE,HPI_DATA,0x0000);//device address   
    317c:	00824834 	movhi	r2,2336
    3180:	10801c04 	addi	r2,r2,112
    3184:	10000035 	stwio	zero,0(r2)
        IOWR(CY7C67200_BASE,HPI_DATA,0x0000);
    3188:	00824834 	movhi	r2,2336
    318c:	10801c04 	addi	r2,r2,112
    3190:	10000035 	stwio	zero,0(r2)
        IOWR(CY7C67200_BASE,HPI_DATA,0x0000);
    3194:	00824834 	movhi	r2,2336
    3198:	10801c04 	addi	r2,r2,112
    319c:	10000035 	stwio	zero,0(r2)
        //in packet
        IOWR(CY7C67200_BASE,HPI_DATA,0x0000); //don't care
    31a0:	00824834 	movhi	r2,2336
    31a4:	10801c04 	addi	r2,r2,112
    31a8:	10000035 	stwio	zero,0(r2)
        IOWR(CY7C67200_BASE,HPI_DATA,0x0000);//port number
    31ac:	00824834 	movhi	r2,2336
    31b0:	10801c04 	addi	r2,r2,112
    31b4:	10000035 	stwio	zero,0(r2)
        IOWR(CY7C67200_BASE,HPI_DATA,0x0290);//device address
    31b8:	00c24834 	movhi	r3,2336
    31bc:	18c01c04 	addi	r3,r3,112
    31c0:	0080a404 	movi	r2,656
    31c4:	18800035 	stwio	r2,0(r3)
        IOWR(CY7C67200_BASE,HPI_DATA,0x0041); //data 1
    31c8:	00c24834 	movhi	r3,2336
    31cc:	18c01c04 	addi	r3,r3,112
    31d0:	00801044 	movi	r2,65
    31d4:	18800035 	stwio	r2,0(r3)
        IOWR(CY7C67200_BASE,HPI_DATA,0x0013);
    31d8:	00c24834 	movhi	r3,2336
    31dc:	18c01c04 	addi	r3,r3,112
    31e0:	008004c4 	movi	r2,19
    31e4:	18800035 	stwio	r2,0(r3)
        IOWR(CY7C67200_BASE,HPI_DATA,0x0000);
    31e8:	00824834 	movhi	r2,2336
    31ec:	10801c04 	addi	r2,r2,112
    31f0:	10000035 	stwio	zero,0(r2)
        
        UsbWrite(HUSB_SIE1_pCurrentTDPtr,0x0500); //HUSB_SIE1_pCurrentTDPtr
    31f4:	01006c04 	movi	r4,432
    31f8:	01414004 	movi	r5,1280
    31fc:	000482c0 	call	482c <UsbWrite>
        usleep(10*1000);
    3200:	0109c404 	movi	r4,10000
    3204:	00148100 	call	14810 <usleep>
    IOWR(CY7C67200_BASE,HPI_DATA,0x0000);
     
    UsbWrite(HUSB_SIE1_pCurrentTDPtr,0x0500); //HUSB_SIE1_pCurrentTDPtr
    //usleep(10*1000);
   
    while (!(IORD(CY7C67200_BASE,HPI_STATUS) & HPI_STATUS_SIE1msg_FLAG) )  //read sie1 msg register
    3208:	00824834 	movhi	r2,2336
    320c:	10801f04 	addi	r2,r2,124
    3210:	10800037 	ldwio	r2,0(r2)
    3214:	1080040c 	andi	r2,r2,16
    3218:	1005003a 	cmpeq	r2,r2,zero
    321c:	103fb71e 	bne	r2,zero,30fc <main+0x2254>
        
        UsbWrite(HUSB_SIE1_pCurrentTDPtr,0x0500); //HUSB_SIE1_pCurrentTDPtr
        usleep(10*1000);
    }
    
    usb_ctl_val = UsbRead(HPI_SIE1_MSG_ADR);
    3220:	01005104 	movi	r4,324
    3224:	00048700 	call	4870 <UsbRead>
    3228:	e0bffe8d 	sth	r2,-6(fp)
    UsbWrite(HPI_SIE1_MSG_ADR, 0);
    322c:	01005104 	movi	r4,324
    3230:	000b883a 	mov	r5,zero
    3234:	000482c0 	call	482c <UsbWrite>
    while (usb_ctl_val != 0x1000)  //read sie1 msg register
    3238:	00000d06 	br	3270 <main+0x23c8>
    {
       if(usb_ctl_val == 0x000)
    323c:	e0bffe8b 	ldhu	r2,-6(fp)
    3240:	1005003a 	cmpeq	r2,r2,zero
    3244:	1000041e 	bne	r2,zero,3258 <main+0x23b0>
       {
       }
       else
       {
        printf("[SIE1 MSG]:SIE 1 msg reg is %x\n",usb_ctl_val);
    3248:	e17ffe8b 	ldhu	r5,-6(fp)
    324c:	01000074 	movhi	r4,1
    3250:	211ff704 	addi	r4,r4,32732
    3254:	00055540 	call	5554 <printf>
       }
       usb_ctl_val = UsbRead(HPI_SIE1_MSG_ADR);
    3258:	01005104 	movi	r4,324
    325c:	00048700 	call	4870 <UsbRead>
    3260:	e0bffe8d 	sth	r2,-6(fp)
       UsbWrite(HPI_SIE1_MSG_ADR, 0);
    3264:	01005104 	movi	r4,324
    3268:	000b883a 	mov	r5,zero
    326c:	000482c0 	call	482c <UsbWrite>
        usleep(10*1000);
    }
    
    usb_ctl_val = UsbRead(HPI_SIE1_MSG_ADR);
    UsbWrite(HPI_SIE1_MSG_ADR, 0);
    while (usb_ctl_val != 0x1000)  //read sie1 msg register
    3270:	e0bffe8b 	ldhu	r2,-6(fp)
    3274:	10840018 	cmpnei	r2,r2,4096
    3278:	103ff01e 	bne	r2,zero,323c <main+0x2394>
       usb_ctl_val = UsbRead(HPI_SIE1_MSG_ADR);
       UsbWrite(HPI_SIE1_MSG_ADR, 0);
      
    }

    IOWR(CY7C67200_BASE,HPI_ADDR,0x0506);
    327c:	00c24834 	movhi	r3,2336
    3280:	18c01e04 	addi	r3,r3,120
    3284:	00814184 	movi	r2,1286
    3288:	18800035 	stwio	r2,0(r3)
    printf("[ENUM PROCESS]:step 8 TD Status Byte is %x\n",IORD(CY7C67200_BASE,HPI_DATA));
    328c:	00824834 	movhi	r2,2336
    3290:	10801c04 	addi	r2,r2,112
    3294:	11400037 	ldwio	r5,0(r2)
    3298:	01000074 	movhi	r4,1
    329c:	211fff04 	addi	r4,r4,32764
    32a0:	00055540 	call	5554 <printf>
    
    IOWR(CY7C67200_BASE,HPI_ADDR,0x0508);
    32a4:	00c24834 	movhi	r3,2336
    32a8:	18c01e04 	addi	r3,r3,120
    32ac:	00814204 	movi	r2,1288
    32b0:	18800035 	stwio	r2,0(r3)
    usb_ctl_val = IORD(CY7C67200_BASE,HPI_DATA);
    32b4:	00824834 	movhi	r2,2336
    32b8:	10801c04 	addi	r2,r2,112
    32bc:	10800037 	ldwio	r2,0(r2)
    32c0:	e0bffe8d 	sth	r2,-6(fp)
    printf("[ENUM PROCESS]:step 8 TD Control Byte is %x\n",usb_ctl_val);
    32c4:	e17ffe8b 	ldhu	r5,-6(fp)
    32c8:	010000b4 	movhi	r4,2
    32cc:	21200a04 	addi	r4,r4,-32728
    32d0:	00055540 	call	5554 <printf>
    while (usb_ctl_val != 0x03) 
    32d4:	00001906 	br	333c <main+0x2494>
    {
       IORD(CY7C67200_BASE,HPI_STATUS);
    32d8:	00824834 	movhi	r2,2336
    32dc:	10801f04 	addi	r2,r2,124
    32e0:	10800037 	ldwio	r2,0(r2)
       if(UsbRead(HPI_SIE1_MSG_ADR) == 0x1000)
    32e4:	01005104 	movi	r4,324
    32e8:	00048700 	call	4870 <UsbRead>
    32ec:	10bfffcc 	andi	r2,r2,65535
    32f0:	10840018 	cmpnei	r2,r2,4096
    32f4:	1000091e 	bne	r2,zero,331c <main+0x2474>
       {
           UsbWrite(HPI_SIE1_MSG_ADR, 0);
    32f8:	01005104 	movi	r4,324
    32fc:	000b883a 	mov	r5,zero
    3300:	000482c0 	call	482c <UsbWrite>
           
        
           while (!(IORD(CY7C67200_BASE,HPI_STATUS) & HPI_STATUS_SIE1msg_FLAG) )  //read sie1 msg register
    3304:	00824834 	movhi	r2,2336
    3308:	10801f04 	addi	r2,r2,124
    330c:	10800037 	ldwio	r2,0(r2)
    3310:	1080040c 	andi	r2,r2,16
    3314:	1005003a 	cmpeq	r2,r2,zero
    3318:	103ffa1e 	bne	r2,zero,3304 <main+0x245c>
           {
           }
        }
           //usleep(1000);
           IOWR(CY7C67200_BASE,HPI_ADDR,0x0508);
    331c:	00c24834 	movhi	r3,2336
    3320:	18c01e04 	addi	r3,r3,120
    3324:	00814204 	movi	r2,1288
    3328:	18800035 	stwio	r2,0(r3)
           usb_ctl_val = IORD(CY7C67200_BASE,HPI_DATA); 
    332c:	00824834 	movhi	r2,2336
    3330:	10801c04 	addi	r2,r2,112
    3334:	10800037 	ldwio	r2,0(r2)
    3338:	e0bffe8d 	sth	r2,-6(fp)
    printf("[ENUM PROCESS]:step 8 TD Status Byte is %x\n",IORD(CY7C67200_BASE,HPI_DATA));
    
    IOWR(CY7C67200_BASE,HPI_ADDR,0x0508);
    usb_ctl_val = IORD(CY7C67200_BASE,HPI_DATA);
    printf("[ENUM PROCESS]:step 8 TD Control Byte is %x\n",usb_ctl_val);
    while (usb_ctl_val != 0x03) 
    333c:	e0bffe8b 	ldhu	r2,-6(fp)
    3340:	108000d8 	cmpnei	r2,r2,3
    3344:	103fe41e 	bne	r2,zero,32d8 <main+0x2430>
           IOWR(CY7C67200_BASE,HPI_ADDR,0x0508);
           usb_ctl_val = IORD(CY7C67200_BASE,HPI_DATA); 
    }    
    
    
    printf("------------[ENUM PROCESS]:classe request out pass!-------------------\n");
    3348:	010000b4 	movhi	r4,2
    334c:	21201604 	addi	r4,r4,-32680
    3350:	000566c0 	call	566c <puts>
    
    //----------------------------------get descriptor(class 0x21) request out --------------------------------//
    //the starting address
    IOWR(CY7C67200_BASE,HPI_ADDR,0x0500); //the start address       
    3354:	00c24834 	movhi	r3,2336
    3358:	18c01e04 	addi	r3,r3,120
    335c:	00814004 	movi	r2,1280
    3360:	18800035 	stwio	r2,0(r3)
    IOWR(CY7C67200_BASE,HPI_DATA,0x050C); 
    3364:	00c24834 	movhi	r3,2336
    3368:	18c01c04 	addi	r3,r3,112
    336c:	00814304 	movi	r2,1292
    3370:	18800035 	stwio	r2,0(r3)
    IOWR(CY7C67200_BASE,HPI_DATA,0x0008); //4 port number
    3374:	00c24834 	movhi	r3,2336
    3378:	18c01c04 	addi	r3,r3,112
    337c:	00800204 	movi	r2,8
    3380:	18800035 	stwio	r2,0(r3)
    IOWR(CY7C67200_BASE,HPI_DATA,0x02D0); //port address
    3384:	00c24834 	movhi	r3,2336
    3388:	18c01c04 	addi	r3,r3,112
    338c:	0080b404 	movi	r2,720
    3390:	18800035 	stwio	r2,0(r3)
    IOWR(CY7C67200_BASE,HPI_DATA,0x0001);
    3394:	00c24834 	movhi	r3,2336
    3398:	18c01c04 	addi	r3,r3,112
    339c:	00800044 	movi	r2,1
    33a0:	18800035 	stwio	r2,0(r3)
    IOWR(CY7C67200_BASE,HPI_DATA,0x0013);
    33a4:	00c24834 	movhi	r3,2336
    33a8:	18c01c04 	addi	r3,r3,112
    33ac:	008004c4 	movi	r2,19
    33b0:	18800035 	stwio	r2,0(r3)
    IOWR(CY7C67200_BASE,HPI_DATA,0x0514);
    33b4:	00c24834 	movhi	r3,2336
    33b8:	18c01c04 	addi	r3,r3,112
    33bc:	00814504 	movi	r2,1300
    33c0:	18800035 	stwio	r2,0(r3)
    
    //td content 4 bytes
    IOWR(CY7C67200_BASE,HPI_DATA,0x0681);//c
    33c4:	00c24834 	movhi	r3,2336
    33c8:	18c01c04 	addi	r3,r3,112
    33cc:	0081a044 	movi	r2,1665
    33d0:	18800035 	stwio	r2,0(r3)
    IOWR(CY7C67200_BASE,HPI_DATA,0x2100);//e //config 
    33d4:	00c24834 	movhi	r3,2336
    33d8:	18c01c04 	addi	r3,r3,112
    33dc:	00884004 	movi	r2,8448
    33e0:	18800035 	stwio	r2,0(r3)
    IOWR(CY7C67200_BASE,HPI_DATA,0x0000);//0
    33e4:	00824834 	movhi	r2,2336
    33e8:	10801c04 	addi	r2,r2,112
    33ec:	10000035 	stwio	zero,0(r2)
    IOWR(CY7C67200_BASE,HPI_DATA,0x007B);//2
    33f0:	00c24834 	movhi	r3,2336
    33f4:	18c01c04 	addi	r3,r3,112
    33f8:	00801ec4 	movi	r2,123
    33fc:	18800035 	stwio	r2,0(r3)
    
    //data phase IN-1
    IOWR(CY7C67200_BASE,HPI_DATA,0x0544); //514
    3400:	00c24834 	movhi	r3,2336
    3404:	18c01c04 	addi	r3,r3,112
    3408:	00815104 	movi	r2,1348
    340c:	18800035 	stwio	r2,0(r3)
    IOWR(CY7C67200_BASE,HPI_DATA,0x0008);//6
    3410:	00c24834 	movhi	r3,2336
    3414:	18c01c04 	addi	r3,r3,112
    3418:	00800204 	movi	r2,8
    341c:	18800035 	stwio	r2,0(r3)
    IOWR(CY7C67200_BASE,HPI_DATA,0x0290);//8
    3420:	00c24834 	movhi	r3,2336
    3424:	18c01c04 	addi	r3,r3,112
    3428:	0080a404 	movi	r2,656
    342c:	18800035 	stwio	r2,0(r3)
    IOWR(CY7C67200_BASE,HPI_DATA,0x0041);//a
    3430:	00c24834 	movhi	r3,2336
    3434:	18c01c04 	addi	r3,r3,112
    3438:	00801044 	movi	r2,65
    343c:	18800035 	stwio	r2,0(r3)
    IOWR(CY7C67200_BASE,HPI_DATA,0x0013);//c
    3440:	00c24834 	movhi	r3,2336
    3444:	18c01c04 	addi	r3,r3,112
    3448:	008004c4 	movi	r2,19
    344c:	18800035 	stwio	r2,0(r3)
    IOWR(CY7C67200_BASE,HPI_DATA,0x0520);//e
    3450:	00c24834 	movhi	r3,2336
    3454:	18c01c04 	addi	r3,r3,112
    3458:	00814804 	movi	r2,1312
    345c:	18800035 	stwio	r2,0(r3)
        
    //status phase
    IOWR(CY7C67200_BASE,HPI_DATA,0x0000); //52c
    3460:	00824834 	movhi	r2,2336
    3464:	10801c04 	addi	r2,r2,112
    3468:	10000035 	stwio	zero,0(r2)
    IOWR(CY7C67200_BASE,HPI_DATA,0x0000);//e
    346c:	00824834 	movhi	r2,2336
    3470:	10801c04 	addi	r2,r2,112
    3474:	10000035 	stwio	zero,0(r2)
    IOWR(CY7C67200_BASE,HPI_DATA,0x0210);//530
    3478:	00c24834 	movhi	r3,2336
    347c:	18c01c04 	addi	r3,r3,112
    3480:	00808404 	movi	r2,528
    3484:	18800035 	stwio	r2,0(r3)
    IOWR(CY7C67200_BASE,HPI_DATA,0x0041);//2
    3488:	00c24834 	movhi	r3,2336
    348c:	18c01c04 	addi	r3,r3,112
    3490:	00801044 	movi	r2,65
    3494:	18800035 	stwio	r2,0(r3)
    IOWR(CY7C67200_BASE,HPI_DATA,0x0013);//4
    3498:	00c24834 	movhi	r3,2336
    349c:	18c01c04 	addi	r3,r3,112
    34a0:	008004c4 	movi	r2,19
    34a4:	18800035 	stwio	r2,0(r3)
    IOWR(CY7C67200_BASE,HPI_DATA,0x0000);//6
    34a8:	00824834 	movhi	r2,2336
    34ac:	10801c04 	addi	r2,r2,112
    34b0:	10000035 	stwio	zero,0(r2)
     
    UsbWrite(HUSB_SIE1_pCurrentTDPtr,0x0500); //HUSB_SIE1_pCurrentTDPtr
    34b4:	01006c04 	movi	r4,432
    34b8:	01414004 	movi	r5,1280
    34bc:	000482c0 	call	482c <UsbWrite>
    //usleep(10*1000);
   
    while (!(IORD(CY7C67200_BASE,HPI_STATUS) & HPI_STATUS_SIE1msg_FLAG) )  //read sie1 msg register
    34c0:	00005d06 	br	3638 <main+0x2790>
    {
    IOWR(CY7C67200_BASE,HPI_ADDR,0x0500); //the start address       
    34c4:	00c24834 	movhi	r3,2336
    34c8:	18c01e04 	addi	r3,r3,120
    34cc:	00814004 	movi	r2,1280
    34d0:	18800035 	stwio	r2,0(r3)
    IOWR(CY7C67200_BASE,HPI_DATA,0x050C); 
    34d4:	00c24834 	movhi	r3,2336
    34d8:	18c01c04 	addi	r3,r3,112
    34dc:	00814304 	movi	r2,1292
    34e0:	18800035 	stwio	r2,0(r3)
    IOWR(CY7C67200_BASE,HPI_DATA,0x0008); //4 port number
    34e4:	00c24834 	movhi	r3,2336
    34e8:	18c01c04 	addi	r3,r3,112
    34ec:	00800204 	movi	r2,8
    34f0:	18800035 	stwio	r2,0(r3)
    IOWR(CY7C67200_BASE,HPI_DATA,0x02D0); //port address
    34f4:	00c24834 	movhi	r3,2336
    34f8:	18c01c04 	addi	r3,r3,112
    34fc:	0080b404 	movi	r2,720
    3500:	18800035 	stwio	r2,0(r3)
    IOWR(CY7C67200_BASE,HPI_DATA,0x0001);
    3504:	00c24834 	movhi	r3,2336
    3508:	18c01c04 	addi	r3,r3,112
    350c:	00800044 	movi	r2,1
    3510:	18800035 	stwio	r2,0(r3)
    IOWR(CY7C67200_BASE,HPI_DATA,0x0013);
    3514:	00c24834 	movhi	r3,2336
    3518:	18c01c04 	addi	r3,r3,112
    351c:	008004c4 	movi	r2,19
    3520:	18800035 	stwio	r2,0(r3)
    IOWR(CY7C67200_BASE,HPI_DATA,0x0514);
    3524:	00c24834 	movhi	r3,2336
    3528:	18c01c04 	addi	r3,r3,112
    352c:	00814504 	movi	r2,1300
    3530:	18800035 	stwio	r2,0(r3)
    
    //td content 4 bytes
    IOWR(CY7C67200_BASE,HPI_DATA,0x0681);//c
    3534:	00c24834 	movhi	r3,2336
    3538:	18c01c04 	addi	r3,r3,112
    353c:	0081a044 	movi	r2,1665
    3540:	18800035 	stwio	r2,0(r3)
    IOWR(CY7C67200_BASE,HPI_DATA,0x2100);//e //config 
    3544:	00c24834 	movhi	r3,2336
    3548:	18c01c04 	addi	r3,r3,112
    354c:	00884004 	movi	r2,8448
    3550:	18800035 	stwio	r2,0(r3)
    IOWR(CY7C67200_BASE,HPI_DATA,0x0000);//0
    3554:	00824834 	movhi	r2,2336
    3558:	10801c04 	addi	r2,r2,112
    355c:	10000035 	stwio	zero,0(r2)
    IOWR(CY7C67200_BASE,HPI_DATA,0x007B);//2
    3560:	00c24834 	movhi	r3,2336
    3564:	18c01c04 	addi	r3,r3,112
    3568:	00801ec4 	movi	r2,123
    356c:	18800035 	stwio	r2,0(r3)
    
    //data phase IN-1
    IOWR(CY7C67200_BASE,HPI_DATA,0x0544); //514
    3570:	00c24834 	movhi	r3,2336
    3574:	18c01c04 	addi	r3,r3,112
    3578:	00815104 	movi	r2,1348
    357c:	18800035 	stwio	r2,0(r3)
    IOWR(CY7C67200_BASE,HPI_DATA,0x0008);//6
    3580:	00c24834 	movhi	r3,2336
    3584:	18c01c04 	addi	r3,r3,112
    3588:	00800204 	movi	r2,8
    358c:	18800035 	stwio	r2,0(r3)
    IOWR(CY7C67200_BASE,HPI_DATA,0x0290);//8
    3590:	00c24834 	movhi	r3,2336
    3594:	18c01c04 	addi	r3,r3,112
    3598:	0080a404 	movi	r2,656
    359c:	18800035 	stwio	r2,0(r3)
    IOWR(CY7C67200_BASE,HPI_DATA,0x0041);//a
    35a0:	00c24834 	movhi	r3,2336
    35a4:	18c01c04 	addi	r3,r3,112
    35a8:	00801044 	movi	r2,65
    35ac:	18800035 	stwio	r2,0(r3)
    IOWR(CY7C67200_BASE,HPI_DATA,0x0013);//c
    35b0:	00c24834 	movhi	r3,2336
    35b4:	18c01c04 	addi	r3,r3,112
    35b8:	008004c4 	movi	r2,19
    35bc:	18800035 	stwio	r2,0(r3)
    IOWR(CY7C67200_BASE,HPI_DATA,0x0520);//e
    35c0:	00c24834 	movhi	r3,2336
    35c4:	18c01c04 	addi	r3,r3,112
    35c8:	00814804 	movi	r2,1312
    35cc:	18800035 	stwio	r2,0(r3)
        
    //status phase
    IOWR(CY7C67200_BASE,HPI_DATA,0x0000); //52c
    35d0:	00824834 	movhi	r2,2336
    35d4:	10801c04 	addi	r2,r2,112
    35d8:	10000035 	stwio	zero,0(r2)
    IOWR(CY7C67200_BASE,HPI_DATA,0x0000);//e
    35dc:	00824834 	movhi	r2,2336
    35e0:	10801c04 	addi	r2,r2,112
    35e4:	10000035 	stwio	zero,0(r2)
    IOWR(CY7C67200_BASE,HPI_DATA,0x0210);//530
    35e8:	00c24834 	movhi	r3,2336
    35ec:	18c01c04 	addi	r3,r3,112
    35f0:	00808404 	movi	r2,528
    35f4:	18800035 	stwio	r2,0(r3)
    IOWR(CY7C67200_BASE,HPI_DATA,0x0041);//2
    35f8:	00c24834 	movhi	r3,2336
    35fc:	18c01c04 	addi	r3,r3,112
    3600:	00801044 	movi	r2,65
    3604:	18800035 	stwio	r2,0(r3)
    IOWR(CY7C67200_BASE,HPI_DATA,0x0013);//4
    3608:	00c24834 	movhi	r3,2336
    360c:	18c01c04 	addi	r3,r3,112
    3610:	008004c4 	movi	r2,19
    3614:	18800035 	stwio	r2,0(r3)
    IOWR(CY7C67200_BASE,HPI_DATA,0x0000);//6
    3618:	00824834 	movhi	r2,2336
    361c:	10801c04 	addi	r2,r2,112
    3620:	10000035 	stwio	zero,0(r2)
        
    UsbWrite(HUSB_SIE1_pCurrentTDPtr,0x0500); //HUSB_SIE1_pCurrentTDPtr
    3624:	01006c04 	movi	r4,432
    3628:	01414004 	movi	r5,1280
    362c:	000482c0 	call	482c <UsbWrite>
    usleep(10*1000);
    3630:	0109c404 	movi	r4,10000
    3634:	00148100 	call	14810 <usleep>
    IOWR(CY7C67200_BASE,HPI_DATA,0x0000);//6
     
    UsbWrite(HUSB_SIE1_pCurrentTDPtr,0x0500); //HUSB_SIE1_pCurrentTDPtr
    //usleep(10*1000);
   
    while (!(IORD(CY7C67200_BASE,HPI_STATUS) & HPI_STATUS_SIE1msg_FLAG) )  //read sie1 msg register
    3638:	00824834 	movhi	r2,2336
    363c:	10801f04 	addi	r2,r2,124
    3640:	10800037 	ldwio	r2,0(r2)
    3644:	1080040c 	andi	r2,r2,16
    3648:	1005003a 	cmpeq	r2,r2,zero
    364c:	103f9d1e 	bne	r2,zero,34c4 <main+0x261c>
        
    UsbWrite(HUSB_SIE1_pCurrentTDPtr,0x0500); //HUSB_SIE1_pCurrentTDPtr
    usleep(10*1000);
    }
    
    usb_ctl_val = UsbRead(HPI_SIE1_MSG_ADR);
    3650:	01005104 	movi	r4,324
    3654:	00048700 	call	4870 <UsbRead>
    3658:	e0bffe8d 	sth	r2,-6(fp)
    UsbWrite(HPI_SIE1_MSG_ADR, 0);
    365c:	01005104 	movi	r4,324
    3660:	000b883a 	mov	r5,zero
    3664:	000482c0 	call	482c <UsbWrite>
    while (usb_ctl_val != 0x1000)  //read sie1 msg register
    3668:	00000d06 	br	36a0 <main+0x27f8>
    {
       if(usb_ctl_val == 0x000)
    366c:	e0bffe8b 	ldhu	r2,-6(fp)
    3670:	1005003a 	cmpeq	r2,r2,zero
    3674:	1000041e 	bne	r2,zero,3688 <main+0x27e0>
       {
       }
       else
       {
        printf("[SIE MSG]:SIE 1 msg reg is %x\n",usb_ctl_val);
    3678:	e17ffe8b 	ldhu	r5,-6(fp)
    367c:	010000b4 	movhi	r4,2
    3680:	21202804 	addi	r4,r4,-32608
    3684:	00055540 	call	5554 <printf>
       }
       usb_ctl_val = UsbRead(HPI_SIE1_MSG_ADR);
    3688:	01005104 	movi	r4,324
    368c:	00048700 	call	4870 <UsbRead>
    3690:	e0bffe8d 	sth	r2,-6(fp)
       UsbWrite(HPI_SIE1_MSG_ADR, 0);
    3694:	01005104 	movi	r4,324
    3698:	000b883a 	mov	r5,zero
    369c:	000482c0 	call	482c <UsbWrite>
    usleep(10*1000);
    }
    
    usb_ctl_val = UsbRead(HPI_SIE1_MSG_ADR);
    UsbWrite(HPI_SIE1_MSG_ADR, 0);
    while (usb_ctl_val != 0x1000)  //read sie1 msg register
    36a0:	e0bffe8b 	ldhu	r2,-6(fp)
    36a4:	10840018 	cmpnei	r2,r2,4096
    36a8:	103ff01e 	bne	r2,zero,366c <main+0x27c4>
       usb_ctl_val = UsbRead(HPI_SIE1_MSG_ADR);
       UsbWrite(HPI_SIE1_MSG_ADR, 0);
      
    }

    IOWR(CY7C67200_BASE,HPI_ADDR,0x0506);
    36ac:	00c24834 	movhi	r3,2336
    36b0:	18c01e04 	addi	r3,r3,120
    36b4:	00814184 	movi	r2,1286
    36b8:	18800035 	stwio	r2,0(r3)
    printf("[ENUM PROCESS]:step 8 TD Status Byte is %x\n",IORD(CY7C67200_BASE,HPI_DATA));
    36bc:	00824834 	movhi	r2,2336
    36c0:	10801c04 	addi	r2,r2,112
    36c4:	11400037 	ldwio	r5,0(r2)
    36c8:	01000074 	movhi	r4,1
    36cc:	211fff04 	addi	r4,r4,32764
    36d0:	00055540 	call	5554 <printf>
    
    IOWR(CY7C67200_BASE,HPI_ADDR,0x0508);
    36d4:	00c24834 	movhi	r3,2336
    36d8:	18c01e04 	addi	r3,r3,120
    36dc:	00814204 	movi	r2,1288
    36e0:	18800035 	stwio	r2,0(r3)
    usb_ctl_val = IORD(CY7C67200_BASE,HPI_DATA);
    36e4:	00824834 	movhi	r2,2336
    36e8:	10801c04 	addi	r2,r2,112
    36ec:	10800037 	ldwio	r2,0(r2)
    36f0:	e0bffe8d 	sth	r2,-6(fp)
    printf("[ENUM PROCESS]:step 8 TD Control Byte is %x\n",usb_ctl_val);
    36f4:	e17ffe8b 	ldhu	r5,-6(fp)
    36f8:	010000b4 	movhi	r4,2
    36fc:	21200a04 	addi	r4,r4,-32728
    3700:	00055540 	call	5554 <printf>
    while (usb_ctl_val != 0x03) 
    3704:	00001906 	br	376c <main+0x28c4>
    {
       IORD(CY7C67200_BASE,HPI_STATUS);
    3708:	00824834 	movhi	r2,2336
    370c:	10801f04 	addi	r2,r2,124
    3710:	10800037 	ldwio	r2,0(r2)
       if(UsbRead(HPI_SIE1_MSG_ADR) == 0x1000)
    3714:	01005104 	movi	r4,324
    3718:	00048700 	call	4870 <UsbRead>
    371c:	10bfffcc 	andi	r2,r2,65535
    3720:	10840018 	cmpnei	r2,r2,4096
    3724:	1000091e 	bne	r2,zero,374c <main+0x28a4>
       {
           UsbWrite(HPI_SIE1_MSG_ADR, 0);
    3728:	01005104 	movi	r4,324
    372c:	000b883a 	mov	r5,zero
    3730:	000482c0 	call	482c <UsbWrite>
           
        
           while (!(IORD(CY7C67200_BASE,HPI_STATUS) & HPI_STATUS_SIE1msg_FLAG) )  //read sie1 msg register
    3734:	00824834 	movhi	r2,2336
    3738:	10801f04 	addi	r2,r2,124
    373c:	10800037 	ldwio	r2,0(r2)
    3740:	1080040c 	andi	r2,r2,16
    3744:	1005003a 	cmpeq	r2,r2,zero
    3748:	103ffa1e 	bne	r2,zero,3734 <main+0x288c>
           {
           }
        }
           //usleep(1000);
           IOWR(CY7C67200_BASE,HPI_ADDR,0x0508);
    374c:	00c24834 	movhi	r3,2336
    3750:	18c01e04 	addi	r3,r3,120
    3754:	00814204 	movi	r2,1288
    3758:	18800035 	stwio	r2,0(r3)
           usb_ctl_val = IORD(CY7C67200_BASE,HPI_DATA); 
    375c:	00824834 	movhi	r2,2336
    3760:	10801c04 	addi	r2,r2,112
    3764:	10800037 	ldwio	r2,0(r2)
    3768:	e0bffe8d 	sth	r2,-6(fp)
    printf("[ENUM PROCESS]:step 8 TD Status Byte is %x\n",IORD(CY7C67200_BASE,HPI_DATA));
    
    IOWR(CY7C67200_BASE,HPI_ADDR,0x0508);
    usb_ctl_val = IORD(CY7C67200_BASE,HPI_DATA);
    printf("[ENUM PROCESS]:step 8 TD Control Byte is %x\n",usb_ctl_val);
    while (usb_ctl_val != 0x03) 
    376c:	e0bffe8b 	ldhu	r2,-6(fp)
    3770:	108000d8 	cmpnei	r2,r2,3
    3774:	103fe41e 	bne	r2,zero,3708 <main+0x2860>
           usb_ctl_val = IORD(CY7C67200_BASE,HPI_DATA); 
    }    
    
    
    
    printf("------------[ENUM PROCESS]:get descriptor (class 0x21) pass!-------------------\n");
    3778:	010000b4 	movhi	r4,2
    377c:	21203004 	addi	r4,r4,-32576
    3780:	000566c0 	call	566c <puts>
    
    //-------------------------------get descriptor (class 0x22)-------------------------------------------//
    //the starting address
    IOWR(CY7C67200_BASE,HPI_ADDR,0x0500); //the start address       
    3784:	00c24834 	movhi	r3,2336
    3788:	18c01e04 	addi	r3,r3,120
    378c:	00814004 	movi	r2,1280
    3790:	18800035 	stwio	r2,0(r3)
    IOWR(CY7C67200_BASE,HPI_DATA,0x050C); 
    3794:	00c24834 	movhi	r3,2336
    3798:	18c01c04 	addi	r3,r3,112
    379c:	00814304 	movi	r2,1292
    37a0:	18800035 	stwio	r2,0(r3)
    IOWR(CY7C67200_BASE,HPI_DATA,0x0008); //4 port number
    37a4:	00c24834 	movhi	r3,2336
    37a8:	18c01c04 	addi	r3,r3,112
    37ac:	00800204 	movi	r2,8
    37b0:	18800035 	stwio	r2,0(r3)
    IOWR(CY7C67200_BASE,HPI_DATA,0x02D0); //device address
    37b4:	00c24834 	movhi	r3,2336
    37b8:	18c01c04 	addi	r3,r3,112
    37bc:	0080b404 	movi	r2,720
    37c0:	18800035 	stwio	r2,0(r3)
    IOWR(CY7C67200_BASE,HPI_DATA,0x0001);
    37c4:	00c24834 	movhi	r3,2336
    37c8:	18c01c04 	addi	r3,r3,112
    37cc:	00800044 	movi	r2,1
    37d0:	18800035 	stwio	r2,0(r3)
    IOWR(CY7C67200_BASE,HPI_DATA,0x0013);
    37d4:	00c24834 	movhi	r3,2336
    37d8:	18c01c04 	addi	r3,r3,112
    37dc:	008004c4 	movi	r2,19
    37e0:	18800035 	stwio	r2,0(r3)
    IOWR(CY7C67200_BASE,HPI_DATA,0x0514);
    37e4:	00c24834 	movhi	r3,2336
    37e8:	18c01c04 	addi	r3,r3,112
    37ec:	00814504 	movi	r2,1300
    37f0:	18800035 	stwio	r2,0(r3)
    
    //td content 4 bytes
    IOWR(CY7C67200_BASE,HPI_DATA,0x0681);//c
    37f4:	00c24834 	movhi	r3,2336
    37f8:	18c01c04 	addi	r3,r3,112
    37fc:	0081a044 	movi	r2,1665
    3800:	18800035 	stwio	r2,0(r3)
    IOWR(CY7C67200_BASE,HPI_DATA,0x2200);//e //config 
    3804:	00c24834 	movhi	r3,2336
    3808:	18c01c04 	addi	r3,r3,112
    380c:	00888004 	movi	r2,8704
    3810:	18800035 	stwio	r2,0(r3)
    IOWR(CY7C67200_BASE,HPI_DATA,0x0000);//0
    3814:	00824834 	movhi	r2,2336
    3818:	10801c04 	addi	r2,r2,112
    381c:	10000035 	stwio	zero,0(r2)
    IOWR(CY7C67200_BASE,HPI_DATA,0x007B);//2
    3820:	00c24834 	movhi	r3,2336
    3824:	18c01c04 	addi	r3,r3,112
    3828:	00801ec4 	movi	r2,123
    382c:	18800035 	stwio	r2,0(r3)
    
    //data phase IN-1
    IOWR(CY7C67200_BASE,HPI_DATA,0x0580); //514
    3830:	00c24834 	movhi	r3,2336
    3834:	18c01c04 	addi	r3,r3,112
    3838:	00816004 	movi	r2,1408
    383c:	18800035 	stwio	r2,0(r3)
    IOWR(CY7C67200_BASE,HPI_DATA,0x0008);//6
    3840:	00c24834 	movhi	r3,2336
    3844:	18c01c04 	addi	r3,r3,112
    3848:	00800204 	movi	r2,8
    384c:	18800035 	stwio	r2,0(r3)
    IOWR(CY7C67200_BASE,HPI_DATA,0x0290);//8
    3850:	00c24834 	movhi	r3,2336
    3854:	18c01c04 	addi	r3,r3,112
    3858:	0080a404 	movi	r2,656
    385c:	18800035 	stwio	r2,0(r3)
    IOWR(CY7C67200_BASE,HPI_DATA,0x0041);//a
    3860:	00c24834 	movhi	r3,2336
    3864:	18c01c04 	addi	r3,r3,112
    3868:	00801044 	movi	r2,65
    386c:	18800035 	stwio	r2,0(r3)
    IOWR(CY7C67200_BASE,HPI_DATA,0x0013);//c
    3870:	00c24834 	movhi	r3,2336
    3874:	18c01c04 	addi	r3,r3,112
    3878:	008004c4 	movi	r2,19
    387c:	18800035 	stwio	r2,0(r3)
    IOWR(CY7C67200_BASE,HPI_DATA,0x0520);//e
    3880:	00c24834 	movhi	r3,2336
    3884:	18c01c04 	addi	r3,r3,112
    3888:	00814804 	movi	r2,1312
    388c:	18800035 	stwio	r2,0(r3)
    
    //data phase IN-2
    IOWR(CY7C67200_BASE,HPI_DATA,0x0588); //520
    3890:	00c24834 	movhi	r3,2336
    3894:	18c01c04 	addi	r3,r3,112
    3898:	00816204 	movi	r2,1416
    389c:	18800035 	stwio	r2,0(r3)
    IOWR(CY7C67200_BASE,HPI_DATA,0x0008);//2
    38a0:	00c24834 	movhi	r3,2336
    38a4:	18c01c04 	addi	r3,r3,112
    38a8:	00800204 	movi	r2,8
    38ac:	18800035 	stwio	r2,0(r3)
    IOWR(CY7C67200_BASE,HPI_DATA,0x0290);//4
    38b0:	00c24834 	movhi	r3,2336
    38b4:	18c01c04 	addi	r3,r3,112
    38b8:	0080a404 	movi	r2,656
    38bc:	18800035 	stwio	r2,0(r3)
    IOWR(CY7C67200_BASE,HPI_DATA,0x0001);//6 //data0
    38c0:	00c24834 	movhi	r3,2336
    38c4:	18c01c04 	addi	r3,r3,112
    38c8:	00800044 	movi	r2,1
    38cc:	18800035 	stwio	r2,0(r3)
    IOWR(CY7C67200_BASE,HPI_DATA,0x0013);//8
    38d0:	00c24834 	movhi	r3,2336
    38d4:	18c01c04 	addi	r3,r3,112
    38d8:	008004c4 	movi	r2,19
    38dc:	18800035 	stwio	r2,0(r3)
    IOWR(CY7C67200_BASE,HPI_DATA,0x052c);//a
    38e0:	00c24834 	movhi	r3,2336
    38e4:	18c01c04 	addi	r3,r3,112
    38e8:	00814b04 	movi	r2,1324
    38ec:	18800035 	stwio	r2,0(r3)
    
    //data phase IN-3
    IOWR(CY7C67200_BASE,HPI_DATA,0x0590); //52c
    38f0:	00c24834 	movhi	r3,2336
    38f4:	18c01c04 	addi	r3,r3,112
    38f8:	00816404 	movi	r2,1424
    38fc:	18800035 	stwio	r2,0(r3)
    IOWR(CY7C67200_BASE,HPI_DATA,0x0008);//e
    3900:	00c24834 	movhi	r3,2336
    3904:	18c01c04 	addi	r3,r3,112
    3908:	00800204 	movi	r2,8
    390c:	18800035 	stwio	r2,0(r3)
    IOWR(CY7C67200_BASE,HPI_DATA,0x0290);//530
    3910:	00c24834 	movhi	r3,2336
    3914:	18c01c04 	addi	r3,r3,112
    3918:	0080a404 	movi	r2,656
    391c:	18800035 	stwio	r2,0(r3)
    IOWR(CY7C67200_BASE,HPI_DATA,0x0041);//2
    3920:	00c24834 	movhi	r3,2336
    3924:	18c01c04 	addi	r3,r3,112
    3928:	00801044 	movi	r2,65
    392c:	18800035 	stwio	r2,0(r3)
    IOWR(CY7C67200_BASE,HPI_DATA,0x0013);//4
    3930:	00c24834 	movhi	r3,2336
    3934:	18c01c04 	addi	r3,r3,112
    3938:	008004c4 	movi	r2,19
    393c:	18800035 	stwio	r2,0(r3)
    IOWR(CY7C67200_BASE,HPI_DATA,0x0538);//6
    3940:	00c24834 	movhi	r3,2336
    3944:	18c01c04 	addi	r3,r3,112
    3948:	00814e04 	movi	r2,1336
    394c:	18800035 	stwio	r2,0(r3)
    
    //data phase IN-4
    IOWR(CY7C67200_BASE,HPI_DATA,0x0598); //538
    3950:	00c24834 	movhi	r3,2336
    3954:	18c01c04 	addi	r3,r3,112
    3958:	00816604 	movi	r2,1432
    395c:	18800035 	stwio	r2,0(r3)
    IOWR(CY7C67200_BASE,HPI_DATA,0x0008);//a
    3960:	00c24834 	movhi	r3,2336
    3964:	18c01c04 	addi	r3,r3,112
    3968:	00800204 	movi	r2,8
    396c:	18800035 	stwio	r2,0(r3)
    IOWR(CY7C67200_BASE,HPI_DATA,0x0290);//c
    3970:	00c24834 	movhi	r3,2336
    3974:	18c01c04 	addi	r3,r3,112
    3978:	0080a404 	movi	r2,656
    397c:	18800035 	stwio	r2,0(r3)
    IOWR(CY7C67200_BASE,HPI_DATA,0x0001);//e //data0
    3980:	00c24834 	movhi	r3,2336
    3984:	18c01c04 	addi	r3,r3,112
    3988:	00800044 	movi	r2,1
    398c:	18800035 	stwio	r2,0(r3)
    IOWR(CY7C67200_BASE,HPI_DATA,0x0013);//540
    3990:	00c24834 	movhi	r3,2336
    3994:	18c01c04 	addi	r3,r3,112
    3998:	008004c4 	movi	r2,19
    399c:	18800035 	stwio	r2,0(r3)
    IOWR(CY7C67200_BASE,HPI_DATA,0x0544);//2
    39a0:	00c24834 	movhi	r3,2336
    39a4:	18c01c04 	addi	r3,r3,112
    39a8:	00815104 	movi	r2,1348
    39ac:	18800035 	stwio	r2,0(r3)
    
    //data phase IN-5
    IOWR(CY7C67200_BASE,HPI_DATA,0x05a0); //544
    39b0:	00c24834 	movhi	r3,2336
    39b4:	18c01c04 	addi	r3,r3,112
    39b8:	00816804 	movi	r2,1440
    39bc:	18800035 	stwio	r2,0(r3)
    IOWR(CY7C67200_BASE,HPI_DATA,0x0008);//6
    39c0:	00c24834 	movhi	r3,2336
    39c4:	18c01c04 	addi	r3,r3,112
    39c8:	00800204 	movi	r2,8
    39cc:	18800035 	stwio	r2,0(r3)
    IOWR(CY7C67200_BASE,HPI_DATA,0x0290);//8
    39d0:	00c24834 	movhi	r3,2336
    39d4:	18c01c04 	addi	r3,r3,112
    39d8:	0080a404 	movi	r2,656
    39dc:	18800035 	stwio	r2,0(r3)
    IOWR(CY7C67200_BASE,HPI_DATA,0x0041);//a //data1
    39e0:	00c24834 	movhi	r3,2336
    39e4:	18c01c04 	addi	r3,r3,112
    39e8:	00801044 	movi	r2,65
    39ec:	18800035 	stwio	r2,0(r3)
    IOWR(CY7C67200_BASE,HPI_DATA,0x0013);//c
    39f0:	00c24834 	movhi	r3,2336
    39f4:	18c01c04 	addi	r3,r3,112
    39f8:	008004c4 	movi	r2,19
    39fc:	18800035 	stwio	r2,0(r3)
    IOWR(CY7C67200_BASE,HPI_DATA,0x0550);//e
    3a00:	00c24834 	movhi	r3,2336
    3a04:	18c01c04 	addi	r3,r3,112
    3a08:	00815404 	movi	r2,1360
    3a0c:	18800035 	stwio	r2,0(r3)
    
    //data phase IN-6
    IOWR(CY7C67200_BASE,HPI_DATA,0x05a8); //550
    3a10:	00c24834 	movhi	r3,2336
    3a14:	18c01c04 	addi	r3,r3,112
    3a18:	00816a04 	movi	r2,1448
    3a1c:	18800035 	stwio	r2,0(r3)
    IOWR(CY7C67200_BASE,HPI_DATA,0x0008);//2
    3a20:	00c24834 	movhi	r3,2336
    3a24:	18c01c04 	addi	r3,r3,112
    3a28:	00800204 	movi	r2,8
    3a2c:	18800035 	stwio	r2,0(r3)
    IOWR(CY7C67200_BASE,HPI_DATA,0x0290);//4
    3a30:	00c24834 	movhi	r3,2336
    3a34:	18c01c04 	addi	r3,r3,112
    3a38:	0080a404 	movi	r2,656
    3a3c:	18800035 	stwio	r2,0(r3)
    IOWR(CY7C67200_BASE,HPI_DATA,0x0001);//6 //data0
    3a40:	00c24834 	movhi	r3,2336
    3a44:	18c01c04 	addi	r3,r3,112
    3a48:	00800044 	movi	r2,1
    3a4c:	18800035 	stwio	r2,0(r3)
    IOWR(CY7C67200_BASE,HPI_DATA,0x0013);//8
    3a50:	00c24834 	movhi	r3,2336
    3a54:	18c01c04 	addi	r3,r3,112
    3a58:	008004c4 	movi	r2,19
    3a5c:	18800035 	stwio	r2,0(r3)
    IOWR(CY7C67200_BASE,HPI_DATA,0x055c);//a
    3a60:	00c24834 	movhi	r3,2336
    3a64:	18c01c04 	addi	r3,r3,112
    3a68:	00815704 	movi	r2,1372
    3a6c:	18800035 	stwio	r2,0(r3)
    
    //data phase IN-7
    IOWR(CY7C67200_BASE,HPI_DATA,0x05b0); //c
    3a70:	00c24834 	movhi	r3,2336
    3a74:	18c01c04 	addi	r3,r3,112
    3a78:	00816c04 	movi	r2,1456
    3a7c:	18800035 	stwio	r2,0(r3)
    IOWR(CY7C67200_BASE,HPI_DATA,0x0008);//e
    3a80:	00c24834 	movhi	r3,2336
    3a84:	18c01c04 	addi	r3,r3,112
    3a88:	00800204 	movi	r2,8
    3a8c:	18800035 	stwio	r2,0(r3)
    IOWR(CY7C67200_BASE,HPI_DATA,0x0290);//560
    3a90:	00c24834 	movhi	r3,2336
    3a94:	18c01c04 	addi	r3,r3,112
    3a98:	0080a404 	movi	r2,656
    3a9c:	18800035 	stwio	r2,0(r3)
    IOWR(CY7C67200_BASE,HPI_DATA,0x0041);//2 //data1
    3aa0:	00c24834 	movhi	r3,2336
    3aa4:	18c01c04 	addi	r3,r3,112
    3aa8:	00801044 	movi	r2,65
    3aac:	18800035 	stwio	r2,0(r3)
    IOWR(CY7C67200_BASE,HPI_DATA,0x0013);//4
    3ab0:	00c24834 	movhi	r3,2336
    3ab4:	18c01c04 	addi	r3,r3,112
    3ab8:	008004c4 	movi	r2,19
    3abc:	18800035 	stwio	r2,0(r3)
    IOWR(CY7C67200_BASE,HPI_DATA,0x0568);//6
    3ac0:	00c24834 	movhi	r3,2336
    3ac4:	18c01c04 	addi	r3,r3,112
    3ac8:	00815a04 	movi	r2,1384
    3acc:	18800035 	stwio	r2,0(r3)
    
    //data phase IN-8
    IOWR(CY7C67200_BASE,HPI_DATA,0x05b8); //8
    3ad0:	00c24834 	movhi	r3,2336
    3ad4:	18c01c04 	addi	r3,r3,112
    3ad8:	00816e04 	movi	r2,1464
    3adc:	18800035 	stwio	r2,0(r3)
    IOWR(CY7C67200_BASE,HPI_DATA,0x0003);//a
    3ae0:	00c24834 	movhi	r3,2336
    3ae4:	18c01c04 	addi	r3,r3,112
    3ae8:	008000c4 	movi	r2,3
    3aec:	18800035 	stwio	r2,0(r3)
    IOWR(CY7C67200_BASE,HPI_DATA,0x0290);//c
    3af0:	00c24834 	movhi	r3,2336
    3af4:	18c01c04 	addi	r3,r3,112
    3af8:	0080a404 	movi	r2,656
    3afc:	18800035 	stwio	r2,0(r3)
    IOWR(CY7C67200_BASE,HPI_DATA,0x0001);//e //data0
    3b00:	00c24834 	movhi	r3,2336
    3b04:	18c01c04 	addi	r3,r3,112
    3b08:	00800044 	movi	r2,1
    3b0c:	18800035 	stwio	r2,0(r3)
    IOWR(CY7C67200_BASE,HPI_DATA,0x0013);//570
    3b10:	00c24834 	movhi	r3,2336
    3b14:	18c01c04 	addi	r3,r3,112
    3b18:	008004c4 	movi	r2,19
    3b1c:	18800035 	stwio	r2,0(r3)
    IOWR(CY7C67200_BASE,HPI_DATA,0x0574);//2
    3b20:	00c24834 	movhi	r3,2336
    3b24:	18c01c04 	addi	r3,r3,112
    3b28:	00815d04 	movi	r2,1396
    3b2c:	18800035 	stwio	r2,0(r3)
    
    //status phase
    IOWR(CY7C67200_BASE,HPI_DATA,0x0000); //574
    3b30:	00824834 	movhi	r2,2336
    3b34:	10801c04 	addi	r2,r2,112
    3b38:	10000035 	stwio	zero,0(r2)
    IOWR(CY7C67200_BASE,HPI_DATA,0x0000);//6
    3b3c:	00824834 	movhi	r2,2336
    3b40:	10801c04 	addi	r2,r2,112
    3b44:	10000035 	stwio	zero,0(r2)
    IOWR(CY7C67200_BASE,HPI_DATA,0x0210);//8
    3b48:	00c24834 	movhi	r3,2336
    3b4c:	18c01c04 	addi	r3,r3,112
    3b50:	00808404 	movi	r2,528
    3b54:	18800035 	stwio	r2,0(r3)
    IOWR(CY7C67200_BASE,HPI_DATA,0x0041);//a
    3b58:	00c24834 	movhi	r3,2336
    3b5c:	18c01c04 	addi	r3,r3,112
    3b60:	00801044 	movi	r2,65
    3b64:	18800035 	stwio	r2,0(r3)
    IOWR(CY7C67200_BASE,HPI_DATA,0x0013);//c
    3b68:	00c24834 	movhi	r3,2336
    3b6c:	18c01c04 	addi	r3,r3,112
    3b70:	008004c4 	movi	r2,19
    3b74:	18800035 	stwio	r2,0(r3)
    IOWR(CY7C67200_BASE,HPI_DATA,0x0000);//e
    3b78:	00824834 	movhi	r2,2336
    3b7c:	10801c04 	addi	r2,r2,112
    3b80:	10000035 	stwio	zero,0(r2)
     
    UsbWrite(HUSB_SIE1_pCurrentTDPtr,0x0500); //HUSB_SIE1_pCurrentTDPtr
    3b84:	01006c04 	movi	r4,432
    3b88:	01414004 	movi	r5,1280
    3b8c:	000482c0 	call	482c <UsbWrite>
    
   //usleep(100*1000);
   //if no message
    while (!(IORD(CY7C67200_BASE,HPI_STATUS) & HPI_STATUS_SIE1msg_FLAG) )  //read sie1 msg register
    3b90:	00010506 	br	3fa8 <main+0x3100>
    {
    //the starting address
    IOWR(CY7C67200_BASE,HPI_ADDR,0x0500); //the start address       
    3b94:	00c24834 	movhi	r3,2336
    3b98:	18c01e04 	addi	r3,r3,120
    3b9c:	00814004 	movi	r2,1280
    3ba0:	18800035 	stwio	r2,0(r3)
    IOWR(CY7C67200_BASE,HPI_DATA,0x050C); 
    3ba4:	00c24834 	movhi	r3,2336
    3ba8:	18c01c04 	addi	r3,r3,112
    3bac:	00814304 	movi	r2,1292
    3bb0:	18800035 	stwio	r2,0(r3)
    IOWR(CY7C67200_BASE,HPI_DATA,0x0008); //4 port number
    3bb4:	00c24834 	movhi	r3,2336
    3bb8:	18c01c04 	addi	r3,r3,112
    3bbc:	00800204 	movi	r2,8
    3bc0:	18800035 	stwio	r2,0(r3)
    IOWR(CY7C67200_BASE,HPI_DATA,0x02D0); //device address
    3bc4:	00c24834 	movhi	r3,2336
    3bc8:	18c01c04 	addi	r3,r3,112
    3bcc:	0080b404 	movi	r2,720
    3bd0:	18800035 	stwio	r2,0(r3)
    IOWR(CY7C67200_BASE,HPI_DATA,0x0001);
    3bd4:	00c24834 	movhi	r3,2336
    3bd8:	18c01c04 	addi	r3,r3,112
    3bdc:	00800044 	movi	r2,1
    3be0:	18800035 	stwio	r2,0(r3)
    IOWR(CY7C67200_BASE,HPI_DATA,0x0013);
    3be4:	00c24834 	movhi	r3,2336
    3be8:	18c01c04 	addi	r3,r3,112
    3bec:	008004c4 	movi	r2,19
    3bf0:	18800035 	stwio	r2,0(r3)
    IOWR(CY7C67200_BASE,HPI_DATA,0x0514);
    3bf4:	00c24834 	movhi	r3,2336
    3bf8:	18c01c04 	addi	r3,r3,112
    3bfc:	00814504 	movi	r2,1300
    3c00:	18800035 	stwio	r2,0(r3)
    
    //td content 4 bytes
    IOWR(CY7C67200_BASE,HPI_DATA,0x0681);//c
    3c04:	00c24834 	movhi	r3,2336
    3c08:	18c01c04 	addi	r3,r3,112
    3c0c:	0081a044 	movi	r2,1665
    3c10:	18800035 	stwio	r2,0(r3)
    IOWR(CY7C67200_BASE,HPI_DATA,0x2200);//e //config 
    3c14:	00c24834 	movhi	r3,2336
    3c18:	18c01c04 	addi	r3,r3,112
    3c1c:	00888004 	movi	r2,8704
    3c20:	18800035 	stwio	r2,0(r3)
    IOWR(CY7C67200_BASE,HPI_DATA,0x0000);//0
    3c24:	00824834 	movhi	r2,2336
    3c28:	10801c04 	addi	r2,r2,112
    3c2c:	10000035 	stwio	zero,0(r2)
    IOWR(CY7C67200_BASE,HPI_DATA,0x007B);//2
    3c30:	00c24834 	movhi	r3,2336
    3c34:	18c01c04 	addi	r3,r3,112
    3c38:	00801ec4 	movi	r2,123
    3c3c:	18800035 	stwio	r2,0(r3)
    
    //data phase IN-1
    IOWR(CY7C67200_BASE,HPI_DATA,0x0580); //514
    3c40:	00c24834 	movhi	r3,2336
    3c44:	18c01c04 	addi	r3,r3,112
    3c48:	00816004 	movi	r2,1408
    3c4c:	18800035 	stwio	r2,0(r3)
    IOWR(CY7C67200_BASE,HPI_DATA,0x0008);//6
    3c50:	00c24834 	movhi	r3,2336
    3c54:	18c01c04 	addi	r3,r3,112
    3c58:	00800204 	movi	r2,8
    3c5c:	18800035 	stwio	r2,0(r3)
    IOWR(CY7C67200_BASE,HPI_DATA,0x0290);//8
    3c60:	00c24834 	movhi	r3,2336
    3c64:	18c01c04 	addi	r3,r3,112
    3c68:	0080a404 	movi	r2,656
    3c6c:	18800035 	stwio	r2,0(r3)
    IOWR(CY7C67200_BASE,HPI_DATA,0x0041);//a
    3c70:	00c24834 	movhi	r3,2336
    3c74:	18c01c04 	addi	r3,r3,112
    3c78:	00801044 	movi	r2,65
    3c7c:	18800035 	stwio	r2,0(r3)
    IOWR(CY7C67200_BASE,HPI_DATA,0x0013);//c
    3c80:	00c24834 	movhi	r3,2336
    3c84:	18c01c04 	addi	r3,r3,112
    3c88:	008004c4 	movi	r2,19
    3c8c:	18800035 	stwio	r2,0(r3)
    IOWR(CY7C67200_BASE,HPI_DATA,0x0520);//e
    3c90:	00c24834 	movhi	r3,2336
    3c94:	18c01c04 	addi	r3,r3,112
    3c98:	00814804 	movi	r2,1312
    3c9c:	18800035 	stwio	r2,0(r3)
    
    //data phase IN-2
    IOWR(CY7C67200_BASE,HPI_DATA,0x0588); //520
    3ca0:	00c24834 	movhi	r3,2336
    3ca4:	18c01c04 	addi	r3,r3,112
    3ca8:	00816204 	movi	r2,1416
    3cac:	18800035 	stwio	r2,0(r3)
    IOWR(CY7C67200_BASE,HPI_DATA,0x0008);//2
    3cb0:	00c24834 	movhi	r3,2336
    3cb4:	18c01c04 	addi	r3,r3,112
    3cb8:	00800204 	movi	r2,8
    3cbc:	18800035 	stwio	r2,0(r3)
    IOWR(CY7C67200_BASE,HPI_DATA,0x0290);//4
    3cc0:	00c24834 	movhi	r3,2336
    3cc4:	18c01c04 	addi	r3,r3,112
    3cc8:	0080a404 	movi	r2,656
    3ccc:	18800035 	stwio	r2,0(r3)
    IOWR(CY7C67200_BASE,HPI_DATA,0x0001);//6 //data0
    3cd0:	00c24834 	movhi	r3,2336
    3cd4:	18c01c04 	addi	r3,r3,112
    3cd8:	00800044 	movi	r2,1
    3cdc:	18800035 	stwio	r2,0(r3)
    IOWR(CY7C67200_BASE,HPI_DATA,0x0013);//8
    3ce0:	00c24834 	movhi	r3,2336
    3ce4:	18c01c04 	addi	r3,r3,112
    3ce8:	008004c4 	movi	r2,19
    3cec:	18800035 	stwio	r2,0(r3)
    IOWR(CY7C67200_BASE,HPI_DATA,0x052c);//a
    3cf0:	00c24834 	movhi	r3,2336
    3cf4:	18c01c04 	addi	r3,r3,112
    3cf8:	00814b04 	movi	r2,1324
    3cfc:	18800035 	stwio	r2,0(r3)
    
    //data phase IN-3
    IOWR(CY7C67200_BASE,HPI_DATA,0x0590); //52c
    3d00:	00c24834 	movhi	r3,2336
    3d04:	18c01c04 	addi	r3,r3,112
    3d08:	00816404 	movi	r2,1424
    3d0c:	18800035 	stwio	r2,0(r3)
    IOWR(CY7C67200_BASE,HPI_DATA,0x0008);//e
    3d10:	00c24834 	movhi	r3,2336
    3d14:	18c01c04 	addi	r3,r3,112
    3d18:	00800204 	movi	r2,8
    3d1c:	18800035 	stwio	r2,0(r3)
    IOWR(CY7C67200_BASE,HPI_DATA,0x0290);//530
    3d20:	00c24834 	movhi	r3,2336
    3d24:	18c01c04 	addi	r3,r3,112
    3d28:	0080a404 	movi	r2,656
    3d2c:	18800035 	stwio	r2,0(r3)
    IOWR(CY7C67200_BASE,HPI_DATA,0x0041);//2
    3d30:	00c24834 	movhi	r3,2336
    3d34:	18c01c04 	addi	r3,r3,112
    3d38:	00801044 	movi	r2,65
    3d3c:	18800035 	stwio	r2,0(r3)
    IOWR(CY7C67200_BASE,HPI_DATA,0x0013);//4
    3d40:	00c24834 	movhi	r3,2336
    3d44:	18c01c04 	addi	r3,r3,112
    3d48:	008004c4 	movi	r2,19
    3d4c:	18800035 	stwio	r2,0(r3)
    IOWR(CY7C67200_BASE,HPI_DATA,0x0538);//6
    3d50:	00c24834 	movhi	r3,2336
    3d54:	18c01c04 	addi	r3,r3,112
    3d58:	00814e04 	movi	r2,1336
    3d5c:	18800035 	stwio	r2,0(r3)
    
    //data phase IN-4
    IOWR(CY7C67200_BASE,HPI_DATA,0x0598); //538
    3d60:	00c24834 	movhi	r3,2336
    3d64:	18c01c04 	addi	r3,r3,112
    3d68:	00816604 	movi	r2,1432
    3d6c:	18800035 	stwio	r2,0(r3)
    IOWR(CY7C67200_BASE,HPI_DATA,0x0008);//a
    3d70:	00c24834 	movhi	r3,2336
    3d74:	18c01c04 	addi	r3,r3,112
    3d78:	00800204 	movi	r2,8
    3d7c:	18800035 	stwio	r2,0(r3)
    IOWR(CY7C67200_BASE,HPI_DATA,0x0290);//c
    3d80:	00c24834 	movhi	r3,2336
    3d84:	18c01c04 	addi	r3,r3,112
    3d88:	0080a404 	movi	r2,656
    3d8c:	18800035 	stwio	r2,0(r3)
    IOWR(CY7C67200_BASE,HPI_DATA,0x0001);//e //data0
    3d90:	00c24834 	movhi	r3,2336
    3d94:	18c01c04 	addi	r3,r3,112
    3d98:	00800044 	movi	r2,1
    3d9c:	18800035 	stwio	r2,0(r3)
    IOWR(CY7C67200_BASE,HPI_DATA,0x0013);//540
    3da0:	00c24834 	movhi	r3,2336
    3da4:	18c01c04 	addi	r3,r3,112
    3da8:	008004c4 	movi	r2,19
    3dac:	18800035 	stwio	r2,0(r3)
    IOWR(CY7C67200_BASE,HPI_DATA,0x0544);//2
    3db0:	00c24834 	movhi	r3,2336
    3db4:	18c01c04 	addi	r3,r3,112
    3db8:	00815104 	movi	r2,1348
    3dbc:	18800035 	stwio	r2,0(r3)
    
    //data phase IN-5
    IOWR(CY7C67200_BASE,HPI_DATA,0x05a0); //544
    3dc0:	00c24834 	movhi	r3,2336
    3dc4:	18c01c04 	addi	r3,r3,112
    3dc8:	00816804 	movi	r2,1440
    3dcc:	18800035 	stwio	r2,0(r3)
    IOWR(CY7C67200_BASE,HPI_DATA,0x0008);//6
    3dd0:	00c24834 	movhi	r3,2336
    3dd4:	18c01c04 	addi	r3,r3,112
    3dd8:	00800204 	movi	r2,8
    3ddc:	18800035 	stwio	r2,0(r3)
    IOWR(CY7C67200_BASE,HPI_DATA,0x0290);//8
    3de0:	00c24834 	movhi	r3,2336
    3de4:	18c01c04 	addi	r3,r3,112
    3de8:	0080a404 	movi	r2,656
    3dec:	18800035 	stwio	r2,0(r3)
    IOWR(CY7C67200_BASE,HPI_DATA,0x0041);//a //data1
    3df0:	00c24834 	movhi	r3,2336
    3df4:	18c01c04 	addi	r3,r3,112
    3df8:	00801044 	movi	r2,65
    3dfc:	18800035 	stwio	r2,0(r3)
    IOWR(CY7C67200_BASE,HPI_DATA,0x0013);//c
    3e00:	00c24834 	movhi	r3,2336
    3e04:	18c01c04 	addi	r3,r3,112
    3e08:	008004c4 	movi	r2,19
    3e0c:	18800035 	stwio	r2,0(r3)
    IOWR(CY7C67200_BASE,HPI_DATA,0x0550);//e
    3e10:	00c24834 	movhi	r3,2336
    3e14:	18c01c04 	addi	r3,r3,112
    3e18:	00815404 	movi	r2,1360
    3e1c:	18800035 	stwio	r2,0(r3)
    
    //data phase IN-6
    IOWR(CY7C67200_BASE,HPI_DATA,0x05a8); //550
    3e20:	00c24834 	movhi	r3,2336
    3e24:	18c01c04 	addi	r3,r3,112
    3e28:	00816a04 	movi	r2,1448
    3e2c:	18800035 	stwio	r2,0(r3)
    IOWR(CY7C67200_BASE,HPI_DATA,0x0008);//2
    3e30:	00c24834 	movhi	r3,2336
    3e34:	18c01c04 	addi	r3,r3,112
    3e38:	00800204 	movi	r2,8
    3e3c:	18800035 	stwio	r2,0(r3)
    IOWR(CY7C67200_BASE,HPI_DATA,0x0290);//4
    3e40:	00c24834 	movhi	r3,2336
    3e44:	18c01c04 	addi	r3,r3,112
    3e48:	0080a404 	movi	r2,656
    3e4c:	18800035 	stwio	r2,0(r3)
    IOWR(CY7C67200_BASE,HPI_DATA,0x0001);//6 //data0
    3e50:	00c24834 	movhi	r3,2336
    3e54:	18c01c04 	addi	r3,r3,112
    3e58:	00800044 	movi	r2,1
    3e5c:	18800035 	stwio	r2,0(r3)
    IOWR(CY7C67200_BASE,HPI_DATA,0x0013);//8
    3e60:	00c24834 	movhi	r3,2336
    3e64:	18c01c04 	addi	r3,r3,112
    3e68:	008004c4 	movi	r2,19
    3e6c:	18800035 	stwio	r2,0(r3)
    IOWR(CY7C67200_BASE,HPI_DATA,0x055c);//a
    3e70:	00c24834 	movhi	r3,2336
    3e74:	18c01c04 	addi	r3,r3,112
    3e78:	00815704 	movi	r2,1372
    3e7c:	18800035 	stwio	r2,0(r3)
    
    //data phase IN-7
    IOWR(CY7C67200_BASE,HPI_DATA,0x05b0); //c
    3e80:	00c24834 	movhi	r3,2336
    3e84:	18c01c04 	addi	r3,r3,112
    3e88:	00816c04 	movi	r2,1456
    3e8c:	18800035 	stwio	r2,0(r3)
    IOWR(CY7C67200_BASE,HPI_DATA,0x0008);//e
    3e90:	00c24834 	movhi	r3,2336
    3e94:	18c01c04 	addi	r3,r3,112
    3e98:	00800204 	movi	r2,8
    3e9c:	18800035 	stwio	r2,0(r3)
    IOWR(CY7C67200_BASE,HPI_DATA,0x0290);//560
    3ea0:	00c24834 	movhi	r3,2336
    3ea4:	18c01c04 	addi	r3,r3,112
    3ea8:	0080a404 	movi	r2,656
    3eac:	18800035 	stwio	r2,0(r3)
    IOWR(CY7C67200_BASE,HPI_DATA,0x0041);//2 //data1
    3eb0:	00c24834 	movhi	r3,2336
    3eb4:	18c01c04 	addi	r3,r3,112
    3eb8:	00801044 	movi	r2,65
    3ebc:	18800035 	stwio	r2,0(r3)
    IOWR(CY7C67200_BASE,HPI_DATA,0x0013);//4
    3ec0:	00c24834 	movhi	r3,2336
    3ec4:	18c01c04 	addi	r3,r3,112
    3ec8:	008004c4 	movi	r2,19
    3ecc:	18800035 	stwio	r2,0(r3)
    IOWR(CY7C67200_BASE,HPI_DATA,0x0568);//6
    3ed0:	00c24834 	movhi	r3,2336
    3ed4:	18c01c04 	addi	r3,r3,112
    3ed8:	00815a04 	movi	r2,1384
    3edc:	18800035 	stwio	r2,0(r3)
    
    //data phase IN-8
    IOWR(CY7C67200_BASE,HPI_DATA,0x05b8); //8
    3ee0:	00c24834 	movhi	r3,2336
    3ee4:	18c01c04 	addi	r3,r3,112
    3ee8:	00816e04 	movi	r2,1464
    3eec:	18800035 	stwio	r2,0(r3)
    IOWR(CY7C67200_BASE,HPI_DATA,0x0003);//a
    3ef0:	00c24834 	movhi	r3,2336
    3ef4:	18c01c04 	addi	r3,r3,112
    3ef8:	008000c4 	movi	r2,3
    3efc:	18800035 	stwio	r2,0(r3)
    IOWR(CY7C67200_BASE,HPI_DATA,0x0290);//c
    3f00:	00c24834 	movhi	r3,2336
    3f04:	18c01c04 	addi	r3,r3,112
    3f08:	0080a404 	movi	r2,656
    3f0c:	18800035 	stwio	r2,0(r3)
    IOWR(CY7C67200_BASE,HPI_DATA,0x0001);//e //data1
    3f10:	00c24834 	movhi	r3,2336
    3f14:	18c01c04 	addi	r3,r3,112
    3f18:	00800044 	movi	r2,1
    3f1c:	18800035 	stwio	r2,0(r3)
    IOWR(CY7C67200_BASE,HPI_DATA,0x0013);//570
    3f20:	00c24834 	movhi	r3,2336
    3f24:	18c01c04 	addi	r3,r3,112
    3f28:	008004c4 	movi	r2,19
    3f2c:	18800035 	stwio	r2,0(r3)
    IOWR(CY7C67200_BASE,HPI_DATA,0x0574);//2
    3f30:	00c24834 	movhi	r3,2336
    3f34:	18c01c04 	addi	r3,r3,112
    3f38:	00815d04 	movi	r2,1396
    3f3c:	18800035 	stwio	r2,0(r3)
    
    //status phase
    IOWR(CY7C67200_BASE,HPI_DATA,0x0000); //574
    3f40:	00824834 	movhi	r2,2336
    3f44:	10801c04 	addi	r2,r2,112
    3f48:	10000035 	stwio	zero,0(r2)
    IOWR(CY7C67200_BASE,HPI_DATA,0x0000);//6
    3f4c:	00824834 	movhi	r2,2336
    3f50:	10801c04 	addi	r2,r2,112
    3f54:	10000035 	stwio	zero,0(r2)
    IOWR(CY7C67200_BASE,HPI_DATA,0x0210);//8
    3f58:	00c24834 	movhi	r3,2336
    3f5c:	18c01c04 	addi	r3,r3,112
    3f60:	00808404 	movi	r2,528
    3f64:	18800035 	stwio	r2,0(r3)
    IOWR(CY7C67200_BASE,HPI_DATA,0x0041);//a
    3f68:	00c24834 	movhi	r3,2336
    3f6c:	18c01c04 	addi	r3,r3,112
    3f70:	00801044 	movi	r2,65
    3f74:	18800035 	stwio	r2,0(r3)
    IOWR(CY7C67200_BASE,HPI_DATA,0x0013);//c
    3f78:	00c24834 	movhi	r3,2336
    3f7c:	18c01c04 	addi	r3,r3,112
    3f80:	008004c4 	movi	r2,19
    3f84:	18800035 	stwio	r2,0(r3)
    IOWR(CY7C67200_BASE,HPI_DATA,0x0000);//e
    3f88:	00824834 	movhi	r2,2336
    3f8c:	10801c04 	addi	r2,r2,112
    3f90:	10000035 	stwio	zero,0(r2)
          
    UsbWrite(HUSB_SIE1_pCurrentTDPtr,0x0500); //HUSB_SIE1_pCurrentTDPtr
    3f94:	01006c04 	movi	r4,432
    3f98:	01414004 	movi	r5,1280
    3f9c:	000482c0 	call	482c <UsbWrite>
    usleep(10*1000);
    3fa0:	0109c404 	movi	r4,10000
    3fa4:	00148100 	call	14810 <usleep>
     
    UsbWrite(HUSB_SIE1_pCurrentTDPtr,0x0500); //HUSB_SIE1_pCurrentTDPtr
    
   //usleep(100*1000);
   //if no message
    while (!(IORD(CY7C67200_BASE,HPI_STATUS) & HPI_STATUS_SIE1msg_FLAG) )  //read sie1 msg register
    3fa8:	00824834 	movhi	r2,2336
    3fac:	10801f04 	addi	r2,r2,124
    3fb0:	10800037 	ldwio	r2,0(r2)
    3fb4:	1080040c 	andi	r2,r2,16
    3fb8:	1005003a 	cmpeq	r2,r2,zero
    3fbc:	103ef51e 	bne	r2,zero,3b94 <main+0x2cec>
          
    UsbWrite(HUSB_SIE1_pCurrentTDPtr,0x0500); //HUSB_SIE1_pCurrentTDPtr
    usleep(10*1000);
    }
    
    usb_ctl_val = UsbRead(HPI_SIE1_MSG_ADR);
    3fc0:	01005104 	movi	r4,324
    3fc4:	00048700 	call	4870 <UsbRead>
    3fc8:	e0bffe8d 	sth	r2,-6(fp)
    UsbWrite(HPI_SIE1_MSG_ADR, 0);
    3fcc:	01005104 	movi	r4,324
    3fd0:	000b883a 	mov	r5,zero
    3fd4:	000482c0 	call	482c <UsbWrite>
    while (usb_ctl_val != 0x1000)  //read sie1 msg register
    3fd8:	00000d06 	br	4010 <main+0x3168>
    {
       if(usb_ctl_val == 0x000)
    3fdc:	e0bffe8b 	ldhu	r2,-6(fp)
    3fe0:	1005003a 	cmpeq	r2,r2,zero
    3fe4:	1000041e 	bne	r2,zero,3ff8 <main+0x3150>
       {
       }
       else
       {
        printf("[SIE1 MSG]: SIE 1 msg reg is %x\n",usb_ctl_val);
    3fe8:	e17ffe8b 	ldhu	r5,-6(fp)
    3fec:	010000b4 	movhi	r4,2
    3ff0:	21204404 	addi	r4,r4,-32496
    3ff4:	00055540 	call	5554 <printf>
       }
       usb_ctl_val = UsbRead(HPI_SIE1_MSG_ADR);
    3ff8:	01005104 	movi	r4,324
    3ffc:	00048700 	call	4870 <UsbRead>
    4000:	e0bffe8d 	sth	r2,-6(fp)
       UsbWrite(HPI_SIE1_MSG_ADR, 0);
    4004:	01005104 	movi	r4,324
    4008:	000b883a 	mov	r5,zero
    400c:	000482c0 	call	482c <UsbWrite>
    usleep(10*1000);
    }
    
    usb_ctl_val = UsbRead(HPI_SIE1_MSG_ADR);
    UsbWrite(HPI_SIE1_MSG_ADR, 0);
    while (usb_ctl_val != 0x1000)  //read sie1 msg register
    4010:	e0bffe8b 	ldhu	r2,-6(fp)
    4014:	10840018 	cmpnei	r2,r2,4096
    4018:	103ff01e 	bne	r2,zero,3fdc <main+0x3134>
       usb_ctl_val = UsbRead(HPI_SIE1_MSG_ADR);
       UsbWrite(HPI_SIE1_MSG_ADR, 0);
      
    }

    IOWR(CY7C67200_BASE,HPI_ADDR,0x0506);
    401c:	00c24834 	movhi	r3,2336
    4020:	18c01e04 	addi	r3,r3,120
    4024:	00814184 	movi	r2,1286
    4028:	18800035 	stwio	r2,0(r3)
    printf("[ENUM PROCESS]: step 9 TD Status Byte is %x\n",IORD(CY7C67200_BASE,HPI_DATA));
    402c:	00824834 	movhi	r2,2336
    4030:	10801c04 	addi	r2,r2,112
    4034:	11400037 	ldwio	r5,0(r2)
    4038:	010000b4 	movhi	r4,2
    403c:	21204d04 	addi	r4,r4,-32460
    4040:	00055540 	call	5554 <printf>
    
    IOWR(CY7C67200_BASE,HPI_ADDR,0x0508);
    4044:	00c24834 	movhi	r3,2336
    4048:	18c01e04 	addi	r3,r3,120
    404c:	00814204 	movi	r2,1288
    4050:	18800035 	stwio	r2,0(r3)
    usb_ctl_val = IORD(CY7C67200_BASE,HPI_DATA);
    4054:	00824834 	movhi	r2,2336
    4058:	10801c04 	addi	r2,r2,112
    405c:	10800037 	ldwio	r2,0(r2)
    4060:	e0bffe8d 	sth	r2,-6(fp)
    printf("[ENUM PROCESS]: step 9 TD Control Byte is %x\n",usb_ctl_val);
    4064:	e17ffe8b 	ldhu	r5,-6(fp)
    4068:	010000b4 	movhi	r4,2
    406c:	21205904 	addi	r4,r4,-32412
    4070:	00055540 	call	5554 <printf>
    while (usb_ctl_val != 0x03) 
    4074:	00001906 	br	40dc <main+0x3234>
    {
       IORD(CY7C67200_BASE,HPI_STATUS);
    4078:	00824834 	movhi	r2,2336
    407c:	10801f04 	addi	r2,r2,124
    4080:	10800037 	ldwio	r2,0(r2)
       if(UsbRead(HPI_SIE1_MSG_ADR) == 0x1000)
    4084:	01005104 	movi	r4,324
    4088:	00048700 	call	4870 <UsbRead>
    408c:	10bfffcc 	andi	r2,r2,65535
    4090:	10840018 	cmpnei	r2,r2,4096
    4094:	1000091e 	bne	r2,zero,40bc <main+0x3214>
       {
           UsbWrite(HPI_SIE1_MSG_ADR, 0);
    4098:	01005104 	movi	r4,324
    409c:	000b883a 	mov	r5,zero
    40a0:	000482c0 	call	482c <UsbWrite>
                   
           while (!(IORD(CY7C67200_BASE,HPI_STATUS) & HPI_STATUS_SIE1msg_FLAG) )  //read sie1 msg register
    40a4:	00824834 	movhi	r2,2336
    40a8:	10801f04 	addi	r2,r2,124
    40ac:	10800037 	ldwio	r2,0(r2)
    40b0:	1080040c 	andi	r2,r2,16
    40b4:	1005003a 	cmpeq	r2,r2,zero
    40b8:	103ffa1e 	bne	r2,zero,40a4 <main+0x31fc>
           {
            
           }
        }
           //usleep(1000);
           IOWR(CY7C67200_BASE,HPI_ADDR,0x0508);
    40bc:	00c24834 	movhi	r3,2336
    40c0:	18c01e04 	addi	r3,r3,120
    40c4:	00814204 	movi	r2,1288
    40c8:	18800035 	stwio	r2,0(r3)
           usb_ctl_val = IORD(CY7C67200_BASE,HPI_DATA); 
    40cc:	00824834 	movhi	r2,2336
    40d0:	10801c04 	addi	r2,r2,112
    40d4:	10800037 	ldwio	r2,0(r2)
    40d8:	e0bffe8d 	sth	r2,-6(fp)
    printf("[ENUM PROCESS]: step 9 TD Status Byte is %x\n",IORD(CY7C67200_BASE,HPI_DATA));
    
    IOWR(CY7C67200_BASE,HPI_ADDR,0x0508);
    usb_ctl_val = IORD(CY7C67200_BASE,HPI_DATA);
    printf("[ENUM PROCESS]: step 9 TD Control Byte is %x\n",usb_ctl_val);
    while (usb_ctl_val != 0x03) 
    40dc:	e0bffe8b 	ldhu	r2,-6(fp)
    40e0:	108000d8 	cmpnei	r2,r2,3
    40e4:	103fe41e 	bne	r2,zero,4078 <main+0x31d0>
           //usleep(1000);
           IOWR(CY7C67200_BASE,HPI_ADDR,0x0508);
           usb_ctl_val = IORD(CY7C67200_BASE,HPI_DATA); 
    }    
       
    printf("---------------[ENUM PROCESS]:get descriptor (class 0x22) pass!----------------\n");
    40e8:	010000b4 	movhi	r4,2
    40ec:	21206504 	addi	r4,r4,-32364
    40f0:	000566c0 	call	566c <puts>
    

    
    //-----------------------------------get mouse x y button value------------------------------------------------//
    usleep(10000);
    40f4:	0109c404 	movi	r4,10000
    40f8:	00148100 	call	14810 <usleep>
    while(1)
    {
      toggle++;
    40fc:	e0bffa43 	ldbu	r2,-23(fp)
    4100:	10800044 	addi	r2,r2,1
    4104:	e0bffa45 	stb	r2,-23(fp)
      IOWR(CY7C67200_BASE,HPI_ADDR,0x0500); //the start address       
    4108:	00c24834 	movhi	r3,2336
    410c:	18c01e04 	addi	r3,r3,120
    4110:	00814004 	movi	r2,1280
    4114:	18800035 	stwio	r2,0(r3)
      //data phase IN-1
      IOWR(CY7C67200_BASE,HPI_DATA,0x051c); //500
    4118:	00c24834 	movhi	r3,2336
    411c:	18c01c04 	addi	r3,r3,112
    4120:	00814704 	movi	r2,1308
    4124:	18800035 	stwio	r2,0(r3)
      if(data_size ==8)
    4128:	e0bffa03 	ldbu	r2,-24(fp)
    412c:	10800218 	cmpnei	r2,r2,8
    4130:	1000051e 	bne	r2,zero,4148 <main+0x32a0>
      {
          IOWR(CY7C67200_BASE,HPI_DATA,0x0006);//2 data length
    4134:	00c24834 	movhi	r3,2336
    4138:	18c01c04 	addi	r3,r3,112
    413c:	00800184 	movi	r2,6
    4140:	18800035 	stwio	r2,0(r3)
    4144:	00000506 	br	415c <main+0x32b4>
      }
      else
      {
          IOWR(CY7C67200_BASE,HPI_DATA,0x000f & data_size);//2 data length
    4148:	e0bffa03 	ldbu	r2,-24(fp)
    414c:	10c003cc 	andi	r3,r2,15
    4150:	00824834 	movhi	r2,2336
    4154:	10801c04 	addi	r2,r2,112
    4158:	10c00035 	stwio	r3,0(r2)
      }
      IOWR(CY7C67200_BASE,HPI_DATA,0x0291);//4 //endpoint 1
    415c:	00c24834 	movhi	r3,2336
    4160:	18c01c04 	addi	r3,r3,112
    4164:	0080a444 	movi	r2,657
    4168:	18800035 	stwio	r2,0(r3)
      if(toggle%2)
    416c:	e0bffa43 	ldbu	r2,-23(fp)
    4170:	1080004c 	andi	r2,r2,1
    4174:	10803fcc 	andi	r2,r2,255
    4178:	1005003a 	cmpeq	r2,r2,zero
    417c:	1000051e 	bne	r2,zero,4194 <main+0x32ec>
      {
          IOWR(CY7C67200_BASE,HPI_DATA,0x0001);//6 //data 1
    4180:	00c24834 	movhi	r3,2336
    4184:	18c01c04 	addi	r3,r3,112
    4188:	00800044 	movi	r2,1
    418c:	18800035 	stwio	r2,0(r3)
    4190:	00000406 	br	41a4 <main+0x32fc>
      }
      else
      {
          IOWR(CY7C67200_BASE,HPI_DATA,0x0041);//6 //data 1
    4194:	00c24834 	movhi	r3,2336
    4198:	18c01c04 	addi	r3,r3,112
    419c:	00801044 	movi	r2,65
    41a0:	18800035 	stwio	r2,0(r3)
      }
      IOWR(CY7C67200_BASE,HPI_DATA,0x0013);//8
    41a4:	00824834 	movhi	r2,2336
    41a8:	10801c04 	addi	r2,r2,112
    41ac:	00c004c4 	movi	r3,19
    41b0:	10c00035 	stwio	r3,0(r2)
      IOWR(CY7C67200_BASE,HPI_DATA,0x0000);//a
    41b4:	00824834 	movhi	r2,2336
    41b8:	10801c04 	addi	r2,r2,112
    41bc:	10000035 	stwio	zero,0(r2)
      UsbWrite(HUSB_SIE1_pCurrentTDPtr,0x0500); //HUSB_SIE1_pCurrentTDPtr
    41c0:	01006c04 	movi	r4,432
    41c4:	01414004 	movi	r5,1280
    41c8:	000482c0 	call	482c <UsbWrite>
      //usleep(10*1000);    
      while (!(IORD(CY7C67200_BASE,HPI_STATUS) & HPI_STATUS_SIE1msg_FLAG) )  //read sie1 msg register
    41cc:	00003306 	br	429c <main+0x33f4>
      {
          IOWR(CY7C67200_BASE,HPI_ADDR,0x0500); //the start address       
    41d0:	00c24834 	movhi	r3,2336
    41d4:	18c01e04 	addi	r3,r3,120
    41d8:	00814004 	movi	r2,1280
    41dc:	18800035 	stwio	r2,0(r3)
          //data phase IN-1
          IOWR(CY7C67200_BASE,HPI_DATA,0x051c); //500
    41e0:	00c24834 	movhi	r3,2336
    41e4:	18c01c04 	addi	r3,r3,112
    41e8:	00814704 	movi	r2,1308
    41ec:	18800035 	stwio	r2,0(r3)
          if(data_size ==8)
    41f0:	e0bffa03 	ldbu	r2,-24(fp)
    41f4:	10800218 	cmpnei	r2,r2,8
    41f8:	1000051e 	bne	r2,zero,4210 <main+0x3368>
          {
             IOWR(CY7C67200_BASE,HPI_DATA,0x0006);//2 data length
    41fc:	00c24834 	movhi	r3,2336
    4200:	18c01c04 	addi	r3,r3,112
    4204:	00800184 	movi	r2,6
    4208:	18800035 	stwio	r2,0(r3)
    420c:	00000506 	br	4224 <main+0x337c>
          }
          else
          {
             IOWR(CY7C67200_BASE,HPI_DATA,0x000f & data_size);//2 data length
    4210:	e0bffa03 	ldbu	r2,-24(fp)
    4214:	10c003cc 	andi	r3,r2,15
    4218:	00824834 	movhi	r2,2336
    421c:	10801c04 	addi	r2,r2,112
    4220:	10c00035 	stwio	r3,0(r2)
          }
          IOWR(CY7C67200_BASE,HPI_DATA,0x0291);//4 //endpoint 1
    4224:	00c24834 	movhi	r3,2336
    4228:	18c01c04 	addi	r3,r3,112
    422c:	0080a444 	movi	r2,657
    4230:	18800035 	stwio	r2,0(r3)
          if(toggle%2)
    4234:	e0bffa43 	ldbu	r2,-23(fp)
    4238:	1080004c 	andi	r2,r2,1
    423c:	10803fcc 	andi	r2,r2,255
    4240:	1005003a 	cmpeq	r2,r2,zero
    4244:	1000051e 	bne	r2,zero,425c <main+0x33b4>
          {
            IOWR(CY7C67200_BASE,HPI_DATA,0x0001);//6 //data 1
    4248:	00c24834 	movhi	r3,2336
    424c:	18c01c04 	addi	r3,r3,112
    4250:	00800044 	movi	r2,1
    4254:	18800035 	stwio	r2,0(r3)
    4258:	00000406 	br	426c <main+0x33c4>
          }
          else
          {
            IOWR(CY7C67200_BASE,HPI_DATA,0x0041);//6 //data 1
    425c:	00c24834 	movhi	r3,2336
    4260:	18c01c04 	addi	r3,r3,112
    4264:	00801044 	movi	r2,65
    4268:	18800035 	stwio	r2,0(r3)
          }
          IOWR(CY7C67200_BASE,HPI_DATA,0x0013);//8
    426c:	00824834 	movhi	r2,2336
    4270:	10801c04 	addi	r2,r2,112
    4274:	00c004c4 	movi	r3,19
    4278:	10c00035 	stwio	r3,0(r2)
          IOWR(CY7C67200_BASE,HPI_DATA,0x0000);//a
    427c:	00824834 	movhi	r2,2336
    4280:	10801c04 	addi	r2,r2,112
    4284:	10000035 	stwio	zero,0(r2)
          UsbWrite(HUSB_SIE1_pCurrentTDPtr,0x0500); //HUSB_SIE1_pCurrentTDPtr
    4288:	01006c04 	movi	r4,432
    428c:	01414004 	movi	r5,1280
    4290:	000482c0 	call	482c <UsbWrite>
          usleep(10*1000);
    4294:	0109c404 	movi	r4,10000
    4298:	00148100 	call	14810 <usleep>
      }
      IOWR(CY7C67200_BASE,HPI_DATA,0x0013);//8
      IOWR(CY7C67200_BASE,HPI_DATA,0x0000);//a
      UsbWrite(HUSB_SIE1_pCurrentTDPtr,0x0500); //HUSB_SIE1_pCurrentTDPtr
      //usleep(10*1000);    
      while (!(IORD(CY7C67200_BASE,HPI_STATUS) & HPI_STATUS_SIE1msg_FLAG) )  //read sie1 msg register
    429c:	00824834 	movhi	r2,2336
    42a0:	10801f04 	addi	r2,r2,124
    42a4:	10800037 	ldwio	r2,0(r2)
    42a8:	1080040c 	andi	r2,r2,16
    42ac:	1005003a 	cmpeq	r2,r2,zero
    42b0:	103fc71e 	bne	r2,zero,41d0 <main+0x3328>
          IOWR(CY7C67200_BASE,HPI_DATA,0x0013);//8
          IOWR(CY7C67200_BASE,HPI_DATA,0x0000);//a
          UsbWrite(HUSB_SIE1_pCurrentTDPtr,0x0500); //HUSB_SIE1_pCurrentTDPtr
          usleep(10*1000);
      }//end while
      usb_ctl_val = UsbRead(HPI_SIE1_MSG_ADR);
    42b4:	01005104 	movi	r4,324
    42b8:	00048700 	call	4870 <UsbRead>
    42bc:	e0bffe8d 	sth	r2,-6(fp)
      UsbWrite(HPI_SIE1_MSG_ADR, 0);
    42c0:	01005104 	movi	r4,324
    42c4:	000b883a 	mov	r5,zero
    42c8:	000482c0 	call	482c <UsbWrite>
      while (usb_ctl_val != 0x1000)  //read sie1 msg register
    42cc:	00000d06 	br	4304 <main+0x345c>
      {
         if(usb_ctl_val == 0x000)
    42d0:	e0bffe8b 	ldhu	r2,-6(fp)
    42d4:	1005003a 	cmpeq	r2,r2,zero
    42d8:	1000041e 	bne	r2,zero,42ec <main+0x3444>
         {}
         else
         {
            printf("[SIE1 MSG]:SIE1 msg reg is %x\n",usb_ctl_val);
    42dc:	e17ffe8b 	ldhu	r5,-6(fp)
    42e0:	01000074 	movhi	r4,1
    42e4:	211ee704 	addi	r4,r4,31644
    42e8:	00055540 	call	5554 <printf>
         }
         usb_ctl_val = UsbRead(HPI_SIE1_MSG_ADR);
    42ec:	01005104 	movi	r4,324
    42f0:	00048700 	call	4870 <UsbRead>
    42f4:	e0bffe8d 	sth	r2,-6(fp)
         UsbWrite(HPI_SIE1_MSG_ADR, 0);
    42f8:	01005104 	movi	r4,324
    42fc:	000b883a 	mov	r5,zero
    4300:	000482c0 	call	482c <UsbWrite>
          UsbWrite(HUSB_SIE1_pCurrentTDPtr,0x0500); //HUSB_SIE1_pCurrentTDPtr
          usleep(10*1000);
      }//end while
      usb_ctl_val = UsbRead(HPI_SIE1_MSG_ADR);
      UsbWrite(HPI_SIE1_MSG_ADR, 0);
      while (usb_ctl_val != 0x1000)  //read sie1 msg register
    4304:	e0bffe8b 	ldhu	r2,-6(fp)
    4308:	10840018 	cmpnei	r2,r2,4096
    430c:	103ff01e 	bne	r2,zero,42d0 <main+0x3428>
            printf("[SIE1 MSG]:SIE1 msg reg is %x\n",usb_ctl_val);
         }
         usb_ctl_val = UsbRead(HPI_SIE1_MSG_ADR);
         UsbWrite(HPI_SIE1_MSG_ADR, 0);
      }
      IOWR(CY7C67200_BASE,HPI_ADDR,0x0508);
    4310:	00c24834 	movhi	r3,2336
    4314:	18c01e04 	addi	r3,r3,120
    4318:	00814204 	movi	r2,1288
    431c:	18800035 	stwio	r2,0(r3)
      usb_ctl_val = IORD(CY7C67200_BASE,HPI_DATA);
    4320:	00824834 	movhi	r2,2336
    4324:	10801c04 	addi	r2,r2,112
    4328:	10800037 	ldwio	r2,0(r2)
    432c:	e0bffe8d 	sth	r2,-6(fp)

      if (usb_ctl_val != 0x03) 
    4330:	e0bffe8b 	ldhu	r2,-6(fp)
    4334:	108000e0 	cmpeqi	r2,r2,3
    4338:	1000051e 	bne	r2,zero,4350 <main+0x34a8>
      {
         pbutton = 0;
    433c:	e03ffa85 	stb	zero,-22(fp)
         dx = 0;
    4340:	e03ffb05 	stb	zero,-20(fp)
         dy = 0;
    4344:	e03ffac5 	stb	zero,-21(fp)
         button_value = 0;
    4348:	e03ffd15 	stw	zero,-12(fp)
    434c:	00009c06 	br	45c0 <main+0x3718>
      }
    
      else
     {
        if(data_size != 8 )  
    4350:	e0bffa03 	ldbu	r2,-24(fp)
    4354:	10800220 	cmpeqi	r2,r2,8
    4358:	10004c1e 	bne	r2,zero,448c <main+0x35e4>
        {
          IOWR(CY7C67200_BASE,HPI_ADDR,0x051c); //the start address  
    435c:	00c24834 	movhi	r3,2336
    4360:	18c01e04 	addi	r3,r3,120
    4364:	00814704 	movi	r2,1308
    4368:	18800035 	stwio	r2,0(r3)
          button_value = IORD(CY7C67200_BASE,HPI_DATA);
    436c:	00824834 	movhi	r2,2336
    4370:	10801c04 	addi	r2,r2,112
    4374:	10800037 	ldwio	r2,0(r2)
    4378:	e0bffd15 	stw	r2,-12(fp)
          if((button_value & 0x00ff) ==0x0001)
    437c:	e0bffd17 	ldw	r2,-12(fp)
    4380:	10803fcc 	andi	r2,r2,255
    4384:	10800058 	cmpnei	r2,r2,1
    4388:	1000031e 	bne	r2,zero,4398 <main+0x34f0>
          {
           //printf("left button\n");
            pbutton = 1;
    438c:	00800044 	movi	r2,1
    4390:	e0bffa85 	stb	r2,-22(fp)
    4394:	00000806 	br	43b8 <main+0x3510>
          }
          else
          if((button_value& 0x00ff) ==0x0002)
    4398:	e0bffd17 	ldw	r2,-12(fp)
    439c:	10803fcc 	andi	r2,r2,255
    43a0:	10800098 	cmpnei	r2,r2,2
    43a4:	1000031e 	bne	r2,zero,43b4 <main+0x350c>
          {
           //printf("right button\n");
           pbutton = 2;    
    43a8:	00800084 	movi	r2,2
    43ac:	e0bffa85 	stb	r2,-22(fp)
    43b0:	00000106 	br	43b8 <main+0x3510>
          }
          else
          {
           pbutton = 0;
    43b4:	e03ffa85 	stb	zero,-22(fp)
          }
          if((signed char)((button_value>>8)&0x00ff) != 0)
    43b8:	e0bffd17 	ldw	r2,-12(fp)
    43bc:	1005d23a 	srai	r2,r2,8
    43c0:	1007883a 	mov	r3,r2
    43c4:	00bfffc4 	movi	r2,-1
    43c8:	1884703a 	and	r2,r3,r2
    43cc:	10803fcc 	andi	r2,r2,255
    43d0:	1080201c 	xori	r2,r2,128
    43d4:	10bfe004 	addi	r2,r2,-128
    43d8:	1005003a 	cmpeq	r2,r2,zero
    43dc:	1000121e 	bne	r2,zero,4428 <main+0x3580>
          {
       
             if((signed char)((button_value>>8)&0x00ff )==dx)
    43e0:	e0bffd17 	ldw	r2,-12(fp)
    43e4:	1005d23a 	srai	r2,r2,8
    43e8:	1007883a 	mov	r3,r2
    43ec:	00bfffc4 	movi	r2,-1
    43f0:	1884703a 	and	r2,r3,r2
    43f4:	10c03fcc 	andi	r3,r2,255
    43f8:	18c0201c 	xori	r3,r3,128
    43fc:	18ffe004 	addi	r3,r3,-128
    4400:	e0bffb07 	ldb	r2,-20(fp)
    4404:	1880021e 	bne	r3,r2,4410 <main+0x3568>
             {
                dx = 0;
    4408:	e03ffb05 	stb	zero,-20(fp)
    440c:	00000606 	br	4428 <main+0x3580>
             }
              else
             {
                dx = (signed char)((button_value>>8)&0x00ff);
    4410:	e0bffd17 	ldw	r2,-12(fp)
    4414:	1005d23a 	srai	r2,r2,8
    4418:	1007883a 	mov	r3,r2
    441c:	00bfffc4 	movi	r2,-1
    4420:	1884703a 	and	r2,r3,r2
    4424:	e0bffb05 	stb	r2,-20(fp)
             }
       
          }
       
       button_value = IORD(CY7C67200_BASE,HPI_DATA);
    4428:	00824834 	movhi	r2,2336
    442c:	10801c04 	addi	r2,r2,112
    4430:	10800037 	ldwio	r2,0(r2)
    4434:	e0bffd15 	stw	r2,-12(fp)
    
       if(button_value&0xff)
    4438:	e0bffd17 	ldw	r2,-12(fp)
    443c:	10803fcc 	andi	r2,r2,255
    4440:	1005003a 	cmpeq	r2,r2,zero
    4444:	10005e1e 	bne	r2,zero,45c0 <main+0x3718>
       {
          //printf("dy value is %d\n",button_value&0xff);
          if((signed char)(button_value&0x00ff) == dy)
    4448:	e0bffd17 	ldw	r2,-12(fp)
    444c:	1007883a 	mov	r3,r2
    4450:	00bfffc4 	movi	r2,-1
    4454:	1884703a 	and	r2,r3,r2
    4458:	10c03fcc 	andi	r3,r2,255
    445c:	18c0201c 	xori	r3,r3,128
    4460:	18ffe004 	addi	r3,r3,-128
    4464:	e0bffac7 	ldb	r2,-21(fp)
    4468:	1880021e 	bne	r3,r2,4474 <main+0x35cc>
          {
             dy = 0;
    446c:	e03ffac5 	stb	zero,-21(fp)
    4470:	00005306 	br	45c0 <main+0x3718>
          }
          else
          {
             dy = (signed char)(button_value&0xff);
    4474:	e0bffd17 	ldw	r2,-12(fp)
    4478:	1007883a 	mov	r3,r2
    447c:	00bfffc4 	movi	r2,-1
    4480:	1884703a 	and	r2,r3,r2
    4484:	e0bffac5 	stb	r2,-21(fp)
    4488:	00004d06 	br	45c0 <main+0x3718>
        
        }
      }
      else //>8
      {
        IOWR(CY7C67200_BASE,HPI_ADDR,0x051c); //the start address  
    448c:	00c24834 	movhi	r3,2336
    4490:	18c01e04 	addi	r3,r3,120
    4494:	00814704 	movi	r2,1308
    4498:	18800035 	stwio	r2,0(r3)
        button_value = IORD(CY7C67200_BASE,HPI_DATA);
    449c:	00824834 	movhi	r2,2336
    44a0:	10801c04 	addi	r2,r2,112
    44a4:	10800037 	ldwio	r2,0(r2)
    44a8:	e0bffd15 	stw	r2,-12(fp)
         if(((button_value>>8) & 0x00ff) ==0x0001)
    44ac:	e0bffd17 	ldw	r2,-12(fp)
    44b0:	1005d23a 	srai	r2,r2,8
    44b4:	10803fcc 	andi	r2,r2,255
    44b8:	10800058 	cmpnei	r2,r2,1
    44bc:	1000031e 	bne	r2,zero,44cc <main+0x3624>
        {
           //printf("left button\n");
           pbutton = 1;
    44c0:	00800044 	movi	r2,1
    44c4:	e0bffa85 	stb	r2,-22(fp)
    44c8:	00000906 	br	44f0 <main+0x3648>
        }
        else
        if(((button_value>>8) & 0x00ff) ==0x0002)
    44cc:	e0bffd17 	ldw	r2,-12(fp)
    44d0:	1005d23a 	srai	r2,r2,8
    44d4:	10803fcc 	andi	r2,r2,255
    44d8:	10800098 	cmpnei	r2,r2,2
    44dc:	1000031e 	bne	r2,zero,44ec <main+0x3644>
        {
           //printf("right button\n");
           pbutton = 2;    
    44e0:	00800084 	movi	r2,2
    44e4:	e0bffa85 	stb	r2,-22(fp)
    44e8:	00000106 	br	44f0 <main+0x3648>
        }
        else
        {
           pbutton = 0;
    44ec:	e03ffa85 	stb	zero,-22(fp)
        }
        button_value = IORD(CY7C67200_BASE,HPI_DATA);
    44f0:	00824834 	movhi	r2,2336
    44f4:	10801c04 	addi	r2,r2,112
    44f8:	10800037 	ldwio	r2,0(r2)
    44fc:	e0bffd15 	stw	r2,-12(fp)
        if((signed char)((button_value>>8)&0x00ff) != 0)
    4500:	e0bffd17 	ldw	r2,-12(fp)
    4504:	1005d23a 	srai	r2,r2,8
    4508:	1007883a 	mov	r3,r2
    450c:	00bfffc4 	movi	r2,-1
    4510:	1884703a 	and	r2,r3,r2
    4514:	10803fcc 	andi	r2,r2,255
    4518:	1080201c 	xori	r2,r2,128
    451c:	10bfe004 	addi	r2,r2,-128
    4520:	1005003a 	cmpeq	r2,r2,zero
    4524:	1000121e 	bne	r2,zero,4570 <main+0x36c8>
        {
           if((signed char)((button_value>>8)&0x00ff )==dy)
    4528:	e0bffd17 	ldw	r2,-12(fp)
    452c:	1005d23a 	srai	r2,r2,8
    4530:	1007883a 	mov	r3,r2
    4534:	00bfffc4 	movi	r2,-1
    4538:	1884703a 	and	r2,r3,r2
    453c:	10c03fcc 	andi	r3,r2,255
    4540:	18c0201c 	xori	r3,r3,128
    4544:	18ffe004 	addi	r3,r3,-128
    4548:	e0bffac7 	ldb	r2,-21(fp)
    454c:	1880021e 	bne	r3,r2,4558 <main+0x36b0>
           {
              dy = 0;
    4550:	e03ffac5 	stb	zero,-21(fp)
    4554:	00000606 	br	4570 <main+0x36c8>
           }
           else
           {
              dy = (signed char)((button_value>>8)&0x00ff);
    4558:	e0bffd17 	ldw	r2,-12(fp)
    455c:	1005d23a 	srai	r2,r2,8
    4560:	1007883a 	mov	r3,r2
    4564:	00bfffc4 	movi	r2,-1
    4568:	1884703a 	and	r2,r3,r2
    456c:	e0bffac5 	stb	r2,-21(fp)
           }
       
        }
       
       if(button_value&0x0ff)
    4570:	e0bffd17 	ldw	r2,-12(fp)
    4574:	10803fcc 	andi	r2,r2,255
    4578:	1005003a 	cmpeq	r2,r2,zero
    457c:	1000101e 	bne	r2,zero,45c0 <main+0x3718>
       {
          //printf("dy value is %d\n",button_value&0xff);
          if((signed char)(button_value&0x00ff) == dx)
    4580:	e0bffd17 	ldw	r2,-12(fp)
    4584:	1007883a 	mov	r3,r2
    4588:	00bfffc4 	movi	r2,-1
    458c:	1884703a 	and	r2,r3,r2
    4590:	10c03fcc 	andi	r3,r2,255
    4594:	18c0201c 	xori	r3,r3,128
    4598:	18ffe004 	addi	r3,r3,-128
    459c:	e0bffb07 	ldb	r2,-20(fp)
    45a0:	1880021e 	bne	r3,r2,45ac <main+0x3704>
          {
             dx = 0;
    45a4:	e03ffb05 	stb	zero,-20(fp)
    45a8:	00000506 	br	45c0 <main+0x3718>
          }
          else
          {
             dx = (signed char)(button_value&0xff);
    45ac:	e0bffd17 	ldw	r2,-12(fp)
    45b0:	1007883a 	mov	r3,r2
    45b4:	00bfffc4 	movi	r2,-1
    45b8:	1884703a 	and	r2,r3,r2
    45bc:	e0bffb05 	stb	r2,-20(fp)
        }
      }
        
    }    
     
    px = px + dx;
    45c0:	e0fffb07 	ldb	r3,-20(fp)
    45c4:	e0bffc0b 	ldhu	r2,-16(fp)
    45c8:	10c5883a 	add	r2,r2,r3
    45cc:	e0bffc0d 	sth	r2,-16(fp)
    py = py + dy;
    45d0:	e0fffac7 	ldb	r3,-21(fp)
    45d4:	e0bffb8b 	ldhu	r2,-18(fp)
    45d8:	10c5883a 	add	r2,r2,r3
    45dc:	e0bffb8d 	sth	r2,-18(fp)
    
    px=maxmin(px,639,0);
    45e0:	e13ffc0b 	ldhu	r4,-16(fp)
    45e4:	01409fc4 	movi	r5,639
    45e8:	000d883a 	mov	r6,zero
    45ec:	00002000 	call	200 <maxmin>
    45f0:	e0bffc0d 	sth	r2,-16(fp)
    py=maxmin(py,479,0);
    45f4:	e13ffb8b 	ldhu	r4,-18(fp)
    45f8:	014077c4 	movi	r5,479
    45fc:	000d883a 	mov	r6,zero
    4600:	00002000 	call	200 <maxmin>
    4604:	e0bffb8d 	sth	r2,-18(fp)
    
    SEG7_Hex((px<<16)+py,0);
    4608:	e0bffc0b 	ldhu	r2,-16(fp)
    460c:	1006943a 	slli	r3,r2,16
    4610:	e0bffb8b 	ldhu	r2,-18(fp)
    4614:	1885883a 	add	r2,r3,r2
    4618:	1009883a 	mov	r4,r2
    461c:	000b883a 	mov	r5,zero
    4620:	0004c840 	call	4c84 <SEG7_Hex>
    IOWR(LEDR_BASE,0,px);
    4624:	e0fffc0b 	ldhu	r3,-16(fp)
    4628:	00824834 	movhi	r2,2336
    462c:	10801404 	addi	r2,r2,80
    4630:	10c00035 	stwio	r3,0(r2)
    IOWR(LEDG_BASE,0,py);
    4634:	e0fffb8b 	ldhu	r3,-18(fp)
    4638:	00824834 	movhi	r2,2336
    463c:	10801004 	addi	r2,r2,64
    4640:	10c00035 	stwio	r3,0(r2)

    Set_Cursor_XY(px,py);
    4644:	e13ffc0b 	ldhu	r4,-16(fp)
    4648:	e17ffb8b 	ldhu	r5,-18(fp)
    464c:	0004e300 	call	4e30 <Set_Cursor_XY>
    if(pbutton==1)
    4650:	e0bffa83 	ldbu	r2,-22(fp)
    4654:	10800058 	cmpnei	r2,r2,1
    4658:	10000d1e 	bne	r2,zero,4690 <main+0x37e8>
    Vga_Set_Pixel(VPG_BASE,px,py);
    465c:	e0bffb8b 	ldhu	r2,-18(fp)
    4660:	10c0a024 	muli	r3,r2,640
    4664:	e0bffc0b 	ldhu	r2,-16(fp)
    4668:	1885883a 	add	r2,r3,r2
    466c:	1085883a 	add	r2,r2,r2
    4670:	1085883a 	add	r2,r2,r2
    4674:	1007883a 	mov	r3,r2
    4678:	00824034 	movhi	r2,2304
    467c:	1885883a 	add	r2,r3,r2
    4680:	1007883a 	mov	r3,r2
    4684:	00800044 	movi	r2,1
    4688:	18800035 	stwio	r2,0(r3)
    468c:	00000d06 	br	46c4 <main+0x381c>
    else if(pbutton==2)
    4690:	e0bffa83 	ldbu	r2,-22(fp)
    4694:	10800098 	cmpnei	r2,r2,2
    4698:	10000a1e 	bne	r2,zero,46c4 <main+0x381c>
    Vga_Clr_Pixel(VPG_BASE,px,py);
    469c:	e0bffb8b 	ldhu	r2,-18(fp)
    46a0:	10c0a024 	muli	r3,r2,640
    46a4:	e0bffc0b 	ldhu	r2,-16(fp)
    46a8:	1885883a 	add	r2,r3,r2
    46ac:	1085883a 	add	r2,r2,r2
    46b0:	1085883a 	add	r2,r2,r2
    46b4:	1007883a 	mov	r3,r2
    46b8:	00824034 	movhi	r2,2304
    46bc:	1885883a 	add	r2,r3,r2
    46c0:	10000035 	stwio	zero,0(r2)
    
    //printf("\n[MOUSE XY]:%d, %d", px, py);
    usleep(5*1000);
    46c4:	0104e204 	movi	r4,5000
    46c8:	00148100 	call	14810 <usleep>
    //USB hot plug routine
    usb_ctl_val = UsbRead(ctl_reg);
    46cc:	d0a7018b 	ldhu	r2,-25594(gp)
    46d0:	113fffcc 	andi	r4,r2,65535
    46d4:	00048700 	call	4870 <UsbRead>
    46d8:	e0bffe8d 	sth	r2,-6(fp)
    usleep(5*1000);
    46dc:	0104e204 	movi	r4,5000
    46e0:	00148100 	call	14810 <usleep>
    usb_ctl_val = UsbRead(ctl_reg);
    46e4:	d0a7018b 	ldhu	r2,-25594(gp)
    46e8:	113fffcc 	andi	r4,r2,65535
    46ec:	00048700 	call	4870 <UsbRead>
    46f0:	e0bffe8d 	sth	r2,-6(fp)
    usleep(5*1000);
    46f4:	0104e204 	movi	r4,5000
    46f8:	00148100 	call	14810 <usleep>
    usb_ctl_val = UsbRead(ctl_reg);
    46fc:	d0a7018b 	ldhu	r2,-25594(gp)
    4700:	113fffcc 	andi	r4,r2,65535
    4704:	00048700 	call	4870 <UsbRead>
    4708:	e0bffe8d 	sth	r2,-6(fp)
    usleep(5*1000);
    470c:	0104e204 	movi	r4,5000
    4710:	00148100 	call	14810 <usleep>
    usb_ctl_val = UsbRead(ctl_reg);
    4714:	d0a7018b 	ldhu	r2,-25594(gp)
    4718:	113fffcc 	andi	r4,r2,65535
    471c:	00048700 	call	4870 <UsbRead>
    4720:	e0bffe8d 	sth	r2,-6(fp)
    usleep(5*1000);
    4724:	0104e204 	movi	r4,5000
    4728:	00148100 	call	14810 <usleep>
    usb_ctl_val = UsbRead(ctl_reg);
    472c:	d0a7018b 	ldhu	r2,-25594(gp)
    4730:	113fffcc 	andi	r4,r2,65535
    4734:	00048700 	call	4870 <UsbRead>
    4738:	e0bffe8d 	sth	r2,-6(fp)
    usleep(5*1000);
    473c:	0104e204 	movi	r4,5000
    4740:	00148100 	call	14810 <usleep>
    usb_ctl_val = UsbRead(ctl_reg);
    4744:	d0a7018b 	ldhu	r2,-25594(gp)
    4748:	113fffcc 	andi	r4,r2,65535
    474c:	00048700 	call	4870 <UsbRead>
    4750:	e0bffe8d 	sth	r2,-6(fp)
    usleep(5*1000);
    4754:	0104e204 	movi	r4,5000
    4758:	00148100 	call	14810 <usleep>

    if(!(usb_ctl_val & no_device))
    475c:	d0e7010b 	ldhu	r3,-25596(gp)
    4760:	e0bffe8b 	ldhu	r2,-6(fp)
    4764:	1884703a 	and	r2,r3,r2
    4768:	10bfffcc 	andi	r2,r2,65535
    476c:	1004c03a 	cmpne	r2,r2,zero
    4770:	1000061e 	bne	r2,zero,478c <main+0x38e4>
    {
       printf("\n[INFO]: the mouse has been removed!!! \n");
    4774:	010000b4 	movhi	r4,2
    4778:	21207904 	addi	r4,r4,-32284
    477c:	000566c0 	call	566c <puts>
       printf("[INFO]: please insert again!!! \n");
    4780:	010000b4 	movhi	r4,2
    4784:	21208304 	addi	r4,r4,-32244
    4788:	000566c0 	call	566c <puts>
    };
    usleep(5000);
    478c:	0104e204 	movi	r4,5000
    4790:	00148100 	call	14810 <usleep>
    usb_ctl_val = UsbRead(ctl_reg);
    4794:	d0a7018b 	ldhu	r2,-25594(gp)
    4798:	113fffcc 	andi	r4,r2,65535
    479c:	00048700 	call	4870 <UsbRead>
    47a0:	e0bffe8d 	sth	r2,-6(fp)
    while (!(usb_ctl_val & no_device))
    47a4:	00001a06 	br	4810 <main+0x3968>
    {
       
       usb_ctl_val = UsbRead(ctl_reg);
    47a8:	d0a7018b 	ldhu	r2,-25594(gp)
    47ac:	113fffcc 	andi	r4,r2,65535
    47b0:	00048700 	call	4870 <UsbRead>
    47b4:	e0bffe8d 	sth	r2,-6(fp)
       usleep(5*1000);
    47b8:	0104e204 	movi	r4,5000
    47bc:	00148100 	call	14810 <usleep>
       usb_ctl_val = UsbRead(ctl_reg);
    47c0:	d0a7018b 	ldhu	r2,-25594(gp)
    47c4:	113fffcc 	andi	r4,r2,65535
    47c8:	00048700 	call	4870 <UsbRead>
    47cc:	e0bffe8d 	sth	r2,-6(fp)
       usleep(5*1000);
    47d0:	0104e204 	movi	r4,5000
    47d4:	00148100 	call	14810 <usleep>
       usb_ctl_val = UsbRead(ctl_reg);
    47d8:	d0a7018b 	ldhu	r2,-25594(gp)
    47dc:	113fffcc 	andi	r4,r2,65535
    47e0:	00048700 	call	4870 <UsbRead>
    47e4:	e0bffe8d 	sth	r2,-6(fp)
       usleep(5*1000);
    47e8:	0104e204 	movi	r4,5000
    47ec:	00148100 	call	14810 <usleep>

       if(usb_ctl_val & no_device)
    47f0:	d0e7010b 	ldhu	r3,-25596(gp)
    47f4:	e0bffe8b 	ldhu	r2,-6(fp)
    47f8:	1884703a 	and	r2,r3,r2
    47fc:	10bfffcc 	andi	r2,r2,65535
    4800:	1004c03a 	cmpne	r2,r2,zero
    4804:	1031d81e 	bne	r2,zero,f68 <main+0xc0>
         goto USB_HOT_PLUG;
       
       usleep(200);
    4808:	01003204 	movi	r4,200
    480c:	00148100 	call	14810 <usleep>
       printf("\n[INFO]: the mouse has been removed!!! \n");
       printf("[INFO]: please insert again!!! \n");
    };
    usleep(5000);
    usb_ctl_val = UsbRead(ctl_reg);
    while (!(usb_ctl_val & no_device))
    4810:	d0e7010b 	ldhu	r3,-25596(gp)
    4814:	e0bffe8b 	ldhu	r2,-6(fp)
    4818:	1884703a 	and	r2,r3,r2
    481c:	10bfffcc 	andi	r2,r2,65535
    4820:	1005003a 	cmpeq	r2,r2,zero
    4824:	103fe01e 	bne	r2,zero,47a8 <main+0x3900>
       
       usleep(200);

    }
    
    }//end while
    4828:	003e3406 	br	40fc <main+0x3254>

0000482c <UsbWrite>:
*
* @note     None
*
******************************************************************************/
void UsbWrite(alt_u16 Address, alt_u16 Data)
{
    482c:	defffd04 	addi	sp,sp,-12
    4830:	df000215 	stw	fp,8(sp)
    4834:	df000204 	addi	fp,sp,8
    4838:	e13ffe0d 	sth	r4,-8(fp)
    483c:	e17fff0d 	sth	r5,-4(fp)
    //XIo_Out16(USB_ADDRESS, Address);
    IOWR(CY7C67200_BASE,HPI_ADDR,Address);
    4840:	e0fffe0b 	ldhu	r3,-8(fp)
    4844:	00824834 	movhi	r2,2336
    4848:	10801e04 	addi	r2,r2,120
    484c:	10c00035 	stwio	r3,0(r2)
    //usleep(10);
    
    //XIo_Out16(USB_DATA, Data);
    IOWR(CY7C67200_BASE,HPI_DATA,Data); 
    4850:	e0ffff0b 	ldhu	r3,-4(fp)
    4854:	00824834 	movhi	r2,2336
    4858:	10801c04 	addi	r2,r2,112
    485c:	10c00035 	stwio	r3,0(r2)
}
    4860:	e037883a 	mov	sp,fp
    4864:	df000017 	ldw	fp,0(sp)
    4868:	dec00104 	addi	sp,sp,4
    486c:	f800283a 	ret

00004870 <UsbRead>:
*
* @note     None
*
******************************************************************************/
alt_u16 UsbRead(alt_u16 Address)
{
    4870:	defffe04 	addi	sp,sp,-8
    4874:	df000115 	stw	fp,4(sp)
    4878:	df000104 	addi	fp,sp,4
    487c:	e13fff0d 	sth	r4,-4(fp)
    //XIo_Out16(HPI_ADDR, Address);
    IOWR(CY7C67200_BASE,HPI_ADDR,Address);
    4880:	e0ffff0b 	ldhu	r3,-4(fp)
    4884:	00824834 	movhi	r2,2336
    4888:	10801e04 	addi	r2,r2,120
    488c:	10c00035 	stwio	r3,0(r2)
    //usleep(20);
    return IORD(CY7C67200_BASE,HPI_DATA);
    4890:	00824834 	movhi	r2,2336
    4894:	10801c04 	addi	r2,r2,112
    4898:	10800037 	ldwio	r2,0(r2)
    489c:	10bfffcc 	andi	r2,r2,65535
}
    48a0:	e037883a 	mov	sp,fp
    48a4:	df000017 	ldw	fp,0(sp)
    48a8:	dec00104 	addi	sp,sp,4
    48ac:	f800283a 	ret

000048b0 <UsbSoftReset>:
*
* @note     None
*
******************************************************************************/
void UsbSoftReset()
{
    48b0:	defffe04 	addi	sp,sp,-8
    48b4:	dfc00115 	stw	ra,4(sp)
    48b8:	df000015 	stw	fp,0(sp)
    48bc:	d839883a 	mov	fp,sp
    //XIo_Out16(USB_MAILBOX, COMM_RESET);
    IOWR(CY7C67200_BASE,HPI_MAILBOX,COMM_RESET); //COMM_JUMP2CODE
    48c0:	00c24834 	movhi	r3,2336
    48c4:	18c01d04 	addi	r3,r3,116
    48c8:	00be9414 	movui	r2,64080
    48cc:	18800035 	stwio	r2,0(r3)
    usleep(100000);
    48d0:	010000b4 	movhi	r4,2
    48d4:	2121a804 	addi	r4,r4,-31072
    48d8:	00148100 	call	14810 <usleep>
    printf("[USB INIT]:reset finished!\n");
    48dc:	010000b4 	movhi	r4,2
    48e0:	21208b04 	addi	r4,r4,-32212
    48e4:	000566c0 	call	566c <puts>

    usleep(500000);
    48e8:	01000234 	movhi	r4,8
    48ec:	21284804 	addi	r4,r4,-24288
    48f0:	00148100 	call	14810 <usleep>
    printf("[USB INIT]:Clear up the interrupt\r\n");
    48f4:	010000b4 	movhi	r4,2
    48f8:	21209204 	addi	r4,r4,-32184
    48fc:	000566c0 	call	566c <puts>
    IORD(CY7C67200_BASE,HPI_MAILBOX);
    4900:	00824834 	movhi	r2,2336
    4904:	10801d04 	addi	r2,r2,116
    4908:	10800037 	ldwio	r2,0(r2)
    IORD(CY7C67200_BASE,HPI_STATUS);
    490c:	00824834 	movhi	r2,2336
    4910:	10801f04 	addi	r2,r2,124
    4914:	10800037 	ldwio	r2,0(r2)

    // Had to add the write due to a bug in BIOS where they overwrite
    // the mailbox after initialization with garbage.  The read clears
    // any pending interrupts.
    UsbRead (HPI_SIE1_MSG_ADR);
    4918:	01005104 	movi	r4,324
    491c:	00048700 	call	4870 <UsbRead>
    UsbWrite (HPI_SIE1_MSG_ADR, 0);
    4920:	01005104 	movi	r4,324
    4924:	000b883a 	mov	r5,zero
    4928:	000482c0 	call	482c <UsbWrite>
    UsbRead (HPI_SIE2_MSG_ADR);
    492c:	01005204 	movi	r4,328
    4930:	00048700 	call	4870 <UsbRead>
    UsbWrite (HPI_SIE2_MSG_ADR, 0);
    4934:	01005204 	movi	r4,328
    4938:	000b883a 	mov	r5,zero
    493c:	000482c0 	call	482c <UsbWrite>

    UsbWrite (HOST1_STAT_REG, 0xFFFF);
    4940:	01302414 	movui	r4,49296
    4944:	017fffd4 	movui	r5,65535
    4948:	000482c0 	call	482c <UsbWrite>
    UsbWrite (HOST2_STAT_REG, 0xFFFF);
    494c:	01302c14 	movui	r4,49328
    4950:	017fffd4 	movui	r5,65535
    4954:	000482c0 	call	482c <UsbWrite>
}
    4958:	e037883a 	mov	sp,fp
    495c:	dfc00117 	ldw	ra,4(sp)
    4960:	df000017 	ldw	fp,0(sp)
    4964:	dec00204 	addi	sp,sp,8
    4968:	f800283a 	ret

0000496c <LCD_Init>:
#include <io.h>
#include "system.h"
#include "LCD.h"
//-------------------------------------------------------------------------
void LCD_Init()
{
    496c:	defffe04 	addi	sp,sp,-8
    4970:	dfc00115 	stw	ra,4(sp)
    4974:	df000015 	stw	fp,0(sp)
    4978:	d839883a 	mov	fp,sp
  lcd_write_cmd(LCD_BASE,0x38); 
    497c:	00c24834 	movhi	r3,2336
    4980:	18c01804 	addi	r3,r3,96
    4984:	00800e04 	movi	r2,56
    4988:	18800035 	stwio	r2,0(r3)
  usleep(2000);
    498c:	0101f404 	movi	r4,2000
    4990:	00148100 	call	14810 <usleep>
  lcd_write_cmd(LCD_BASE,0x0C);
    4994:	00c24834 	movhi	r3,2336
    4998:	18c01804 	addi	r3,r3,96
    499c:	00800304 	movi	r2,12
    49a0:	18800035 	stwio	r2,0(r3)
  usleep(2000);
    49a4:	0101f404 	movi	r4,2000
    49a8:	00148100 	call	14810 <usleep>
  lcd_write_cmd(LCD_BASE,0x01);
    49ac:	00c24834 	movhi	r3,2336
    49b0:	18c01804 	addi	r3,r3,96
    49b4:	00800044 	movi	r2,1
    49b8:	18800035 	stwio	r2,0(r3)
  usleep(2000);
    49bc:	0101f404 	movi	r4,2000
    49c0:	00148100 	call	14810 <usleep>
  lcd_write_cmd(LCD_BASE,0x06);
    49c4:	00c24834 	movhi	r3,2336
    49c8:	18c01804 	addi	r3,r3,96
    49cc:	00800184 	movi	r2,6
    49d0:	18800035 	stwio	r2,0(r3)
  usleep(2000);
    49d4:	0101f404 	movi	r4,2000
    49d8:	00148100 	call	14810 <usleep>
  lcd_write_cmd(LCD_BASE,0x80);
    49dc:	00c24834 	movhi	r3,2336
    49e0:	18c01804 	addi	r3,r3,96
    49e4:	00802004 	movi	r2,128
    49e8:	18800035 	stwio	r2,0(r3)
  usleep(2000);
    49ec:	0101f404 	movi	r4,2000
    49f0:	00148100 	call	14810 <usleep>
}
    49f4:	e037883a 	mov	sp,fp
    49f8:	dfc00117 	ldw	ra,4(sp)
    49fc:	df000017 	ldw	fp,0(sp)
    4a00:	dec00204 	addi	sp,sp,8
    4a04:	f800283a 	ret

00004a08 <LCD_Show_Text>:
//-------------------------------------------------------------------------
void LCD_Show_Text(char* Text)
{
    4a08:	defffb04 	addi	sp,sp,-20
    4a0c:	dfc00415 	stw	ra,16(sp)
    4a10:	df000315 	stw	fp,12(sp)
    4a14:	dc000215 	stw	r16,8(sp)
    4a18:	df000204 	addi	fp,sp,8
    4a1c:	e13fff15 	stw	r4,-4(fp)
  int i;
  for(i=0;i<strlen(Text);i++)
    4a20:	e03ffe15 	stw	zero,-8(fp)
    4a24:	00001006 	br	4a68 <LCD_Show_Text+0x60>
  {
    lcd_write_data(LCD_BASE,Text[i]);
    4a28:	e0bffe17 	ldw	r2,-8(fp)
    4a2c:	1007883a 	mov	r3,r2
    4a30:	e0bfff17 	ldw	r2,-4(fp)
    4a34:	1885883a 	add	r2,r3,r2
    4a38:	10800003 	ldbu	r2,0(r2)
    4a3c:	10c03fcc 	andi	r3,r2,255
    4a40:	18c0201c 	xori	r3,r3,128
    4a44:	18ffe004 	addi	r3,r3,-128
    4a48:	00824834 	movhi	r2,2336
    4a4c:	10801a04 	addi	r2,r2,104
    4a50:	10c00035 	stwio	r3,0(r2)
    usleep(2000);
    4a54:	0101f404 	movi	r4,2000
    4a58:	00148100 	call	14810 <usleep>
}
//-------------------------------------------------------------------------
void LCD_Show_Text(char* Text)
{
  int i;
  for(i=0;i<strlen(Text);i++)
    4a5c:	e0bffe17 	ldw	r2,-8(fp)
    4a60:	10800044 	addi	r2,r2,1
    4a64:	e0bffe15 	stw	r2,-8(fp)
    4a68:	e43ffe17 	ldw	r16,-8(fp)
    4a6c:	e13fff17 	ldw	r4,-4(fp)
    4a70:	00056fc0 	call	56fc <strlen>
    4a74:	80bfec36 	bltu	r16,r2,4a28 <LCD_Show_Text+0x20>
  {
    lcd_write_data(LCD_BASE,Text[i]);
    usleep(2000);
  }
}
    4a78:	e037883a 	mov	sp,fp
    4a7c:	dfc00217 	ldw	ra,8(sp)
    4a80:	df000117 	ldw	fp,4(sp)
    4a84:	dc000017 	ldw	r16,0(sp)
    4a88:	dec00304 	addi	sp,sp,12
    4a8c:	f800283a 	ret

00004a90 <LCD_Line2>:
//-------------------------------------------------------------------------
void LCD_Line2()
{
    4a90:	defffe04 	addi	sp,sp,-8
    4a94:	dfc00115 	stw	ra,4(sp)
    4a98:	df000015 	stw	fp,0(sp)
    4a9c:	d839883a 	mov	fp,sp
  lcd_write_cmd(LCD_BASE,0xC0);
    4aa0:	00c24834 	movhi	r3,2336
    4aa4:	18c01804 	addi	r3,r3,96
    4aa8:	00803004 	movi	r2,192
    4aac:	18800035 	stwio	r2,0(r3)
  usleep(2000);
    4ab0:	0101f404 	movi	r4,2000
    4ab4:	00148100 	call	14810 <usleep>
}
    4ab8:	e037883a 	mov	sp,fp
    4abc:	dfc00117 	ldw	ra,4(sp)
    4ac0:	df000017 	ldw	fp,0(sp)
    4ac4:	dec00204 	addi	sp,sp,8
    4ac8:	f800283a 	ret

00004acc <LCD_Test>:
//-------------------------------------------------------------------------
void LCD_Test()
{
    4acc:	defff604 	addi	sp,sp,-40
    4ad0:	dfc00915 	stw	ra,36(sp)
    4ad4:	df000815 	stw	fp,32(sp)
    4ad8:	df000804 	addi	fp,sp,32
  char Text1[16] = "Altera DE2 Board";
    4adc:	00c000b4 	movhi	r3,2
    4ae0:	18e09b04 	addi	r3,r3,-32148
    4ae4:	18800017 	ldw	r2,0(r3)
    4ae8:	e0bff815 	stw	r2,-32(fp)
    4aec:	18800117 	ldw	r2,4(r3)
    4af0:	e0bff915 	stw	r2,-28(fp)
    4af4:	18800217 	ldw	r2,8(r3)
    4af8:	e0bffa15 	stw	r2,-24(fp)
    4afc:	18800317 	ldw	r2,12(r3)
    4b00:	e0bffb15 	stw	r2,-20(fp)
  char Text2[16] = " USB Paintbrush ";
    4b04:	00c000b4 	movhi	r3,2
    4b08:	18e0a004 	addi	r3,r3,-32128
    4b0c:	18800017 	ldw	r2,0(r3)
    4b10:	e0bffc15 	stw	r2,-16(fp)
    4b14:	18800117 	ldw	r2,4(r3)
    4b18:	e0bffd15 	stw	r2,-12(fp)
    4b1c:	18800217 	ldw	r2,8(r3)
    4b20:	e0bffe15 	stw	r2,-8(fp)
    4b24:	18800317 	ldw	r2,12(r3)
    4b28:	e0bfff15 	stw	r2,-4(fp)
  //  Initial LCD
  LCD_Init();
    4b2c:	000496c0 	call	496c <LCD_Init>
  //  Show Text to LCD
  LCD_Show_Text(Text1);
    4b30:	e13ff804 	addi	r4,fp,-32
    4b34:	0004a080 	call	4a08 <LCD_Show_Text>
  //  Change Line2
  LCD_Line2();
    4b38:	0004a900 	call	4a90 <LCD_Line2>
  //  Show Text to LCD
  LCD_Show_Text(Text2);
    4b3c:	e13ffc04 	addi	r4,fp,-16
    4b40:	0004a080 	call	4a08 <LCD_Show_Text>
}
    4b44:	e037883a 	mov	sp,fp
    4b48:	dfc00117 	ldw	ra,4(sp)
    4b4c:	df000017 	ldw	fp,0(sp)
    4b50:	dec00204 	addi	sp,sp,8
    4b54:	f800283a 	ret

00004b58 <SEG7_Clear>:
static    unsigned char szMap[] = {
        63, 6, 91, 79, 102, 109, 125, 7, 
        127, 111, 119, 124, 57, 94, 121, 113
    };  // 0,1,2,....9, a, b, c, d, e, f
    
void SEG7_Clear(void){
    4b58:	defffe04 	addi	sp,sp,-8
    4b5c:	df000115 	stw	fp,4(sp)
    4b60:	df000104 	addi	fp,sp,4
    int i;
    for(i=0;i<SEG7_NUM;i++){
    4b64:	e03fff15 	stw	zero,-4(fp)
    4b68:	00000a06 	br	4b94 <SEG7_Clear+0x3c>
        SEG7_SET(i, 0x00);
    4b6c:	e0bfff17 	ldw	r2,-4(fp)
    4b70:	1085883a 	add	r2,r2,r2
    4b74:	1085883a 	add	r2,r2,r2
    4b78:	1007883a 	mov	r3,r2
    4b7c:	00824834 	movhi	r2,2336
    4b80:	1885883a 	add	r2,r3,r2
    4b84:	10000035 	stwio	zero,0(r2)
        127, 111, 119, 124, 57, 94, 121, 113
    };  // 0,1,2,....9, a, b, c, d, e, f
    
void SEG7_Clear(void){
    int i;
    for(i=0;i<SEG7_NUM;i++){
    4b88:	e0bfff17 	ldw	r2,-4(fp)
    4b8c:	10800044 	addi	r2,r2,1
    4b90:	e0bfff15 	stw	r2,-4(fp)
    4b94:	e0bfff17 	ldw	r2,-4(fp)
    4b98:	10800210 	cmplti	r2,r2,8
    4b9c:	103ff31e 	bne	r2,zero,4b6c <SEG7_Clear+0x14>
        SEG7_SET(i, 0x00);
    }        
}
    4ba0:	e037883a 	mov	sp,fp
    4ba4:	df000017 	ldw	fp,0(sp)
    4ba8:	dec00104 	addi	sp,sp,4
    4bac:	f800283a 	ret

00004bb0 <SEG7_Full>:
void SEG7_Full(void){
    4bb0:	defffe04 	addi	sp,sp,-8
    4bb4:	df000115 	stw	fp,4(sp)
    4bb8:	df000104 	addi	fp,sp,4
    int i;
    for(i=0;i<SEG7_NUM;i++){
    4bbc:	e03fff15 	stw	zero,-4(fp)
    4bc0:	00000c06 	br	4bf4 <SEG7_Full+0x44>
        SEG7_SET(i, 0xFF);
    4bc4:	e0bfff17 	ldw	r2,-4(fp)
    4bc8:	1085883a 	add	r2,r2,r2
    4bcc:	1085883a 	add	r2,r2,r2
    4bd0:	1007883a 	mov	r3,r2
    4bd4:	00824834 	movhi	r2,2336
    4bd8:	1885883a 	add	r2,r3,r2
    4bdc:	1007883a 	mov	r3,r2
    4be0:	00803fc4 	movi	r2,255
    4be4:	18800035 	stwio	r2,0(r3)
        SEG7_SET(i, 0x00);
    }        
}
void SEG7_Full(void){
    int i;
    for(i=0;i<SEG7_NUM;i++){
    4be8:	e0bfff17 	ldw	r2,-4(fp)
    4bec:	10800044 	addi	r2,r2,1
    4bf0:	e0bfff15 	stw	r2,-4(fp)
    4bf4:	e0bfff17 	ldw	r2,-4(fp)
    4bf8:	10800210 	cmplti	r2,r2,8
    4bfc:	103ff11e 	bne	r2,zero,4bc4 <SEG7_Full+0x14>
        SEG7_SET(i, 0xFF);
    }        
}
    4c00:	e037883a 	mov	sp,fp
    4c04:	df000017 	ldw	fp,0(sp)
    4c08:	dec00104 	addi	sp,sp,4
    4c0c:	f800283a 	ret

00004c10 <SEG7_Number>:

void SEG7_Number(void){
    4c10:	defffe04 	addi	sp,sp,-8
    4c14:	df000115 	stw	fp,4(sp)
    4c18:	df000104 	addi	fp,sp,4
    int i;
    for(i=0;i<SEG7_NUM;i++){
    4c1c:	e03fff15 	stw	zero,-4(fp)
    4c20:	00001106 	br	4c68 <SEG7_Number+0x58>
        SEG7_SET(i, szMap[i]);
    4c24:	e0bfff17 	ldw	r2,-4(fp)
    4c28:	1085883a 	add	r2,r2,r2
    4c2c:	1085883a 	add	r2,r2,r2
    4c30:	1007883a 	mov	r3,r2
    4c34:	00824834 	movhi	r2,2336
    4c38:	1889883a 	add	r4,r3,r2
    4c3c:	e0ffff17 	ldw	r3,-4(fp)
    4c40:	008000b4 	movhi	r2,2
    4c44:	10a23704 	addi	r2,r2,-30500
    4c48:	10c5883a 	add	r2,r2,r3
    4c4c:	10800003 	ldbu	r2,0(r2)
    4c50:	10c03fcc 	andi	r3,r2,255
    4c54:	2005883a 	mov	r2,r4
    4c58:	10c00035 	stwio	r3,0(r2)
    }        
}

void SEG7_Number(void){
    int i;
    for(i=0;i<SEG7_NUM;i++){
    4c5c:	e0bfff17 	ldw	r2,-4(fp)
    4c60:	10800044 	addi	r2,r2,1
    4c64:	e0bfff15 	stw	r2,-4(fp)
    4c68:	e0bfff17 	ldw	r2,-4(fp)
    4c6c:	10800210 	cmplti	r2,r2,8
    4c70:	103fec1e 	bne	r2,zero,4c24 <SEG7_Number+0x14>
        SEG7_SET(i, szMap[i]);
    }        
}
    4c74:	e037883a 	mov	sp,fp
    4c78:	df000017 	ldw	fp,0(sp)
    4c7c:	dec00104 	addi	sp,sp,4
    4c80:	f800283a 	ret

00004c84 <SEG7_Hex>:

void SEG7_Hex(alt_u32 Data, alt_u8 point_mask){
    4c84:	defffb04 	addi	sp,sp,-20
    4c88:	df000415 	stw	fp,16(sp)
    4c8c:	df000404 	addi	fp,sp,16
    4c90:	e13ffe15 	stw	r4,-8(fp)
    4c94:	e17fff05 	stb	r5,-4(fp)
    alt_u8 mask = 0x01;
    4c98:	00800044 	movi	r2,1
    4c9c:	e0bffd45 	stb	r2,-11(fp)
    alt_u8 seg_mask;
    int i;
    
    //
    seg_mask = 0;
    4ca0:	e03ffd05 	stb	zero,-12(fp)
    for(i=0;i<SEG7_NUM;i++){
    4ca4:	e03ffc15 	stw	zero,-16(fp)
    4ca8:	00002206 	br	4d34 <SEG7_Hex+0xb0>
        seg_mask = szMap[Data & 0x0F];
    4cac:	e0bffe17 	ldw	r2,-8(fp)
    4cb0:	10c003cc 	andi	r3,r2,15
    4cb4:	008000b4 	movhi	r2,2
    4cb8:	10a23704 	addi	r2,r2,-30500
    4cbc:	10c5883a 	add	r2,r2,r3
    4cc0:	10800003 	ldbu	r2,0(r2)
    4cc4:	e0bffd05 	stb	r2,-12(fp)
        Data >>= 4;
    4cc8:	e0bffe17 	ldw	r2,-8(fp)
    4ccc:	1004d13a 	srli	r2,r2,4
    4cd0:	e0bffe15 	stw	r2,-8(fp)
        if (point_mask & mask)
    4cd4:	e0ffff03 	ldbu	r3,-4(fp)
    4cd8:	e0bffd43 	ldbu	r2,-11(fp)
    4cdc:	1884703a 	and	r2,r3,r2
    4ce0:	10803fcc 	andi	r2,r2,255
    4ce4:	1005003a 	cmpeq	r2,r2,zero
    4ce8:	1000041e 	bne	r2,zero,4cfc <SEG7_Hex+0x78>
            seg_mask |= 0x80;
    4cec:	e0bffd03 	ldbu	r2,-12(fp)
    4cf0:	00ffe004 	movi	r3,-128
    4cf4:	10c4b03a 	or	r2,r2,r3
    4cf8:	e0bffd05 	stb	r2,-12(fp)
        mask <<= 1;     
    4cfc:	e0bffd43 	ldbu	r2,-11(fp)
    4d00:	1085883a 	add	r2,r2,r2
    4d04:	e0bffd45 	stb	r2,-11(fp)
        SEG7_SET(i, seg_mask);
    4d08:	e0bffc17 	ldw	r2,-16(fp)
    4d0c:	1085883a 	add	r2,r2,r2
    4d10:	1085883a 	add	r2,r2,r2
    4d14:	1007883a 	mov	r3,r2
    4d18:	00824834 	movhi	r2,2336
    4d1c:	1885883a 	add	r2,r3,r2
    4d20:	e0fffd03 	ldbu	r3,-12(fp)
    4d24:	10c00035 	stwio	r3,0(r2)
    alt_u8 seg_mask;
    int i;
    
    //
    seg_mask = 0;
    for(i=0;i<SEG7_NUM;i++){
    4d28:	e0bffc17 	ldw	r2,-16(fp)
    4d2c:	10800044 	addi	r2,r2,1
    4d30:	e0bffc15 	stw	r2,-16(fp)
    4d34:	e0bffc17 	ldw	r2,-16(fp)
    4d38:	10800210 	cmplti	r2,r2,8
    4d3c:	103fdb1e 	bne	r2,zero,4cac <SEG7_Hex+0x28>
        if (point_mask & mask)
            seg_mask |= 0x80;
        mask <<= 1;     
        SEG7_SET(i, seg_mask);
    }        
}
    4d40:	e037883a 	mov	sp,fp
    4d44:	df000017 	ldw	fp,0(sp)
    4d48:	dec00104 	addi	sp,sp,4
    4d4c:	f800283a 	ret

00004d50 <SEG7_Decimal>:

void SEG7_Decimal(alt_u32 Data, alt_u8 point_mask){
    4d50:	defffa04 	addi	sp,sp,-24
    4d54:	dfc00515 	stw	ra,20(sp)
    4d58:	df000415 	stw	fp,16(sp)
    4d5c:	df000404 	addi	fp,sp,16
    4d60:	e13ffe15 	stw	r4,-8(fp)
    4d64:	e17fff05 	stb	r5,-4(fp)
    alt_u8 mask = 0x01;
    4d68:	00800044 	movi	r2,1
    4d6c:	e0bffd45 	stb	r2,-11(fp)
    alt_u8 seg_mask;
    int i;
    
    //
    seg_mask = 0;
    4d70:	e03ffd05 	stb	zero,-12(fp)
    for(i=0;i<SEG7_NUM;i++){
    4d74:	e03ffc15 	stw	zero,-16(fp)
    4d78:	00002506 	br	4e10 <SEG7_Decimal+0xc0>
        seg_mask = szMap[Data%10];
    4d7c:	e13ffe17 	ldw	r4,-8(fp)
    4d80:	01400284 	movi	r5,10
    4d84:	00051b80 	call	51b8 <__umodsi3>
    4d88:	1007883a 	mov	r3,r2
    4d8c:	008000b4 	movhi	r2,2
    4d90:	10a23704 	addi	r2,r2,-30500
    4d94:	10c5883a 	add	r2,r2,r3
    4d98:	10800003 	ldbu	r2,0(r2)
    4d9c:	e0bffd05 	stb	r2,-12(fp)
        Data /= 10;
    4da0:	e13ffe17 	ldw	r4,-8(fp)
    4da4:	01400284 	movi	r5,10
    4da8:	00051b00 	call	51b0 <__udivsi3>
    4dac:	e0bffe15 	stw	r2,-8(fp)
        if (point_mask & mask)
    4db0:	e0ffff03 	ldbu	r3,-4(fp)
    4db4:	e0bffd43 	ldbu	r2,-11(fp)
    4db8:	1884703a 	and	r2,r3,r2
    4dbc:	10803fcc 	andi	r2,r2,255
    4dc0:	1005003a 	cmpeq	r2,r2,zero
    4dc4:	1000041e 	bne	r2,zero,4dd8 <SEG7_Decimal+0x88>
            seg_mask |= 0x80;
    4dc8:	e0bffd03 	ldbu	r2,-12(fp)
    4dcc:	00ffe004 	movi	r3,-128
    4dd0:	10c4b03a 	or	r2,r2,r3
    4dd4:	e0bffd05 	stb	r2,-12(fp)
        mask <<= 1;   
    4dd8:	e0bffd43 	ldbu	r2,-11(fp)
    4ddc:	1085883a 	add	r2,r2,r2
    4de0:	e0bffd45 	stb	r2,-11(fp)
        SEG7_SET(i, seg_mask);
    4de4:	e0bffc17 	ldw	r2,-16(fp)
    4de8:	1085883a 	add	r2,r2,r2
    4dec:	1085883a 	add	r2,r2,r2
    4df0:	1007883a 	mov	r3,r2
    4df4:	00824834 	movhi	r2,2336
    4df8:	1885883a 	add	r2,r3,r2
    4dfc:	e0fffd03 	ldbu	r3,-12(fp)
    4e00:	10c00035 	stwio	r3,0(r2)
    alt_u8 seg_mask;
    int i;
    
    //
    seg_mask = 0;
    for(i=0;i<SEG7_NUM;i++){
    4e04:	e0bffc17 	ldw	r2,-16(fp)
    4e08:	10800044 	addi	r2,r2,1
    4e0c:	e0bffc15 	stw	r2,-16(fp)
    4e10:	e0bffc17 	ldw	r2,-16(fp)
    4e14:	10800210 	cmplti	r2,r2,8
    4e18:	103fd81e 	bne	r2,zero,4d7c <SEG7_Decimal+0x2c>
            seg_mask |= 0x80;
        mask <<= 1;   
        SEG7_SET(i, seg_mask);
    }        
  
} 
    4e1c:	e037883a 	mov	sp,fp
    4e20:	dfc00117 	ldw	ra,4(sp)
    4e24:	df000017 	ldw	fp,0(sp)
    4e28:	dec00204 	addi	sp,sp,8
    4e2c:	f800283a 	ret

00004e30 <Set_Cursor_XY>:



//-------------------------------------------------------------------------
void Set_Cursor_XY(unsigned int X,unsigned int Y)
{
    4e30:	defffd04 	addi	sp,sp,-12
    4e34:	df000215 	stw	fp,8(sp)
    4e38:	df000204 	addi	fp,sp,8
    4e3c:	e13ffe15 	stw	r4,-8(fp)
    4e40:	e17fff15 	stw	r5,-4(fp)
  Vga_Cursor_X(VPG_BASE,X);
    4e44:	e0fffe17 	ldw	r3,-8(fp)
    4e48:	008244f4 	movhi	r2,2323
    4e4c:	10b00104 	addi	r2,r2,-16380
    4e50:	10c00035 	stwio	r3,0(r2)
  Vga_Cursor_Y(VPG_BASE,Y);
    4e54:	e0ffff17 	ldw	r3,-4(fp)
    4e58:	008244f4 	movhi	r2,2323
    4e5c:	10b00204 	addi	r2,r2,-16376
    4e60:	10c00035 	stwio	r3,0(r2)

}
    4e64:	e037883a 	mov	sp,fp
    4e68:	df000017 	ldw	fp,0(sp)
    4e6c:	dec00104 	addi	sp,sp,4
    4e70:	f800283a 	ret

00004e74 <Set_Cursor_Color>:
//-------------------------------------------------------------------------
void Set_Cursor_Color(unsigned int R,unsigned int G,unsigned int B)
{
    4e74:	defffc04 	addi	sp,sp,-16
    4e78:	df000315 	stw	fp,12(sp)
    4e7c:	df000304 	addi	fp,sp,12
    4e80:	e13ffd15 	stw	r4,-12(fp)
    4e84:	e17ffe15 	stw	r5,-8(fp)
    4e88:	e1bfff15 	stw	r6,-4(fp)
  Vga_Cursor_Color_R(VPG_BASE,R);
    4e8c:	e0fffd17 	ldw	r3,-12(fp)
    4e90:	008244f4 	movhi	r2,2323
    4e94:	10b00304 	addi	r2,r2,-16372
    4e98:	10c00035 	stwio	r3,0(r2)
  Vga_Cursor_Color_G(VPG_BASE,G);
    4e9c:	e0fffe17 	ldw	r3,-8(fp)
    4ea0:	008244f4 	movhi	r2,2323
    4ea4:	10b00404 	addi	r2,r2,-16368
    4ea8:	10c00035 	stwio	r3,0(r2)
  Vga_Cursor_Color_B(VPG_BASE,B);
    4eac:	e0ffff17 	ldw	r3,-4(fp)
    4eb0:	008244f4 	movhi	r2,2323
    4eb4:	10b00504 	addi	r2,r2,-16364
    4eb8:	10c00035 	stwio	r3,0(r2)

}
    4ebc:	e037883a 	mov	sp,fp
    4ec0:	df000017 	ldw	fp,0(sp)
    4ec4:	dec00104 	addi	sp,sp,4
    4ec8:	f800283a 	ret

00004ecc <Set_Pixel_On_Color>:
//-------------------------------------------------------------------------
void Set_Pixel_On_Color(unsigned int R,unsigned int G,unsigned int B)
{
    4ecc:	defffc04 	addi	sp,sp,-16
    4ed0:	df000315 	stw	fp,12(sp)
    4ed4:	df000304 	addi	fp,sp,12
    4ed8:	e13ffd15 	stw	r4,-12(fp)
    4edc:	e17ffe15 	stw	r5,-8(fp)
    4ee0:	e1bfff15 	stw	r6,-4(fp)
  Vga_Pixel_On_Color_R(VPG_BASE,R);
    4ee4:	e0fffd17 	ldw	r3,-12(fp)
    4ee8:	008244f4 	movhi	r2,2323
    4eec:	10b00604 	addi	r2,r2,-16360
    4ef0:	10c00035 	stwio	r3,0(r2)
  Vga_Pixel_On_Color_G(VPG_BASE,G);
    4ef4:	e0fffe17 	ldw	r3,-8(fp)
    4ef8:	008244f4 	movhi	r2,2323
    4efc:	10b00704 	addi	r2,r2,-16356
    4f00:	10c00035 	stwio	r3,0(r2)
  Vga_Pixel_On_Color_B(VPG_BASE,B);
    4f04:	e0ffff17 	ldw	r3,-4(fp)
    4f08:	008244f4 	movhi	r2,2323
    4f0c:	10b00804 	addi	r2,r2,-16352
    4f10:	10c00035 	stwio	r3,0(r2)

}
    4f14:	e037883a 	mov	sp,fp
    4f18:	df000017 	ldw	fp,0(sp)
    4f1c:	dec00104 	addi	sp,sp,4
    4f20:	f800283a 	ret

00004f24 <Set_Pixel_Off_Color>:
//-------------------------------------------------------------------------
void Set_Pixel_Off_Color(unsigned int R,unsigned int G,unsigned int B)
{
    4f24:	defffc04 	addi	sp,sp,-16
    4f28:	df000315 	stw	fp,12(sp)
    4f2c:	df000304 	addi	fp,sp,12
    4f30:	e13ffd15 	stw	r4,-12(fp)
    4f34:	e17ffe15 	stw	r5,-8(fp)
    4f38:	e1bfff15 	stw	r6,-4(fp)
  Vga_Pixel_Off_Color_R(VPG_BASE,R);
    4f3c:	e0fffd17 	ldw	r3,-12(fp)
    4f40:	008244f4 	movhi	r2,2323
    4f44:	10b00904 	addi	r2,r2,-16348
    4f48:	10c00035 	stwio	r3,0(r2)
  Vga_Pixel_Off_Color_G(VPG_BASE,G);
    4f4c:	e0fffe17 	ldw	r3,-8(fp)
    4f50:	008244f4 	movhi	r2,2323
    4f54:	10b00a04 	addi	r2,r2,-16344
    4f58:	10c00035 	stwio	r3,0(r2)
  Vga_Pixel_Off_Color_B(VPG_BASE,B);
    4f5c:	e0ffff17 	ldw	r3,-4(fp)
    4f60:	008244f4 	movhi	r2,2323
    4f64:	10b00b04 	addi	r2,r2,-16340
    4f68:	10c00035 	stwio	r3,0(r2)

}
    4f6c:	e037883a 	mov	sp,fp
    4f70:	df000017 	ldw	fp,0(sp)
    4f74:	dec00104 	addi	sp,sp,4
    4f78:	f800283a 	ret

00004f7c <__floatsidf>:
    4f7c:	2006d7fa 	srli	r3,r4,31
    4f80:	defff604 	addi	sp,sp,-40
    4f84:	008000c4 	movi	r2,3
    4f88:	dfc00915 	stw	ra,36(sp)
    4f8c:	dcc00815 	stw	r19,32(sp)
    4f90:	dc800715 	stw	r18,28(sp)
    4f94:	dc400615 	stw	r17,24(sp)
    4f98:	dc000515 	stw	r16,20(sp)
    4f9c:	d8800015 	stw	r2,0(sp)
    4fa0:	d8c00115 	stw	r3,4(sp)
    4fa4:	20000f1e 	bne	r4,zero,4fe4 <__floatsidf+0x68>
    4fa8:	00800084 	movi	r2,2
    4fac:	d8800015 	stw	r2,0(sp)
    4fb0:	d809883a 	mov	r4,sp
    4fb4:	00052400 	call	5240 <__pack_d>
    4fb8:	1009883a 	mov	r4,r2
    4fbc:	180b883a 	mov	r5,r3
    4fc0:	2005883a 	mov	r2,r4
    4fc4:	2807883a 	mov	r3,r5
    4fc8:	dfc00917 	ldw	ra,36(sp)
    4fcc:	dcc00817 	ldw	r19,32(sp)
    4fd0:	dc800717 	ldw	r18,28(sp)
    4fd4:	dc400617 	ldw	r17,24(sp)
    4fd8:	dc000517 	ldw	r16,20(sp)
    4fdc:	dec00a04 	addi	sp,sp,40
    4fe0:	f800283a 	ret
    4fe4:	00800f04 	movi	r2,60
    4fe8:	1807003a 	cmpeq	r3,r3,zero
    4fec:	d8800215 	stw	r2,8(sp)
    4ff0:	18001126 	beq	r3,zero,5038 <__floatsidf+0xbc>
    4ff4:	0027883a 	mov	r19,zero
    4ff8:	2025883a 	mov	r18,r4
    4ffc:	d9000315 	stw	r4,12(sp)
    5000:	dcc00415 	stw	r19,16(sp)
    5004:	00051c00 	call	51c0 <__clzsi2>
    5008:	11000744 	addi	r4,r2,29
    500c:	013fe80e 	bge	zero,r4,4fb0 <__floatsidf+0x34>
    5010:	10bfff44 	addi	r2,r2,-3
    5014:	10000c16 	blt	r2,zero,5048 <__floatsidf+0xcc>
    5018:	90a2983a 	sll	r17,r18,r2
    501c:	0021883a 	mov	r16,zero
    5020:	d8800217 	ldw	r2,8(sp)
    5024:	dc400415 	stw	r17,16(sp)
    5028:	dc000315 	stw	r16,12(sp)
    502c:	1105c83a 	sub	r2,r2,r4
    5030:	d8800215 	stw	r2,8(sp)
    5034:	003fde06 	br	4fb0 <__floatsidf+0x34>
    5038:	00a00034 	movhi	r2,32768
    503c:	20800a26 	beq	r4,r2,5068 <__floatsidf+0xec>
    5040:	0109c83a 	sub	r4,zero,r4
    5044:	003feb06 	br	4ff4 <__floatsidf+0x78>
    5048:	9006d07a 	srli	r3,r18,1
    504c:	008007c4 	movi	r2,31
    5050:	1105c83a 	sub	r2,r2,r4
    5054:	1886d83a 	srl	r3,r3,r2
    5058:	9922983a 	sll	r17,r19,r4
    505c:	9120983a 	sll	r16,r18,r4
    5060:	1c62b03a 	or	r17,r3,r17
    5064:	003fee06 	br	5020 <__floatsidf+0xa4>
    5068:	0009883a 	mov	r4,zero
    506c:	01707834 	movhi	r5,49632
    5070:	003fd306 	br	4fc0 <__floatsidf+0x44>

00005074 <udivmodsi4>:
    5074:	29001b2e 	bgeu	r5,r4,50e4 <udivmodsi4+0x70>
    5078:	28001a16 	blt	r5,zero,50e4 <udivmodsi4+0x70>
    507c:	00800044 	movi	r2,1
    5080:	0007883a 	mov	r3,zero
    5084:	01c007c4 	movi	r7,31
    5088:	00000306 	br	5098 <udivmodsi4+0x24>
    508c:	19c01326 	beq	r3,r7,50dc <udivmodsi4+0x68>
    5090:	18c00044 	addi	r3,r3,1
    5094:	28000416 	blt	r5,zero,50a8 <udivmodsi4+0x34>
    5098:	294b883a 	add	r5,r5,r5
    509c:	1085883a 	add	r2,r2,r2
    50a0:	293ffa36 	bltu	r5,r4,508c <udivmodsi4+0x18>
    50a4:	10000d26 	beq	r2,zero,50dc <udivmodsi4+0x68>
    50a8:	0007883a 	mov	r3,zero
    50ac:	21400236 	bltu	r4,r5,50b8 <udivmodsi4+0x44>
    50b0:	2149c83a 	sub	r4,r4,r5
    50b4:	1886b03a 	or	r3,r3,r2
    50b8:	1004d07a 	srli	r2,r2,1
    50bc:	280ad07a 	srli	r5,r5,1
    50c0:	103ffa1e 	bne	r2,zero,50ac <udivmodsi4+0x38>
    50c4:	30000226 	beq	r6,zero,50d0 <udivmodsi4+0x5c>
    50c8:	2005883a 	mov	r2,r4
    50cc:	f800283a 	ret
    50d0:	1809883a 	mov	r4,r3
    50d4:	2005883a 	mov	r2,r4
    50d8:	f800283a 	ret
    50dc:	0007883a 	mov	r3,zero
    50e0:	003ff806 	br	50c4 <udivmodsi4+0x50>
    50e4:	00800044 	movi	r2,1
    50e8:	0007883a 	mov	r3,zero
    50ec:	003fef06 	br	50ac <udivmodsi4+0x38>

000050f0 <__divsi3>:
    50f0:	defffe04 	addi	sp,sp,-8
    50f4:	dc000015 	stw	r16,0(sp)
    50f8:	dfc00115 	stw	ra,4(sp)
    50fc:	0021883a 	mov	r16,zero
    5100:	20000c16 	blt	r4,zero,5134 <__divsi3+0x44>
    5104:	000d883a 	mov	r6,zero
    5108:	28000e16 	blt	r5,zero,5144 <__divsi3+0x54>
    510c:	00050740 	call	5074 <udivmodsi4>
    5110:	1007883a 	mov	r3,r2
    5114:	8005003a 	cmpeq	r2,r16,zero
    5118:	1000011e 	bne	r2,zero,5120 <__divsi3+0x30>
    511c:	00c7c83a 	sub	r3,zero,r3
    5120:	1805883a 	mov	r2,r3
    5124:	dfc00117 	ldw	ra,4(sp)
    5128:	dc000017 	ldw	r16,0(sp)
    512c:	dec00204 	addi	sp,sp,8
    5130:	f800283a 	ret
    5134:	0109c83a 	sub	r4,zero,r4
    5138:	04000044 	movi	r16,1
    513c:	000d883a 	mov	r6,zero
    5140:	283ff20e 	bge	r5,zero,510c <__divsi3+0x1c>
    5144:	014bc83a 	sub	r5,zero,r5
    5148:	8021003a 	cmpeq	r16,r16,zero
    514c:	003fef06 	br	510c <__divsi3+0x1c>

00005150 <__modsi3>:
    5150:	deffff04 	addi	sp,sp,-4
    5154:	dfc00015 	stw	ra,0(sp)
    5158:	01800044 	movi	r6,1
    515c:	2807883a 	mov	r3,r5
    5160:	20000416 	blt	r4,zero,5174 <__modsi3+0x24>
    5164:	28000c16 	blt	r5,zero,5198 <__modsi3+0x48>
    5168:	dfc00017 	ldw	ra,0(sp)
    516c:	dec00104 	addi	sp,sp,4
    5170:	00050741 	jmpi	5074 <udivmodsi4>
    5174:	0109c83a 	sub	r4,zero,r4
    5178:	28000b16 	blt	r5,zero,51a8 <__modsi3+0x58>
    517c:	180b883a 	mov	r5,r3
    5180:	01800044 	movi	r6,1
    5184:	00050740 	call	5074 <udivmodsi4>
    5188:	0085c83a 	sub	r2,zero,r2
    518c:	dfc00017 	ldw	ra,0(sp)
    5190:	dec00104 	addi	sp,sp,4
    5194:	f800283a 	ret
    5198:	014bc83a 	sub	r5,zero,r5
    519c:	dfc00017 	ldw	ra,0(sp)
    51a0:	dec00104 	addi	sp,sp,4
    51a4:	00050741 	jmpi	5074 <udivmodsi4>
    51a8:	0147c83a 	sub	r3,zero,r5
    51ac:	003ff306 	br	517c <__modsi3+0x2c>

000051b0 <__udivsi3>:
    51b0:	000d883a 	mov	r6,zero
    51b4:	00050741 	jmpi	5074 <udivmodsi4>

000051b8 <__umodsi3>:
    51b8:	01800044 	movi	r6,1
    51bc:	00050741 	jmpi	5074 <udivmodsi4>

000051c0 <__clzsi2>:
    51c0:	00bfffd4 	movui	r2,65535
    51c4:	11000e36 	bltu	r2,r4,5200 <__clzsi2+0x40>
    51c8:	00803fc4 	movi	r2,255
    51cc:	01400204 	movi	r5,8
    51d0:	0007883a 	mov	r3,zero
    51d4:	11001036 	bltu	r2,r4,5218 <__clzsi2+0x58>
    51d8:	000b883a 	mov	r5,zero
    51dc:	20c6d83a 	srl	r3,r4,r3
    51e0:	008000b4 	movhi	r2,2
    51e4:	10a0a504 	addi	r2,r2,-32108
    51e8:	1887883a 	add	r3,r3,r2
    51ec:	18800003 	ldbu	r2,0(r3)
    51f0:	00c00804 	movi	r3,32
    51f4:	2885883a 	add	r2,r5,r2
    51f8:	1885c83a 	sub	r2,r3,r2
    51fc:	f800283a 	ret
    5200:	01400404 	movi	r5,16
    5204:	00804034 	movhi	r2,256
    5208:	10bfffc4 	addi	r2,r2,-1
    520c:	2807883a 	mov	r3,r5
    5210:	113ff22e 	bgeu	r2,r4,51dc <__clzsi2+0x1c>
    5214:	01400604 	movi	r5,24
    5218:	2807883a 	mov	r3,r5
    521c:	20c6d83a 	srl	r3,r4,r3
    5220:	008000b4 	movhi	r2,2
    5224:	10a0a504 	addi	r2,r2,-32108
    5228:	1887883a 	add	r3,r3,r2
    522c:	18800003 	ldbu	r2,0(r3)
    5230:	00c00804 	movi	r3,32
    5234:	2885883a 	add	r2,r5,r2
    5238:	1885c83a 	sub	r2,r3,r2
    523c:	f800283a 	ret

00005240 <__pack_d>:
    5240:	20c00017 	ldw	r3,0(r4)
    5244:	defffd04 	addi	sp,sp,-12
    5248:	dc000015 	stw	r16,0(sp)
    524c:	dc800215 	stw	r18,8(sp)
    5250:	dc400115 	stw	r17,4(sp)
    5254:	00800044 	movi	r2,1
    5258:	22000317 	ldw	r8,12(r4)
    525c:	001f883a 	mov	r15,zero
    5260:	22400417 	ldw	r9,16(r4)
    5264:	24000117 	ldw	r16,4(r4)
    5268:	10c0552e 	bgeu	r2,r3,53c0 <__pack_d+0x180>
    526c:	00800104 	movi	r2,4
    5270:	18804f26 	beq	r3,r2,53b0 <__pack_d+0x170>
    5274:	00800084 	movi	r2,2
    5278:	18800226 	beq	r3,r2,5284 <__pack_d+0x44>
    527c:	4244b03a 	or	r2,r8,r9
    5280:	10001a1e 	bne	r2,zero,52ec <__pack_d+0xac>
    5284:	000d883a 	mov	r6,zero
    5288:	000f883a 	mov	r7,zero
    528c:	0011883a 	mov	r8,zero
    5290:	00800434 	movhi	r2,16
    5294:	10bfffc4 	addi	r2,r2,-1
    5298:	301d883a 	mov	r14,r6
    529c:	3884703a 	and	r2,r7,r2
    52a0:	400a953a 	slli	r5,r8,20
    52a4:	79bffc2c 	andhi	r6,r15,65520
    52a8:	308cb03a 	or	r6,r6,r2
    52ac:	00e00434 	movhi	r3,32784
    52b0:	18ffffc4 	addi	r3,r3,-1
    52b4:	800497fa 	slli	r2,r16,31
    52b8:	30c6703a 	and	r3,r6,r3
    52bc:	1946b03a 	or	r3,r3,r5
    52c0:	01600034 	movhi	r5,32768
    52c4:	297fffc4 	addi	r5,r5,-1
    52c8:	194a703a 	and	r5,r3,r5
    52cc:	288ab03a 	or	r5,r5,r2
    52d0:	2807883a 	mov	r3,r5
    52d4:	7005883a 	mov	r2,r14
    52d8:	dc800217 	ldw	r18,8(sp)
    52dc:	dc400117 	ldw	r17,4(sp)
    52e0:	dc000017 	ldw	r16,0(sp)
    52e4:	dec00304 	addi	sp,sp,12
    52e8:	f800283a 	ret
    52ec:	21000217 	ldw	r4,8(r4)
    52f0:	00bf0084 	movi	r2,-1022
    52f4:	20803f16 	blt	r4,r2,53f4 <__pack_d+0x1b4>
    52f8:	0080ffc4 	movi	r2,1023
    52fc:	11002c16 	blt	r2,r4,53b0 <__pack_d+0x170>
    5300:	00803fc4 	movi	r2,255
    5304:	408c703a 	and	r6,r8,r2
    5308:	00802004 	movi	r2,128
    530c:	0007883a 	mov	r3,zero
    5310:	000f883a 	mov	r7,zero
    5314:	2280ffc4 	addi	r10,r4,1023
    5318:	30801e26 	beq	r6,r2,5394 <__pack_d+0x154>
    531c:	00801fc4 	movi	r2,127
    5320:	4089883a 	add	r4,r8,r2
    5324:	220d803a 	cmpltu	r6,r4,r8
    5328:	324d883a 	add	r6,r6,r9
    532c:	2011883a 	mov	r8,r4
    5330:	3013883a 	mov	r9,r6
    5334:	00880034 	movhi	r2,8192
    5338:	10bfffc4 	addi	r2,r2,-1
    533c:	12400d36 	bltu	r2,r9,5374 <__pack_d+0x134>
    5340:	4804963a 	slli	r2,r9,24
    5344:	400cd23a 	srli	r6,r8,8
    5348:	480ed23a 	srli	r7,r9,8
    534c:	013fffc4 	movi	r4,-1
    5350:	118cb03a 	or	r6,r2,r6
    5354:	01400434 	movhi	r5,16
    5358:	297fffc4 	addi	r5,r5,-1
    535c:	3104703a 	and	r2,r6,r4
    5360:	3946703a 	and	r3,r7,r5
    5364:	5201ffcc 	andi	r8,r10,2047
    5368:	100d883a 	mov	r6,r2
    536c:	180f883a 	mov	r7,r3
    5370:	003fc706 	br	5290 <__pack_d+0x50>
    5374:	480897fa 	slli	r4,r9,31
    5378:	4004d07a 	srli	r2,r8,1
    537c:	4806d07a 	srli	r3,r9,1
    5380:	52800044 	addi	r10,r10,1
    5384:	2084b03a 	or	r2,r4,r2
    5388:	1011883a 	mov	r8,r2
    538c:	1813883a 	mov	r9,r3
    5390:	003feb06 	br	5340 <__pack_d+0x100>
    5394:	383fe11e 	bne	r7,zero,531c <__pack_d+0xdc>
    5398:	01004004 	movi	r4,256
    539c:	4104703a 	and	r2,r8,r4
    53a0:	10c4b03a 	or	r2,r2,r3
    53a4:	103fe326 	beq	r2,zero,5334 <__pack_d+0xf4>
    53a8:	3005883a 	mov	r2,r6
    53ac:	003fdc06 	br	5320 <__pack_d+0xe0>
    53b0:	000d883a 	mov	r6,zero
    53b4:	000f883a 	mov	r7,zero
    53b8:	0201ffc4 	movi	r8,2047
    53bc:	003fb406 	br	5290 <__pack_d+0x50>
    53c0:	0005883a 	mov	r2,zero
    53c4:	00c00234 	movhi	r3,8
    53c8:	408cb03a 	or	r6,r8,r2
    53cc:	48ceb03a 	or	r7,r9,r3
    53d0:	013fffc4 	movi	r4,-1
    53d4:	01400434 	movhi	r5,16
    53d8:	297fffc4 	addi	r5,r5,-1
    53dc:	3104703a 	and	r2,r6,r4
    53e0:	3946703a 	and	r3,r7,r5
    53e4:	100d883a 	mov	r6,r2
    53e8:	180f883a 	mov	r7,r3
    53ec:	0201ffc4 	movi	r8,2047
    53f0:	003fa706 	br	5290 <__pack_d+0x50>
    53f4:	1109c83a 	sub	r4,r2,r4
    53f8:	00800e04 	movi	r2,56
    53fc:	11004316 	blt	r2,r4,550c <__pack_d+0x2cc>
    5400:	21fff804 	addi	r7,r4,-32
    5404:	38004516 	blt	r7,zero,551c <__pack_d+0x2dc>
    5408:	49d8d83a 	srl	r12,r9,r7
    540c:	001b883a 	mov	r13,zero
    5410:	0023883a 	mov	r17,zero
    5414:	01400044 	movi	r5,1
    5418:	0025883a 	mov	r18,zero
    541c:	38004716 	blt	r7,zero,553c <__pack_d+0x2fc>
    5420:	29d6983a 	sll	r11,r5,r7
    5424:	0015883a 	mov	r10,zero
    5428:	00bfffc4 	movi	r2,-1
    542c:	5089883a 	add	r4,r10,r2
    5430:	588b883a 	add	r5,r11,r2
    5434:	228d803a 	cmpltu	r6,r4,r10
    5438:	314b883a 	add	r5,r6,r5
    543c:	4104703a 	and	r2,r8,r4
    5440:	4946703a 	and	r3,r9,r5
    5444:	10c4b03a 	or	r2,r2,r3
    5448:	10000226 	beq	r2,zero,5454 <__pack_d+0x214>
    544c:	04400044 	movi	r17,1
    5450:	0025883a 	mov	r18,zero
    5454:	00803fc4 	movi	r2,255
    5458:	644eb03a 	or	r7,r12,r17
    545c:	3892703a 	and	r9,r7,r2
    5460:	00802004 	movi	r2,128
    5464:	6c90b03a 	or	r8,r13,r18
    5468:	0015883a 	mov	r10,zero
    546c:	48801626 	beq	r9,r2,54c8 <__pack_d+0x288>
    5470:	01001fc4 	movi	r4,127
    5474:	3905883a 	add	r2,r7,r4
    5478:	11cd803a 	cmpltu	r6,r2,r7
    547c:	320d883a 	add	r6,r6,r8
    5480:	100f883a 	mov	r7,r2
    5484:	00840034 	movhi	r2,4096
    5488:	10bfffc4 	addi	r2,r2,-1
    548c:	3011883a 	mov	r8,r6
    5490:	0007883a 	mov	r3,zero
    5494:	11801b36 	bltu	r2,r6,5504 <__pack_d+0x2c4>
    5498:	4004963a 	slli	r2,r8,24
    549c:	3808d23a 	srli	r4,r7,8
    54a0:	400ad23a 	srli	r5,r8,8
    54a4:	1813883a 	mov	r9,r3
    54a8:	1108b03a 	or	r4,r2,r4
    54ac:	00bfffc4 	movi	r2,-1
    54b0:	00c00434 	movhi	r3,16
    54b4:	18ffffc4 	addi	r3,r3,-1
    54b8:	208c703a 	and	r6,r4,r2
    54bc:	28ce703a 	and	r7,r5,r3
    54c0:	4a01ffcc 	andi	r8,r9,2047
    54c4:	003f7206 	br	5290 <__pack_d+0x50>
    54c8:	503fe91e 	bne	r10,zero,5470 <__pack_d+0x230>
    54cc:	01004004 	movi	r4,256
    54d0:	3904703a 	and	r2,r7,r4
    54d4:	0007883a 	mov	r3,zero
    54d8:	10c4b03a 	or	r2,r2,r3
    54dc:	10000626 	beq	r2,zero,54f8 <__pack_d+0x2b8>
    54e0:	3a45883a 	add	r2,r7,r9
    54e4:	11cd803a 	cmpltu	r6,r2,r7
    54e8:	320d883a 	add	r6,r6,r8
    54ec:	100f883a 	mov	r7,r2
    54f0:	3011883a 	mov	r8,r6
    54f4:	0007883a 	mov	r3,zero
    54f8:	00840034 	movhi	r2,4096
    54fc:	10bfffc4 	addi	r2,r2,-1
    5500:	123fe52e 	bgeu	r2,r8,5498 <__pack_d+0x258>
    5504:	00c00044 	movi	r3,1
    5508:	003fe306 	br	5498 <__pack_d+0x258>
    550c:	0009883a 	mov	r4,zero
    5510:	0013883a 	mov	r9,zero
    5514:	000b883a 	mov	r5,zero
    5518:	003fe406 	br	54ac <__pack_d+0x26c>
    551c:	4a47883a 	add	r3,r9,r9
    5520:	008007c4 	movi	r2,31
    5524:	1105c83a 	sub	r2,r2,r4
    5528:	1886983a 	sll	r3,r3,r2
    552c:	4118d83a 	srl	r12,r8,r4
    5530:	491ad83a 	srl	r13,r9,r4
    5534:	1b18b03a 	or	r12,r3,r12
    5538:	003fb506 	br	5410 <__pack_d+0x1d0>
    553c:	2806d07a 	srli	r3,r5,1
    5540:	008007c4 	movi	r2,31
    5544:	1105c83a 	sub	r2,r2,r4
    5548:	1896d83a 	srl	r11,r3,r2
    554c:	2914983a 	sll	r10,r5,r4
    5550:	003fb506 	br	5428 <__pack_d+0x1e8>

00005554 <printf>:
    5554:	defffb04 	addi	sp,sp,-20
    5558:	dfc00115 	stw	ra,4(sp)
    555c:	d9400215 	stw	r5,8(sp)
    5560:	d9800315 	stw	r6,12(sp)
    5564:	d9c00415 	stw	r7,16(sp)
    5568:	008000b4 	movhi	r2,2
    556c:	10a91504 	addi	r2,r2,-23468
    5570:	10c00017 	ldw	r3,0(r2)
    5574:	200b883a 	mov	r5,r4
    5578:	d8800204 	addi	r2,sp,8
    557c:	19000217 	ldw	r4,8(r3)
    5580:	100d883a 	mov	r6,r2
    5584:	d8800015 	stw	r2,0(sp)
    5588:	00076740 	call	7674 <__vfprintf_internal>
    558c:	dfc00117 	ldw	ra,4(sp)
    5590:	dec00504 	addi	sp,sp,20
    5594:	f800283a 	ret

00005598 <_printf_r>:
    5598:	defffc04 	addi	sp,sp,-16
    559c:	dfc00115 	stw	ra,4(sp)
    55a0:	d9800215 	stw	r6,8(sp)
    55a4:	d9c00315 	stw	r7,12(sp)
    55a8:	280d883a 	mov	r6,r5
    55ac:	21400217 	ldw	r5,8(r4)
    55b0:	d8c00204 	addi	r3,sp,8
    55b4:	180f883a 	mov	r7,r3
    55b8:	d8c00015 	stw	r3,0(sp)
    55bc:	00057c80 	call	57c8 <___vfprintf_internal_r>
    55c0:	dfc00117 	ldw	ra,4(sp)
    55c4:	dec00404 	addi	sp,sp,16
    55c8:	f800283a 	ret

000055cc <_puts_r>:
    55cc:	defff604 	addi	sp,sp,-40
    55d0:	dc400715 	stw	r17,28(sp)
    55d4:	2023883a 	mov	r17,r4
    55d8:	2809883a 	mov	r4,r5
    55dc:	dfc00915 	stw	ra,36(sp)
    55e0:	dcc00815 	stw	r19,32(sp)
    55e4:	2827883a 	mov	r19,r5
    55e8:	00056fc0 	call	56fc <strlen>
    55ec:	89400217 	ldw	r5,8(r17)
    55f0:	00c000b4 	movhi	r3,2
    55f4:	18e0e504 	addi	r3,r3,-31852
    55f8:	01c00044 	movi	r7,1
    55fc:	12000044 	addi	r8,r2,1
    5600:	d8c00515 	stw	r3,20(sp)
    5604:	d9c00615 	stw	r7,24(sp)
    5608:	d8c00304 	addi	r3,sp,12
    560c:	01c00084 	movi	r7,2
    5610:	8809883a 	mov	r4,r17
    5614:	d80d883a 	mov	r6,sp
    5618:	d8c00015 	stw	r3,0(sp)
    561c:	dcc00315 	stw	r19,12(sp)
    5620:	da000215 	stw	r8,8(sp)
    5624:	d9c00115 	stw	r7,4(sp)
    5628:	d8800415 	stw	r2,16(sp)
    562c:	000b28c0 	call	b28c <__sfvwrite_r>
    5630:	00ffffc4 	movi	r3,-1
    5634:	10000626 	beq	r2,zero,5650 <_puts_r+0x84>
    5638:	1805883a 	mov	r2,r3
    563c:	dfc00917 	ldw	ra,36(sp)
    5640:	dcc00817 	ldw	r19,32(sp)
    5644:	dc400717 	ldw	r17,28(sp)
    5648:	dec00a04 	addi	sp,sp,40
    564c:	f800283a 	ret
    5650:	00c00284 	movi	r3,10
    5654:	1805883a 	mov	r2,r3
    5658:	dfc00917 	ldw	ra,36(sp)
    565c:	dcc00817 	ldw	r19,32(sp)
    5660:	dc400717 	ldw	r17,28(sp)
    5664:	dec00a04 	addi	sp,sp,40
    5668:	f800283a 	ret

0000566c <puts>:
    566c:	008000b4 	movhi	r2,2
    5670:	10a91504 	addi	r2,r2,-23468
    5674:	200b883a 	mov	r5,r4
    5678:	11000017 	ldw	r4,0(r2)
    567c:	00055cc1 	jmpi	55cc <_puts_r>

00005680 <_scanf_r>:
    5680:	defffc04 	addi	sp,sp,-16
    5684:	dfc00115 	stw	ra,4(sp)
    5688:	d9800215 	stw	r6,8(sp)
    568c:	d9c00315 	stw	r7,12(sp)
    5690:	280d883a 	mov	r6,r5
    5694:	21400117 	ldw	r5,4(r4)
    5698:	d8c00204 	addi	r3,sp,8
    569c:	180f883a 	mov	r7,r3
    56a0:	d8c00015 	stw	r3,0(sp)
    56a4:	00076980 	call	7698 <__svfscanf_r>
    56a8:	dfc00117 	ldw	ra,4(sp)
    56ac:	dec00404 	addi	sp,sp,16
    56b0:	f800283a 	ret

000056b4 <scanf>:
    56b4:	defffb04 	addi	sp,sp,-20
    56b8:	dfc00115 	stw	ra,4(sp)
    56bc:	d9400215 	stw	r5,8(sp)
    56c0:	d9800315 	stw	r6,12(sp)
    56c4:	d9c00415 	stw	r7,16(sp)
    56c8:	008000b4 	movhi	r2,2
    56cc:	10a91504 	addi	r2,r2,-23468
    56d0:	11400017 	ldw	r5,0(r2)
    56d4:	200d883a 	mov	r6,r4
    56d8:	d8800204 	addi	r2,sp,8
    56dc:	2809883a 	mov	r4,r5
    56e0:	29400117 	ldw	r5,4(r5)
    56e4:	100f883a 	mov	r7,r2
    56e8:	d8800015 	stw	r2,0(sp)
    56ec:	00076980 	call	7698 <__svfscanf_r>
    56f0:	dfc00117 	ldw	ra,4(sp)
    56f4:	dec00504 	addi	sp,sp,20
    56f8:	f800283a 	ret

000056fc <strlen>:
    56fc:	208000cc 	andi	r2,r4,3
    5700:	2011883a 	mov	r8,r4
    5704:	1000161e 	bne	r2,zero,5760 <strlen+0x64>
    5708:	20c00017 	ldw	r3,0(r4)
    570c:	017fbff4 	movhi	r5,65279
    5710:	297fbfc4 	addi	r5,r5,-257
    5714:	01e02074 	movhi	r7,32897
    5718:	39e02004 	addi	r7,r7,-32640
    571c:	1945883a 	add	r2,r3,r5
    5720:	11c4703a 	and	r2,r2,r7
    5724:	00c6303a 	nor	r3,zero,r3
    5728:	1886703a 	and	r3,r3,r2
    572c:	18000c1e 	bne	r3,zero,5760 <strlen+0x64>
    5730:	280d883a 	mov	r6,r5
    5734:	380b883a 	mov	r5,r7
    5738:	21000104 	addi	r4,r4,4
    573c:	20800017 	ldw	r2,0(r4)
    5740:	1187883a 	add	r3,r2,r6
    5744:	1946703a 	and	r3,r3,r5
    5748:	0084303a 	nor	r2,zero,r2
    574c:	10c4703a 	and	r2,r2,r3
    5750:	103ff926 	beq	r2,zero,5738 <strlen+0x3c>
    5754:	20800007 	ldb	r2,0(r4)
    5758:	10000326 	beq	r2,zero,5768 <strlen+0x6c>
    575c:	21000044 	addi	r4,r4,1
    5760:	20800007 	ldb	r2,0(r4)
    5764:	103ffd1e 	bne	r2,zero,575c <strlen+0x60>
    5768:	2205c83a 	sub	r2,r4,r8
    576c:	f800283a 	ret

00005770 <__sprint_r>:
    5770:	30800217 	ldw	r2,8(r6)
    5774:	defffe04 	addi	sp,sp,-8
    5778:	dc000015 	stw	r16,0(sp)
    577c:	dfc00115 	stw	ra,4(sp)
    5780:	3021883a 	mov	r16,r6
    5784:	0007883a 	mov	r3,zero
    5788:	1000061e 	bne	r2,zero,57a4 <__sprint_r+0x34>
    578c:	1805883a 	mov	r2,r3
    5790:	30000115 	stw	zero,4(r6)
    5794:	dfc00117 	ldw	ra,4(sp)
    5798:	dc000017 	ldw	r16,0(sp)
    579c:	dec00204 	addi	sp,sp,8
    57a0:	f800283a 	ret
    57a4:	000b28c0 	call	b28c <__sfvwrite_r>
    57a8:	1007883a 	mov	r3,r2
    57ac:	1805883a 	mov	r2,r3
    57b0:	80000115 	stw	zero,4(r16)
    57b4:	80000215 	stw	zero,8(r16)
    57b8:	dfc00117 	ldw	ra,4(sp)
    57bc:	dc000017 	ldw	r16,0(sp)
    57c0:	dec00204 	addi	sp,sp,8
    57c4:	f800283a 	ret

000057c8 <___vfprintf_internal_r>:
    57c8:	defea404 	addi	sp,sp,-1392
    57cc:	dd815815 	stw	r22,1376(sp)
    57d0:	dc015215 	stw	r16,1352(sp)
    57d4:	d9c15115 	stw	r7,1348(sp)
    57d8:	dfc15b15 	stw	ra,1388(sp)
    57dc:	df015a15 	stw	fp,1384(sp)
    57e0:	ddc15915 	stw	r23,1380(sp)
    57e4:	dd415715 	stw	r21,1372(sp)
    57e8:	dd015615 	stw	r20,1368(sp)
    57ec:	dcc15515 	stw	r19,1364(sp)
    57f0:	dc815415 	stw	r18,1360(sp)
    57f4:	dc415315 	stw	r17,1356(sp)
    57f8:	282d883a 	mov	r22,r5
    57fc:	3021883a 	mov	r16,r6
    5800:	d9014f15 	stw	r4,1340(sp)
    5804:	000b8dc0 	call	b8dc <_localeconv_r>
    5808:	10800017 	ldw	r2,0(r2)
    580c:	d9c15117 	ldw	r7,1348(sp)
    5810:	d8814915 	stw	r2,1316(sp)
    5814:	d8814f17 	ldw	r2,1340(sp)
    5818:	10000226 	beq	r2,zero,5824 <___vfprintf_internal_r+0x5c>
    581c:	10800e17 	ldw	r2,56(r2)
    5820:	10020d26 	beq	r2,zero,6058 <___vfprintf_internal_r+0x890>
    5824:	b080030b 	ldhu	r2,12(r22)
    5828:	1080020c 	andi	r2,r2,8
    582c:	10020e26 	beq	r2,zero,6068 <___vfprintf_internal_r+0x8a0>
    5830:	b0800417 	ldw	r2,16(r22)
    5834:	10020c26 	beq	r2,zero,6068 <___vfprintf_internal_r+0x8a0>
    5838:	b200030b 	ldhu	r8,12(r22)
    583c:	00800284 	movi	r2,10
    5840:	40c0068c 	andi	r3,r8,26
    5844:	18802f1e 	bne	r3,r2,5904 <___vfprintf_internal_r+0x13c>
    5848:	b080038f 	ldh	r2,14(r22)
    584c:	10002d16 	blt	r2,zero,5904 <___vfprintf_internal_r+0x13c>
    5850:	b240038b 	ldhu	r9,14(r22)
    5854:	b2800717 	ldw	r10,28(r22)
    5858:	b2c00917 	ldw	r11,36(r22)
    585c:	d9014f17 	ldw	r4,1340(sp)
    5860:	dc402904 	addi	r17,sp,164
    5864:	d8804004 	addi	r2,sp,256
    5868:	00c10004 	movi	r3,1024
    586c:	423fff4c 	andi	r8,r8,65533
    5870:	800d883a 	mov	r6,r16
    5874:	880b883a 	mov	r5,r17
    5878:	da002c0d 	sth	r8,176(sp)
    587c:	da402c8d 	sth	r9,178(sp)
    5880:	da803015 	stw	r10,192(sp)
    5884:	dac03215 	stw	r11,200(sp)
    5888:	d8802d15 	stw	r2,180(sp)
    588c:	d8c02e15 	stw	r3,184(sp)
    5890:	d8802915 	stw	r2,164(sp)
    5894:	d8c02b15 	stw	r3,172(sp)
    5898:	d8002f15 	stw	zero,188(sp)
    589c:	00057c80 	call	57c8 <___vfprintf_internal_r>
    58a0:	d8814b15 	stw	r2,1324(sp)
    58a4:	10000416 	blt	r2,zero,58b8 <___vfprintf_internal_r+0xf0>
    58a8:	d9014f17 	ldw	r4,1340(sp)
    58ac:	880b883a 	mov	r5,r17
    58b0:	000a7200 	call	a720 <_fflush_r>
    58b4:	1002321e 	bne	r2,zero,6180 <___vfprintf_internal_r+0x9b8>
    58b8:	d8802c0b 	ldhu	r2,176(sp)
    58bc:	1080100c 	andi	r2,r2,64
    58c0:	10000326 	beq	r2,zero,58d0 <___vfprintf_internal_r+0x108>
    58c4:	b080030b 	ldhu	r2,12(r22)
    58c8:	10801014 	ori	r2,r2,64
    58cc:	b080030d 	sth	r2,12(r22)
    58d0:	d8814b17 	ldw	r2,1324(sp)
    58d4:	dfc15b17 	ldw	ra,1388(sp)
    58d8:	df015a17 	ldw	fp,1384(sp)
    58dc:	ddc15917 	ldw	r23,1380(sp)
    58e0:	dd815817 	ldw	r22,1376(sp)
    58e4:	dd415717 	ldw	r21,1372(sp)
    58e8:	dd015617 	ldw	r20,1368(sp)
    58ec:	dcc15517 	ldw	r19,1364(sp)
    58f0:	dc815417 	ldw	r18,1360(sp)
    58f4:	dc415317 	ldw	r17,1356(sp)
    58f8:	dc015217 	ldw	r16,1352(sp)
    58fc:	dec15c04 	addi	sp,sp,1392
    5900:	f800283a 	ret
    5904:	0005883a 	mov	r2,zero
    5908:	0007883a 	mov	r3,zero
    590c:	dd401904 	addi	r21,sp,100
    5910:	d8814215 	stw	r2,1288(sp)
    5914:	802f883a 	mov	r23,r16
    5918:	d8c14315 	stw	r3,1292(sp)
    591c:	d8014b15 	stw	zero,1324(sp)
    5920:	d8014815 	stw	zero,1312(sp)
    5924:	d8014415 	stw	zero,1296(sp)
    5928:	d8014715 	stw	zero,1308(sp)
    592c:	dd400c15 	stw	r21,48(sp)
    5930:	d8000e15 	stw	zero,56(sp)
    5934:	d8000d15 	stw	zero,52(sp)
    5938:	b8800007 	ldb	r2,0(r23)
    593c:	10001926 	beq	r2,zero,59a4 <___vfprintf_internal_r+0x1dc>
    5940:	00c00944 	movi	r3,37
    5944:	10c01726 	beq	r2,r3,59a4 <___vfprintf_internal_r+0x1dc>
    5948:	b821883a 	mov	r16,r23
    594c:	00000106 	br	5954 <___vfprintf_internal_r+0x18c>
    5950:	10c00326 	beq	r2,r3,5960 <___vfprintf_internal_r+0x198>
    5954:	84000044 	addi	r16,r16,1
    5958:	80800007 	ldb	r2,0(r16)
    595c:	103ffc1e 	bne	r2,zero,5950 <___vfprintf_internal_r+0x188>
    5960:	85e7c83a 	sub	r19,r16,r23
    5964:	98000e26 	beq	r19,zero,59a0 <___vfprintf_internal_r+0x1d8>
    5968:	dc800e17 	ldw	r18,56(sp)
    596c:	dc400d17 	ldw	r17,52(sp)
    5970:	008001c4 	movi	r2,7
    5974:	94e5883a 	add	r18,r18,r19
    5978:	8c400044 	addi	r17,r17,1
    597c:	adc00015 	stw	r23,0(r21)
    5980:	dc800e15 	stw	r18,56(sp)
    5984:	acc00115 	stw	r19,4(r21)
    5988:	dc400d15 	stw	r17,52(sp)
    598c:	14428b16 	blt	r2,r17,63bc <___vfprintf_internal_r+0xbf4>
    5990:	ad400204 	addi	r21,r21,8
    5994:	d9014b17 	ldw	r4,1324(sp)
    5998:	24c9883a 	add	r4,r4,r19
    599c:	d9014b15 	stw	r4,1324(sp)
    59a0:	802f883a 	mov	r23,r16
    59a4:	b8800007 	ldb	r2,0(r23)
    59a8:	10013c26 	beq	r2,zero,5e9c <___vfprintf_internal_r+0x6d4>
    59ac:	bdc00044 	addi	r23,r23,1
    59b0:	d8000405 	stb	zero,16(sp)
    59b4:	b8c00007 	ldb	r3,0(r23)
    59b8:	04ffffc4 	movi	r19,-1
    59bc:	d8014c15 	stw	zero,1328(sp)
    59c0:	d8014a15 	stw	zero,1320(sp)
    59c4:	d8c14d15 	stw	r3,1332(sp)
    59c8:	bdc00044 	addi	r23,r23,1
    59cc:	d9414d17 	ldw	r5,1332(sp)
    59d0:	00801604 	movi	r2,88
    59d4:	28fff804 	addi	r3,r5,-32
    59d8:	10c06036 	bltu	r2,r3,5b5c <___vfprintf_internal_r+0x394>
    59dc:	18c5883a 	add	r2,r3,r3
    59e0:	1085883a 	add	r2,r2,r2
    59e4:	00c00034 	movhi	r3,0
    59e8:	18d67e04 	addi	r3,r3,23032
    59ec:	10c5883a 	add	r2,r2,r3
    59f0:	11000017 	ldw	r4,0(r2)
    59f4:	2000683a 	jmp	r4
    59f8:	0000696c 	andhi	zero,zero,421
    59fc:	00005b5c 	xori	zero,zero,365
    5a00:	00005b5c 	xori	zero,zero,365
    5a04:	00006958 	cmpnei	zero,zero,421
    5a08:	00005b5c 	xori	zero,zero,365
    5a0c:	00005b5c 	xori	zero,zero,365
    5a10:	00005b5c 	xori	zero,zero,365
    5a14:	00005b5c 	xori	zero,zero,365
    5a18:	00005b5c 	xori	zero,zero,365
    5a1c:	00005b5c 	xori	zero,zero,365
    5a20:	00006738 	rdprs	zero,zero,412
    5a24:	00006948 	cmpgei	zero,zero,421
    5a28:	00005b5c 	xori	zero,zero,365
    5a2c:	00006750 	cmplti	zero,zero,413
    5a30:	000069e4 	muli	zero,zero,423
    5a34:	00005b5c 	xori	zero,zero,365
    5a38:	000069d0 	cmplti	zero,zero,423
    5a3c:	00006998 	cmpnei	zero,zero,422
    5a40:	00006998 	cmpnei	zero,zero,422
    5a44:	00006998 	cmpnei	zero,zero,422
    5a48:	00006998 	cmpnei	zero,zero,422
    5a4c:	00006998 	cmpnei	zero,zero,422
    5a50:	00006998 	cmpnei	zero,zero,422
    5a54:	00006998 	cmpnei	zero,zero,422
    5a58:	00006998 	cmpnei	zero,zero,422
    5a5c:	00006998 	cmpnei	zero,zero,422
    5a60:	00005b5c 	xori	zero,zero,365
    5a64:	00005b5c 	xori	zero,zero,365
    5a68:	00005b5c 	xori	zero,zero,365
    5a6c:	00005b5c 	xori	zero,zero,365
    5a70:	00005b5c 	xori	zero,zero,365
    5a74:	00005b5c 	xori	zero,zero,365
    5a78:	00005b5c 	xori	zero,zero,365
    5a7c:	00005b5c 	xori	zero,zero,365
    5a80:	00005b5c 	xori	zero,zero,365
    5a84:	00005b5c 	xori	zero,zero,365
    5a88:	000061b4 	movhi	zero,390
    5a8c:	00006820 	cmpeqi	zero,zero,416
    5a90:	00005b5c 	xori	zero,zero,365
    5a94:	00006820 	cmpeqi	zero,zero,416
    5a98:	00005b5c 	xori	zero,zero,365
    5a9c:	00005b5c 	xori	zero,zero,365
    5aa0:	00005b5c 	xori	zero,zero,365
    5aa4:	00005b5c 	xori	zero,zero,365
    5aa8:	00006984 	movi	zero,422
    5aac:	00005b5c 	xori	zero,zero,365
    5ab0:	00005b5c 	xori	zero,zero,365
    5ab4:	00006268 	cmpgeui	zero,zero,393
    5ab8:	00005b5c 	xori	zero,zero,365
    5abc:	00005b5c 	xori	zero,zero,365
    5ac0:	00005b5c 	xori	zero,zero,365
    5ac4:	00005b5c 	xori	zero,zero,365
    5ac8:	00005b5c 	xori	zero,zero,365
    5acc:	000062b4 	movhi	zero,394
    5ad0:	00005b5c 	xori	zero,zero,365
    5ad4:	00005b5c 	xori	zero,zero,365
    5ad8:	000068d4 	movui	zero,419
    5adc:	00005b5c 	xori	zero,zero,365
    5ae0:	00005b5c 	xori	zero,zero,365
    5ae4:	00005b5c 	xori	zero,zero,365
    5ae8:	00005b5c 	xori	zero,zero,365
    5aec:	00005b5c 	xori	zero,zero,365
    5af0:	00005b5c 	xori	zero,zero,365
    5af4:	00005b5c 	xori	zero,zero,365
    5af8:	00005b5c 	xori	zero,zero,365
    5afc:	00005b5c 	xori	zero,zero,365
    5b00:	00005b5c 	xori	zero,zero,365
    5b04:	000068a8 	cmpgeui	zero,zero,418
    5b08:	000061c0 	call	61c <VGA_line+0xc0>
    5b0c:	00006820 	cmpeqi	zero,zero,416
    5b10:	00006820 	cmpeqi	zero,zero,416
    5b14:	00006820 	cmpeqi	zero,zero,416
    5b18:	0000680c 	andi	zero,zero,416
    5b1c:	000061c0 	call	61c <VGA_line+0xc0>
    5b20:	00005b5c 	xori	zero,zero,365
    5b24:	00005b5c 	xori	zero,zero,365
    5b28:	00006794 	movui	zero,414
    5b2c:	00005b5c 	xori	zero,zero,365
    5b30:	00006764 	muli	zero,zero,413
    5b34:	00006274 	movhi	zero,393
    5b38:	000067c4 	movi	zero,415
    5b3c:	000067b0 	cmpltui	zero,zero,414
    5b40:	00005b5c 	xori	zero,zero,365
    5b44:	00006a40 	call	6a4 <VGA_line+0x148>
    5b48:	00005b5c 	xori	zero,zero,365
    5b4c:	000062c0 	call	62c <VGA_line+0xd0>
    5b50:	00005b5c 	xori	zero,zero,365
    5b54:	00005b5c 	xori	zero,zero,365
    5b58:	00006938 	rdprs	zero,zero,420
    5b5c:	d9014d17 	ldw	r4,1332(sp)
    5b60:	2000ce26 	beq	r4,zero,5e9c <___vfprintf_internal_r+0x6d4>
    5b64:	01400044 	movi	r5,1
    5b68:	d9800f04 	addi	r6,sp,60
    5b6c:	d9c14015 	stw	r7,1280(sp)
    5b70:	d9414515 	stw	r5,1300(sp)
    5b74:	d9814115 	stw	r6,1284(sp)
    5b78:	280f883a 	mov	r7,r5
    5b7c:	d9000f05 	stb	r4,60(sp)
    5b80:	d8000405 	stb	zero,16(sp)
    5b84:	d8014615 	stw	zero,1304(sp)
    5b88:	d8c14c17 	ldw	r3,1328(sp)
    5b8c:	1880008c 	andi	r2,r3,2
    5b90:	1005003a 	cmpeq	r2,r2,zero
    5b94:	d8815015 	stw	r2,1344(sp)
    5b98:	1000031e 	bne	r2,zero,5ba8 <___vfprintf_internal_r+0x3e0>
    5b9c:	d9014517 	ldw	r4,1300(sp)
    5ba0:	21000084 	addi	r4,r4,2
    5ba4:	d9014515 	stw	r4,1300(sp)
    5ba8:	d9414c17 	ldw	r5,1328(sp)
    5bac:	2940210c 	andi	r5,r5,132
    5bb0:	d9414e15 	stw	r5,1336(sp)
    5bb4:	28002d1e 	bne	r5,zero,5c6c <___vfprintf_internal_r+0x4a4>
    5bb8:	d9814a17 	ldw	r6,1320(sp)
    5bbc:	d8814517 	ldw	r2,1300(sp)
    5bc0:	30a1c83a 	sub	r16,r6,r2
    5bc4:	0400290e 	bge	zero,r16,5c6c <___vfprintf_internal_r+0x4a4>
    5bc8:	00800404 	movi	r2,16
    5bcc:	1404580e 	bge	r2,r16,6d30 <___vfprintf_internal_r+0x1568>
    5bd0:	dc800e17 	ldw	r18,56(sp)
    5bd4:	dc400d17 	ldw	r17,52(sp)
    5bd8:	1027883a 	mov	r19,r2
    5bdc:	070000b4 	movhi	fp,2
    5be0:	e7210184 	addi	fp,fp,-31738
    5be4:	050001c4 	movi	r20,7
    5be8:	00000306 	br	5bf8 <___vfprintf_internal_r+0x430>
    5bec:	843ffc04 	addi	r16,r16,-16
    5bf0:	ad400204 	addi	r21,r21,8
    5bf4:	9c00130e 	bge	r19,r16,5c44 <___vfprintf_internal_r+0x47c>
    5bf8:	94800404 	addi	r18,r18,16
    5bfc:	8c400044 	addi	r17,r17,1
    5c00:	af000015 	stw	fp,0(r21)
    5c04:	acc00115 	stw	r19,4(r21)
    5c08:	dc800e15 	stw	r18,56(sp)
    5c0c:	dc400d15 	stw	r17,52(sp)
    5c10:	a47ff60e 	bge	r20,r17,5bec <___vfprintf_internal_r+0x424>
    5c14:	d9014f17 	ldw	r4,1340(sp)
    5c18:	b00b883a 	mov	r5,r22
    5c1c:	d9800c04 	addi	r6,sp,48
    5c20:	d9c15115 	stw	r7,1348(sp)
    5c24:	00057700 	call	5770 <__sprint_r>
    5c28:	d9c15117 	ldw	r7,1348(sp)
    5c2c:	10009e1e 	bne	r2,zero,5ea8 <___vfprintf_internal_r+0x6e0>
    5c30:	843ffc04 	addi	r16,r16,-16
    5c34:	dc800e17 	ldw	r18,56(sp)
    5c38:	dc400d17 	ldw	r17,52(sp)
    5c3c:	dd401904 	addi	r21,sp,100
    5c40:	9c3fed16 	blt	r19,r16,5bf8 <___vfprintf_internal_r+0x430>
    5c44:	9425883a 	add	r18,r18,r16
    5c48:	8c400044 	addi	r17,r17,1
    5c4c:	008001c4 	movi	r2,7
    5c50:	af000015 	stw	fp,0(r21)
    5c54:	ac000115 	stw	r16,4(r21)
    5c58:	dc800e15 	stw	r18,56(sp)
    5c5c:	dc400d15 	stw	r17,52(sp)
    5c60:	1441f516 	blt	r2,r17,6438 <___vfprintf_internal_r+0xc70>
    5c64:	ad400204 	addi	r21,r21,8
    5c68:	00000206 	br	5c74 <___vfprintf_internal_r+0x4ac>
    5c6c:	dc800e17 	ldw	r18,56(sp)
    5c70:	dc400d17 	ldw	r17,52(sp)
    5c74:	d8800407 	ldb	r2,16(sp)
    5c78:	10000b26 	beq	r2,zero,5ca8 <___vfprintf_internal_r+0x4e0>
    5c7c:	00800044 	movi	r2,1
    5c80:	94800044 	addi	r18,r18,1
    5c84:	8c400044 	addi	r17,r17,1
    5c88:	a8800115 	stw	r2,4(r21)
    5c8c:	d8c00404 	addi	r3,sp,16
    5c90:	008001c4 	movi	r2,7
    5c94:	a8c00015 	stw	r3,0(r21)
    5c98:	dc800e15 	stw	r18,56(sp)
    5c9c:	dc400d15 	stw	r17,52(sp)
    5ca0:	1441da16 	blt	r2,r17,640c <___vfprintf_internal_r+0xc44>
    5ca4:	ad400204 	addi	r21,r21,8
    5ca8:	d9015017 	ldw	r4,1344(sp)
    5cac:	20000b1e 	bne	r4,zero,5cdc <___vfprintf_internal_r+0x514>
    5cb0:	d8800444 	addi	r2,sp,17
    5cb4:	94800084 	addi	r18,r18,2
    5cb8:	8c400044 	addi	r17,r17,1
    5cbc:	a8800015 	stw	r2,0(r21)
    5cc0:	00c00084 	movi	r3,2
    5cc4:	008001c4 	movi	r2,7
    5cc8:	a8c00115 	stw	r3,4(r21)
    5ccc:	dc800e15 	stw	r18,56(sp)
    5cd0:	dc400d15 	stw	r17,52(sp)
    5cd4:	1441c216 	blt	r2,r17,63e0 <___vfprintf_internal_r+0xc18>
    5cd8:	ad400204 	addi	r21,r21,8
    5cdc:	d9414e17 	ldw	r5,1336(sp)
    5ce0:	00802004 	movi	r2,128
    5ce4:	2880b126 	beq	r5,r2,5fac <___vfprintf_internal_r+0x7e4>
    5ce8:	d8c14617 	ldw	r3,1304(sp)
    5cec:	19e1c83a 	sub	r16,r3,r7
    5cf0:	0400260e 	bge	zero,r16,5d8c <___vfprintf_internal_r+0x5c4>
    5cf4:	00800404 	movi	r2,16
    5cf8:	1403c90e 	bge	r2,r16,6c20 <___vfprintf_internal_r+0x1458>
    5cfc:	1027883a 	mov	r19,r2
    5d00:	070000b4 	movhi	fp,2
    5d04:	e720fd84 	addi	fp,fp,-31754
    5d08:	050001c4 	movi	r20,7
    5d0c:	00000306 	br	5d1c <___vfprintf_internal_r+0x554>
    5d10:	843ffc04 	addi	r16,r16,-16
    5d14:	ad400204 	addi	r21,r21,8
    5d18:	9c00130e 	bge	r19,r16,5d68 <___vfprintf_internal_r+0x5a0>
    5d1c:	94800404 	addi	r18,r18,16
    5d20:	8c400044 	addi	r17,r17,1
    5d24:	af000015 	stw	fp,0(r21)
    5d28:	acc00115 	stw	r19,4(r21)
    5d2c:	dc800e15 	stw	r18,56(sp)
    5d30:	dc400d15 	stw	r17,52(sp)
    5d34:	a47ff60e 	bge	r20,r17,5d10 <___vfprintf_internal_r+0x548>
    5d38:	d9014f17 	ldw	r4,1340(sp)
    5d3c:	b00b883a 	mov	r5,r22
    5d40:	d9800c04 	addi	r6,sp,48
    5d44:	d9c15115 	stw	r7,1348(sp)
    5d48:	00057700 	call	5770 <__sprint_r>
    5d4c:	d9c15117 	ldw	r7,1348(sp)
    5d50:	1000551e 	bne	r2,zero,5ea8 <___vfprintf_internal_r+0x6e0>
    5d54:	843ffc04 	addi	r16,r16,-16
    5d58:	dc800e17 	ldw	r18,56(sp)
    5d5c:	dc400d17 	ldw	r17,52(sp)
    5d60:	dd401904 	addi	r21,sp,100
    5d64:	9c3fed16 	blt	r19,r16,5d1c <___vfprintf_internal_r+0x554>
    5d68:	9425883a 	add	r18,r18,r16
    5d6c:	8c400044 	addi	r17,r17,1
    5d70:	008001c4 	movi	r2,7
    5d74:	af000015 	stw	fp,0(r21)
    5d78:	ac000115 	stw	r16,4(r21)
    5d7c:	dc800e15 	stw	r18,56(sp)
    5d80:	dc400d15 	stw	r17,52(sp)
    5d84:	14418216 	blt	r2,r17,6390 <___vfprintf_internal_r+0xbc8>
    5d88:	ad400204 	addi	r21,r21,8
    5d8c:	d9014c17 	ldw	r4,1328(sp)
    5d90:	2080400c 	andi	r2,r4,256
    5d94:	10004a1e 	bne	r2,zero,5ec0 <___vfprintf_internal_r+0x6f8>
    5d98:	d9414117 	ldw	r5,1284(sp)
    5d9c:	91e5883a 	add	r18,r18,r7
    5da0:	8c400044 	addi	r17,r17,1
    5da4:	008001c4 	movi	r2,7
    5da8:	a9400015 	stw	r5,0(r21)
    5dac:	a9c00115 	stw	r7,4(r21)
    5db0:	dc800e15 	stw	r18,56(sp)
    5db4:	dc400d15 	stw	r17,52(sp)
    5db8:	14416716 	blt	r2,r17,6358 <___vfprintf_internal_r+0xb90>
    5dbc:	a8c00204 	addi	r3,r21,8
    5dc0:	d9814c17 	ldw	r6,1328(sp)
    5dc4:	3080010c 	andi	r2,r6,4
    5dc8:	10002826 	beq	r2,zero,5e6c <___vfprintf_internal_r+0x6a4>
    5dcc:	d8814a17 	ldw	r2,1320(sp)
    5dd0:	d9014517 	ldw	r4,1300(sp)
    5dd4:	1121c83a 	sub	r16,r2,r4
    5dd8:	0400240e 	bge	zero,r16,5e6c <___vfprintf_internal_r+0x6a4>
    5ddc:	00800404 	movi	r2,16
    5de0:	14044f0e 	bge	r2,r16,6f20 <___vfprintf_internal_r+0x1758>
    5de4:	dc400d17 	ldw	r17,52(sp)
    5de8:	1027883a 	mov	r19,r2
    5dec:	070000b4 	movhi	fp,2
    5df0:	e7210184 	addi	fp,fp,-31738
    5df4:	050001c4 	movi	r20,7
    5df8:	00000306 	br	5e08 <___vfprintf_internal_r+0x640>
    5dfc:	843ffc04 	addi	r16,r16,-16
    5e00:	18c00204 	addi	r3,r3,8
    5e04:	9c00110e 	bge	r19,r16,5e4c <___vfprintf_internal_r+0x684>
    5e08:	94800404 	addi	r18,r18,16
    5e0c:	8c400044 	addi	r17,r17,1
    5e10:	1f000015 	stw	fp,0(r3)
    5e14:	1cc00115 	stw	r19,4(r3)
    5e18:	dc800e15 	stw	r18,56(sp)
    5e1c:	dc400d15 	stw	r17,52(sp)
    5e20:	a47ff60e 	bge	r20,r17,5dfc <___vfprintf_internal_r+0x634>
    5e24:	d9014f17 	ldw	r4,1340(sp)
    5e28:	b00b883a 	mov	r5,r22
    5e2c:	d9800c04 	addi	r6,sp,48
    5e30:	00057700 	call	5770 <__sprint_r>
    5e34:	10001c1e 	bne	r2,zero,5ea8 <___vfprintf_internal_r+0x6e0>
    5e38:	843ffc04 	addi	r16,r16,-16
    5e3c:	dc800e17 	ldw	r18,56(sp)
    5e40:	dc400d17 	ldw	r17,52(sp)
    5e44:	d8c01904 	addi	r3,sp,100
    5e48:	9c3fef16 	blt	r19,r16,5e08 <___vfprintf_internal_r+0x640>
    5e4c:	9425883a 	add	r18,r18,r16
    5e50:	8c400044 	addi	r17,r17,1
    5e54:	008001c4 	movi	r2,7
    5e58:	1f000015 	stw	fp,0(r3)
    5e5c:	1c000115 	stw	r16,4(r3)
    5e60:	dc800e15 	stw	r18,56(sp)
    5e64:	dc400d15 	stw	r17,52(sp)
    5e68:	1440cb16 	blt	r2,r17,6198 <___vfprintf_internal_r+0x9d0>
    5e6c:	d8814a17 	ldw	r2,1320(sp)
    5e70:	d9414517 	ldw	r5,1300(sp)
    5e74:	1140010e 	bge	r2,r5,5e7c <___vfprintf_internal_r+0x6b4>
    5e78:	2805883a 	mov	r2,r5
    5e7c:	d9814b17 	ldw	r6,1324(sp)
    5e80:	308d883a 	add	r6,r6,r2
    5e84:	d9814b15 	stw	r6,1324(sp)
    5e88:	90013b1e 	bne	r18,zero,6378 <___vfprintf_internal_r+0xbb0>
    5e8c:	d9c14017 	ldw	r7,1280(sp)
    5e90:	dd401904 	addi	r21,sp,100
    5e94:	d8000d15 	stw	zero,52(sp)
    5e98:	003ea706 	br	5938 <___vfprintf_internal_r+0x170>
    5e9c:	d8800e17 	ldw	r2,56(sp)
    5ea0:	10053f1e 	bne	r2,zero,73a0 <___vfprintf_internal_r+0x1bd8>
    5ea4:	d8000d15 	stw	zero,52(sp)
    5ea8:	b080030b 	ldhu	r2,12(r22)
    5eac:	1080100c 	andi	r2,r2,64
    5eb0:	103e8726 	beq	r2,zero,58d0 <___vfprintf_internal_r+0x108>
    5eb4:	00bfffc4 	movi	r2,-1
    5eb8:	d8814b15 	stw	r2,1324(sp)
    5ebc:	003e8406 	br	58d0 <___vfprintf_internal_r+0x108>
    5ec0:	d9814d17 	ldw	r6,1332(sp)
    5ec4:	00801944 	movi	r2,101
    5ec8:	11806e16 	blt	r2,r6,6084 <___vfprintf_internal_r+0x8bc>
    5ecc:	d9414717 	ldw	r5,1308(sp)
    5ed0:	00c00044 	movi	r3,1
    5ed4:	1943430e 	bge	r3,r5,6be4 <___vfprintf_internal_r+0x141c>
    5ed8:	d8814117 	ldw	r2,1284(sp)
    5edc:	94800044 	addi	r18,r18,1
    5ee0:	8c400044 	addi	r17,r17,1
    5ee4:	a8800015 	stw	r2,0(r21)
    5ee8:	008001c4 	movi	r2,7
    5eec:	a8c00115 	stw	r3,4(r21)
    5ef0:	dc800e15 	stw	r18,56(sp)
    5ef4:	dc400d15 	stw	r17,52(sp)
    5ef8:	1441ca16 	blt	r2,r17,6624 <___vfprintf_internal_r+0xe5c>
    5efc:	a8c00204 	addi	r3,r21,8
    5f00:	d9014917 	ldw	r4,1316(sp)
    5f04:	00800044 	movi	r2,1
    5f08:	94800044 	addi	r18,r18,1
    5f0c:	8c400044 	addi	r17,r17,1
    5f10:	18800115 	stw	r2,4(r3)
    5f14:	008001c4 	movi	r2,7
    5f18:	19000015 	stw	r4,0(r3)
    5f1c:	dc800e15 	stw	r18,56(sp)
    5f20:	dc400d15 	stw	r17,52(sp)
    5f24:	1441b616 	blt	r2,r17,6600 <___vfprintf_internal_r+0xe38>
    5f28:	1cc00204 	addi	r19,r3,8
    5f2c:	d9014217 	ldw	r4,1288(sp)
    5f30:	d9414317 	ldw	r5,1292(sp)
    5f34:	000d883a 	mov	r6,zero
    5f38:	000f883a 	mov	r7,zero
    5f3c:	001306c0 	call	1306c <__nedf2>
    5f40:	10017426 	beq	r2,zero,6514 <___vfprintf_internal_r+0xd4c>
    5f44:	d9414717 	ldw	r5,1308(sp)
    5f48:	d9814117 	ldw	r6,1284(sp)
    5f4c:	8c400044 	addi	r17,r17,1
    5f50:	2c85883a 	add	r2,r5,r18
    5f54:	14bfffc4 	addi	r18,r2,-1
    5f58:	28bfffc4 	addi	r2,r5,-1
    5f5c:	30c00044 	addi	r3,r6,1
    5f60:	98800115 	stw	r2,4(r19)
    5f64:	008001c4 	movi	r2,7
    5f68:	98c00015 	stw	r3,0(r19)
    5f6c:	dc800e15 	stw	r18,56(sp)
    5f70:	dc400d15 	stw	r17,52(sp)
    5f74:	14418e16 	blt	r2,r17,65b0 <___vfprintf_internal_r+0xde8>
    5f78:	9cc00204 	addi	r19,r19,8
    5f7c:	d9414817 	ldw	r5,1312(sp)
    5f80:	d8800804 	addi	r2,sp,32
    5f84:	8c400044 	addi	r17,r17,1
    5f88:	9165883a 	add	r18,r18,r5
    5f8c:	98800015 	stw	r2,0(r19)
    5f90:	008001c4 	movi	r2,7
    5f94:	99400115 	stw	r5,4(r19)
    5f98:	dc800e15 	stw	r18,56(sp)
    5f9c:	dc400d15 	stw	r17,52(sp)
    5fa0:	1440ed16 	blt	r2,r17,6358 <___vfprintf_internal_r+0xb90>
    5fa4:	98c00204 	addi	r3,r19,8
    5fa8:	003f8506 	br	5dc0 <___vfprintf_internal_r+0x5f8>
    5fac:	d9814a17 	ldw	r6,1320(sp)
    5fb0:	d8814517 	ldw	r2,1300(sp)
    5fb4:	30a1c83a 	sub	r16,r6,r2
    5fb8:	043f4b0e 	bge	zero,r16,5ce8 <___vfprintf_internal_r+0x520>
    5fbc:	00800404 	movi	r2,16
    5fc0:	1404340e 	bge	r2,r16,7094 <___vfprintf_internal_r+0x18cc>
    5fc4:	1027883a 	mov	r19,r2
    5fc8:	070000b4 	movhi	fp,2
    5fcc:	e720fd84 	addi	fp,fp,-31754
    5fd0:	050001c4 	movi	r20,7
    5fd4:	00000306 	br	5fe4 <___vfprintf_internal_r+0x81c>
    5fd8:	843ffc04 	addi	r16,r16,-16
    5fdc:	ad400204 	addi	r21,r21,8
    5fe0:	9c00130e 	bge	r19,r16,6030 <___vfprintf_internal_r+0x868>
    5fe4:	94800404 	addi	r18,r18,16
    5fe8:	8c400044 	addi	r17,r17,1
    5fec:	af000015 	stw	fp,0(r21)
    5ff0:	acc00115 	stw	r19,4(r21)
    5ff4:	dc800e15 	stw	r18,56(sp)
    5ff8:	dc400d15 	stw	r17,52(sp)
    5ffc:	a47ff60e 	bge	r20,r17,5fd8 <___vfprintf_internal_r+0x810>
    6000:	d9014f17 	ldw	r4,1340(sp)
    6004:	b00b883a 	mov	r5,r22
    6008:	d9800c04 	addi	r6,sp,48
    600c:	d9c15115 	stw	r7,1348(sp)
    6010:	00057700 	call	5770 <__sprint_r>
    6014:	d9c15117 	ldw	r7,1348(sp)
    6018:	103fa31e 	bne	r2,zero,5ea8 <___vfprintf_internal_r+0x6e0>
    601c:	843ffc04 	addi	r16,r16,-16
    6020:	dc800e17 	ldw	r18,56(sp)
    6024:	dc400d17 	ldw	r17,52(sp)
    6028:	dd401904 	addi	r21,sp,100
    602c:	9c3fed16 	blt	r19,r16,5fe4 <___vfprintf_internal_r+0x81c>
    6030:	9425883a 	add	r18,r18,r16
    6034:	8c400044 	addi	r17,r17,1
    6038:	008001c4 	movi	r2,7
    603c:	af000015 	stw	fp,0(r21)
    6040:	ac000115 	stw	r16,4(r21)
    6044:	dc800e15 	stw	r18,56(sp)
    6048:	dc400d15 	stw	r17,52(sp)
    604c:	14416116 	blt	r2,r17,65d4 <___vfprintf_internal_r+0xe0c>
    6050:	ad400204 	addi	r21,r21,8
    6054:	003f2406 	br	5ce8 <___vfprintf_internal_r+0x520>
    6058:	d9014f17 	ldw	r4,1340(sp)
    605c:	000a9b80 	call	a9b8 <__sinit>
    6060:	d9c15117 	ldw	r7,1348(sp)
    6064:	003def06 	br	5824 <___vfprintf_internal_r+0x5c>
    6068:	d9014f17 	ldw	r4,1340(sp)
    606c:	b00b883a 	mov	r5,r22
    6070:	d9c15115 	stw	r7,1348(sp)
    6074:	0008e180 	call	8e18 <__swsetup_r>
    6078:	d9c15117 	ldw	r7,1348(sp)
    607c:	103dee26 	beq	r2,zero,5838 <___vfprintf_internal_r+0x70>
    6080:	003f8c06 	br	5eb4 <___vfprintf_internal_r+0x6ec>
    6084:	d9014217 	ldw	r4,1288(sp)
    6088:	d9414317 	ldw	r5,1292(sp)
    608c:	000d883a 	mov	r6,zero
    6090:	000f883a 	mov	r7,zero
    6094:	0012fe40 	call	12fe4 <__eqdf2>
    6098:	1000f21e 	bne	r2,zero,6464 <___vfprintf_internal_r+0xc9c>
    609c:	008000b4 	movhi	r2,2
    60a0:	10a0fd04 	addi	r2,r2,-31756
    60a4:	94800044 	addi	r18,r18,1
    60a8:	8c400044 	addi	r17,r17,1
    60ac:	a8800015 	stw	r2,0(r21)
    60b0:	00c00044 	movi	r3,1
    60b4:	008001c4 	movi	r2,7
    60b8:	a8c00115 	stw	r3,4(r21)
    60bc:	dc800e15 	stw	r18,56(sp)
    60c0:	dc400d15 	stw	r17,52(sp)
    60c4:	1442fa16 	blt	r2,r17,6cb0 <___vfprintf_internal_r+0x14e8>
    60c8:	a8c00204 	addi	r3,r21,8
    60cc:	d8800517 	ldw	r2,20(sp)
    60d0:	d9014717 	ldw	r4,1308(sp)
    60d4:	11015c0e 	bge	r2,r4,6648 <___vfprintf_internal_r+0xe80>
    60d8:	dc400d17 	ldw	r17,52(sp)
    60dc:	d9814917 	ldw	r6,1316(sp)
    60e0:	00800044 	movi	r2,1
    60e4:	94800044 	addi	r18,r18,1
    60e8:	8c400044 	addi	r17,r17,1
    60ec:	18800115 	stw	r2,4(r3)
    60f0:	008001c4 	movi	r2,7
    60f4:	19800015 	stw	r6,0(r3)
    60f8:	dc800e15 	stw	r18,56(sp)
    60fc:	dc400d15 	stw	r17,52(sp)
    6100:	14431016 	blt	r2,r17,6d44 <___vfprintf_internal_r+0x157c>
    6104:	18c00204 	addi	r3,r3,8
    6108:	d8814717 	ldw	r2,1308(sp)
    610c:	143fffc4 	addi	r16,r2,-1
    6110:	043f2b0e 	bge	zero,r16,5dc0 <___vfprintf_internal_r+0x5f8>
    6114:	00800404 	movi	r2,16
    6118:	1402a20e 	bge	r2,r16,6ba4 <___vfprintf_internal_r+0x13dc>
    611c:	dc400d17 	ldw	r17,52(sp)
    6120:	1027883a 	mov	r19,r2
    6124:	070000b4 	movhi	fp,2
    6128:	e720fd84 	addi	fp,fp,-31754
    612c:	050001c4 	movi	r20,7
    6130:	00000306 	br	6140 <___vfprintf_internal_r+0x978>
    6134:	18c00204 	addi	r3,r3,8
    6138:	843ffc04 	addi	r16,r16,-16
    613c:	9c029c0e 	bge	r19,r16,6bb0 <___vfprintf_internal_r+0x13e8>
    6140:	94800404 	addi	r18,r18,16
    6144:	8c400044 	addi	r17,r17,1
    6148:	1f000015 	stw	fp,0(r3)
    614c:	1cc00115 	stw	r19,4(r3)
    6150:	dc800e15 	stw	r18,56(sp)
    6154:	dc400d15 	stw	r17,52(sp)
    6158:	a47ff60e 	bge	r20,r17,6134 <___vfprintf_internal_r+0x96c>
    615c:	d9014f17 	ldw	r4,1340(sp)
    6160:	b00b883a 	mov	r5,r22
    6164:	d9800c04 	addi	r6,sp,48
    6168:	00057700 	call	5770 <__sprint_r>
    616c:	103f4e1e 	bne	r2,zero,5ea8 <___vfprintf_internal_r+0x6e0>
    6170:	dc800e17 	ldw	r18,56(sp)
    6174:	dc400d17 	ldw	r17,52(sp)
    6178:	d8c01904 	addi	r3,sp,100
    617c:	003fee06 	br	6138 <___vfprintf_internal_r+0x970>
    6180:	d8802c0b 	ldhu	r2,176(sp)
    6184:	00ffffc4 	movi	r3,-1
    6188:	d8c14b15 	stw	r3,1324(sp)
    618c:	1080100c 	andi	r2,r2,64
    6190:	103dcc1e 	bne	r2,zero,58c4 <___vfprintf_internal_r+0xfc>
    6194:	003dce06 	br	58d0 <___vfprintf_internal_r+0x108>
    6198:	d9014f17 	ldw	r4,1340(sp)
    619c:	b00b883a 	mov	r5,r22
    61a0:	d9800c04 	addi	r6,sp,48
    61a4:	00057700 	call	5770 <__sprint_r>
    61a8:	103f3f1e 	bne	r2,zero,5ea8 <___vfprintf_internal_r+0x6e0>
    61ac:	dc800e17 	ldw	r18,56(sp)
    61b0:	003f2e06 	br	5e6c <___vfprintf_internal_r+0x6a4>
    61b4:	d9414c17 	ldw	r5,1328(sp)
    61b8:	29400414 	ori	r5,r5,16
    61bc:	d9414c15 	stw	r5,1328(sp)
    61c0:	d9814c17 	ldw	r6,1328(sp)
    61c4:	3080080c 	andi	r2,r6,32
    61c8:	10014f1e 	bne	r2,zero,6708 <___vfprintf_internal_r+0xf40>
    61cc:	d8c14c17 	ldw	r3,1328(sp)
    61d0:	1880040c 	andi	r2,r3,16
    61d4:	1002ea1e 	bne	r2,zero,6d80 <___vfprintf_internal_r+0x15b8>
    61d8:	d9014c17 	ldw	r4,1328(sp)
    61dc:	2080100c 	andi	r2,r4,64
    61e0:	1002e726 	beq	r2,zero,6d80 <___vfprintf_internal_r+0x15b8>
    61e4:	3880000f 	ldh	r2,0(r7)
    61e8:	39c00104 	addi	r7,r7,4
    61ec:	d9c14015 	stw	r7,1280(sp)
    61f0:	1023d7fa 	srai	r17,r2,31
    61f4:	1021883a 	mov	r16,r2
    61f8:	88037216 	blt	r17,zero,6fc4 <___vfprintf_internal_r+0x17fc>
    61fc:	01000044 	movi	r4,1
    6200:	98000416 	blt	r19,zero,6214 <___vfprintf_internal_r+0xa4c>
    6204:	d8c14c17 	ldw	r3,1328(sp)
    6208:	00bfdfc4 	movi	r2,-129
    620c:	1886703a 	and	r3,r3,r2
    6210:	d8c14c15 	stw	r3,1328(sp)
    6214:	8444b03a 	or	r2,r16,r17
    6218:	1002261e 	bne	r2,zero,6ab4 <___vfprintf_internal_r+0x12ec>
    621c:	9802251e 	bne	r19,zero,6ab4 <___vfprintf_internal_r+0x12ec>
    6220:	20803fcc 	andi	r2,r4,255
    6224:	10029b26 	beq	r2,zero,6c94 <___vfprintf_internal_r+0x14cc>
    6228:	d8c01904 	addi	r3,sp,100
    622c:	dd000f04 	addi	r20,sp,60
    6230:	d8c14115 	stw	r3,1284(sp)
    6234:	d8c14117 	ldw	r3,1284(sp)
    6238:	dcc14515 	stw	r19,1300(sp)
    623c:	a0c5c83a 	sub	r2,r20,r3
    6240:	11c00a04 	addi	r7,r2,40
    6244:	99c0010e 	bge	r19,r7,624c <___vfprintf_internal_r+0xa84>
    6248:	d9c14515 	stw	r7,1300(sp)
    624c:	dcc14615 	stw	r19,1304(sp)
    6250:	d8800407 	ldb	r2,16(sp)
    6254:	103e4c26 	beq	r2,zero,5b88 <___vfprintf_internal_r+0x3c0>
    6258:	d8814517 	ldw	r2,1300(sp)
    625c:	10800044 	addi	r2,r2,1
    6260:	d8814515 	stw	r2,1300(sp)
    6264:	003e4806 	br	5b88 <___vfprintf_internal_r+0x3c0>
    6268:	d9814c17 	ldw	r6,1328(sp)
    626c:	31800414 	ori	r6,r6,16
    6270:	d9814c15 	stw	r6,1328(sp)
    6274:	d8c14c17 	ldw	r3,1328(sp)
    6278:	1880080c 	andi	r2,r3,32
    627c:	1001271e 	bne	r2,zero,671c <___vfprintf_internal_r+0xf54>
    6280:	d9414c17 	ldw	r5,1328(sp)
    6284:	2880040c 	andi	r2,r5,16
    6288:	1002b61e 	bne	r2,zero,6d64 <___vfprintf_internal_r+0x159c>
    628c:	d9814c17 	ldw	r6,1328(sp)
    6290:	3080100c 	andi	r2,r6,64
    6294:	1002b326 	beq	r2,zero,6d64 <___vfprintf_internal_r+0x159c>
    6298:	3c00000b 	ldhu	r16,0(r7)
    629c:	0009883a 	mov	r4,zero
    62a0:	39c00104 	addi	r7,r7,4
    62a4:	0023883a 	mov	r17,zero
    62a8:	d9c14015 	stw	r7,1280(sp)
    62ac:	d8000405 	stb	zero,16(sp)
    62b0:	003fd306 	br	6200 <___vfprintf_internal_r+0xa38>
    62b4:	d9014c17 	ldw	r4,1328(sp)
    62b8:	21000414 	ori	r4,r4,16
    62bc:	d9014c15 	stw	r4,1328(sp)
    62c0:	d9414c17 	ldw	r5,1328(sp)
    62c4:	2880080c 	andi	r2,r5,32
    62c8:	1001081e 	bne	r2,zero,66ec <___vfprintf_internal_r+0xf24>
    62cc:	d8c14c17 	ldw	r3,1328(sp)
    62d0:	1880040c 	andi	r2,r3,16
    62d4:	1002b01e 	bne	r2,zero,6d98 <___vfprintf_internal_r+0x15d0>
    62d8:	d9014c17 	ldw	r4,1328(sp)
    62dc:	2080100c 	andi	r2,r4,64
    62e0:	1002ad26 	beq	r2,zero,6d98 <___vfprintf_internal_r+0x15d0>
    62e4:	3c00000b 	ldhu	r16,0(r7)
    62e8:	01000044 	movi	r4,1
    62ec:	39c00104 	addi	r7,r7,4
    62f0:	0023883a 	mov	r17,zero
    62f4:	d9c14015 	stw	r7,1280(sp)
    62f8:	d8000405 	stb	zero,16(sp)
    62fc:	003fc006 	br	6200 <___vfprintf_internal_r+0xa38>
    6300:	d9014f17 	ldw	r4,1340(sp)
    6304:	b00b883a 	mov	r5,r22
    6308:	d9800c04 	addi	r6,sp,48
    630c:	00057700 	call	5770 <__sprint_r>
    6310:	103ee51e 	bne	r2,zero,5ea8 <___vfprintf_internal_r+0x6e0>
    6314:	dc800e17 	ldw	r18,56(sp)
    6318:	d8c01904 	addi	r3,sp,100
    631c:	d9814c17 	ldw	r6,1328(sp)
    6320:	3080004c 	andi	r2,r6,1
    6324:	1005003a 	cmpeq	r2,r2,zero
    6328:	103ea51e 	bne	r2,zero,5dc0 <___vfprintf_internal_r+0x5f8>
    632c:	00800044 	movi	r2,1
    6330:	dc400d17 	ldw	r17,52(sp)
    6334:	18800115 	stw	r2,4(r3)
    6338:	d8814917 	ldw	r2,1316(sp)
    633c:	94800044 	addi	r18,r18,1
    6340:	8c400044 	addi	r17,r17,1
    6344:	18800015 	stw	r2,0(r3)
    6348:	008001c4 	movi	r2,7
    634c:	dc800e15 	stw	r18,56(sp)
    6350:	dc400d15 	stw	r17,52(sp)
    6354:	14421e0e 	bge	r2,r17,6bd0 <___vfprintf_internal_r+0x1408>
    6358:	d9014f17 	ldw	r4,1340(sp)
    635c:	b00b883a 	mov	r5,r22
    6360:	d9800c04 	addi	r6,sp,48
    6364:	00057700 	call	5770 <__sprint_r>
    6368:	103ecf1e 	bne	r2,zero,5ea8 <___vfprintf_internal_r+0x6e0>
    636c:	dc800e17 	ldw	r18,56(sp)
    6370:	d8c01904 	addi	r3,sp,100
    6374:	003e9206 	br	5dc0 <___vfprintf_internal_r+0x5f8>
    6378:	d9014f17 	ldw	r4,1340(sp)
    637c:	b00b883a 	mov	r5,r22
    6380:	d9800c04 	addi	r6,sp,48
    6384:	00057700 	call	5770 <__sprint_r>
    6388:	103ec026 	beq	r2,zero,5e8c <___vfprintf_internal_r+0x6c4>
    638c:	003ec606 	br	5ea8 <___vfprintf_internal_r+0x6e0>
    6390:	d9014f17 	ldw	r4,1340(sp)
    6394:	b00b883a 	mov	r5,r22
    6398:	d9800c04 	addi	r6,sp,48
    639c:	d9c15115 	stw	r7,1348(sp)
    63a0:	00057700 	call	5770 <__sprint_r>
    63a4:	d9c15117 	ldw	r7,1348(sp)
    63a8:	103ebf1e 	bne	r2,zero,5ea8 <___vfprintf_internal_r+0x6e0>
    63ac:	dc800e17 	ldw	r18,56(sp)
    63b0:	dc400d17 	ldw	r17,52(sp)
    63b4:	dd401904 	addi	r21,sp,100
    63b8:	003e7406 	br	5d8c <___vfprintf_internal_r+0x5c4>
    63bc:	d9014f17 	ldw	r4,1340(sp)
    63c0:	b00b883a 	mov	r5,r22
    63c4:	d9800c04 	addi	r6,sp,48
    63c8:	d9c15115 	stw	r7,1348(sp)
    63cc:	00057700 	call	5770 <__sprint_r>
    63d0:	d9c15117 	ldw	r7,1348(sp)
    63d4:	103eb41e 	bne	r2,zero,5ea8 <___vfprintf_internal_r+0x6e0>
    63d8:	dd401904 	addi	r21,sp,100
    63dc:	003d6d06 	br	5994 <___vfprintf_internal_r+0x1cc>
    63e0:	d9014f17 	ldw	r4,1340(sp)
    63e4:	b00b883a 	mov	r5,r22
    63e8:	d9800c04 	addi	r6,sp,48
    63ec:	d9c15115 	stw	r7,1348(sp)
    63f0:	00057700 	call	5770 <__sprint_r>
    63f4:	d9c15117 	ldw	r7,1348(sp)
    63f8:	103eab1e 	bne	r2,zero,5ea8 <___vfprintf_internal_r+0x6e0>
    63fc:	dc800e17 	ldw	r18,56(sp)
    6400:	dc400d17 	ldw	r17,52(sp)
    6404:	dd401904 	addi	r21,sp,100
    6408:	003e3406 	br	5cdc <___vfprintf_internal_r+0x514>
    640c:	d9014f17 	ldw	r4,1340(sp)
    6410:	b00b883a 	mov	r5,r22
    6414:	d9800c04 	addi	r6,sp,48
    6418:	d9c15115 	stw	r7,1348(sp)
    641c:	00057700 	call	5770 <__sprint_r>
    6420:	d9c15117 	ldw	r7,1348(sp)
    6424:	103ea01e 	bne	r2,zero,5ea8 <___vfprintf_internal_r+0x6e0>
    6428:	dc800e17 	ldw	r18,56(sp)
    642c:	dc400d17 	ldw	r17,52(sp)
    6430:	dd401904 	addi	r21,sp,100
    6434:	003e1c06 	br	5ca8 <___vfprintf_internal_r+0x4e0>
    6438:	d9014f17 	ldw	r4,1340(sp)
    643c:	b00b883a 	mov	r5,r22
    6440:	d9800c04 	addi	r6,sp,48
    6444:	d9c15115 	stw	r7,1348(sp)
    6448:	00057700 	call	5770 <__sprint_r>
    644c:	d9c15117 	ldw	r7,1348(sp)
    6450:	103e951e 	bne	r2,zero,5ea8 <___vfprintf_internal_r+0x6e0>
    6454:	dc800e17 	ldw	r18,56(sp)
    6458:	dc400d17 	ldw	r17,52(sp)
    645c:	dd401904 	addi	r21,sp,100
    6460:	003e0406 	br	5c74 <___vfprintf_internal_r+0x4ac>
    6464:	d9000517 	ldw	r4,20(sp)
    6468:	0102520e 	bge	zero,r4,6db4 <___vfprintf_internal_r+0x15ec>
    646c:	d9814717 	ldw	r6,1308(sp)
    6470:	21807a16 	blt	r4,r6,665c <___vfprintf_internal_r+0xe94>
    6474:	d8814117 	ldw	r2,1284(sp)
    6478:	91a5883a 	add	r18,r18,r6
    647c:	8c400044 	addi	r17,r17,1
    6480:	a8800015 	stw	r2,0(r21)
    6484:	008001c4 	movi	r2,7
    6488:	a9800115 	stw	r6,4(r21)
    648c:	dc800e15 	stw	r18,56(sp)
    6490:	dc400d15 	stw	r17,52(sp)
    6494:	1442f616 	blt	r2,r17,7070 <___vfprintf_internal_r+0x18a8>
    6498:	a8c00204 	addi	r3,r21,8
    649c:	d9414717 	ldw	r5,1308(sp)
    64a0:	2161c83a 	sub	r16,r4,r5
    64a4:	043f9d0e 	bge	zero,r16,631c <___vfprintf_internal_r+0xb54>
    64a8:	00800404 	movi	r2,16
    64ac:	1402130e 	bge	r2,r16,6cfc <___vfprintf_internal_r+0x1534>
    64b0:	dc400d17 	ldw	r17,52(sp)
    64b4:	1027883a 	mov	r19,r2
    64b8:	070000b4 	movhi	fp,2
    64bc:	e720fd84 	addi	fp,fp,-31754
    64c0:	050001c4 	movi	r20,7
    64c4:	00000306 	br	64d4 <___vfprintf_internal_r+0xd0c>
    64c8:	18c00204 	addi	r3,r3,8
    64cc:	843ffc04 	addi	r16,r16,-16
    64d0:	9c020d0e 	bge	r19,r16,6d08 <___vfprintf_internal_r+0x1540>
    64d4:	94800404 	addi	r18,r18,16
    64d8:	8c400044 	addi	r17,r17,1
    64dc:	1f000015 	stw	fp,0(r3)
    64e0:	1cc00115 	stw	r19,4(r3)
    64e4:	dc800e15 	stw	r18,56(sp)
    64e8:	dc400d15 	stw	r17,52(sp)
    64ec:	a47ff60e 	bge	r20,r17,64c8 <___vfprintf_internal_r+0xd00>
    64f0:	d9014f17 	ldw	r4,1340(sp)
    64f4:	b00b883a 	mov	r5,r22
    64f8:	d9800c04 	addi	r6,sp,48
    64fc:	00057700 	call	5770 <__sprint_r>
    6500:	103e691e 	bne	r2,zero,5ea8 <___vfprintf_internal_r+0x6e0>
    6504:	dc800e17 	ldw	r18,56(sp)
    6508:	dc400d17 	ldw	r17,52(sp)
    650c:	d8c01904 	addi	r3,sp,100
    6510:	003fee06 	br	64cc <___vfprintf_internal_r+0xd04>
    6514:	d8814717 	ldw	r2,1308(sp)
    6518:	143fffc4 	addi	r16,r2,-1
    651c:	043e970e 	bge	zero,r16,5f7c <___vfprintf_internal_r+0x7b4>
    6520:	00800404 	movi	r2,16
    6524:	1400180e 	bge	r2,r16,6588 <___vfprintf_internal_r+0xdc0>
    6528:	1029883a 	mov	r20,r2
    652c:	070000b4 	movhi	fp,2
    6530:	e720fd84 	addi	fp,fp,-31754
    6534:	054001c4 	movi	r21,7
    6538:	00000306 	br	6548 <___vfprintf_internal_r+0xd80>
    653c:	9cc00204 	addi	r19,r19,8
    6540:	843ffc04 	addi	r16,r16,-16
    6544:	a400120e 	bge	r20,r16,6590 <___vfprintf_internal_r+0xdc8>
    6548:	94800404 	addi	r18,r18,16
    654c:	8c400044 	addi	r17,r17,1
    6550:	9f000015 	stw	fp,0(r19)
    6554:	9d000115 	stw	r20,4(r19)
    6558:	dc800e15 	stw	r18,56(sp)
    655c:	dc400d15 	stw	r17,52(sp)
    6560:	ac7ff60e 	bge	r21,r17,653c <___vfprintf_internal_r+0xd74>
    6564:	d9014f17 	ldw	r4,1340(sp)
    6568:	b00b883a 	mov	r5,r22
    656c:	d9800c04 	addi	r6,sp,48
    6570:	00057700 	call	5770 <__sprint_r>
    6574:	103e4c1e 	bne	r2,zero,5ea8 <___vfprintf_internal_r+0x6e0>
    6578:	dc800e17 	ldw	r18,56(sp)
    657c:	dc400d17 	ldw	r17,52(sp)
    6580:	dcc01904 	addi	r19,sp,100
    6584:	003fee06 	br	6540 <___vfprintf_internal_r+0xd78>
    6588:	070000b4 	movhi	fp,2
    658c:	e720fd84 	addi	fp,fp,-31754
    6590:	9425883a 	add	r18,r18,r16
    6594:	8c400044 	addi	r17,r17,1
    6598:	008001c4 	movi	r2,7
    659c:	9f000015 	stw	fp,0(r19)
    65a0:	9c000115 	stw	r16,4(r19)
    65a4:	dc800e15 	stw	r18,56(sp)
    65a8:	dc400d15 	stw	r17,52(sp)
    65ac:	147e720e 	bge	r2,r17,5f78 <___vfprintf_internal_r+0x7b0>
    65b0:	d9014f17 	ldw	r4,1340(sp)
    65b4:	b00b883a 	mov	r5,r22
    65b8:	d9800c04 	addi	r6,sp,48
    65bc:	00057700 	call	5770 <__sprint_r>
    65c0:	103e391e 	bne	r2,zero,5ea8 <___vfprintf_internal_r+0x6e0>
    65c4:	dc800e17 	ldw	r18,56(sp)
    65c8:	dc400d17 	ldw	r17,52(sp)
    65cc:	dcc01904 	addi	r19,sp,100
    65d0:	003e6a06 	br	5f7c <___vfprintf_internal_r+0x7b4>
    65d4:	d9014f17 	ldw	r4,1340(sp)
    65d8:	b00b883a 	mov	r5,r22
    65dc:	d9800c04 	addi	r6,sp,48
    65e0:	d9c15115 	stw	r7,1348(sp)
    65e4:	00057700 	call	5770 <__sprint_r>
    65e8:	d9c15117 	ldw	r7,1348(sp)
    65ec:	103e2e1e 	bne	r2,zero,5ea8 <___vfprintf_internal_r+0x6e0>
    65f0:	dc800e17 	ldw	r18,56(sp)
    65f4:	dc400d17 	ldw	r17,52(sp)
    65f8:	dd401904 	addi	r21,sp,100
    65fc:	003dba06 	br	5ce8 <___vfprintf_internal_r+0x520>
    6600:	d9014f17 	ldw	r4,1340(sp)
    6604:	b00b883a 	mov	r5,r22
    6608:	d9800c04 	addi	r6,sp,48
    660c:	00057700 	call	5770 <__sprint_r>
    6610:	103e251e 	bne	r2,zero,5ea8 <___vfprintf_internal_r+0x6e0>
    6614:	dc800e17 	ldw	r18,56(sp)
    6618:	dc400d17 	ldw	r17,52(sp)
    661c:	dcc01904 	addi	r19,sp,100
    6620:	003e4206 	br	5f2c <___vfprintf_internal_r+0x764>
    6624:	d9014f17 	ldw	r4,1340(sp)
    6628:	b00b883a 	mov	r5,r22
    662c:	d9800c04 	addi	r6,sp,48
    6630:	00057700 	call	5770 <__sprint_r>
    6634:	103e1c1e 	bne	r2,zero,5ea8 <___vfprintf_internal_r+0x6e0>
    6638:	dc800e17 	ldw	r18,56(sp)
    663c:	dc400d17 	ldw	r17,52(sp)
    6640:	d8c01904 	addi	r3,sp,100
    6644:	003e2e06 	br	5f00 <___vfprintf_internal_r+0x738>
    6648:	d9414c17 	ldw	r5,1328(sp)
    664c:	2880004c 	andi	r2,r5,1
    6650:	1005003a 	cmpeq	r2,r2,zero
    6654:	103dda1e 	bne	r2,zero,5dc0 <___vfprintf_internal_r+0x5f8>
    6658:	003e9f06 	br	60d8 <___vfprintf_internal_r+0x910>
    665c:	d8c14117 	ldw	r3,1284(sp)
    6660:	9125883a 	add	r18,r18,r4
    6664:	8c400044 	addi	r17,r17,1
    6668:	008001c4 	movi	r2,7
    666c:	a8c00015 	stw	r3,0(r21)
    6670:	a9000115 	stw	r4,4(r21)
    6674:	dc800e15 	stw	r18,56(sp)
    6678:	dc400d15 	stw	r17,52(sp)
    667c:	14426616 	blt	r2,r17,7018 <___vfprintf_internal_r+0x1850>
    6680:	a8c00204 	addi	r3,r21,8
    6684:	d9414917 	ldw	r5,1316(sp)
    6688:	00800044 	movi	r2,1
    668c:	94800044 	addi	r18,r18,1
    6690:	8c400044 	addi	r17,r17,1
    6694:	18800115 	stw	r2,4(r3)
    6698:	008001c4 	movi	r2,7
    669c:	19400015 	stw	r5,0(r3)
    66a0:	dc800e15 	stw	r18,56(sp)
    66a4:	dc400d15 	stw	r17,52(sp)
    66a8:	2021883a 	mov	r16,r4
    66ac:	14425016 	blt	r2,r17,6ff0 <___vfprintf_internal_r+0x1828>
    66b0:	19400204 	addi	r5,r3,8
    66b4:	d9814717 	ldw	r6,1308(sp)
    66b8:	8c400044 	addi	r17,r17,1
    66bc:	dc400d15 	stw	r17,52(sp)
    66c0:	3107c83a 	sub	r3,r6,r4
    66c4:	d9014117 	ldw	r4,1284(sp)
    66c8:	90e5883a 	add	r18,r18,r3
    66cc:	28c00115 	stw	r3,4(r5)
    66d0:	8105883a 	add	r2,r16,r4
    66d4:	28800015 	stw	r2,0(r5)
    66d8:	008001c4 	movi	r2,7
    66dc:	dc800e15 	stw	r18,56(sp)
    66e0:	147f1d16 	blt	r2,r17,6358 <___vfprintf_internal_r+0xb90>
    66e4:	28c00204 	addi	r3,r5,8
    66e8:	003db506 	br	5dc0 <___vfprintf_internal_r+0x5f8>
    66ec:	3c000017 	ldw	r16,0(r7)
    66f0:	3c400117 	ldw	r17,4(r7)
    66f4:	39800204 	addi	r6,r7,8
    66f8:	01000044 	movi	r4,1
    66fc:	d9814015 	stw	r6,1280(sp)
    6700:	d8000405 	stb	zero,16(sp)
    6704:	003ebe06 	br	6200 <___vfprintf_internal_r+0xa38>
    6708:	3c000017 	ldw	r16,0(r7)
    670c:	3c400117 	ldw	r17,4(r7)
    6710:	38800204 	addi	r2,r7,8
    6714:	d8814015 	stw	r2,1280(sp)
    6718:	003eb706 	br	61f8 <___vfprintf_internal_r+0xa30>
    671c:	3c000017 	ldw	r16,0(r7)
    6720:	3c400117 	ldw	r17,4(r7)
    6724:	39000204 	addi	r4,r7,8
    6728:	d9014015 	stw	r4,1280(sp)
    672c:	0009883a 	mov	r4,zero
    6730:	d8000405 	stb	zero,16(sp)
    6734:	003eb206 	br	6200 <___vfprintf_internal_r+0xa38>
    6738:	38c00017 	ldw	r3,0(r7)
    673c:	39c00104 	addi	r7,r7,4
    6740:	d8c14a15 	stw	r3,1320(sp)
    6744:	1800d10e 	bge	r3,zero,6a8c <___vfprintf_internal_r+0x12c4>
    6748:	00c7c83a 	sub	r3,zero,r3
    674c:	d8c14a15 	stw	r3,1320(sp)
    6750:	d9014c17 	ldw	r4,1328(sp)
    6754:	b8c00007 	ldb	r3,0(r23)
    6758:	21000114 	ori	r4,r4,4
    675c:	d9014c15 	stw	r4,1328(sp)
    6760:	003c9806 	br	59c4 <___vfprintf_internal_r+0x1fc>
    6764:	d9814c17 	ldw	r6,1328(sp)
    6768:	3080080c 	andi	r2,r6,32
    676c:	1001f026 	beq	r2,zero,6f30 <___vfprintf_internal_r+0x1768>
    6770:	d9014b17 	ldw	r4,1324(sp)
    6774:	38800017 	ldw	r2,0(r7)
    6778:	39c00104 	addi	r7,r7,4
    677c:	d9c14015 	stw	r7,1280(sp)
    6780:	2007d7fa 	srai	r3,r4,31
    6784:	d9c14017 	ldw	r7,1280(sp)
    6788:	11000015 	stw	r4,0(r2)
    678c:	10c00115 	stw	r3,4(r2)
    6790:	003c6906 	br	5938 <___vfprintf_internal_r+0x170>
    6794:	b8c00007 	ldb	r3,0(r23)
    6798:	00801b04 	movi	r2,108
    679c:	18824f26 	beq	r3,r2,70dc <___vfprintf_internal_r+0x1914>
    67a0:	d9414c17 	ldw	r5,1328(sp)
    67a4:	29400414 	ori	r5,r5,16
    67a8:	d9414c15 	stw	r5,1328(sp)
    67ac:	003c8506 	br	59c4 <___vfprintf_internal_r+0x1fc>
    67b0:	d9814c17 	ldw	r6,1328(sp)
    67b4:	b8c00007 	ldb	r3,0(r23)
    67b8:	31800814 	ori	r6,r6,32
    67bc:	d9814c15 	stw	r6,1328(sp)
    67c0:	003c8006 	br	59c4 <___vfprintf_internal_r+0x1fc>
    67c4:	d8814c17 	ldw	r2,1328(sp)
    67c8:	3c000017 	ldw	r16,0(r7)
    67cc:	00c01e04 	movi	r3,120
    67d0:	10800094 	ori	r2,r2,2
    67d4:	d8814c15 	stw	r2,1328(sp)
    67d8:	39c00104 	addi	r7,r7,4
    67dc:	014000b4 	movhi	r5,2
    67e0:	2960e604 	addi	r5,r5,-31848
    67e4:	00800c04 	movi	r2,48
    67e8:	0023883a 	mov	r17,zero
    67ec:	01000084 	movi	r4,2
    67f0:	d9c14015 	stw	r7,1280(sp)
    67f4:	d8c14d15 	stw	r3,1332(sp)
    67f8:	d9414415 	stw	r5,1296(sp)
    67fc:	d8800445 	stb	r2,17(sp)
    6800:	d8c00485 	stb	r3,18(sp)
    6804:	d8000405 	stb	zero,16(sp)
    6808:	003e7d06 	br	6200 <___vfprintf_internal_r+0xa38>
    680c:	d8814c17 	ldw	r2,1328(sp)
    6810:	b8c00007 	ldb	r3,0(r23)
    6814:	10801014 	ori	r2,r2,64
    6818:	d8814c15 	stw	r2,1328(sp)
    681c:	003c6906 	br	59c4 <___vfprintf_internal_r+0x1fc>
    6820:	d9414c17 	ldw	r5,1328(sp)
    6824:	2880020c 	andi	r2,r5,8
    6828:	1001df26 	beq	r2,zero,6fa8 <___vfprintf_internal_r+0x17e0>
    682c:	39800017 	ldw	r6,0(r7)
    6830:	38800204 	addi	r2,r7,8
    6834:	d8814015 	stw	r2,1280(sp)
    6838:	d9814215 	stw	r6,1288(sp)
    683c:	39c00117 	ldw	r7,4(r7)
    6840:	d9c14315 	stw	r7,1292(sp)
    6844:	d9014217 	ldw	r4,1288(sp)
    6848:	d9414317 	ldw	r5,1292(sp)
    684c:	000de300 	call	de30 <__isinfd>
    6850:	10021726 	beq	r2,zero,70b0 <___vfprintf_internal_r+0x18e8>
    6854:	d9014217 	ldw	r4,1288(sp)
    6858:	d9414317 	ldw	r5,1292(sp)
    685c:	000d883a 	mov	r6,zero
    6860:	000f883a 	mov	r7,zero
    6864:	00132040 	call	13204 <__ltdf2>
    6868:	1002ca16 	blt	r2,zero,7394 <___vfprintf_internal_r+0x1bcc>
    686c:	d9414d17 	ldw	r5,1332(sp)
    6870:	008011c4 	movi	r2,71
    6874:	11420a16 	blt	r2,r5,70a0 <___vfprintf_internal_r+0x18d8>
    6878:	018000b4 	movhi	r6,2
    687c:	31a0eb04 	addi	r6,r6,-31828
    6880:	d9814115 	stw	r6,1284(sp)
    6884:	d9014c17 	ldw	r4,1328(sp)
    6888:	00c000c4 	movi	r3,3
    688c:	00bfdfc4 	movi	r2,-129
    6890:	2088703a 	and	r4,r4,r2
    6894:	180f883a 	mov	r7,r3
    6898:	d8c14515 	stw	r3,1300(sp)
    689c:	d9014c15 	stw	r4,1328(sp)
    68a0:	d8014615 	stw	zero,1304(sp)
    68a4:	003e6a06 	br	6250 <___vfprintf_internal_r+0xa88>
    68a8:	38800017 	ldw	r2,0(r7)
    68ac:	00c00044 	movi	r3,1
    68b0:	39c00104 	addi	r7,r7,4
    68b4:	d9c14015 	stw	r7,1280(sp)
    68b8:	d9000f04 	addi	r4,sp,60
    68bc:	180f883a 	mov	r7,r3
    68c0:	d8c14515 	stw	r3,1300(sp)
    68c4:	d9014115 	stw	r4,1284(sp)
    68c8:	d8800f05 	stb	r2,60(sp)
    68cc:	d8000405 	stb	zero,16(sp)
    68d0:	003cac06 	br	5b84 <___vfprintf_internal_r+0x3bc>
    68d4:	014000b4 	movhi	r5,2
    68d8:	2960f104 	addi	r5,r5,-31804
    68dc:	d9414415 	stw	r5,1296(sp)
    68e0:	d9814c17 	ldw	r6,1328(sp)
    68e4:	3080080c 	andi	r2,r6,32
    68e8:	1000f926 	beq	r2,zero,6cd0 <___vfprintf_internal_r+0x1508>
    68ec:	3c000017 	ldw	r16,0(r7)
    68f0:	3c400117 	ldw	r17,4(r7)
    68f4:	38800204 	addi	r2,r7,8
    68f8:	d8814015 	stw	r2,1280(sp)
    68fc:	d9414c17 	ldw	r5,1328(sp)
    6900:	2880004c 	andi	r2,r5,1
    6904:	1005003a 	cmpeq	r2,r2,zero
    6908:	1000b31e 	bne	r2,zero,6bd8 <___vfprintf_internal_r+0x1410>
    690c:	8444b03a 	or	r2,r16,r17
    6910:	1000b126 	beq	r2,zero,6bd8 <___vfprintf_internal_r+0x1410>
    6914:	d9814d17 	ldw	r6,1332(sp)
    6918:	29400094 	ori	r5,r5,2
    691c:	00800c04 	movi	r2,48
    6920:	01000084 	movi	r4,2
    6924:	d9414c15 	stw	r5,1328(sp)
    6928:	d8800445 	stb	r2,17(sp)
    692c:	d9800485 	stb	r6,18(sp)
    6930:	d8000405 	stb	zero,16(sp)
    6934:	003e3206 	br	6200 <___vfprintf_internal_r+0xa38>
    6938:	018000b4 	movhi	r6,2
    693c:	31a0e604 	addi	r6,r6,-31848
    6940:	d9814415 	stw	r6,1296(sp)
    6944:	003fe606 	br	68e0 <___vfprintf_internal_r+0x1118>
    6948:	00800ac4 	movi	r2,43
    694c:	d8800405 	stb	r2,16(sp)
    6950:	b8c00007 	ldb	r3,0(r23)
    6954:	003c1b06 	br	59c4 <___vfprintf_internal_r+0x1fc>
    6958:	d8814c17 	ldw	r2,1328(sp)
    695c:	b8c00007 	ldb	r3,0(r23)
    6960:	10800054 	ori	r2,r2,1
    6964:	d8814c15 	stw	r2,1328(sp)
    6968:	003c1606 	br	59c4 <___vfprintf_internal_r+0x1fc>
    696c:	d8800407 	ldb	r2,16(sp)
    6970:	1000461e 	bne	r2,zero,6a8c <___vfprintf_internal_r+0x12c4>
    6974:	00800804 	movi	r2,32
    6978:	d8800405 	stb	r2,16(sp)
    697c:	b8c00007 	ldb	r3,0(r23)
    6980:	003c1006 	br	59c4 <___vfprintf_internal_r+0x1fc>
    6984:	d9814c17 	ldw	r6,1328(sp)
    6988:	b8c00007 	ldb	r3,0(r23)
    698c:	31800214 	ori	r6,r6,8
    6990:	d9814c15 	stw	r6,1328(sp)
    6994:	003c0b06 	br	59c4 <___vfprintf_internal_r+0x1fc>
    6998:	0007883a 	mov	r3,zero
    699c:	01000244 	movi	r4,9
    69a0:	188002a4 	muli	r2,r3,10
    69a4:	b8c00007 	ldb	r3,0(r23)
    69a8:	d9814d17 	ldw	r6,1332(sp)
    69ac:	bdc00044 	addi	r23,r23,1
    69b0:	d8c14d15 	stw	r3,1332(sp)
    69b4:	d9414d17 	ldw	r5,1332(sp)
    69b8:	3085883a 	add	r2,r6,r2
    69bc:	10fff404 	addi	r3,r2,-48
    69c0:	28bff404 	addi	r2,r5,-48
    69c4:	20bff62e 	bgeu	r4,r2,69a0 <___vfprintf_internal_r+0x11d8>
    69c8:	d8c14a15 	stw	r3,1320(sp)
    69cc:	003bff06 	br	59cc <___vfprintf_internal_r+0x204>
    69d0:	d9414c17 	ldw	r5,1328(sp)
    69d4:	b8c00007 	ldb	r3,0(r23)
    69d8:	29402014 	ori	r5,r5,128
    69dc:	d9414c15 	stw	r5,1328(sp)
    69e0:	003bf806 	br	59c4 <___vfprintf_internal_r+0x1fc>
    69e4:	b8c00007 	ldb	r3,0(r23)
    69e8:	00800a84 	movi	r2,42
    69ec:	bdc00044 	addi	r23,r23,1
    69f0:	18831526 	beq	r3,r2,7648 <___vfprintf_internal_r+0x1e80>
    69f4:	d8c14d15 	stw	r3,1332(sp)
    69f8:	18bff404 	addi	r2,r3,-48
    69fc:	00c00244 	movi	r3,9
    6a00:	18827836 	bltu	r3,r2,73e4 <___vfprintf_internal_r+0x1c1c>
    6a04:	000d883a 	mov	r6,zero
    6a08:	308002a4 	muli	r2,r6,10
    6a0c:	b9800007 	ldb	r6,0(r23)
    6a10:	d9414d17 	ldw	r5,1332(sp)
    6a14:	bdc00044 	addi	r23,r23,1
    6a18:	d9814d15 	stw	r6,1332(sp)
    6a1c:	d9014d17 	ldw	r4,1332(sp)
    6a20:	1145883a 	add	r2,r2,r5
    6a24:	11bff404 	addi	r6,r2,-48
    6a28:	20bff404 	addi	r2,r4,-48
    6a2c:	18bff62e 	bgeu	r3,r2,6a08 <___vfprintf_internal_r+0x1240>
    6a30:	3027883a 	mov	r19,r6
    6a34:	303be50e 	bge	r6,zero,59cc <___vfprintf_internal_r+0x204>
    6a38:	04ffffc4 	movi	r19,-1
    6a3c:	003be306 	br	59cc <___vfprintf_internal_r+0x204>
    6a40:	d8000405 	stb	zero,16(sp)
    6a44:	39800017 	ldw	r6,0(r7)
    6a48:	39c00104 	addi	r7,r7,4
    6a4c:	d9c14015 	stw	r7,1280(sp)
    6a50:	d9814115 	stw	r6,1284(sp)
    6a54:	3001c926 	beq	r6,zero,717c <___vfprintf_internal_r+0x19b4>
    6a58:	98000e16 	blt	r19,zero,6a94 <___vfprintf_internal_r+0x12cc>
    6a5c:	d9014117 	ldw	r4,1284(sp)
    6a60:	000b883a 	mov	r5,zero
    6a64:	980d883a 	mov	r6,r19
    6a68:	000c36c0 	call	c36c <memchr>
    6a6c:	10025926 	beq	r2,zero,73d4 <___vfprintf_internal_r+0x1c0c>
    6a70:	d8c14117 	ldw	r3,1284(sp)
    6a74:	10cfc83a 	sub	r7,r2,r3
    6a78:	99c19e16 	blt	r19,r7,70f4 <___vfprintf_internal_r+0x192c>
    6a7c:	d9c14515 	stw	r7,1300(sp)
    6a80:	38000916 	blt	r7,zero,6aa8 <___vfprintf_internal_r+0x12e0>
    6a84:	d8014615 	stw	zero,1304(sp)
    6a88:	003df106 	br	6250 <___vfprintf_internal_r+0xa88>
    6a8c:	b8c00007 	ldb	r3,0(r23)
    6a90:	003bcc06 	br	59c4 <___vfprintf_internal_r+0x1fc>
    6a94:	d9014117 	ldw	r4,1284(sp)
    6a98:	00056fc0 	call	56fc <strlen>
    6a9c:	d8814515 	stw	r2,1300(sp)
    6aa0:	100f883a 	mov	r7,r2
    6aa4:	103ff70e 	bge	r2,zero,6a84 <___vfprintf_internal_r+0x12bc>
    6aa8:	d8014515 	stw	zero,1300(sp)
    6aac:	d8014615 	stw	zero,1304(sp)
    6ab0:	003de706 	br	6250 <___vfprintf_internal_r+0xa88>
    6ab4:	20c03fcc 	andi	r3,r4,255
    6ab8:	00800044 	movi	r2,1
    6abc:	18802d26 	beq	r3,r2,6b74 <___vfprintf_internal_r+0x13ac>
    6ac0:	18800e36 	bltu	r3,r2,6afc <___vfprintf_internal_r+0x1334>
    6ac4:	00800084 	movi	r2,2
    6ac8:	1880fa26 	beq	r3,r2,6eb4 <___vfprintf_internal_r+0x16ec>
    6acc:	010000b4 	movhi	r4,2
    6ad0:	2120f604 	addi	r4,r4,-31784
    6ad4:	00056fc0 	call	56fc <strlen>
    6ad8:	100f883a 	mov	r7,r2
    6adc:	dcc14515 	stw	r19,1300(sp)
    6ae0:	9880010e 	bge	r19,r2,6ae8 <___vfprintf_internal_r+0x1320>
    6ae4:	d8814515 	stw	r2,1300(sp)
    6ae8:	008000b4 	movhi	r2,2
    6aec:	10a0f604 	addi	r2,r2,-31784
    6af0:	dcc14615 	stw	r19,1304(sp)
    6af4:	d8814115 	stw	r2,1284(sp)
    6af8:	003dd506 	br	6250 <___vfprintf_internal_r+0xa88>
    6afc:	d9401904 	addi	r5,sp,100
    6b00:	dd000f04 	addi	r20,sp,60
    6b04:	d9414115 	stw	r5,1284(sp)
    6b08:	880a977a 	slli	r5,r17,29
    6b0c:	d9814117 	ldw	r6,1284(sp)
    6b10:	8004d0fa 	srli	r2,r16,3
    6b14:	8806d0fa 	srli	r3,r17,3
    6b18:	810001cc 	andi	r4,r16,7
    6b1c:	2884b03a 	or	r2,r5,r2
    6b20:	31bfffc4 	addi	r6,r6,-1
    6b24:	21000c04 	addi	r4,r4,48
    6b28:	d9814115 	stw	r6,1284(sp)
    6b2c:	10cab03a 	or	r5,r2,r3
    6b30:	31000005 	stb	r4,0(r6)
    6b34:	1021883a 	mov	r16,r2
    6b38:	1823883a 	mov	r17,r3
    6b3c:	283ff21e 	bne	r5,zero,6b08 <___vfprintf_internal_r+0x1340>
    6b40:	d8c14c17 	ldw	r3,1328(sp)
    6b44:	1880004c 	andi	r2,r3,1
    6b48:	1005003a 	cmpeq	r2,r2,zero
    6b4c:	103db91e 	bne	r2,zero,6234 <___vfprintf_internal_r+0xa6c>
    6b50:	20803fcc 	andi	r2,r4,255
    6b54:	1080201c 	xori	r2,r2,128
    6b58:	10bfe004 	addi	r2,r2,-128
    6b5c:	00c00c04 	movi	r3,48
    6b60:	10fdb426 	beq	r2,r3,6234 <___vfprintf_internal_r+0xa6c>
    6b64:	31bfffc4 	addi	r6,r6,-1
    6b68:	d9814115 	stw	r6,1284(sp)
    6b6c:	30c00005 	stb	r3,0(r6)
    6b70:	003db006 	br	6234 <___vfprintf_internal_r+0xa6c>
    6b74:	88800068 	cmpgeui	r2,r17,1
    6b78:	10002c1e 	bne	r2,zero,6c2c <___vfprintf_internal_r+0x1464>
    6b7c:	8800021e 	bne	r17,zero,6b88 <___vfprintf_internal_r+0x13c0>
    6b80:	00800244 	movi	r2,9
    6b84:	14002936 	bltu	r2,r16,6c2c <___vfprintf_internal_r+0x1464>
    6b88:	d90018c4 	addi	r4,sp,99
    6b8c:	dd000f04 	addi	r20,sp,60
    6b90:	d9014115 	stw	r4,1284(sp)
    6b94:	d9014117 	ldw	r4,1284(sp)
    6b98:	80800c04 	addi	r2,r16,48
    6b9c:	20800005 	stb	r2,0(r4)
    6ba0:	003da406 	br	6234 <___vfprintf_internal_r+0xa6c>
    6ba4:	dc400d17 	ldw	r17,52(sp)
    6ba8:	070000b4 	movhi	fp,2
    6bac:	e720fd84 	addi	fp,fp,-31754
    6bb0:	9425883a 	add	r18,r18,r16
    6bb4:	8c400044 	addi	r17,r17,1
    6bb8:	008001c4 	movi	r2,7
    6bbc:	1f000015 	stw	fp,0(r3)
    6bc0:	1c000115 	stw	r16,4(r3)
    6bc4:	dc800e15 	stw	r18,56(sp)
    6bc8:	dc400d15 	stw	r17,52(sp)
    6bcc:	147de216 	blt	r2,r17,6358 <___vfprintf_internal_r+0xb90>
    6bd0:	18c00204 	addi	r3,r3,8
    6bd4:	003c7a06 	br	5dc0 <___vfprintf_internal_r+0x5f8>
    6bd8:	01000084 	movi	r4,2
    6bdc:	d8000405 	stb	zero,16(sp)
    6be0:	003d8706 	br	6200 <___vfprintf_internal_r+0xa38>
    6be4:	d9814c17 	ldw	r6,1328(sp)
    6be8:	30c4703a 	and	r2,r6,r3
    6bec:	1005003a 	cmpeq	r2,r2,zero
    6bf0:	103cb926 	beq	r2,zero,5ed8 <___vfprintf_internal_r+0x710>
    6bf4:	d9014117 	ldw	r4,1284(sp)
    6bf8:	94800044 	addi	r18,r18,1
    6bfc:	8c400044 	addi	r17,r17,1
    6c00:	008001c4 	movi	r2,7
    6c04:	a9000015 	stw	r4,0(r21)
    6c08:	a8c00115 	stw	r3,4(r21)
    6c0c:	dc800e15 	stw	r18,56(sp)
    6c10:	dc400d15 	stw	r17,52(sp)
    6c14:	147e6616 	blt	r2,r17,65b0 <___vfprintf_internal_r+0xde8>
    6c18:	acc00204 	addi	r19,r21,8
    6c1c:	003cd706 	br	5f7c <___vfprintf_internal_r+0x7b4>
    6c20:	070000b4 	movhi	fp,2
    6c24:	e720fd84 	addi	fp,fp,-31754
    6c28:	003c4f06 	br	5d68 <___vfprintf_internal_r+0x5a0>
    6c2c:	dd000f04 	addi	r20,sp,60
    6c30:	dc801904 	addi	r18,sp,100
    6c34:	8009883a 	mov	r4,r16
    6c38:	880b883a 	mov	r5,r17
    6c3c:	01800284 	movi	r6,10
    6c40:	000f883a 	mov	r7,zero
    6c44:	0011dac0 	call	11dac <__umoddi3>
    6c48:	12000c04 	addi	r8,r2,48
    6c4c:	94bfffc4 	addi	r18,r18,-1
    6c50:	8009883a 	mov	r4,r16
    6c54:	880b883a 	mov	r5,r17
    6c58:	01800284 	movi	r6,10
    6c5c:	000f883a 	mov	r7,zero
    6c60:	92000005 	stb	r8,0(r18)
    6c64:	00117d00 	call	117d0 <__udivdi3>
    6c68:	1009883a 	mov	r4,r2
    6c6c:	1021883a 	mov	r16,r2
    6c70:	18800068 	cmpgeui	r2,r3,1
    6c74:	1823883a 	mov	r17,r3
    6c78:	103fee1e 	bne	r2,zero,6c34 <___vfprintf_internal_r+0x146c>
    6c7c:	1800021e 	bne	r3,zero,6c88 <___vfprintf_internal_r+0x14c0>
    6c80:	00800244 	movi	r2,9
    6c84:	113feb36 	bltu	r2,r4,6c34 <___vfprintf_internal_r+0x146c>
    6c88:	94bfffc4 	addi	r18,r18,-1
    6c8c:	dc814115 	stw	r18,1284(sp)
    6c90:	003fc006 	br	6b94 <___vfprintf_internal_r+0x13cc>
    6c94:	d9014c17 	ldw	r4,1328(sp)
    6c98:	2080004c 	andi	r2,r4,1
    6c9c:	10009a1e 	bne	r2,zero,6f08 <___vfprintf_internal_r+0x1740>
    6ca0:	d9401904 	addi	r5,sp,100
    6ca4:	dd000f04 	addi	r20,sp,60
    6ca8:	d9414115 	stw	r5,1284(sp)
    6cac:	003d6106 	br	6234 <___vfprintf_internal_r+0xa6c>
    6cb0:	d9014f17 	ldw	r4,1340(sp)
    6cb4:	b00b883a 	mov	r5,r22
    6cb8:	d9800c04 	addi	r6,sp,48
    6cbc:	00057700 	call	5770 <__sprint_r>
    6cc0:	103c791e 	bne	r2,zero,5ea8 <___vfprintf_internal_r+0x6e0>
    6cc4:	dc800e17 	ldw	r18,56(sp)
    6cc8:	d8c01904 	addi	r3,sp,100
    6ccc:	003cff06 	br	60cc <___vfprintf_internal_r+0x904>
    6cd0:	d8c14c17 	ldw	r3,1328(sp)
    6cd4:	1880040c 	andi	r2,r3,16
    6cd8:	1000711e 	bne	r2,zero,6ea0 <___vfprintf_internal_r+0x16d8>
    6cdc:	d9014c17 	ldw	r4,1328(sp)
    6ce0:	2080100c 	andi	r2,r4,64
    6ce4:	10006e26 	beq	r2,zero,6ea0 <___vfprintf_internal_r+0x16d8>
    6ce8:	3c00000b 	ldhu	r16,0(r7)
    6cec:	0023883a 	mov	r17,zero
    6cf0:	39c00104 	addi	r7,r7,4
    6cf4:	d9c14015 	stw	r7,1280(sp)
    6cf8:	003f0006 	br	68fc <___vfprintf_internal_r+0x1134>
    6cfc:	dc400d17 	ldw	r17,52(sp)
    6d00:	070000b4 	movhi	fp,2
    6d04:	e720fd84 	addi	fp,fp,-31754
    6d08:	9425883a 	add	r18,r18,r16
    6d0c:	8c400044 	addi	r17,r17,1
    6d10:	008001c4 	movi	r2,7
    6d14:	1f000015 	stw	fp,0(r3)
    6d18:	1c000115 	stw	r16,4(r3)
    6d1c:	dc800e15 	stw	r18,56(sp)
    6d20:	dc400d15 	stw	r17,52(sp)
    6d24:	147d7616 	blt	r2,r17,6300 <___vfprintf_internal_r+0xb38>
    6d28:	18c00204 	addi	r3,r3,8
    6d2c:	003d7b06 	br	631c <___vfprintf_internal_r+0xb54>
    6d30:	dc800e17 	ldw	r18,56(sp)
    6d34:	dc400d17 	ldw	r17,52(sp)
    6d38:	070000b4 	movhi	fp,2
    6d3c:	e7210184 	addi	fp,fp,-31738
    6d40:	003bc006 	br	5c44 <___vfprintf_internal_r+0x47c>
    6d44:	d9014f17 	ldw	r4,1340(sp)
    6d48:	b00b883a 	mov	r5,r22
    6d4c:	d9800c04 	addi	r6,sp,48
    6d50:	00057700 	call	5770 <__sprint_r>
    6d54:	103c541e 	bne	r2,zero,5ea8 <___vfprintf_internal_r+0x6e0>
    6d58:	dc800e17 	ldw	r18,56(sp)
    6d5c:	d8c01904 	addi	r3,sp,100
    6d60:	003ce906 	br	6108 <___vfprintf_internal_r+0x940>
    6d64:	3c000017 	ldw	r16,0(r7)
    6d68:	0009883a 	mov	r4,zero
    6d6c:	39c00104 	addi	r7,r7,4
    6d70:	0023883a 	mov	r17,zero
    6d74:	d9c14015 	stw	r7,1280(sp)
    6d78:	d8000405 	stb	zero,16(sp)
    6d7c:	003d2006 	br	6200 <___vfprintf_internal_r+0xa38>
    6d80:	38800017 	ldw	r2,0(r7)
    6d84:	39c00104 	addi	r7,r7,4
    6d88:	d9c14015 	stw	r7,1280(sp)
    6d8c:	1023d7fa 	srai	r17,r2,31
    6d90:	1021883a 	mov	r16,r2
    6d94:	003d1806 	br	61f8 <___vfprintf_internal_r+0xa30>
    6d98:	3c000017 	ldw	r16,0(r7)
    6d9c:	01000044 	movi	r4,1
    6da0:	39c00104 	addi	r7,r7,4
    6da4:	0023883a 	mov	r17,zero
    6da8:	d9c14015 	stw	r7,1280(sp)
    6dac:	d8000405 	stb	zero,16(sp)
    6db0:	003d1306 	br	6200 <___vfprintf_internal_r+0xa38>
    6db4:	008000b4 	movhi	r2,2
    6db8:	10a0fd04 	addi	r2,r2,-31756
    6dbc:	94800044 	addi	r18,r18,1
    6dc0:	8c400044 	addi	r17,r17,1
    6dc4:	a8800015 	stw	r2,0(r21)
    6dc8:	00c00044 	movi	r3,1
    6dcc:	008001c4 	movi	r2,7
    6dd0:	a8c00115 	stw	r3,4(r21)
    6dd4:	dc800e15 	stw	r18,56(sp)
    6dd8:	dc400d15 	stw	r17,52(sp)
    6ddc:	1440ca16 	blt	r2,r17,7108 <___vfprintf_internal_r+0x1940>
    6de0:	a8c00204 	addi	r3,r21,8
    6de4:	2000061e 	bne	r4,zero,6e00 <___vfprintf_internal_r+0x1638>
    6de8:	d9414717 	ldw	r5,1308(sp)
    6dec:	2800041e 	bne	r5,zero,6e00 <___vfprintf_internal_r+0x1638>
    6df0:	d9814c17 	ldw	r6,1328(sp)
    6df4:	3080004c 	andi	r2,r6,1
    6df8:	1005003a 	cmpeq	r2,r2,zero
    6dfc:	103bf01e 	bne	r2,zero,5dc0 <___vfprintf_internal_r+0x5f8>
    6e00:	00800044 	movi	r2,1
    6e04:	dc400d17 	ldw	r17,52(sp)
    6e08:	18800115 	stw	r2,4(r3)
    6e0c:	d8814917 	ldw	r2,1316(sp)
    6e10:	94800044 	addi	r18,r18,1
    6e14:	8c400044 	addi	r17,r17,1
    6e18:	18800015 	stw	r2,0(r3)
    6e1c:	008001c4 	movi	r2,7
    6e20:	dc800e15 	stw	r18,56(sp)
    6e24:	dc400d15 	stw	r17,52(sp)
    6e28:	1440ca16 	blt	r2,r17,7154 <___vfprintf_internal_r+0x198c>
    6e2c:	18c00204 	addi	r3,r3,8
    6e30:	0121c83a 	sub	r16,zero,r4
    6e34:	0400500e 	bge	zero,r16,6f78 <___vfprintf_internal_r+0x17b0>
    6e38:	00800404 	movi	r2,16
    6e3c:	1400800e 	bge	r2,r16,7040 <___vfprintf_internal_r+0x1878>
    6e40:	1027883a 	mov	r19,r2
    6e44:	070000b4 	movhi	fp,2
    6e48:	e720fd84 	addi	fp,fp,-31754
    6e4c:	050001c4 	movi	r20,7
    6e50:	00000306 	br	6e60 <___vfprintf_internal_r+0x1698>
    6e54:	18c00204 	addi	r3,r3,8
    6e58:	843ffc04 	addi	r16,r16,-16
    6e5c:	9c007a0e 	bge	r19,r16,7048 <___vfprintf_internal_r+0x1880>
    6e60:	94800404 	addi	r18,r18,16
    6e64:	8c400044 	addi	r17,r17,1
    6e68:	1f000015 	stw	fp,0(r3)
    6e6c:	1cc00115 	stw	r19,4(r3)
    6e70:	dc800e15 	stw	r18,56(sp)
    6e74:	dc400d15 	stw	r17,52(sp)
    6e78:	a47ff60e 	bge	r20,r17,6e54 <___vfprintf_internal_r+0x168c>
    6e7c:	d9014f17 	ldw	r4,1340(sp)
    6e80:	b00b883a 	mov	r5,r22
    6e84:	d9800c04 	addi	r6,sp,48
    6e88:	00057700 	call	5770 <__sprint_r>
    6e8c:	103c061e 	bne	r2,zero,5ea8 <___vfprintf_internal_r+0x6e0>
    6e90:	dc800e17 	ldw	r18,56(sp)
    6e94:	dc400d17 	ldw	r17,52(sp)
    6e98:	d8c01904 	addi	r3,sp,100
    6e9c:	003fee06 	br	6e58 <___vfprintf_internal_r+0x1690>
    6ea0:	3c000017 	ldw	r16,0(r7)
    6ea4:	0023883a 	mov	r17,zero
    6ea8:	39c00104 	addi	r7,r7,4
    6eac:	d9c14015 	stw	r7,1280(sp)
    6eb0:	003e9206 	br	68fc <___vfprintf_internal_r+0x1134>
    6eb4:	d9401904 	addi	r5,sp,100
    6eb8:	dd000f04 	addi	r20,sp,60
    6ebc:	d9414115 	stw	r5,1284(sp)
    6ec0:	d9814417 	ldw	r6,1296(sp)
    6ec4:	880a973a 	slli	r5,r17,28
    6ec8:	8004d13a 	srli	r2,r16,4
    6ecc:	810003cc 	andi	r4,r16,15
    6ed0:	3109883a 	add	r4,r6,r4
    6ed4:	2884b03a 	or	r2,r5,r2
    6ed8:	21400003 	ldbu	r5,0(r4)
    6edc:	d9014117 	ldw	r4,1284(sp)
    6ee0:	8806d13a 	srli	r3,r17,4
    6ee4:	1021883a 	mov	r16,r2
    6ee8:	213fffc4 	addi	r4,r4,-1
    6eec:	d9014115 	stw	r4,1284(sp)
    6ef0:	d9814117 	ldw	r6,1284(sp)
    6ef4:	10c8b03a 	or	r4,r2,r3
    6ef8:	1823883a 	mov	r17,r3
    6efc:	31400005 	stb	r5,0(r6)
    6f00:	203fef1e 	bne	r4,zero,6ec0 <___vfprintf_internal_r+0x16f8>
    6f04:	003ccb06 	br	6234 <___vfprintf_internal_r+0xa6c>
    6f08:	00800c04 	movi	r2,48
    6f0c:	d98018c4 	addi	r6,sp,99
    6f10:	dd000f04 	addi	r20,sp,60
    6f14:	d88018c5 	stb	r2,99(sp)
    6f18:	d9814115 	stw	r6,1284(sp)
    6f1c:	003cc506 	br	6234 <___vfprintf_internal_r+0xa6c>
    6f20:	dc400d17 	ldw	r17,52(sp)
    6f24:	070000b4 	movhi	fp,2
    6f28:	e7210184 	addi	fp,fp,-31738
    6f2c:	003bc706 	br	5e4c <___vfprintf_internal_r+0x684>
    6f30:	d9414c17 	ldw	r5,1328(sp)
    6f34:	2880040c 	andi	r2,r5,16
    6f38:	10007c26 	beq	r2,zero,712c <___vfprintf_internal_r+0x1964>
    6f3c:	38800017 	ldw	r2,0(r7)
    6f40:	39c00104 	addi	r7,r7,4
    6f44:	d9c14015 	stw	r7,1280(sp)
    6f48:	d9814b17 	ldw	r6,1324(sp)
    6f4c:	d9c14017 	ldw	r7,1280(sp)
    6f50:	11800015 	stw	r6,0(r2)
    6f54:	003a7806 	br	5938 <___vfprintf_internal_r+0x170>
    6f58:	d9014f17 	ldw	r4,1340(sp)
    6f5c:	b00b883a 	mov	r5,r22
    6f60:	d9800c04 	addi	r6,sp,48
    6f64:	00057700 	call	5770 <__sprint_r>
    6f68:	103bcf1e 	bne	r2,zero,5ea8 <___vfprintf_internal_r+0x6e0>
    6f6c:	dc800e17 	ldw	r18,56(sp)
    6f70:	dc400d17 	ldw	r17,52(sp)
    6f74:	d8c01904 	addi	r3,sp,100
    6f78:	d9014717 	ldw	r4,1308(sp)
    6f7c:	d9414117 	ldw	r5,1284(sp)
    6f80:	8c400044 	addi	r17,r17,1
    6f84:	9125883a 	add	r18,r18,r4
    6f88:	008001c4 	movi	r2,7
    6f8c:	19400015 	stw	r5,0(r3)
    6f90:	19000115 	stw	r4,4(r3)
    6f94:	dc800e15 	stw	r18,56(sp)
    6f98:	dc400d15 	stw	r17,52(sp)
    6f9c:	147cee16 	blt	r2,r17,6358 <___vfprintf_internal_r+0xb90>
    6fa0:	18c00204 	addi	r3,r3,8
    6fa4:	003b8606 	br	5dc0 <___vfprintf_internal_r+0x5f8>
    6fa8:	38c00017 	ldw	r3,0(r7)
    6fac:	39000204 	addi	r4,r7,8
    6fb0:	d9014015 	stw	r4,1280(sp)
    6fb4:	d8c14215 	stw	r3,1288(sp)
    6fb8:	39c00117 	ldw	r7,4(r7)
    6fbc:	d9c14315 	stw	r7,1292(sp)
    6fc0:	003e2006 	br	6844 <___vfprintf_internal_r+0x107c>
    6fc4:	0005883a 	mov	r2,zero
    6fc8:	1409c83a 	sub	r4,r2,r16
    6fcc:	1105803a 	cmpltu	r2,r2,r4
    6fd0:	044bc83a 	sub	r5,zero,r17
    6fd4:	2885c83a 	sub	r2,r5,r2
    6fd8:	2021883a 	mov	r16,r4
    6fdc:	1023883a 	mov	r17,r2
    6fe0:	01000044 	movi	r4,1
    6fe4:	00800b44 	movi	r2,45
    6fe8:	d8800405 	stb	r2,16(sp)
    6fec:	003c8406 	br	6200 <___vfprintf_internal_r+0xa38>
    6ff0:	d9014f17 	ldw	r4,1340(sp)
    6ff4:	b00b883a 	mov	r5,r22
    6ff8:	d9800c04 	addi	r6,sp,48
    6ffc:	00057700 	call	5770 <__sprint_r>
    7000:	103ba91e 	bne	r2,zero,5ea8 <___vfprintf_internal_r+0x6e0>
    7004:	dc800e17 	ldw	r18,56(sp)
    7008:	dc400d17 	ldw	r17,52(sp)
    700c:	d9000517 	ldw	r4,20(sp)
    7010:	d9401904 	addi	r5,sp,100
    7014:	003da706 	br	66b4 <___vfprintf_internal_r+0xeec>
    7018:	d9014f17 	ldw	r4,1340(sp)
    701c:	b00b883a 	mov	r5,r22
    7020:	d9800c04 	addi	r6,sp,48
    7024:	00057700 	call	5770 <__sprint_r>
    7028:	103b9f1e 	bne	r2,zero,5ea8 <___vfprintf_internal_r+0x6e0>
    702c:	dc800e17 	ldw	r18,56(sp)
    7030:	dc400d17 	ldw	r17,52(sp)
    7034:	d9000517 	ldw	r4,20(sp)
    7038:	d8c01904 	addi	r3,sp,100
    703c:	003d9106 	br	6684 <___vfprintf_internal_r+0xebc>
    7040:	070000b4 	movhi	fp,2
    7044:	e720fd84 	addi	fp,fp,-31754
    7048:	9425883a 	add	r18,r18,r16
    704c:	8c400044 	addi	r17,r17,1
    7050:	008001c4 	movi	r2,7
    7054:	1f000015 	stw	fp,0(r3)
    7058:	1c000115 	stw	r16,4(r3)
    705c:	dc800e15 	stw	r18,56(sp)
    7060:	dc400d15 	stw	r17,52(sp)
    7064:	147fbc16 	blt	r2,r17,6f58 <___vfprintf_internal_r+0x1790>
    7068:	18c00204 	addi	r3,r3,8
    706c:	003fc206 	br	6f78 <___vfprintf_internal_r+0x17b0>
    7070:	d9014f17 	ldw	r4,1340(sp)
    7074:	b00b883a 	mov	r5,r22
    7078:	d9800c04 	addi	r6,sp,48
    707c:	00057700 	call	5770 <__sprint_r>
    7080:	103b891e 	bne	r2,zero,5ea8 <___vfprintf_internal_r+0x6e0>
    7084:	dc800e17 	ldw	r18,56(sp)
    7088:	d9000517 	ldw	r4,20(sp)
    708c:	d8c01904 	addi	r3,sp,100
    7090:	003d0206 	br	649c <___vfprintf_internal_r+0xcd4>
    7094:	070000b4 	movhi	fp,2
    7098:	e720fd84 	addi	fp,fp,-31754
    709c:	003be406 	br	6030 <___vfprintf_internal_r+0x868>
    70a0:	008000b4 	movhi	r2,2
    70a4:	10a0ec04 	addi	r2,r2,-31824
    70a8:	d8814115 	stw	r2,1284(sp)
    70ac:	003df506 	br	6884 <___vfprintf_internal_r+0x10bc>
    70b0:	d9014217 	ldw	r4,1288(sp)
    70b4:	d9414317 	ldw	r5,1292(sp)
    70b8:	000de700 	call	de70 <__isnand>
    70bc:	10003926 	beq	r2,zero,71a4 <___vfprintf_internal_r+0x19dc>
    70c0:	d9414d17 	ldw	r5,1332(sp)
    70c4:	008011c4 	movi	r2,71
    70c8:	1140ce16 	blt	r2,r5,7404 <___vfprintf_internal_r+0x1c3c>
    70cc:	018000b4 	movhi	r6,2
    70d0:	31a0ed04 	addi	r6,r6,-31820
    70d4:	d9814115 	stw	r6,1284(sp)
    70d8:	003dea06 	br	6884 <___vfprintf_internal_r+0x10bc>
    70dc:	d9014c17 	ldw	r4,1328(sp)
    70e0:	bdc00044 	addi	r23,r23,1
    70e4:	b8c00007 	ldb	r3,0(r23)
    70e8:	21000814 	ori	r4,r4,32
    70ec:	d9014c15 	stw	r4,1328(sp)
    70f0:	003a3406 	br	59c4 <___vfprintf_internal_r+0x1fc>
    70f4:	dcc14515 	stw	r19,1300(sp)
    70f8:	98011016 	blt	r19,zero,753c <___vfprintf_internal_r+0x1d74>
    70fc:	980f883a 	mov	r7,r19
    7100:	d8014615 	stw	zero,1304(sp)
    7104:	003c5206 	br	6250 <___vfprintf_internal_r+0xa88>
    7108:	d9014f17 	ldw	r4,1340(sp)
    710c:	b00b883a 	mov	r5,r22
    7110:	d9800c04 	addi	r6,sp,48
    7114:	00057700 	call	5770 <__sprint_r>
    7118:	103b631e 	bne	r2,zero,5ea8 <___vfprintf_internal_r+0x6e0>
    711c:	dc800e17 	ldw	r18,56(sp)
    7120:	d9000517 	ldw	r4,20(sp)
    7124:	d8c01904 	addi	r3,sp,100
    7128:	003f2e06 	br	6de4 <___vfprintf_internal_r+0x161c>
    712c:	d8c14c17 	ldw	r3,1328(sp)
    7130:	1880100c 	andi	r2,r3,64
    7134:	1000a026 	beq	r2,zero,73b8 <___vfprintf_internal_r+0x1bf0>
    7138:	38800017 	ldw	r2,0(r7)
    713c:	39c00104 	addi	r7,r7,4
    7140:	d9c14015 	stw	r7,1280(sp)
    7144:	d9014b17 	ldw	r4,1324(sp)
    7148:	d9c14017 	ldw	r7,1280(sp)
    714c:	1100000d 	sth	r4,0(r2)
    7150:	0039f906 	br	5938 <___vfprintf_internal_r+0x170>
    7154:	d9014f17 	ldw	r4,1340(sp)
    7158:	b00b883a 	mov	r5,r22
    715c:	d9800c04 	addi	r6,sp,48
    7160:	00057700 	call	5770 <__sprint_r>
    7164:	103b501e 	bne	r2,zero,5ea8 <___vfprintf_internal_r+0x6e0>
    7168:	dc800e17 	ldw	r18,56(sp)
    716c:	dc400d17 	ldw	r17,52(sp)
    7170:	d9000517 	ldw	r4,20(sp)
    7174:	d8c01904 	addi	r3,sp,100
    7178:	003f2d06 	br	6e30 <___vfprintf_internal_r+0x1668>
    717c:	00800184 	movi	r2,6
    7180:	14c09a36 	bltu	r2,r19,73ec <___vfprintf_internal_r+0x1c24>
    7184:	dcc14515 	stw	r19,1300(sp)
    7188:	9800010e 	bge	r19,zero,7190 <___vfprintf_internal_r+0x19c8>
    718c:	d8014515 	stw	zero,1300(sp)
    7190:	008000b4 	movhi	r2,2
    7194:	10a0ef04 	addi	r2,r2,-31812
    7198:	980f883a 	mov	r7,r19
    719c:	d8814115 	stw	r2,1284(sp)
    71a0:	003a7806 	br	5b84 <___vfprintf_internal_r+0x3bc>
    71a4:	00bfffc4 	movi	r2,-1
    71a8:	9880e226 	beq	r19,r2,7534 <___vfprintf_internal_r+0x1d6c>
    71ac:	d9414d17 	ldw	r5,1332(sp)
    71b0:	008019c4 	movi	r2,103
    71b4:	2880dc26 	beq	r5,r2,7528 <___vfprintf_internal_r+0x1d60>
    71b8:	008011c4 	movi	r2,71
    71bc:	2880da26 	beq	r5,r2,7528 <___vfprintf_internal_r+0x1d60>
    71c0:	d9414c17 	ldw	r5,1328(sp)
    71c4:	d9014317 	ldw	r4,1292(sp)
    71c8:	d9814217 	ldw	r6,1288(sp)
    71cc:	29404014 	ori	r5,r5,256
    71d0:	d9414c15 	stw	r5,1328(sp)
    71d4:	2000cc16 	blt	r4,zero,7508 <___vfprintf_internal_r+0x1d40>
    71d8:	3021883a 	mov	r16,r6
    71dc:	2023883a 	mov	r17,r4
    71e0:	0039883a 	mov	fp,zero
    71e4:	d9414d17 	ldw	r5,1332(sp)
    71e8:	00801984 	movi	r2,102
    71ec:	2880b726 	beq	r5,r2,74cc <___vfprintf_internal_r+0x1d04>
    71f0:	00801184 	movi	r2,70
    71f4:	2880b526 	beq	r5,r2,74cc <___vfprintf_internal_r+0x1d04>
    71f8:	00801944 	movi	r2,101
    71fc:	2880c826 	beq	r5,r2,7520 <___vfprintf_internal_r+0x1d58>
    7200:	00801144 	movi	r2,69
    7204:	2880c626 	beq	r5,r2,7520 <___vfprintf_internal_r+0x1d58>
    7208:	9829883a 	mov	r20,r19
    720c:	d9014f17 	ldw	r4,1340(sp)
    7210:	d8800504 	addi	r2,sp,20
    7214:	880d883a 	mov	r6,r17
    7218:	d8800115 	stw	r2,4(sp)
    721c:	d8c00604 	addi	r3,sp,24
    7220:	d8800704 	addi	r2,sp,28
    7224:	800b883a 	mov	r5,r16
    7228:	01c00084 	movi	r7,2
    722c:	d8c00215 	stw	r3,8(sp)
    7230:	d8800315 	stw	r2,12(sp)
    7234:	dd000015 	stw	r20,0(sp)
    7238:	000916c0 	call	916c <_dtoa_r>
    723c:	d9814d17 	ldw	r6,1332(sp)
    7240:	d8814115 	stw	r2,1284(sp)
    7244:	008019c4 	movi	r2,103
    7248:	30809526 	beq	r6,r2,74a0 <___vfprintf_internal_r+0x1cd8>
    724c:	d8c14d17 	ldw	r3,1332(sp)
    7250:	008011c4 	movi	r2,71
    7254:	18809226 	beq	r3,r2,74a0 <___vfprintf_internal_r+0x1cd8>
    7258:	d9414117 	ldw	r5,1284(sp)
    725c:	d9814d17 	ldw	r6,1332(sp)
    7260:	00801984 	movi	r2,102
    7264:	2d25883a 	add	r18,r5,r20
    7268:	30808626 	beq	r6,r2,7484 <___vfprintf_internal_r+0x1cbc>
    726c:	00801184 	movi	r2,70
    7270:	30808426 	beq	r6,r2,7484 <___vfprintf_internal_r+0x1cbc>
    7274:	000d883a 	mov	r6,zero
    7278:	000f883a 	mov	r7,zero
    727c:	880b883a 	mov	r5,r17
    7280:	8009883a 	mov	r4,r16
    7284:	0012fe40 	call	12fe4 <__eqdf2>
    7288:	1000751e 	bne	r2,zero,7460 <___vfprintf_internal_r+0x1c98>
    728c:	9005883a 	mov	r2,r18
    7290:	dc800715 	stw	r18,28(sp)
    7294:	d9014117 	ldw	r4,1284(sp)
    7298:	d9414d17 	ldw	r5,1332(sp)
    729c:	00c019c4 	movi	r3,103
    72a0:	1125c83a 	sub	r18,r2,r4
    72a4:	28c06826 	beq	r5,r3,7448 <___vfprintf_internal_r+0x1c80>
    72a8:	008011c4 	movi	r2,71
    72ac:	28806626 	beq	r5,r2,7448 <___vfprintf_internal_r+0x1c80>
    72b0:	d9000517 	ldw	r4,20(sp)
    72b4:	d8c14d17 	ldw	r3,1332(sp)
    72b8:	00801944 	movi	r2,101
    72bc:	10c05516 	blt	r2,r3,7414 <___vfprintf_internal_r+0x1c4c>
    72c0:	213fffc4 	addi	r4,r4,-1
    72c4:	d9000515 	stw	r4,20(sp)
    72c8:	d8c00805 	stb	r3,32(sp)
    72cc:	2021883a 	mov	r16,r4
    72d0:	2000c116 	blt	r4,zero,75d8 <___vfprintf_internal_r+0x1e10>
    72d4:	00800ac4 	movi	r2,43
    72d8:	d8800845 	stb	r2,33(sp)
    72dc:	00800244 	movi	r2,9
    72e0:	1400af0e 	bge	r2,r16,75a0 <___vfprintf_internal_r+0x1dd8>
    72e4:	1027883a 	mov	r19,r2
    72e8:	dc400b84 	addi	r17,sp,46
    72ec:	8009883a 	mov	r4,r16
    72f0:	01400284 	movi	r5,10
    72f4:	00051500 	call	5150 <__modsi3>
    72f8:	10800c04 	addi	r2,r2,48
    72fc:	8c7fffc4 	addi	r17,r17,-1
    7300:	8009883a 	mov	r4,r16
    7304:	01400284 	movi	r5,10
    7308:	88800005 	stb	r2,0(r17)
    730c:	00050f00 	call	50f0 <__divsi3>
    7310:	1021883a 	mov	r16,r2
    7314:	98bff516 	blt	r19,r2,72ec <___vfprintf_internal_r+0x1b24>
    7318:	10c00c04 	addi	r3,r2,48
    731c:	d88009c4 	addi	r2,sp,39
    7320:	108001c4 	addi	r2,r2,7
    7324:	897fffc4 	addi	r5,r17,-1
    7328:	88ffffc5 	stb	r3,-1(r17)
    732c:	2880a72e 	bgeu	r5,r2,75cc <___vfprintf_internal_r+0x1e04>
    7330:	1009883a 	mov	r4,r2
    7334:	d9800804 	addi	r6,sp,32
    7338:	d8c00884 	addi	r3,sp,34
    733c:	28800003 	ldbu	r2,0(r5)
    7340:	29400044 	addi	r5,r5,1
    7344:	18800005 	stb	r2,0(r3)
    7348:	18c00044 	addi	r3,r3,1
    734c:	293ffb36 	bltu	r5,r4,733c <___vfprintf_internal_r+0x1b74>
    7350:	1987c83a 	sub	r3,r3,r6
    7354:	00800044 	movi	r2,1
    7358:	d8c14815 	stw	r3,1312(sp)
    735c:	90cf883a 	add	r7,r18,r3
    7360:	1480960e 	bge	r2,r18,75bc <___vfprintf_internal_r+0x1df4>
    7364:	39c00044 	addi	r7,r7,1
    7368:	d9c14515 	stw	r7,1300(sp)
    736c:	38003416 	blt	r7,zero,7440 <___vfprintf_internal_r+0x1c78>
    7370:	e0803fcc 	andi	r2,fp,255
    7374:	1080201c 	xori	r2,r2,128
    7378:	10bfe004 	addi	r2,r2,-128
    737c:	10004e26 	beq	r2,zero,74b8 <___vfprintf_internal_r+0x1cf0>
    7380:	00800b44 	movi	r2,45
    7384:	dc814715 	stw	r18,1308(sp)
    7388:	d8014615 	stw	zero,1304(sp)
    738c:	d8800405 	stb	r2,16(sp)
    7390:	003bb106 	br	6258 <___vfprintf_internal_r+0xa90>
    7394:	00800b44 	movi	r2,45
    7398:	d8800405 	stb	r2,16(sp)
    739c:	003d3306 	br	686c <___vfprintf_internal_r+0x10a4>
    73a0:	d9014f17 	ldw	r4,1340(sp)
    73a4:	b00b883a 	mov	r5,r22
    73a8:	d9800c04 	addi	r6,sp,48
    73ac:	00057700 	call	5770 <__sprint_r>
    73b0:	103abd1e 	bne	r2,zero,5ea8 <___vfprintf_internal_r+0x6e0>
    73b4:	003abb06 	br	5ea4 <___vfprintf_internal_r+0x6dc>
    73b8:	38800017 	ldw	r2,0(r7)
    73bc:	39c00104 	addi	r7,r7,4
    73c0:	d9c14015 	stw	r7,1280(sp)
    73c4:	d9414b17 	ldw	r5,1324(sp)
    73c8:	d9c14017 	ldw	r7,1280(sp)
    73cc:	11400015 	stw	r5,0(r2)
    73d0:	00395906 	br	5938 <___vfprintf_internal_r+0x170>
    73d4:	980f883a 	mov	r7,r19
    73d8:	dcc14515 	stw	r19,1300(sp)
    73dc:	d8014615 	stw	zero,1304(sp)
    73e0:	003b9b06 	br	6250 <___vfprintf_internal_r+0xa88>
    73e4:	0027883a 	mov	r19,zero
    73e8:	00397806 	br	59cc <___vfprintf_internal_r+0x204>
    73ec:	00c000b4 	movhi	r3,2
    73f0:	18e0ef04 	addi	r3,r3,-31812
    73f4:	100f883a 	mov	r7,r2
    73f8:	d8814515 	stw	r2,1300(sp)
    73fc:	d8c14115 	stw	r3,1284(sp)
    7400:	0039e006 	br	5b84 <___vfprintf_internal_r+0x3bc>
    7404:	008000b4 	movhi	r2,2
    7408:	10a0ee04 	addi	r2,r2,-31816
    740c:	d8814115 	stw	r2,1284(sp)
    7410:	003d1c06 	br	6884 <___vfprintf_internal_r+0x10bc>
    7414:	d9414d17 	ldw	r5,1332(sp)
    7418:	00801984 	movi	r2,102
    741c:	28804926 	beq	r5,r2,7544 <___vfprintf_internal_r+0x1d7c>
    7420:	200f883a 	mov	r7,r4
    7424:	24805716 	blt	r4,r18,7584 <___vfprintf_internal_r+0x1dbc>
    7428:	d9414c17 	ldw	r5,1328(sp)
    742c:	2880004c 	andi	r2,r5,1
    7430:	10000126 	beq	r2,zero,7438 <___vfprintf_internal_r+0x1c70>
    7434:	21c00044 	addi	r7,r4,1
    7438:	d9c14515 	stw	r7,1300(sp)
    743c:	383fcc0e 	bge	r7,zero,7370 <___vfprintf_internal_r+0x1ba8>
    7440:	d8014515 	stw	zero,1300(sp)
    7444:	003fca06 	br	7370 <___vfprintf_internal_r+0x1ba8>
    7448:	d9000517 	ldw	r4,20(sp)
    744c:	00bfff04 	movi	r2,-4
    7450:	1100480e 	bge	r2,r4,7574 <___vfprintf_internal_r+0x1dac>
    7454:	99004716 	blt	r19,r4,7574 <___vfprintf_internal_r+0x1dac>
    7458:	d8c14d15 	stw	r3,1332(sp)
    745c:	003ff006 	br	7420 <___vfprintf_internal_r+0x1c58>
    7460:	d8800717 	ldw	r2,28(sp)
    7464:	14bf8b2e 	bgeu	r2,r18,7294 <___vfprintf_internal_r+0x1acc>
    7468:	9007883a 	mov	r3,r18
    746c:	01000c04 	movi	r4,48
    7470:	11000005 	stb	r4,0(r2)
    7474:	10800044 	addi	r2,r2,1
    7478:	d8800715 	stw	r2,28(sp)
    747c:	18bffc1e 	bne	r3,r2,7470 <___vfprintf_internal_r+0x1ca8>
    7480:	003f8406 	br	7294 <___vfprintf_internal_r+0x1acc>
    7484:	d8814117 	ldw	r2,1284(sp)
    7488:	10c00007 	ldb	r3,0(r2)
    748c:	00800c04 	movi	r2,48
    7490:	18805b26 	beq	r3,r2,7600 <___vfprintf_internal_r+0x1e38>
    7494:	d9000517 	ldw	r4,20(sp)
    7498:	9125883a 	add	r18,r18,r4
    749c:	003f7506 	br	7274 <___vfprintf_internal_r+0x1aac>
    74a0:	d9014c17 	ldw	r4,1328(sp)
    74a4:	2080004c 	andi	r2,r4,1
    74a8:	1005003a 	cmpeq	r2,r2,zero
    74ac:	103f6a26 	beq	r2,zero,7258 <___vfprintf_internal_r+0x1a90>
    74b0:	d8800717 	ldw	r2,28(sp)
    74b4:	003f7706 	br	7294 <___vfprintf_internal_r+0x1acc>
    74b8:	d9c14515 	stw	r7,1300(sp)
    74bc:	38004d16 	blt	r7,zero,75f4 <___vfprintf_internal_r+0x1e2c>
    74c0:	dc814715 	stw	r18,1308(sp)
    74c4:	d8014615 	stw	zero,1304(sp)
    74c8:	003b6106 	br	6250 <___vfprintf_internal_r+0xa88>
    74cc:	d9014f17 	ldw	r4,1340(sp)
    74d0:	d8800504 	addi	r2,sp,20
    74d4:	d8800115 	stw	r2,4(sp)
    74d8:	d8c00604 	addi	r3,sp,24
    74dc:	d8800704 	addi	r2,sp,28
    74e0:	800b883a 	mov	r5,r16
    74e4:	880d883a 	mov	r6,r17
    74e8:	01c000c4 	movi	r7,3
    74ec:	d8c00215 	stw	r3,8(sp)
    74f0:	d8800315 	stw	r2,12(sp)
    74f4:	dcc00015 	stw	r19,0(sp)
    74f8:	9829883a 	mov	r20,r19
    74fc:	000916c0 	call	916c <_dtoa_r>
    7500:	d8814115 	stw	r2,1284(sp)
    7504:	003f5106 	br	724c <___vfprintf_internal_r+0x1a84>
    7508:	d8c14217 	ldw	r3,1288(sp)
    750c:	d9014317 	ldw	r4,1292(sp)
    7510:	07000b44 	movi	fp,45
    7514:	1821883a 	mov	r16,r3
    7518:	2460003c 	xorhi	r17,r4,32768
    751c:	003f3106 	br	71e4 <___vfprintf_internal_r+0x1a1c>
    7520:	9d000044 	addi	r20,r19,1
    7524:	003f3906 	br	720c <___vfprintf_internal_r+0x1a44>
    7528:	983f251e 	bne	r19,zero,71c0 <___vfprintf_internal_r+0x19f8>
    752c:	04c00044 	movi	r19,1
    7530:	003f2306 	br	71c0 <___vfprintf_internal_r+0x19f8>
    7534:	04c00184 	movi	r19,6
    7538:	003f2106 	br	71c0 <___vfprintf_internal_r+0x19f8>
    753c:	d8014515 	stw	zero,1300(sp)
    7540:	003eee06 	br	70fc <___vfprintf_internal_r+0x1934>
    7544:	200f883a 	mov	r7,r4
    7548:	0100370e 	bge	zero,r4,7628 <___vfprintf_internal_r+0x1e60>
    754c:	9800031e 	bne	r19,zero,755c <___vfprintf_internal_r+0x1d94>
    7550:	d9814c17 	ldw	r6,1328(sp)
    7554:	3080004c 	andi	r2,r6,1
    7558:	103fb726 	beq	r2,zero,7438 <___vfprintf_internal_r+0x1c70>
    755c:	20800044 	addi	r2,r4,1
    7560:	98a7883a 	add	r19,r19,r2
    7564:	dcc14515 	stw	r19,1300(sp)
    7568:	980f883a 	mov	r7,r19
    756c:	983f800e 	bge	r19,zero,7370 <___vfprintf_internal_r+0x1ba8>
    7570:	003fb306 	br	7440 <___vfprintf_internal_r+0x1c78>
    7574:	d9814d17 	ldw	r6,1332(sp)
    7578:	31bfff84 	addi	r6,r6,-2
    757c:	d9814d15 	stw	r6,1332(sp)
    7580:	003f4c06 	br	72b4 <___vfprintf_internal_r+0x1aec>
    7584:	0100180e 	bge	zero,r4,75e8 <___vfprintf_internal_r+0x1e20>
    7588:	00800044 	movi	r2,1
    758c:	1485883a 	add	r2,r2,r18
    7590:	d8814515 	stw	r2,1300(sp)
    7594:	100f883a 	mov	r7,r2
    7598:	103f750e 	bge	r2,zero,7370 <___vfprintf_internal_r+0x1ba8>
    759c:	003fa806 	br	7440 <___vfprintf_internal_r+0x1c78>
    75a0:	80c00c04 	addi	r3,r16,48
    75a4:	00800c04 	movi	r2,48
    75a8:	d8c008c5 	stb	r3,35(sp)
    75ac:	d9800804 	addi	r6,sp,32
    75b0:	d8c00904 	addi	r3,sp,36
    75b4:	d8800885 	stb	r2,34(sp)
    75b8:	003f6506 	br	7350 <___vfprintf_internal_r+0x1b88>
    75bc:	d9014c17 	ldw	r4,1328(sp)
    75c0:	2084703a 	and	r2,r4,r2
    75c4:	103f9c26 	beq	r2,zero,7438 <___vfprintf_internal_r+0x1c70>
    75c8:	003f6606 	br	7364 <___vfprintf_internal_r+0x1b9c>
    75cc:	d9800804 	addi	r6,sp,32
    75d0:	d8c00884 	addi	r3,sp,34
    75d4:	003f5e06 	br	7350 <___vfprintf_internal_r+0x1b88>
    75d8:	00800b44 	movi	r2,45
    75dc:	0121c83a 	sub	r16,zero,r4
    75e0:	d8800845 	stb	r2,33(sp)
    75e4:	003f3d06 	br	72dc <___vfprintf_internal_r+0x1b14>
    75e8:	00800084 	movi	r2,2
    75ec:	1105c83a 	sub	r2,r2,r4
    75f0:	003fe606 	br	758c <___vfprintf_internal_r+0x1dc4>
    75f4:	d8014515 	stw	zero,1300(sp)
    75f8:	dc814715 	stw	r18,1308(sp)
    75fc:	003fb106 	br	74c4 <___vfprintf_internal_r+0x1cfc>
    7600:	000d883a 	mov	r6,zero
    7604:	000f883a 	mov	r7,zero
    7608:	8009883a 	mov	r4,r16
    760c:	880b883a 	mov	r5,r17
    7610:	001306c0 	call	1306c <__nedf2>
    7614:	103f9f26 	beq	r2,zero,7494 <___vfprintf_internal_r+0x1ccc>
    7618:	00800044 	movi	r2,1
    761c:	1509c83a 	sub	r4,r2,r20
    7620:	d9000515 	stw	r4,20(sp)
    7624:	003f9b06 	br	7494 <___vfprintf_internal_r+0x1ccc>
    7628:	98000d1e 	bne	r19,zero,7660 <___vfprintf_internal_r+0x1e98>
    762c:	d8c14c17 	ldw	r3,1328(sp)
    7630:	1880004c 	andi	r2,r3,1
    7634:	10000a1e 	bne	r2,zero,7660 <___vfprintf_internal_r+0x1e98>
    7638:	01000044 	movi	r4,1
    763c:	200f883a 	mov	r7,r4
    7640:	d9014515 	stw	r4,1300(sp)
    7644:	003f4a06 	br	7370 <___vfprintf_internal_r+0x1ba8>
    7648:	3cc00017 	ldw	r19,0(r7)
    764c:	39c00104 	addi	r7,r7,4
    7650:	983d0e0e 	bge	r19,zero,6a8c <___vfprintf_internal_r+0x12c4>
    7654:	b8c00007 	ldb	r3,0(r23)
    7658:	04ffffc4 	movi	r19,-1
    765c:	0038d906 	br	59c4 <___vfprintf_internal_r+0x1fc>
    7660:	9cc00084 	addi	r19,r19,2
    7664:	dcc14515 	stw	r19,1300(sp)
    7668:	980f883a 	mov	r7,r19
    766c:	983f400e 	bge	r19,zero,7370 <___vfprintf_internal_r+0x1ba8>
    7670:	003f7306 	br	7440 <___vfprintf_internal_r+0x1c78>

00007674 <__vfprintf_internal>:
    7674:	008000b4 	movhi	r2,2
    7678:	10a91504 	addi	r2,r2,-23468
    767c:	2013883a 	mov	r9,r4
    7680:	11000017 	ldw	r4,0(r2)
    7684:	2805883a 	mov	r2,r5
    7688:	300f883a 	mov	r7,r6
    768c:	480b883a 	mov	r5,r9
    7690:	100d883a 	mov	r6,r2
    7694:	00057c81 	jmpi	57c8 <___vfprintf_internal_r>

00007698 <__svfscanf_r>:
    7698:	deff4e04 	addi	sp,sp,-712
    769c:	dd80ae15 	stw	r22,696(sp)
    76a0:	dd00ac15 	stw	r20,688(sp)
    76a4:	dc40a915 	stw	r17,676(sp)
    76a8:	dc00a815 	stw	r16,672(sp)
    76ac:	dfc0b115 	stw	ra,708(sp)
    76b0:	df00b015 	stw	fp,704(sp)
    76b4:	ddc0af15 	stw	r23,700(sp)
    76b8:	dd40ad15 	stw	r21,692(sp)
    76bc:	dcc0ab15 	stw	r19,684(sp)
    76c0:	dc80aa15 	stw	r18,680(sp)
    76c4:	202d883a 	mov	r22,r4
    76c8:	2821883a 	mov	r16,r5
    76cc:	d9c0a415 	stw	r7,656(sp)
    76d0:	3029883a 	mov	r20,r6
    76d4:	d800a215 	stw	zero,648(sp)
    76d8:	0023883a 	mov	r17,zero
    76dc:	d800a115 	stw	zero,644(sp)
    76e0:	d800a015 	stw	zero,640(sp)
    76e4:	a1000007 	ldb	r4,0(r20)
    76e8:	d9000115 	stw	r4,4(sp)
    76ec:	20001f26 	beq	r4,zero,776c <__svfscanf_r+0xd4>
    76f0:	048000b4 	movhi	r18,2
    76f4:	94a91404 	addi	r18,r18,-23472
    76f8:	91800017 	ldw	r6,0(r18)
    76fc:	a5000044 	addi	r20,r20,1
    7700:	3107883a 	add	r3,r6,r4
    7704:	18800003 	ldbu	r2,0(r3)
    7708:	1080020c 	andi	r2,r2,8
    770c:	10002426 	beq	r2,zero,77a0 <__svfscanf_r+0x108>
    7710:	80c00117 	ldw	r3,4(r16)
    7714:	00c00e0e 	bge	zero,r3,7750 <__svfscanf_r+0xb8>
    7718:	81400017 	ldw	r5,0(r16)
    771c:	90800017 	ldw	r2,0(r18)
    7720:	28c00003 	ldbu	r3,0(r5)
    7724:	1887883a 	add	r3,r3,r2
    7728:	19000003 	ldbu	r4,0(r3)
    772c:	2100020c 	andi	r4,r4,8
    7730:	203fec26 	beq	r4,zero,76e4 <__svfscanf_r+0x4c>
    7734:	80c00117 	ldw	r3,4(r16)
    7738:	29800044 	addi	r6,r5,1
    773c:	8c400044 	addi	r17,r17,1
    7740:	18ffffc4 	addi	r3,r3,-1
    7744:	81800015 	stw	r6,0(r16)
    7748:	80c00115 	stw	r3,4(r16)
    774c:	00fff216 	blt	zero,r3,7718 <__svfscanf_r+0x80>
    7750:	b009883a 	mov	r4,r22
    7754:	800b883a 	mov	r5,r16
    7758:	000dc500 	call	dc50 <__srefill_r>
    775c:	103fee26 	beq	r2,zero,7718 <__svfscanf_r+0x80>
    7760:	a1000007 	ldb	r4,0(r20)
    7764:	d9000115 	stw	r4,4(sp)
    7768:	203fe11e 	bne	r4,zero,76f0 <__svfscanf_r+0x58>
    776c:	d880a217 	ldw	r2,648(sp)
    7770:	dfc0b117 	ldw	ra,708(sp)
    7774:	df00b017 	ldw	fp,704(sp)
    7778:	ddc0af17 	ldw	r23,700(sp)
    777c:	dd80ae17 	ldw	r22,696(sp)
    7780:	dd40ad17 	ldw	r21,692(sp)
    7784:	dd00ac17 	ldw	r20,688(sp)
    7788:	dcc0ab17 	ldw	r19,684(sp)
    778c:	dc80aa17 	ldw	r18,680(sp)
    7790:	dc40a917 	ldw	r17,676(sp)
    7794:	dc00a817 	ldw	r16,672(sp)
    7798:	dec0b204 	addi	sp,sp,712
    779c:	f800283a 	ret
    77a0:	00800944 	movi	r2,37
    77a4:	20801626 	beq	r4,r2,7800 <__svfscanf_r+0x168>
    77a8:	80800117 	ldw	r2,4(r16)
    77ac:	00800b0e 	bge	zero,r2,77dc <__svfscanf_r+0x144>
    77b0:	81000017 	ldw	r4,0(r16)
    77b4:	a0ffffc7 	ldb	r3,-1(r20)
    77b8:	20800003 	ldbu	r2,0(r4)
    77bc:	10ffeb1e 	bne	r2,r3,776c <__svfscanf_r+0xd4>
    77c0:	80c00117 	ldw	r3,4(r16)
    77c4:	21800044 	addi	r6,r4,1
    77c8:	8c400044 	addi	r17,r17,1
    77cc:	18ffffc4 	addi	r3,r3,-1
    77d0:	80c00115 	stw	r3,4(r16)
    77d4:	81800015 	stw	r6,0(r16)
    77d8:	003fc206 	br	76e4 <__svfscanf_r+0x4c>
    77dc:	b009883a 	mov	r4,r22
    77e0:	800b883a 	mov	r5,r16
    77e4:	000dc500 	call	dc50 <__srefill_r>
    77e8:	103ff126 	beq	r2,zero,77b0 <__svfscanf_r+0x118>
    77ec:	d900a217 	ldw	r4,648(sp)
    77f0:	2004c91e 	bne	r4,zero,8b18 <__svfscanf_r+0x1480>
    77f4:	00bfffc4 	movi	r2,-1
    77f8:	d880a215 	stw	r2,648(sp)
    77fc:	003fdb06 	br	776c <__svfscanf_r+0xd4>
    7800:	d800a315 	stw	zero,652(sp)
    7804:	0027883a 	mov	r19,zero
    7808:	a0c00003 	ldbu	r3,0(r20)
    780c:	00801e04 	movi	r2,120
    7810:	a5000044 	addi	r20,r20,1
    7814:	19403fcc 	andi	r5,r3,255
    7818:	2940201c 	xori	r5,r5,128
    781c:	297fe004 	addi	r5,r5,-128
    7820:	10c08036 	bltu	r2,r3,7a24 <__svfscanf_r+0x38c>
    7824:	18c5883a 	add	r2,r3,r3
    7828:	1085883a 	add	r2,r2,r2
    782c:	00c00034 	movhi	r3,0
    7830:	18de1004 	addi	r3,r3,30784
    7834:	10c5883a 	add	r2,r2,r3
    7838:	11000017 	ldw	r4,0(r2)
    783c:	2000683a 	jmp	r4
    7840:	000077f4 	movhi	zero,479
    7844:	00007a24 	muli	zero,zero,488
    7848:	00007a24 	muli	zero,zero,488
    784c:	00007a24 	muli	zero,zero,488
    7850:	00007a24 	muli	zero,zero,488
    7854:	00007a24 	muli	zero,zero,488
    7858:	00007a24 	muli	zero,zero,488
    785c:	00007a24 	muli	zero,zero,488
    7860:	00007a24 	muli	zero,zero,488
    7864:	00007a24 	muli	zero,zero,488
    7868:	00007a24 	muli	zero,zero,488
    786c:	00007a24 	muli	zero,zero,488
    7870:	00007a24 	muli	zero,zero,488
    7874:	00007a24 	muli	zero,zero,488
    7878:	00007a24 	muli	zero,zero,488
    787c:	00007a24 	muli	zero,zero,488
    7880:	00007a24 	muli	zero,zero,488
    7884:	00007a24 	muli	zero,zero,488
    7888:	00007a24 	muli	zero,zero,488
    788c:	00007a24 	muli	zero,zero,488
    7890:	00007a24 	muli	zero,zero,488
    7894:	00007a24 	muli	zero,zero,488
    7898:	00007a24 	muli	zero,zero,488
    789c:	00007a24 	muli	zero,zero,488
    78a0:	00007a24 	muli	zero,zero,488
    78a4:	00007a24 	muli	zero,zero,488
    78a8:	00007a24 	muli	zero,zero,488
    78ac:	00007a24 	muli	zero,zero,488
    78b0:	00007a24 	muli	zero,zero,488
    78b4:	00007a24 	muli	zero,zero,488
    78b8:	00007a24 	muli	zero,zero,488
    78bc:	00007a24 	muli	zero,zero,488
    78c0:	00007a24 	muli	zero,zero,488
    78c4:	00007a24 	muli	zero,zero,488
    78c8:	00007a24 	muli	zero,zero,488
    78cc:	00007a24 	muli	zero,zero,488
    78d0:	00007a24 	muli	zero,zero,488
    78d4:	000077a8 	cmpgeui	zero,zero,478
    78d8:	00007a24 	muli	zero,zero,488
    78dc:	00007a24 	muli	zero,zero,488
    78e0:	00007a24 	muli	zero,zero,488
    78e4:	00007a24 	muli	zero,zero,488
    78e8:	00008a48 	cmpgei	zero,zero,553
    78ec:	00007a24 	muli	zero,zero,488
    78f0:	00007a24 	muli	zero,zero,488
    78f4:	00007a24 	muli	zero,zero,488
    78f8:	00007a24 	muli	zero,zero,488
    78fc:	00007a24 	muli	zero,zero,488
    7900:	00008444 	movi	zero,529
    7904:	00008444 	movi	zero,529
    7908:	00008444 	movi	zero,529
    790c:	00008444 	movi	zero,529
    7910:	00008444 	movi	zero,529
    7914:	00008444 	movi	zero,529
    7918:	00008444 	movi	zero,529
    791c:	00008444 	movi	zero,529
    7920:	00008444 	movi	zero,529
    7924:	00008444 	movi	zero,529
    7928:	00007a24 	muli	zero,zero,488
    792c:	00007a24 	muli	zero,zero,488
    7930:	00007a24 	muli	zero,zero,488
    7934:	00007a24 	muli	zero,zero,488
    7938:	00007a24 	muli	zero,zero,488
    793c:	00007a24 	muli	zero,zero,488
    7940:	00007a24 	muli	zero,zero,488
    7944:	00007a24 	muli	zero,zero,488
    7948:	00007a24 	muli	zero,zero,488
    794c:	00007a24 	muli	zero,zero,488
    7950:	00008bc4 	movi	zero,559
    7954:	00008bbc 	xorhi	zero,zero,558
    7958:	00007a24 	muli	zero,zero,488
    795c:	00008bbc 	xorhi	zero,zero,558
    7960:	00007a24 	muli	zero,zero,488
    7964:	00007a24 	muli	zero,zero,488
    7968:	00007a24 	muli	zero,zero,488
    796c:	00007a24 	muli	zero,zero,488
    7970:	00008c54 	movui	zero,561
    7974:	00007a24 	muli	zero,zero,488
    7978:	00007a24 	muli	zero,zero,488
    797c:	00008c0c 	andi	zero,zero,560
    7980:	00007a24 	muli	zero,zero,488
    7984:	00007a24 	muli	zero,zero,488
    7988:	00007a24 	muli	zero,zero,488
    798c:	00007a24 	muli	zero,zero,488
    7990:	00007a24 	muli	zero,zero,488
    7994:	00007a24 	muli	zero,zero,488
    7998:	00007a24 	muli	zero,zero,488
    799c:	00007a24 	muli	zero,zero,488
    79a0:	00008a50 	cmplti	zero,zero,553
    79a4:	00007a24 	muli	zero,zero,488
    79a8:	00007a24 	muli	zero,zero,488
    79ac:	00008bf0 	cmpltui	zero,zero,559
    79b0:	00007a24 	muli	zero,zero,488
    79b4:	00007a24 	muli	zero,zero,488
    79b8:	00007a24 	muli	zero,zero,488
    79bc:	00007a24 	muli	zero,zero,488
    79c0:	00007a24 	muli	zero,zero,488
    79c4:	00007a24 	muli	zero,zero,488
    79c8:	00007a24 	muli	zero,zero,488
    79cc:	00008be4 	muli	zero,zero,559
    79d0:	00008bc8 	cmpgei	zero,zero,559
    79d4:	00008bbc 	xorhi	zero,zero,558
    79d8:	00008bbc 	xorhi	zero,zero,558
    79dc:	00008bbc 	xorhi	zero,zero,558
    79e0:	00008bb4 	movhi	zero,558
    79e4:	00008ca8 	cmpgeui	zero,zero,562
    79e8:	00007a24 	muli	zero,zero,488
    79ec:	00007a24 	muli	zero,zero,488
    79f0:	00008c94 	movui	zero,562
    79f4:	00007a24 	muli	zero,zero,488
    79f8:	00008c2c 	andhi	zero,zero,560
    79fc:	00008c10 	cmplti	zero,zero,560
    7a00:	00008c64 	muli	zero,zero,561
    7a04:	00007a24 	muli	zero,zero,488
    7a08:	00007a24 	muli	zero,zero,488
    7a0c:	00008c5c 	xori	zero,zero,561
    7a10:	00007a24 	muli	zero,zero,488
    7a14:	00007f94 	movui	zero,510
    7a18:	00007a24 	muli	zero,zero,488
    7a1c:	00007a24 	muli	zero,zero,488
    7a20:	00008a50 	cmplti	zero,zero,553
    7a24:	2987883a 	add	r3,r5,r6
    7a28:	18800003 	ldbu	r2,0(r3)
    7a2c:	1080004c 	andi	r2,r2,1
    7a30:	1005003a 	cmpeq	r2,r2,zero
    7a34:	10002c26 	beq	r2,zero,7ae8 <__svfscanf_r+0x450>
    7a38:	01000074 	movhi	r4,1
    7a3c:	213e4804 	addi	r4,r4,-1760
    7a40:	00800284 	movi	r2,10
    7a44:	d900a015 	stw	r4,640(sp)
    7a48:	054000c4 	movi	r21,3
    7a4c:	d880a115 	stw	r2,644(sp)
    7a50:	80c00117 	ldw	r3,4(r16)
    7a54:	00c14a0e 	bge	zero,r3,7f80 <__svfscanf_r+0x8e8>
    7a58:	9880100c 	andi	r2,r19,64
    7a5c:	10001326 	beq	r2,zero,7aac <__svfscanf_r+0x414>
    7a60:	00800104 	movi	r2,4
    7a64:	157f1f36 	bltu	r2,r21,76e4 <__svfscanf_r+0x4c>
    7a68:	ad45883a 	add	r2,r21,r21
    7a6c:	1085883a 	add	r2,r2,r2
    7a70:	00c00034 	movhi	r3,0
    7a74:	18dea104 	addi	r3,r3,31364
    7a78:	10c5883a 	add	r2,r2,r3
    7a7c:	11000017 	ldw	r4,0(r2)
    7a80:	2000683a 	jmp	r4
    7a84:	00007af0 	cmpltui	zero,zero,491
    7a88:	00007bfc 	xorhi	zero,zero,495
    7a8c:	00007c70 	cmpltui	zero,zero,497
    7a90:	00007f5c 	xori	zero,zero,509
    7a94:	00007da8 	cmpgeui	zero,zero,502
    7a98:	b009883a 	mov	r4,r22
    7a9c:	800b883a 	mov	r5,r16
    7aa0:	000dc500 	call	dc50 <__srefill_r>
    7aa4:	103f511e 	bne	r2,zero,77ec <__svfscanf_r+0x154>
    7aa8:	8c400044 	addi	r17,r17,1
    7aac:	81400017 	ldw	r5,0(r16)
    7ab0:	90800017 	ldw	r2,0(r18)
    7ab4:	28c00003 	ldbu	r3,0(r5)
    7ab8:	1887883a 	add	r3,r3,r2
    7abc:	19000003 	ldbu	r4,0(r3)
    7ac0:	2100020c 	andi	r4,r4,8
    7ac4:	203fe626 	beq	r4,zero,7a60 <__svfscanf_r+0x3c8>
    7ac8:	80c00117 	ldw	r3,4(r16)
    7acc:	18ffffc4 	addi	r3,r3,-1
    7ad0:	80c00115 	stw	r3,4(r16)
    7ad4:	00fff00e 	bge	zero,r3,7a98 <__svfscanf_r+0x400>
    7ad8:	29800044 	addi	r6,r5,1
    7adc:	8c400044 	addi	r17,r17,1
    7ae0:	81800015 	stw	r6,0(r16)
    7ae4:	003ff106 	br	7aac <__svfscanf_r+0x414>
    7ae8:	9cc00054 	ori	r19,r19,1
    7aec:	003fd206 	br	7a38 <__svfscanf_r+0x3a0>
    7af0:	d8c0a317 	ldw	r3,652(sp)
    7af4:	1800021e 	bne	r3,zero,7b00 <__svfscanf_r+0x468>
    7af8:	01000044 	movi	r4,1
    7afc:	d900a315 	stw	r4,652(sp)
    7b00:	9880004c 	andi	r2,r19,1
    7b04:	1005003a 	cmpeq	r2,r2,zero
    7b08:	1003d91e 	bne	r2,zero,8a70 <__svfscanf_r+0x13d8>
    7b0c:	9d40040c 	andi	r21,r19,16
    7b10:	a839003a 	cmpeq	fp,r21,zero
    7b14:	e0042526 	beq	fp,zero,8bac <__svfscanf_r+0x1514>
    7b18:	d880a417 	ldw	r2,656(sp)
    7b1c:	14c00017 	ldw	r19,0(r2)
    7b20:	10800104 	addi	r2,r2,4
    7b24:	d880a415 	stw	r2,656(sp)
    7b28:	d8c0a317 	ldw	r3,652(sp)
    7b2c:	18041a26 	beq	r3,zero,8b98 <__svfscanf_r+0x1500>
    7b30:	010000b4 	movhi	r4,2
    7b34:	21291704 	addi	r4,r4,-23460
    7b38:	20800017 	ldw	r2,0(r4)
    7b3c:	103f2b26 	beq	r2,zero,77ec <__svfscanf_r+0x154>
    7b40:	d8804404 	addi	r2,sp,272
    7b44:	0025883a 	mov	r18,zero
    7b48:	d880a615 	stw	r2,664(sp)
    7b4c:	05ffffc4 	movi	r23,-1
    7b50:	80800017 	ldw	r2,0(r16)
    7b54:	80c00117 	ldw	r3,4(r16)
    7b58:	d900a617 	ldw	r4,664(sp)
    7b5c:	12000003 	ldbu	r8,0(r2)
    7b60:	18ffffc4 	addi	r3,r3,-1
    7b64:	11800044 	addi	r6,r2,1
    7b68:	248f883a 	add	r7,r4,r18
    7b6c:	80c00115 	stw	r3,4(r16)
    7b70:	81800015 	stw	r6,0(r16)
    7b74:	3a000005 	stb	r8,0(r7)
    7b78:	d9000204 	addi	r4,sp,8
    7b7c:	000b883a 	mov	r5,zero
    7b80:	01800204 	movi	r6,8
    7b84:	000c5d00 	call	c5d0 <memset>
    7b88:	d980a617 	ldw	r6,664(sp)
    7b8c:	94800044 	addi	r18,r18,1
    7b90:	d8800204 	addi	r2,sp,8
    7b94:	b009883a 	mov	r4,r22
    7b98:	980b883a 	mov	r5,r19
    7b9c:	900f883a 	mov	r7,r18
    7ba0:	d8800015 	stw	r2,0(sp)
    7ba4:	000c26c0 	call	c26c <_mbrtowc_r>
    7ba8:	1007883a 	mov	r3,r2
    7bac:	15ff0f26 	beq	r2,r23,77ec <__svfscanf_r+0x154>
    7bb0:	1003f11e 	bne	r2,zero,8b78 <__svfscanf_r+0x14e0>
    7bb4:	a800011e 	bne	r21,zero,7bbc <__svfscanf_r+0x524>
    7bb8:	98000015 	stw	zero,0(r19)
    7bbc:	d8c0a317 	ldw	r3,652(sp)
    7bc0:	8ca3883a 	add	r17,r17,r18
    7bc4:	18ffffc4 	addi	r3,r3,-1
    7bc8:	d8c0a315 	stw	r3,652(sp)
    7bcc:	e0000126 	beq	fp,zero,7bd4 <__svfscanf_r+0x53c>
    7bd0:	9cc00104 	addi	r19,r19,4
    7bd4:	0025883a 	mov	r18,zero
    7bd8:	80c00117 	ldw	r3,4(r16)
    7bdc:	00c3e90e 	bge	zero,r3,8b84 <__svfscanf_r+0x14ec>
    7be0:	d900a317 	ldw	r4,652(sp)
    7be4:	2003ec26 	beq	r4,zero,8b98 <__svfscanf_r+0x1500>
    7be8:	00c000b4 	movhi	r3,2
    7bec:	18e91704 	addi	r3,r3,-23460
    7bf0:	18800017 	ldw	r2,0(r3)
    7bf4:	90bfd61e 	bne	r18,r2,7b50 <__svfscanf_r+0x4b8>
    7bf8:	003efc06 	br	77ec <__svfscanf_r+0x154>
    7bfc:	d880a317 	ldw	r2,652(sp)
    7c00:	1000021e 	bne	r2,zero,7c0c <__svfscanf_r+0x574>
    7c04:	00ffffc4 	movi	r3,-1
    7c08:	d8c0a315 	stw	r3,652(sp)
    7c0c:	9880040c 	andi	r2,r19,16
    7c10:	10036526 	beq	r2,zero,89a8 <__svfscanf_r+0x1310>
    7c14:	0027883a 	mov	r19,zero
    7c18:	dd400404 	addi	r21,sp,16
    7c1c:	81000017 	ldw	r4,0(r16)
    7c20:	20800003 	ldbu	r2,0(r4)
    7c24:	a885883a 	add	r2,r21,r2
    7c28:	10c00007 	ldb	r3,0(r2)
    7c2c:	1803be26 	beq	r3,zero,8b28 <__svfscanf_r+0x1490>
    7c30:	80c00117 	ldw	r3,4(r16)
    7c34:	21800044 	addi	r6,r4,1
    7c38:	d900a317 	ldw	r4,652(sp)
    7c3c:	18ffffc4 	addi	r3,r3,-1
    7c40:	9cc00044 	addi	r19,r19,1
    7c44:	81800015 	stw	r6,0(r16)
    7c48:	80c00115 	stw	r3,4(r16)
    7c4c:	24c3b626 	beq	r4,r19,8b28 <__svfscanf_r+0x1490>
    7c50:	00fff216 	blt	zero,r3,7c1c <__svfscanf_r+0x584>
    7c54:	b009883a 	mov	r4,r22
    7c58:	800b883a 	mov	r5,r16
    7c5c:	000dc500 	call	dc50 <__srefill_r>
    7c60:	103fee26 	beq	r2,zero,7c1c <__svfscanf_r+0x584>
    7c64:	983ee126 	beq	r19,zero,77ec <__svfscanf_r+0x154>
    7c68:	8ce3883a 	add	r17,r17,r19
    7c6c:	003e9d06 	br	76e4 <__svfscanf_r+0x4c>
    7c70:	d900a317 	ldw	r4,652(sp)
    7c74:	2000021e 	bne	r4,zero,7c80 <__svfscanf_r+0x5e8>
    7c78:	00bfffc4 	movi	r2,-1
    7c7c:	d880a315 	stw	r2,652(sp)
    7c80:	9880004c 	andi	r2,r19,1
    7c84:	1005003a 	cmpeq	r2,r2,zero
    7c88:	1001f41e 	bne	r2,zero,845c <__svfscanf_r+0xdc4>
    7c8c:	9dc0040c 	andi	r23,r19,16
    7c90:	b807003a 	cmpeq	r3,r23,zero
    7c94:	d8c0a515 	stw	r3,660(sp)
    7c98:	1803b21e 	bne	r3,zero,8b64 <__svfscanf_r+0x14cc>
    7c9c:	dd400104 	addi	r21,sp,4
    7ca0:	0027883a 	mov	r19,zero
    7ca4:	073fffc4 	movi	fp,-1
    7ca8:	81400017 	ldw	r5,0(r16)
    7cac:	90800017 	ldw	r2,0(r18)
    7cb0:	29c00003 	ldbu	r7,0(r5)
    7cb4:	38c03fcc 	andi	r3,r7,255
    7cb8:	1887883a 	add	r3,r3,r2
    7cbc:	19000003 	ldbu	r4,0(r3)
    7cc0:	2100020c 	andi	r4,r4,8
    7cc4:	2000321e 	bne	r4,zero,7d90 <__svfscanf_r+0x6f8>
    7cc8:	d8c0a317 	ldw	r3,652(sp)
    7ccc:	18003026 	beq	r3,zero,7d90 <__svfscanf_r+0x6f8>
    7cd0:	008000b4 	movhi	r2,2
    7cd4:	10a91704 	addi	r2,r2,-23460
    7cd8:	10c00017 	ldw	r3,0(r2)
    7cdc:	98fec326 	beq	r19,r3,77ec <__svfscanf_r+0x154>
    7ce0:	d8c04404 	addi	r3,sp,272
    7ce4:	80800117 	ldw	r2,4(r16)
    7ce8:	d8c0a615 	stw	r3,664(sp)
    7cec:	d900a617 	ldw	r4,664(sp)
    7cf0:	10ffffc4 	addi	r3,r2,-1
    7cf4:	29800044 	addi	r6,r5,1
    7cf8:	80c00115 	stw	r3,4(r16)
    7cfc:	24c5883a 	add	r2,r4,r19
    7d00:	81800015 	stw	r6,0(r16)
    7d04:	d9000204 	addi	r4,sp,8
    7d08:	000b883a 	mov	r5,zero
    7d0c:	01800204 	movi	r6,8
    7d10:	11c00005 	stb	r7,0(r2)
    7d14:	000c5d00 	call	c5d0 <memset>
    7d18:	d980a617 	ldw	r6,664(sp)
    7d1c:	9cc00044 	addi	r19,r19,1
    7d20:	d8800204 	addi	r2,sp,8
    7d24:	b009883a 	mov	r4,r22
    7d28:	a80b883a 	mov	r5,r21
    7d2c:	980f883a 	mov	r7,r19
    7d30:	d8800015 	stw	r2,0(sp)
    7d34:	000c26c0 	call	c26c <_mbrtowc_r>
    7d38:	1007883a 	mov	r3,r2
    7d3c:	173eab26 	beq	r2,fp,77ec <__svfscanf_r+0x154>
    7d40:	1003851e 	bne	r2,zero,8b58 <__svfscanf_r+0x14c0>
    7d44:	a8000015 	stw	zero,0(r21)
    7d48:	a9000017 	ldw	r4,0(r21)
    7d4c:	000b8a80 	call	b8a8 <iswspace>
    7d50:	1003781e 	bne	r2,zero,8b34 <__svfscanf_r+0x149c>
    7d54:	d900a317 	ldw	r4,652(sp)
    7d58:	d880a517 	ldw	r2,660(sp)
    7d5c:	8ce3883a 	add	r17,r17,r19
    7d60:	213fffc4 	addi	r4,r4,-1
    7d64:	d900a315 	stw	r4,652(sp)
    7d68:	10000126 	beq	r2,zero,7d70 <__svfscanf_r+0x6d8>
    7d6c:	ad400104 	addi	r21,r21,4
    7d70:	0027883a 	mov	r19,zero
    7d74:	80c00117 	ldw	r3,4(r16)
    7d78:	00ffcb16 	blt	zero,r3,7ca8 <__svfscanf_r+0x610>
    7d7c:	b009883a 	mov	r4,r22
    7d80:	800b883a 	mov	r5,r16
    7d84:	000dc500 	call	dc50 <__srefill_r>
    7d88:	103fc726 	beq	r2,zero,7ca8 <__svfscanf_r+0x610>
    7d8c:	983e971e 	bne	r19,zero,77ec <__svfscanf_r+0x154>
    7d90:	b83e541e 	bne	r23,zero,76e4 <__svfscanf_r+0x4c>
    7d94:	d900a217 	ldw	r4,648(sp)
    7d98:	a8000015 	stw	zero,0(r21)
    7d9c:	21000044 	addi	r4,r4,1
    7da0:	d900a215 	stw	r4,648(sp)
    7da4:	003e4f06 	br	76e4 <__svfscanf_r+0x4c>
    7da8:	d900a317 	ldw	r4,652(sp)
    7dac:	00805704 	movi	r2,348
    7db0:	20ffffc4 	addi	r3,r4,-1
    7db4:	10c1ed2e 	bgeu	r2,r3,856c <__svfscanf_r+0xed4>
    7db8:	00805744 	movi	r2,349
    7dbc:	21bfa8c4 	addi	r6,r4,-349
    7dc0:	9d41e014 	ori	r21,r19,1920
    7dc4:	d880a315 	stw	r2,652(sp)
    7dc8:	d8c04404 	addi	r3,sp,272
    7dcc:	d8c0a615 	stw	r3,664(sp)
    7dd0:	182f883a 	mov	r23,r3
    7dd4:	d8009f15 	stw	zero,636(sp)
    7dd8:	d8009e15 	stw	zero,632(sp)
    7ddc:	d8009d15 	stw	zero,628(sp)
    7de0:	d8009c15 	stw	zero,624(sp)
    7de4:	0039883a 	mov	fp,zero
    7de8:	0025883a 	mov	r18,zero
    7dec:	80800017 	ldw	r2,0(r16)
    7df0:	11400003 	ldbu	r5,0(r2)
    7df4:	00801384 	movi	r2,78
    7df8:	28fff544 	addi	r3,r5,-43
    7dfc:	18c03fcc 	andi	r3,r3,255
    7e00:	10c07d36 	bltu	r2,r3,7ff8 <__svfscanf_r+0x960>
    7e04:	18c5883a 	add	r2,r3,r3
    7e08:	1085883a 	add	r2,r2,r2
    7e0c:	00c00034 	movhi	r3,0
    7e10:	18df8804 	addi	r3,r3,32288
    7e14:	10c5883a 	add	r2,r2,r3
    7e18:	11000017 	ldw	r4,0(r2)
    7e1c:	2000683a 	jmp	r4
    7e20:	00007fb0 	cmpltui	zero,zero,510
    7e24:	00007ff8 	rdprs	zero,zero,511
    7e28:	00007fb0 	cmpltui	zero,zero,510
    7e2c:	00008144 	movi	zero,517
    7e30:	00007ff8 	rdprs	zero,zero,511
    7e34:	0000817c 	xorhi	zero,zero,517
    7e38:	000081b0 	cmpltui	zero,zero,518
    7e3c:	000081b0 	cmpltui	zero,zero,518
    7e40:	000081b0 	cmpltui	zero,zero,518
    7e44:	000081b0 	cmpltui	zero,zero,518
    7e48:	000081b0 	cmpltui	zero,zero,518
    7e4c:	000081b0 	cmpltui	zero,zero,518
    7e50:	000081b0 	cmpltui	zero,zero,518
    7e54:	000081b0 	cmpltui	zero,zero,518
    7e58:	000081b0 	cmpltui	zero,zero,518
    7e5c:	00007ff8 	rdprs	zero,zero,511
    7e60:	00007ff8 	rdprs	zero,zero,511
    7e64:	00007ff8 	rdprs	zero,zero,511
    7e68:	00007ff8 	rdprs	zero,zero,511
    7e6c:	00007ff8 	rdprs	zero,zero,511
    7e70:	00007ff8 	rdprs	zero,zero,511
    7e74:	00007ff8 	rdprs	zero,zero,511
    7e78:	000081d0 	cmplti	zero,zero,519
    7e7c:	00007ff8 	rdprs	zero,zero,511
    7e80:	00007ff8 	rdprs	zero,zero,511
    7e84:	00007ff8 	rdprs	zero,zero,511
    7e88:	000081e0 	cmpeqi	zero,zero,519
    7e8c:	0000827c 	xorhi	zero,zero,521
    7e90:	00007ff8 	rdprs	zero,zero,511
    7e94:	00007ff8 	rdprs	zero,zero,511
    7e98:	00008298 	cmpnei	zero,zero,522
    7e9c:	00007ff8 	rdprs	zero,zero,511
    7ea0:	00007ff8 	rdprs	zero,zero,511
    7ea4:	00007ff8 	rdprs	zero,zero,511
    7ea8:	00007ff8 	rdprs	zero,zero,511
    7eac:	000082c4 	movi	zero,523
    7eb0:	00007ff8 	rdprs	zero,zero,511
    7eb4:	00007ff8 	rdprs	zero,zero,511
    7eb8:	00007ff8 	rdprs	zero,zero,511
    7ebc:	00007ff8 	rdprs	zero,zero,511
    7ec0:	00007ff8 	rdprs	zero,zero,511
    7ec4:	00008318 	cmpnei	zero,zero,524
    7ec8:	00007ff8 	rdprs	zero,zero,511
    7ecc:	00007ff8 	rdprs	zero,zero,511
    7ed0:	00007ff8 	rdprs	zero,zero,511
    7ed4:	00007ff8 	rdprs	zero,zero,511
    7ed8:	00008428 	cmpgeui	zero,zero,528
    7edc:	00007ff8 	rdprs	zero,zero,511
    7ee0:	00007ff8 	rdprs	zero,zero,511
    7ee4:	00007ff8 	rdprs	zero,zero,511
    7ee8:	00007ff8 	rdprs	zero,zero,511
    7eec:	00007ff8 	rdprs	zero,zero,511
    7ef0:	00007ff8 	rdprs	zero,zero,511
    7ef4:	00007ff8 	rdprs	zero,zero,511
    7ef8:	000081d0 	cmplti	zero,zero,519
    7efc:	00007ff8 	rdprs	zero,zero,511
    7f00:	00007ff8 	rdprs	zero,zero,511
    7f04:	00007ff8 	rdprs	zero,zero,511
    7f08:	000081e0 	cmpeqi	zero,zero,519
    7f0c:	0000827c 	xorhi	zero,zero,521
    7f10:	00007ff8 	rdprs	zero,zero,511
    7f14:	00007ff8 	rdprs	zero,zero,511
    7f18:	00008298 	cmpnei	zero,zero,522
    7f1c:	00007ff8 	rdprs	zero,zero,511
    7f20:	00007ff8 	rdprs	zero,zero,511
    7f24:	00007ff8 	rdprs	zero,zero,511
    7f28:	00007ff8 	rdprs	zero,zero,511
    7f2c:	000082c4 	movi	zero,523
    7f30:	00007ff8 	rdprs	zero,zero,511
    7f34:	00007ff8 	rdprs	zero,zero,511
    7f38:	00007ff8 	rdprs	zero,zero,511
    7f3c:	00007ff8 	rdprs	zero,zero,511
    7f40:	00007ff8 	rdprs	zero,zero,511
    7f44:	00008318 	cmpnei	zero,zero,524
    7f48:	00007ff8 	rdprs	zero,zero,511
    7f4c:	00007ff8 	rdprs	zero,zero,511
    7f50:	00007ff8 	rdprs	zero,zero,511
    7f54:	00007ff8 	rdprs	zero,zero,511
    7f58:	00008428 	cmpgeui	zero,zero,528
    7f5c:	d900a317 	ldw	r4,652(sp)
    7f60:	00805704 	movi	r2,348
    7f64:	20ffffc4 	addi	r3,r4,-1
    7f68:	10c18c2e 	bgeu	r2,r3,859c <__svfscanf_r+0xf04>
    7f6c:	00805744 	movi	r2,349
    7f70:	257fa8c4 	addi	r21,r4,-349
    7f74:	9c836014 	ori	r18,r19,3456
    7f78:	d880a315 	stw	r2,652(sp)
    7f7c:	0001a106 	br	8604 <__svfscanf_r+0xf6c>
    7f80:	b009883a 	mov	r4,r22
    7f84:	800b883a 	mov	r5,r16
    7f88:	000dc500 	call	dc50 <__srefill_r>
    7f8c:	103eb226 	beq	r2,zero,7a58 <__svfscanf_r+0x3c0>
    7f90:	003e1606 	br	77ec <__svfscanf_r+0x154>
    7f94:	01000284 	movi	r4,10
    7f98:	00800074 	movhi	r2,1
    7f9c:	10bfa804 	addi	r2,r2,-352
    7fa0:	054000c4 	movi	r21,3
    7fa4:	d900a115 	stw	r4,644(sp)
    7fa8:	d880a015 	stw	r2,640(sp)
    7fac:	003ea806 	br	7a50 <__svfscanf_r+0x3b8>
    7fb0:	a880200c 	andi	r2,r21,128
    7fb4:	10001026 	beq	r2,zero,7ff8 <__svfscanf_r+0x960>
    7fb8:	00bfdfc4 	movi	r2,-129
    7fbc:	a8aa703a 	and	r21,r21,r2
    7fc0:	b9400005 	stb	r5,0(r23)
    7fc4:	bdc00044 	addi	r23,r23,1
    7fc8:	80c00117 	ldw	r3,4(r16)
    7fcc:	8c400044 	addi	r17,r17,1
    7fd0:	18bfffc4 	addi	r2,r3,-1
    7fd4:	80800115 	stw	r2,4(r16)
    7fd8:	0080610e 	bge	zero,r2,8160 <__svfscanf_r+0xac8>
    7fdc:	80800017 	ldw	r2,0(r16)
    7fe0:	10800044 	addi	r2,r2,1
    7fe4:	80800015 	stw	r2,0(r16)
    7fe8:	d880a317 	ldw	r2,652(sp)
    7fec:	10bfffc4 	addi	r2,r2,-1
    7ff0:	d880a315 	stw	r2,652(sp)
    7ff4:	103f7d1e 	bne	r2,zero,7dec <__svfscanf_r+0x754>
    7ff8:	d8c09e17 	ldw	r3,632(sp)
    7ffc:	18000226 	beq	r3,zero,8008 <__svfscanf_r+0x970>
    8000:	00bfbfc4 	movi	r2,-257
    8004:	a8aa703a 	and	r21,r21,r2
    8008:	90ffffc4 	addi	r3,r18,-1
    800c:	00800044 	movi	r2,1
    8010:	10c0cd2e 	bgeu	r2,r3,8348 <__svfscanf_r+0xcb0>
    8014:	e1003fcc 	andi	r4,fp,255
    8018:	2100201c 	xori	r4,r4,128
    801c:	213fe004 	addi	r4,r4,-128
    8020:	20ffffc4 	addi	r3,r4,-1
    8024:	00800184 	movi	r2,6
    8028:	10c01736 	bltu	r2,r3,8088 <__svfscanf_r+0x9f0>
    802c:	00c00084 	movi	r3,2
    8030:	1900880e 	bge	r3,r4,8254 <__svfscanf_r+0xbbc>
    8034:	008000c4 	movi	r2,3
    8038:	1100130e 	bge	r2,r4,8088 <__svfscanf_r+0x9f0>
    803c:	e4ffffc4 	addi	r19,fp,-1
    8040:	b825883a 	mov	r18,r23
    8044:	94bfffc4 	addi	r18,r18,-1
    8048:	91400007 	ldb	r5,0(r18)
    804c:	b009883a 	mov	r4,r22
    8050:	800d883a 	mov	r6,r16
    8054:	00104c00 	call	104c0 <_ungetc_r>
    8058:	9cffffc4 	addi	r19,r19,-1
    805c:	98c03fcc 	andi	r3,r19,255
    8060:	18c0201c 	xori	r3,r3,128
    8064:	18ffe004 	addi	r3,r3,-128
    8068:	00800084 	movi	r2,2
    806c:	18bff51e 	bne	r3,r2,8044 <__svfscanf_r+0x9ac>
    8070:	e0bfff04 	addi	r2,fp,-4
    8074:	10803fcc 	andi	r2,r2,255
    8078:	b887c83a 	sub	r3,r23,r2
    807c:	8885c83a 	sub	r2,r17,r2
    8080:	147fffc4 	addi	r17,r2,-1
    8084:	1dffffc4 	addi	r23,r3,-1
    8088:	a880400c 	andi	r2,r21,256
    808c:	10001226 	beq	r2,zero,80d8 <__svfscanf_r+0xa40>
    8090:	a881000c 	andi	r2,r21,1024
    8094:	1000651e 	bne	r2,zero,822c <__svfscanf_r+0xb94>
    8098:	bdffffc4 	addi	r23,r23,-1
    809c:	b9400007 	ldb	r5,0(r23)
    80a0:	00801944 	movi	r2,101
    80a4:	8c7fffc4 	addi	r17,r17,-1
    80a8:	28800826 	beq	r5,r2,80cc <__svfscanf_r+0xa34>
    80ac:	00801144 	movi	r2,69
    80b0:	28800626 	beq	r5,r2,80cc <__svfscanf_r+0xa34>
    80b4:	bdffffc4 	addi	r23,r23,-1
    80b8:	b009883a 	mov	r4,r22
    80bc:	800d883a 	mov	r6,r16
    80c0:	00104c00 	call	104c0 <_ungetc_r>
    80c4:	b9400007 	ldb	r5,0(r23)
    80c8:	8c7fffc4 	addi	r17,r17,-1
    80cc:	b009883a 	mov	r4,r22
    80d0:	800d883a 	mov	r6,r16
    80d4:	00104c00 	call	104c0 <_ungetc_r>
    80d8:	a880040c 	andi	r2,r21,16
    80dc:	103d811e 	bne	r2,zero,76e4 <__svfscanf_r+0x4c>
    80e0:	a8c1800c 	andi	r3,r21,1536
    80e4:	00810004 	movi	r2,1024
    80e8:	b8000005 	stb	zero,0(r23)
    80ec:	1880bb26 	beq	r3,r2,83dc <__svfscanf_r+0xd44>
    80f0:	d8809d17 	ldw	r2,628(sp)
    80f4:	1000a61e 	bne	r2,zero,8390 <__svfscanf_r+0xcf8>
    80f8:	d940a617 	ldw	r5,664(sp)
    80fc:	b009883a 	mov	r4,r22
    8100:	000d883a 	mov	r6,zero
    8104:	000e2fc0 	call	e2fc <_strtod_r>
    8108:	a900004c 	andi	r4,r21,1
    810c:	2009003a 	cmpeq	r4,r4,zero
    8110:	1025883a 	mov	r18,r2
    8114:	1827883a 	mov	r19,r3
    8118:	2000951e 	bne	r4,zero,8370 <__svfscanf_r+0xcd8>
    811c:	d8c0a417 	ldw	r3,656(sp)
    8120:	18800017 	ldw	r2,0(r3)
    8124:	1d400104 	addi	r21,r3,4
    8128:	14c00115 	stw	r19,4(r2)
    812c:	14800015 	stw	r18,0(r2)
    8130:	d8c0a217 	ldw	r3,648(sp)
    8134:	dd40a415 	stw	r21,656(sp)
    8138:	18c00044 	addi	r3,r3,1
    813c:	d8c0a215 	stw	r3,648(sp)
    8140:	003d6806 	br	76e4 <__svfscanf_r+0x4c>
    8144:	a880800c 	andi	r2,r21,512
    8148:	103fab26 	beq	r2,zero,7ff8 <__svfscanf_r+0x960>
    814c:	d9009e17 	ldw	r4,632(sp)
    8150:	00bf5fc4 	movi	r2,-641
    8154:	a8aa703a 	and	r21,r21,r2
    8158:	d9009f15 	stw	r4,636(sp)
    815c:	003f9806 	br	7fc0 <__svfscanf_r+0x928>
    8160:	b009883a 	mov	r4,r22
    8164:	800b883a 	mov	r5,r16
    8168:	d980a715 	stw	r6,668(sp)
    816c:	000dc500 	call	dc50 <__srefill_r>
    8170:	d980a717 	ldw	r6,668(sp)
    8174:	103f9c26 	beq	r2,zero,7fe8 <__svfscanf_r+0x950>
    8178:	003f9f06 	br	7ff8 <__svfscanf_r+0x960>
    817c:	a880400c 	andi	r2,r21,256
    8180:	10000b26 	beq	r2,zero,81b0 <__svfscanf_r+0xb18>
    8184:	00bfdfc4 	movi	r2,-129
    8188:	a8aa703a 	and	r21,r21,r2
    818c:	d8809e17 	ldw	r2,632(sp)
    8190:	10800044 	addi	r2,r2,1
    8194:	d8809e15 	stw	r2,632(sp)
    8198:	303f8b26 	beq	r6,zero,7fc8 <__svfscanf_r+0x930>
    819c:	d8c0a317 	ldw	r3,652(sp)
    81a0:	31bfffc4 	addi	r6,r6,-1
    81a4:	18c00044 	addi	r3,r3,1
    81a8:	d8c0a315 	stw	r3,652(sp)
    81ac:	003f8606 	br	7fc8 <__svfscanf_r+0x930>
    81b0:	e0803fcc 	andi	r2,fp,255
    81b4:	1080201c 	xori	r2,r2,128
    81b8:	10bfe004 	addi	r2,r2,-128
    81bc:	9085883a 	add	r2,r18,r2
    81c0:	103f8d1e 	bne	r2,zero,7ff8 <__svfscanf_r+0x960>
    81c4:	00bf9fc4 	movi	r2,-385
    81c8:	a8aa703a 	and	r21,r21,r2
    81cc:	003f7c06 	br	7fc0 <__svfscanf_r+0x928>
    81d0:	00800044 	movi	r2,1
    81d4:	90bf881e 	bne	r18,r2,7ff8 <__svfscanf_r+0x960>
    81d8:	04800084 	movi	r18,2
    81dc:	003f7806 	br	7fc0 <__svfscanf_r+0x928>
    81e0:	a8c1400c 	andi	r3,r21,1280
    81e4:	00810004 	movi	r2,1024
    81e8:	18800426 	beq	r3,r2,81fc <__svfscanf_r+0xb64>
    81ec:	a884703a 	and	r2,r21,r2
    81f0:	103f8126 	beq	r2,zero,7ff8 <__svfscanf_r+0x960>
    81f4:	d8809e17 	ldw	r2,632(sp)
    81f8:	103f8326 	beq	r2,zero,8008 <__svfscanf_r+0x970>
    81fc:	a880800c 	andi	r2,r21,512
    8200:	1000051e 	bne	r2,zero,8218 <__svfscanf_r+0xb80>
    8204:	d8c09e17 	ldw	r3,632(sp)
    8208:	d9009f17 	ldw	r4,636(sp)
    820c:	ddc09c15 	stw	r23,624(sp)
    8210:	1907c83a 	sub	r3,r3,r4
    8214:	d8c09d15 	stw	r3,628(sp)
    8218:	00be7fc4 	movi	r2,-1537
    821c:	a884703a 	and	r2,r21,r2
    8220:	15406014 	ori	r21,r2,384
    8224:	d8009e15 	stw	zero,632(sp)
    8228:	003f6506 	br	7fc0 <__svfscanf_r+0x928>
    822c:	d900a617 	ldw	r4,664(sp)
    8230:	25fd4e2e 	bgeu	r4,r23,776c <__svfscanf_r+0xd4>
    8234:	bdffffc4 	addi	r23,r23,-1
    8238:	b9400007 	ldb	r5,0(r23)
    823c:	b009883a 	mov	r4,r22
    8240:	800d883a 	mov	r6,r16
    8244:	00104c00 	call	104c0 <_ungetc_r>
    8248:	d880a617 	ldw	r2,664(sp)
    824c:	15fff936 	bltu	r2,r23,8234 <__svfscanf_r+0xb9c>
    8250:	003d4606 	br	776c <__svfscanf_r+0xd4>
    8254:	d900a617 	ldw	r4,664(sp)
    8258:	25fd442e 	bgeu	r4,r23,776c <__svfscanf_r+0xd4>
    825c:	bdffffc4 	addi	r23,r23,-1
    8260:	b9400007 	ldb	r5,0(r23)
    8264:	b009883a 	mov	r4,r22
    8268:	800d883a 	mov	r6,r16
    826c:	00104c00 	call	104c0 <_ungetc_r>
    8270:	d8c0a617 	ldw	r3,664(sp)
    8274:	1dfff936 	bltu	r3,r23,825c <__svfscanf_r+0xbc4>
    8278:	003d3c06 	br	776c <__svfscanf_r+0xd4>
    827c:	e0c03fcc 	andi	r3,fp,255
    8280:	18c0201c 	xori	r3,r3,128
    8284:	18ffe004 	addi	r3,r3,-128
    8288:	00800084 	movi	r2,2
    828c:	18bf5a1e 	bne	r3,r2,7ff8 <__svfscanf_r+0x960>
    8290:	070000c4 	movi	fp,3
    8294:	003f4a06 	br	7fc0 <__svfscanf_r+0x928>
    8298:	e0c03fcc 	andi	r3,fp,255
    829c:	18c0201c 	xori	r3,r3,128
    82a0:	18ffe004 	addi	r3,r3,-128
    82a4:	1800231e 	bne	r3,zero,8334 <__svfscanf_r+0xc9c>
    82a8:	a8c1c00c 	andi	r3,r21,1792
    82ac:	0081c004 	movi	r2,1792
    82b0:	18bf511e 	bne	r3,r2,7ff8 <__svfscanf_r+0x960>
    82b4:	00be1fc4 	movi	r2,-1921
    82b8:	a8aa703a 	and	r21,r21,r2
    82bc:	07000044 	movi	fp,1
    82c0:	003f3f06 	br	7fc0 <__svfscanf_r+0x928>
    82c4:	9000101e 	bne	r18,zero,8308 <__svfscanf_r+0xc70>
    82c8:	a8c1c00c 	andi	r3,r21,1792
    82cc:	0081c004 	movi	r2,1792
    82d0:	18800926 	beq	r3,r2,82f8 <__svfscanf_r+0xc60>
    82d4:	e0c03fcc 	andi	r3,fp,255
    82d8:	18c0201c 	xori	r3,r3,128
    82dc:	18ffe004 	addi	r3,r3,-128
    82e0:	00800044 	movi	r2,1
    82e4:	18800226 	beq	r3,r2,82f0 <__svfscanf_r+0xc58>
    82e8:	00800104 	movi	r2,4
    82ec:	18bf421e 	bne	r3,r2,7ff8 <__svfscanf_r+0x960>
    82f0:	e7000044 	addi	fp,fp,1
    82f4:	003f3206 	br	7fc0 <__svfscanf_r+0x928>
    82f8:	00be1fc4 	movi	r2,-1921
    82fc:	a8aa703a 	and	r21,r21,r2
    8300:	04800044 	movi	r18,1
    8304:	003f2e06 	br	7fc0 <__svfscanf_r+0x928>
    8308:	00800084 	movi	r2,2
    830c:	90bff11e 	bne	r18,r2,82d4 <__svfscanf_r+0xc3c>
    8310:	048000c4 	movi	r18,3
    8314:	003f2a06 	br	7fc0 <__svfscanf_r+0x928>
    8318:	e0c03fcc 	andi	r3,fp,255
    831c:	18c0201c 	xori	r3,r3,128
    8320:	18ffe004 	addi	r3,r3,-128
    8324:	00800184 	movi	r2,6
    8328:	18bf331e 	bne	r3,r2,7ff8 <__svfscanf_r+0x960>
    832c:	070001c4 	movi	fp,7
    8330:	003f2306 	br	7fc0 <__svfscanf_r+0x928>
    8334:	008000c4 	movi	r2,3
    8338:	18bfed26 	beq	r3,r2,82f0 <__svfscanf_r+0xc58>
    833c:	00800144 	movi	r2,5
    8340:	18bfeb26 	beq	r3,r2,82f0 <__svfscanf_r+0xc58>
    8344:	003f2c06 	br	7ff8 <__svfscanf_r+0x960>
    8348:	d900a617 	ldw	r4,664(sp)
    834c:	25fd072e 	bgeu	r4,r23,776c <__svfscanf_r+0xd4>
    8350:	bdffffc4 	addi	r23,r23,-1
    8354:	b9400007 	ldb	r5,0(r23)
    8358:	b009883a 	mov	r4,r22
    835c:	800d883a 	mov	r6,r16
    8360:	00104c00 	call	104c0 <_ungetc_r>
    8364:	d880a617 	ldw	r2,664(sp)
    8368:	15fff936 	bltu	r2,r23,8350 <__svfscanf_r+0xcb8>
    836c:	003cff06 	br	776c <__svfscanf_r+0xd4>
    8370:	a880008c 	andi	r2,r21,2
    8374:	10002026 	beq	r2,zero,83f8 <__svfscanf_r+0xd60>
    8378:	d900a417 	ldw	r4,656(sp)
    837c:	20800017 	ldw	r2,0(r4)
    8380:	25400104 	addi	r21,r4,4
    8384:	10c00115 	stw	r3,4(r2)
    8388:	14800015 	stw	r18,0(r2)
    838c:	003f6806 	br	8130 <__svfscanf_r+0xa98>
    8390:	d8c09c17 	ldw	r3,624(sp)
    8394:	b009883a 	mov	r4,r22
    8398:	000d883a 	mov	r6,zero
    839c:	19400044 	addi	r5,r3,1
    83a0:	01c00284 	movi	r7,10
    83a4:	000f9200 	call	f920 <_strtol_r>
    83a8:	d9009d17 	ldw	r4,628(sp)
    83ac:	110dc83a 	sub	r6,r2,r4
    83b0:	d8c0a617 	ldw	r3,664(sp)
    83b4:	d9009c17 	ldw	r4,624(sp)
    83b8:	188054c4 	addi	r2,r3,339
    83bc:	20800236 	bltu	r4,r2,83c8 <__svfscanf_r+0xd30>
    83c0:	18805484 	addi	r2,r3,338
    83c4:	d8809c15 	stw	r2,624(sp)
    83c8:	d9009c17 	ldw	r4,624(sp)
    83cc:	014000b4 	movhi	r5,2
    83d0:	29610604 	addi	r5,r5,-31720
    83d4:	000dfd80 	call	dfd8 <sprintf>
    83d8:	003f4706 	br	80f8 <__svfscanf_r+0xa60>
    83dc:	d8c09e17 	ldw	r3,632(sp)
    83e0:	d9009f17 	ldw	r4,636(sp)
    83e4:	1905c83a 	sub	r2,r3,r4
    83e8:	103f4326 	beq	r2,zero,80f8 <__svfscanf_r+0xa60>
    83ec:	008dc83a 	sub	r6,zero,r2
    83f0:	ddc09c15 	stw	r23,624(sp)
    83f4:	003fee06 	br	83b0 <__svfscanf_r+0xd18>
    83f8:	d880a417 	ldw	r2,656(sp)
    83fc:	9009883a 	mov	r4,r18
    8400:	180b883a 	mov	r5,r3
    8404:	15c00017 	ldw	r23,0(r2)
    8408:	15400104 	addi	r21,r2,4
    840c:	000de700 	call	de70 <__isnand>
    8410:	10021c1e 	bne	r2,zero,8c84 <__svfscanf_r+0x15ec>
    8414:	980b883a 	mov	r5,r19
    8418:	9009883a 	mov	r4,r18
    841c:	00133ec0 	call	133ec <__truncdfsf2>
    8420:	b8800015 	stw	r2,0(r23)
    8424:	003f4206 	br	8130 <__svfscanf_r+0xa98>
    8428:	e0c03fcc 	andi	r3,fp,255
    842c:	18c0201c 	xori	r3,r3,128
    8430:	18ffe004 	addi	r3,r3,-128
    8434:	008001c4 	movi	r2,7
    8438:	18beef1e 	bne	r3,r2,7ff8 <__svfscanf_r+0x960>
    843c:	07000204 	movi	fp,8
    8440:	003edf06 	br	7fc0 <__svfscanf_r+0x928>
    8444:	d900a317 	ldw	r4,652(sp)
    8448:	208002a4 	muli	r2,r4,10
    844c:	1145883a 	add	r2,r2,r5
    8450:	10bff404 	addi	r2,r2,-48
    8454:	d880a315 	stw	r2,652(sp)
    8458:	003ceb06 	br	7808 <__svfscanf_r+0x170>
    845c:	9880040c 	andi	r2,r19,16
    8460:	10001426 	beq	r2,zero,84b4 <__svfscanf_r+0xe1c>
    8464:	0027883a 	mov	r19,zero
    8468:	00000906 	br	8490 <__svfscanf_r+0xdf8>
    846c:	80c00117 	ldw	r3,4(r16)
    8470:	d880a317 	ldw	r2,652(sp)
    8474:	29800044 	addi	r6,r5,1
    8478:	18ffffc4 	addi	r3,r3,-1
    847c:	9cc00044 	addi	r19,r19,1
    8480:	81800015 	stw	r6,0(r16)
    8484:	80c00115 	stw	r3,4(r16)
    8488:	14fdf726 	beq	r2,r19,7c68 <__svfscanf_r+0x5d0>
    848c:	00c02c0e 	bge	zero,r3,8540 <__svfscanf_r+0xea8>
    8490:	81400017 	ldw	r5,0(r16)
    8494:	90800017 	ldw	r2,0(r18)
    8498:	28c00003 	ldbu	r3,0(r5)
    849c:	1887883a 	add	r3,r3,r2
    84a0:	19000003 	ldbu	r4,0(r3)
    84a4:	2100020c 	andi	r4,r4,8
    84a8:	203ff026 	beq	r4,zero,846c <__svfscanf_r+0xdd4>
    84ac:	8ce3883a 	add	r17,r17,r19
    84b0:	003c8c06 	br	76e4 <__svfscanf_r+0x4c>
    84b4:	d8c0a417 	ldw	r3,656(sp)
    84b8:	1d400017 	ldw	r21,0(r3)
    84bc:	a827883a 	mov	r19,r21
    84c0:	00000e06 	br	84fc <__svfscanf_r+0xe64>
    84c4:	80800117 	ldw	r2,4(r16)
    84c8:	d900a317 	ldw	r4,652(sp)
    84cc:	29800044 	addi	r6,r5,1
    84d0:	10ffffc4 	addi	r3,r2,-1
    84d4:	213fffc4 	addi	r4,r4,-1
    84d8:	d900a315 	stw	r4,652(sp)
    84dc:	80c00115 	stw	r3,4(r16)
    84e0:	28800003 	ldbu	r2,0(r5)
    84e4:	98800005 	stb	r2,0(r19)
    84e8:	81800015 	stw	r6,0(r16)
    84ec:	9cc00044 	addi	r19,r19,1
    84f0:	20000926 	beq	r4,zero,8518 <__svfscanf_r+0xe80>
    84f4:	80800117 	ldw	r2,4(r16)
    84f8:	0080170e 	bge	zero,r2,8558 <__svfscanf_r+0xec0>
    84fc:	81400017 	ldw	r5,0(r16)
    8500:	90800017 	ldw	r2,0(r18)
    8504:	28c00003 	ldbu	r3,0(r5)
    8508:	1887883a 	add	r3,r3,r2
    850c:	19000003 	ldbu	r4,0(r3)
    8510:	2100020c 	andi	r4,r4,8
    8514:	203feb26 	beq	r4,zero,84c4 <__svfscanf_r+0xe2c>
    8518:	9d45c83a 	sub	r2,r19,r21
    851c:	d8c0a217 	ldw	r3,648(sp)
    8520:	88a3883a 	add	r17,r17,r2
    8524:	d880a417 	ldw	r2,656(sp)
    8528:	18c00044 	addi	r3,r3,1
    852c:	d8c0a215 	stw	r3,648(sp)
    8530:	10800104 	addi	r2,r2,4
    8534:	d880a415 	stw	r2,656(sp)
    8538:	98000005 	stb	zero,0(r19)
    853c:	003c6906 	br	76e4 <__svfscanf_r+0x4c>
    8540:	b009883a 	mov	r4,r22
    8544:	800b883a 	mov	r5,r16
    8548:	000dc500 	call	dc50 <__srefill_r>
    854c:	103fd026 	beq	r2,zero,8490 <__svfscanf_r+0xdf8>
    8550:	8ce3883a 	add	r17,r17,r19
    8554:	003c6306 	br	76e4 <__svfscanf_r+0x4c>
    8558:	b009883a 	mov	r4,r22
    855c:	800b883a 	mov	r5,r16
    8560:	000dc500 	call	dc50 <__srefill_r>
    8564:	103fe526 	beq	r2,zero,84fc <__svfscanf_r+0xe64>
    8568:	003feb06 	br	8518 <__svfscanf_r+0xe80>
    856c:	d900a317 	ldw	r4,652(sp)
    8570:	9d41e014 	ori	r21,r19,1920
    8574:	2000821e 	bne	r4,zero,8780 <__svfscanf_r+0x10e8>
    8578:	d8c04404 	addi	r3,sp,272
    857c:	182f883a 	mov	r23,r3
    8580:	0039883a 	mov	fp,zero
    8584:	d8c0a615 	stw	r3,664(sp)
    8588:	d8009c15 	stw	zero,624(sp)
    858c:	d8009d15 	stw	zero,628(sp)
    8590:	d8009f15 	stw	zero,636(sp)
    8594:	d8009e15 	stw	zero,632(sp)
    8598:	003e9e06 	br	8014 <__svfscanf_r+0x97c>
    859c:	d900a317 	ldw	r4,652(sp)
    85a0:	9c836014 	ori	r18,r19,3456
    85a4:	2000161e 	bne	r4,zero,8600 <__svfscanf_r+0xf68>
    85a8:	d8804404 	addi	r2,sp,272
    85ac:	d880a615 	stw	r2,664(sp)
    85b0:	002f883a 	mov	r23,zero
    85b4:	1027883a 	mov	r19,r2
    85b8:	9080400c 	andi	r2,r18,256
    85bc:	10000926 	beq	r2,zero,85e4 <__svfscanf_r+0xf4c>
    85c0:	d8c0a617 	ldw	r3,664(sp)
    85c4:	1cc0052e 	bgeu	r3,r19,85dc <__svfscanf_r+0xf44>
    85c8:	9cffffc4 	addi	r19,r19,-1
    85cc:	99400007 	ldb	r5,0(r19)
    85d0:	b009883a 	mov	r4,r22
    85d4:	800d883a 	mov	r6,r16
    85d8:	00104c00 	call	104c0 <_ungetc_r>
    85dc:	d900a617 	ldw	r4,664(sp)
    85e0:	24fc6226 	beq	r4,r19,776c <__svfscanf_r+0xd4>
    85e4:	9080040c 	andi	r2,r18,16
    85e8:	10006726 	beq	r2,zero,8788 <__svfscanf_r+0x10f0>
    85ec:	d8c0a617 	ldw	r3,664(sp)
    85f0:	98c5c83a 	sub	r2,r19,r3
    85f4:	b885883a 	add	r2,r23,r2
    85f8:	88a3883a 	add	r17,r17,r2
    85fc:	003c3906 	br	76e4 <__svfscanf_r+0x4c>
    8600:	002b883a 	mov	r21,zero
    8604:	d8c04404 	addi	r3,sp,272
    8608:	d8c0a615 	stw	r3,664(sp)
    860c:	002f883a 	mov	r23,zero
    8610:	1827883a 	mov	r19,r3
    8614:	81800017 	ldw	r6,0(r16)
    8618:	00c01344 	movi	r3,77
    861c:	31400003 	ldbu	r5,0(r6)
    8620:	28bff544 	addi	r2,r5,-43
    8624:	10803fcc 	andi	r2,r2,255
    8628:	18bfe336 	bltu	r3,r2,85b8 <__svfscanf_r+0xf20>
    862c:	1085883a 	add	r2,r2,r2
    8630:	1085883a 	add	r2,r2,r2
    8634:	00c00074 	movhi	r3,1
    8638:	18e19204 	addi	r3,r3,-31160
    863c:	10c5883a 	add	r2,r2,r3
    8640:	11000017 	ldw	r4,0(r2)
    8644:	2000683a 	jmp	r4
    8648:	000087dc 	xori	zero,zero,543
    864c:	000085b8 	rdprs	zero,zero,534
    8650:	000087dc 	xori	zero,zero,543
    8654:	000085b8 	rdprs	zero,zero,534
    8658:	000085b8 	rdprs	zero,zero,534
    865c:	00008820 	cmpeqi	zero,zero,544
    8660:	0000891c 	xori	zero,zero,548
    8664:	0000891c 	xori	zero,zero,548
    8668:	0000891c 	xori	zero,zero,548
    866c:	0000891c 	xori	zero,zero,548
    8670:	0000891c 	xori	zero,zero,548
    8674:	0000891c 	xori	zero,zero,548
    8678:	0000891c 	xori	zero,zero,548
    867c:	00008944 	movi	zero,549
    8680:	00008944 	movi	zero,549
    8684:	000085b8 	rdprs	zero,zero,534
    8688:	000085b8 	rdprs	zero,zero,534
    868c:	000085b8 	rdprs	zero,zero,534
    8690:	000085b8 	rdprs	zero,zero,534
    8694:	000085b8 	rdprs	zero,zero,534
    8698:	000085b8 	rdprs	zero,zero,534
    869c:	000085b8 	rdprs	zero,zero,534
    86a0:	00008974 	movhi	zero,549
    86a4:	00008974 	movhi	zero,549
    86a8:	00008974 	movhi	zero,549
    86ac:	00008974 	movhi	zero,549
    86b0:	00008974 	movhi	zero,549
    86b4:	00008974 	movhi	zero,549
    86b8:	000085b8 	rdprs	zero,zero,534
    86bc:	000085b8 	rdprs	zero,zero,534
    86c0:	000085b8 	rdprs	zero,zero,534
    86c4:	000085b8 	rdprs	zero,zero,534
    86c8:	000085b8 	rdprs	zero,zero,534
    86cc:	000085b8 	rdprs	zero,zero,534
    86d0:	000085b8 	rdprs	zero,zero,534
    86d4:	000085b8 	rdprs	zero,zero,534
    86d8:	000085b8 	rdprs	zero,zero,534
    86dc:	000085b8 	rdprs	zero,zero,534
    86e0:	000085b8 	rdprs	zero,zero,534
    86e4:	000085b8 	rdprs	zero,zero,534
    86e8:	000085b8 	rdprs	zero,zero,534
    86ec:	000085b8 	rdprs	zero,zero,534
    86f0:	000085b8 	rdprs	zero,zero,534
    86f4:	000085b8 	rdprs	zero,zero,534
    86f8:	000085b8 	rdprs	zero,zero,534
    86fc:	00008984 	movi	zero,550
    8700:	000085b8 	rdprs	zero,zero,534
    8704:	000085b8 	rdprs	zero,zero,534
    8708:	000085b8 	rdprs	zero,zero,534
    870c:	000085b8 	rdprs	zero,zero,534
    8710:	000085b8 	rdprs	zero,zero,534
    8714:	000085b8 	rdprs	zero,zero,534
    8718:	000085b8 	rdprs	zero,zero,534
    871c:	000085b8 	rdprs	zero,zero,534
    8720:	00008974 	movhi	zero,549
    8724:	00008974 	movhi	zero,549
    8728:	00008974 	movhi	zero,549
    872c:	00008974 	movhi	zero,549
    8730:	00008974 	movhi	zero,549
    8734:	00008974 	movhi	zero,549
    8738:	000085b8 	rdprs	zero,zero,534
    873c:	000085b8 	rdprs	zero,zero,534
    8740:	000085b8 	rdprs	zero,zero,534
    8744:	000085b8 	rdprs	zero,zero,534
    8748:	000085b8 	rdprs	zero,zero,534
    874c:	000085b8 	rdprs	zero,zero,534
    8750:	000085b8 	rdprs	zero,zero,534
    8754:	000085b8 	rdprs	zero,zero,534
    8758:	000085b8 	rdprs	zero,zero,534
    875c:	000085b8 	rdprs	zero,zero,534
    8760:	000085b8 	rdprs	zero,zero,534
    8764:	000085b8 	rdprs	zero,zero,534
    8768:	000085b8 	rdprs	zero,zero,534
    876c:	000085b8 	rdprs	zero,zero,534
    8770:	000085b8 	rdprs	zero,zero,534
    8774:	000085b8 	rdprs	zero,zero,534
    8778:	000085b8 	rdprs	zero,zero,534
    877c:	00008984 	movi	zero,550
    8780:	000d883a 	mov	r6,zero
    8784:	003d9006 	br	7dc8 <__svfscanf_r+0x730>
    8788:	98000005 	stb	zero,0(r19)
    878c:	d8c0a017 	ldw	r3,640(sp)
    8790:	d940a617 	ldw	r5,664(sp)
    8794:	d9c0a117 	ldw	r7,644(sp)
    8798:	b009883a 	mov	r4,r22
    879c:	000d883a 	mov	r6,zero
    87a0:	183ee83a 	callr	r3
    87a4:	1007883a 	mov	r3,r2
    87a8:	9080080c 	andi	r2,r18,32
    87ac:	10004d1e 	bne	r2,zero,88e4 <__svfscanf_r+0x124c>
    87b0:	9080010c 	andi	r2,r18,4
    87b4:	10003426 	beq	r2,zero,8888 <__svfscanf_r+0x11f0>
    87b8:	d900a417 	ldw	r4,656(sp)
    87bc:	20800017 	ldw	r2,0(r4)
    87c0:	21000104 	addi	r4,r4,4
    87c4:	d900a415 	stw	r4,656(sp)
    87c8:	10c0000d 	sth	r3,0(r2)
    87cc:	d880a217 	ldw	r2,648(sp)
    87d0:	10800044 	addi	r2,r2,1
    87d4:	d880a215 	stw	r2,648(sp)
    87d8:	003f8406 	br	85ec <__svfscanf_r+0xf54>
    87dc:	9080200c 	andi	r2,r18,128
    87e0:	103f7526 	beq	r2,zero,85b8 <__svfscanf_r+0xf20>
    87e4:	00bfdfc4 	movi	r2,-129
    87e8:	90a4703a 	and	r18,r18,r2
    87ec:	99400005 	stb	r5,0(r19)
    87f0:	9cc00044 	addi	r19,r19,1
    87f4:	80c00117 	ldw	r3,4(r16)
    87f8:	18ffffc4 	addi	r3,r3,-1
    87fc:	80c00115 	stw	r3,4(r16)
    8800:	00c0130e 	bge	zero,r3,8850 <__svfscanf_r+0x11b8>
    8804:	31800044 	addi	r6,r6,1
    8808:	81800015 	stw	r6,0(r16)
    880c:	d880a317 	ldw	r2,652(sp)
    8810:	10bfffc4 	addi	r2,r2,-1
    8814:	d880a315 	stw	r2,652(sp)
    8818:	103f7e1e 	bne	r2,zero,8614 <__svfscanf_r+0xf7c>
    881c:	003f6606 	br	85b8 <__svfscanf_r+0xf20>
    8820:	9082000c 	andi	r2,r18,2048
    8824:	103ff126 	beq	r2,zero,87ec <__svfscanf_r+0x1154>
    8828:	d8c0a117 	ldw	r3,644(sp)
    882c:	1800031e 	bne	r3,zero,883c <__svfscanf_r+0x11a4>
    8830:	01000204 	movi	r4,8
    8834:	94808014 	ori	r18,r18,512
    8838:	d900a115 	stw	r4,644(sp)
    883c:	9081000c 	andi	r2,r18,1024
    8840:	10000826 	beq	r2,zero,8864 <__svfscanf_r+0x11cc>
    8844:	00be9fc4 	movi	r2,-1409
    8848:	90a4703a 	and	r18,r18,r2
    884c:	003fe706 	br	87ec <__svfscanf_r+0x1154>
    8850:	b009883a 	mov	r4,r22
    8854:	800b883a 	mov	r5,r16
    8858:	000dc500 	call	dc50 <__srefill_r>
    885c:	103feb26 	beq	r2,zero,880c <__svfscanf_r+0x1174>
    8860:	003f5506 	br	85b8 <__svfscanf_r+0xf20>
    8864:	a8000426 	beq	r21,zero,8878 <__svfscanf_r+0x11e0>
    8868:	d880a317 	ldw	r2,652(sp)
    886c:	ad7fffc4 	addi	r21,r21,-1
    8870:	10800044 	addi	r2,r2,1
    8874:	d880a315 	stw	r2,652(sp)
    8878:	00bf1fc4 	movi	r2,-897
    887c:	90a4703a 	and	r18,r18,r2
    8880:	bdc00044 	addi	r23,r23,1
    8884:	003fdb06 	br	87f4 <__svfscanf_r+0x115c>
    8888:	9080004c 	andi	r2,r18,1
    888c:	1005003a 	cmpeq	r2,r2,zero
    8890:	10001426 	beq	r2,zero,88e4 <__svfscanf_r+0x124c>
    8894:	9080008c 	andi	r2,r18,2
    8898:	10001226 	beq	r2,zero,88e4 <__svfscanf_r+0x124c>
    889c:	d8c0a017 	ldw	r3,640(sp)
    88a0:	00800074 	movhi	r2,1
    88a4:	10bfa804 	addi	r2,r2,-352
    88a8:	18801426 	beq	r3,r2,88fc <__svfscanf_r+0x1264>
    88ac:	d9c0a117 	ldw	r7,644(sp)
    88b0:	d940a617 	ldw	r5,664(sp)
    88b4:	000d883a 	mov	r6,zero
    88b8:	b009883a 	mov	r4,r22
    88bc:	000fb880 	call	fb88 <_strtoll_r>
    88c0:	100d883a 	mov	r6,r2
    88c4:	180f883a 	mov	r7,r3
    88c8:	d900a417 	ldw	r4,656(sp)
    88cc:	20800017 	ldw	r2,0(r4)
    88d0:	21000104 	addi	r4,r4,4
    88d4:	d900a415 	stw	r4,656(sp)
    88d8:	11c00115 	stw	r7,4(r2)
    88dc:	11800015 	stw	r6,0(r2)
    88e0:	003fba06 	br	87cc <__svfscanf_r+0x1134>
    88e4:	d900a417 	ldw	r4,656(sp)
    88e8:	20800017 	ldw	r2,0(r4)
    88ec:	21000104 	addi	r4,r4,4
    88f0:	d900a415 	stw	r4,656(sp)
    88f4:	10c00015 	stw	r3,0(r2)
    88f8:	003fb406 	br	87cc <__svfscanf_r+0x1134>
    88fc:	d9c0a117 	ldw	r7,644(sp)
    8900:	d940a617 	ldw	r5,664(sp)
    8904:	000d883a 	mov	r6,zero
    8908:	b009883a 	mov	r4,r22
    890c:	00100f40 	call	100f4 <_strtoull_r>
    8910:	100d883a 	mov	r6,r2
    8914:	180f883a 	mov	r7,r3
    8918:	003feb06 	br	88c8 <__svfscanf_r+0x1230>
    891c:	d8c0a117 	ldw	r3,644(sp)
    8920:	18c5883a 	add	r2,r3,r3
    8924:	00c000b4 	movhi	r3,2
    8928:	18e10784 	addi	r3,r3,-31714
    892c:	10c5883a 	add	r2,r2,r3
    8930:	1080000f 	ldh	r2,0(r2)
    8934:	00fd1fc4 	movi	r3,-2945
    8938:	90e4703a 	and	r18,r18,r3
    893c:	d880a115 	stw	r2,644(sp)
    8940:	003faa06 	br	87ec <__svfscanf_r+0x1154>
    8944:	d900a117 	ldw	r4,644(sp)
    8948:	00c000b4 	movhi	r3,2
    894c:	18e10784 	addi	r3,r3,-31714
    8950:	2105883a 	add	r2,r4,r4
    8954:	10c5883a 	add	r2,r2,r3
    8958:	1080000f 	ldh	r2,0(r2)
    895c:	00c00204 	movi	r3,8
    8960:	d880a115 	stw	r2,644(sp)
    8964:	18bf140e 	bge	r3,r2,85b8 <__svfscanf_r+0xf20>
    8968:	00bd1fc4 	movi	r2,-2945
    896c:	90a4703a 	and	r18,r18,r2
    8970:	003f9e06 	br	87ec <__svfscanf_r+0x1154>
    8974:	d8c0a117 	ldw	r3,644(sp)
    8978:	00800284 	movi	r2,10
    897c:	10fffa16 	blt	r2,r3,8968 <__svfscanf_r+0x12d0>
    8980:	003f0d06 	br	85b8 <__svfscanf_r+0xf20>
    8984:	90c1800c 	andi	r3,r18,1536
    8988:	00808004 	movi	r2,512
    898c:	18bf0a1e 	bne	r3,r2,85b8 <__svfscanf_r+0xf20>
    8990:	00bf7fc4 	movi	r2,-513
    8994:	9084703a 	and	r2,r18,r2
    8998:	01000404 	movi	r4,16
    899c:	14814014 	ori	r18,r2,1280
    89a0:	d900a115 	stw	r4,644(sp)
    89a4:	003f9106 	br	87ec <__svfscanf_r+0x1154>
    89a8:	d880a417 	ldw	r2,656(sp)
    89ac:	dd400404 	addi	r21,sp,16
    89b0:	14800017 	ldw	r18,0(r2)
    89b4:	9027883a 	mov	r19,r18
    89b8:	81000017 	ldw	r4,0(r16)
    89bc:	20800003 	ldbu	r2,0(r4)
    89c0:	a885883a 	add	r2,r21,r2
    89c4:	10c00007 	ldb	r3,0(r2)
    89c8:	18001426 	beq	r3,zero,8a1c <__svfscanf_r+0x1384>
    89cc:	d8c0a317 	ldw	r3,652(sp)
    89d0:	80800117 	ldw	r2,4(r16)
    89d4:	21800044 	addi	r6,r4,1
    89d8:	18ffffc4 	addi	r3,r3,-1
    89dc:	d8c0a315 	stw	r3,652(sp)
    89e0:	10ffffc4 	addi	r3,r2,-1
    89e4:	80c00115 	stw	r3,4(r16)
    89e8:	20800003 	ldbu	r2,0(r4)
    89ec:	90800005 	stb	r2,0(r18)
    89f0:	d900a317 	ldw	r4,652(sp)
    89f4:	81800015 	stw	r6,0(r16)
    89f8:	94800044 	addi	r18,r18,1
    89fc:	20000726 	beq	r4,zero,8a1c <__svfscanf_r+0x1384>
    8a00:	80800117 	ldw	r2,4(r16)
    8a04:	00bfec16 	blt	zero,r2,89b8 <__svfscanf_r+0x1320>
    8a08:	b009883a 	mov	r4,r22
    8a0c:	800b883a 	mov	r5,r16
    8a10:	000dc500 	call	dc50 <__srefill_r>
    8a14:	103fe826 	beq	r2,zero,89b8 <__svfscanf_r+0x1320>
    8a18:	9cbb7426 	beq	r19,r18,77ec <__svfscanf_r+0x154>
    8a1c:	94e7c83a 	sub	r19,r18,r19
    8a20:	983b5226 	beq	r19,zero,776c <__svfscanf_r+0xd4>
    8a24:	90000005 	stb	zero,0(r18)
    8a28:	d880a417 	ldw	r2,656(sp)
    8a2c:	d8c0a217 	ldw	r3,648(sp)
    8a30:	8ce3883a 	add	r17,r17,r19
    8a34:	10800104 	addi	r2,r2,4
    8a38:	18c00044 	addi	r3,r3,1
    8a3c:	d880a415 	stw	r2,656(sp)
    8a40:	d8c0a215 	stw	r3,648(sp)
    8a44:	003b2706 	br	76e4 <__svfscanf_r+0x4c>
    8a48:	9cc00414 	ori	r19,r19,16
    8a4c:	003b6e06 	br	7808 <__svfscanf_r+0x170>
    8a50:	00c00404 	movi	r3,16
    8a54:	01000074 	movhi	r4,1
    8a58:	213fa804 	addi	r4,r4,-352
    8a5c:	9cc08014 	ori	r19,r19,512
    8a60:	054000c4 	movi	r21,3
    8a64:	d8c0a115 	stw	r3,644(sp)
    8a68:	d900a015 	stw	r4,640(sp)
    8a6c:	003bf806 	br	7a50 <__svfscanf_r+0x3b8>
    8a70:	9880040c 	andi	r2,r19,16
    8a74:	10001926 	beq	r2,zero,8adc <__svfscanf_r+0x1444>
    8a78:	0027883a 	mov	r19,zero
    8a7c:	00000b06 	br	8aac <__svfscanf_r+0x1414>
    8a80:	80800017 	ldw	r2,0(r16)
    8a84:	b009883a 	mov	r4,r22
    8a88:	800b883a 	mov	r5,r16
    8a8c:	148d883a 	add	r6,r2,r18
    8a90:	81800015 	stw	r6,0(r16)
    8a94:	9ca7883a 	add	r19,r19,r18
    8a98:	000dc500 	call	dc50 <__srefill_r>
    8a9c:	103c711e 	bne	r2,zero,7c64 <__svfscanf_r+0x5cc>
    8aa0:	d900a317 	ldw	r4,652(sp)
    8aa4:	2489c83a 	sub	r4,r4,r18
    8aa8:	d900a315 	stw	r4,652(sp)
    8aac:	84800117 	ldw	r18,4(r16)
    8ab0:	d8c0a317 	ldw	r3,652(sp)
    8ab4:	90fff216 	blt	r18,r3,8a80 <__svfscanf_r+0x13e8>
    8ab8:	d900a317 	ldw	r4,652(sp)
    8abc:	80800017 	ldw	r2,0(r16)
    8ac0:	9927883a 	add	r19,r19,r4
    8ac4:	9107c83a 	sub	r3,r18,r4
    8ac8:	110d883a 	add	r6,r2,r4
    8acc:	8ce3883a 	add	r17,r17,r19
    8ad0:	80c00115 	stw	r3,4(r16)
    8ad4:	81800015 	stw	r6,0(r16)
    8ad8:	003b0206 	br	76e4 <__svfscanf_r+0x4c>
    8adc:	d880a417 	ldw	r2,656(sp)
    8ae0:	d980a317 	ldw	r6,652(sp)
    8ae4:	01400044 	movi	r5,1
    8ae8:	11000017 	ldw	r4,0(r2)
    8aec:	800f883a 	mov	r7,r16
    8af0:	000ae0c0 	call	ae0c <fread>
    8af4:	103b3d26 	beq	r2,zero,77ec <__svfscanf_r+0x154>
    8af8:	d8c0a417 	ldw	r3,656(sp)
    8afc:	d900a217 	ldw	r4,648(sp)
    8b00:	88a3883a 	add	r17,r17,r2
    8b04:	18c00104 	addi	r3,r3,4
    8b08:	21000044 	addi	r4,r4,1
    8b0c:	d8c0a415 	stw	r3,656(sp)
    8b10:	d900a215 	stw	r4,648(sp)
    8b14:	003af306 	br	76e4 <__svfscanf_r+0x4c>
    8b18:	8080030b 	ldhu	r2,12(r16)
    8b1c:	1080100c 	andi	r2,r2,64
    8b20:	103b1226 	beq	r2,zero,776c <__svfscanf_r+0xd4>
    8b24:	003b3306 	br	77f4 <__svfscanf_r+0x15c>
    8b28:	983b1026 	beq	r19,zero,776c <__svfscanf_r+0xd4>
    8b2c:	8ce3883a 	add	r17,r17,r19
    8b30:	003aec06 	br	76e4 <__svfscanf_r+0x4c>
    8b34:	983c9626 	beq	r19,zero,7d90 <__svfscanf_r+0x6f8>
    8b38:	9cffffc4 	addi	r19,r19,-1
    8b3c:	d8c04404 	addi	r3,sp,272
    8b40:	1cc5883a 	add	r2,r3,r19
    8b44:	11400003 	ldbu	r5,0(r2)
    8b48:	b009883a 	mov	r4,r22
    8b4c:	800d883a 	mov	r6,r16
    8b50:	00104c00 	call	104c0 <_ungetc_r>
    8b54:	003ff706 	br	8b34 <__svfscanf_r+0x149c>
    8b58:	00bfff84 	movi	r2,-2
    8b5c:	18bc7a1e 	bne	r3,r2,7d48 <__svfscanf_r+0x6b0>
    8b60:	003c8406 	br	7d74 <__svfscanf_r+0x6dc>
    8b64:	d900a417 	ldw	r4,656(sp)
    8b68:	25400017 	ldw	r21,0(r4)
    8b6c:	21000104 	addi	r4,r4,4
    8b70:	d900a415 	stw	r4,656(sp)
    8b74:	003c4a06 	br	7ca0 <__svfscanf_r+0x608>
    8b78:	00bfff84 	movi	r2,-2
    8b7c:	18bc0f1e 	bne	r3,r2,7bbc <__svfscanf_r+0x524>
    8b80:	003c1506 	br	7bd8 <__svfscanf_r+0x540>
    8b84:	b009883a 	mov	r4,r22
    8b88:	800b883a 	mov	r5,r16
    8b8c:	000dc500 	call	dc50 <__srefill_r>
    8b90:	103c1326 	beq	r2,zero,7be0 <__svfscanf_r+0x548>
    8b94:	903b151e 	bne	r18,zero,77ec <__svfscanf_r+0x154>
    8b98:	a83ad21e 	bne	r21,zero,76e4 <__svfscanf_r+0x4c>
    8b9c:	d880a217 	ldw	r2,648(sp)
    8ba0:	10800044 	addi	r2,r2,1
    8ba4:	d880a215 	stw	r2,648(sp)
    8ba8:	003ace06 	br	76e4 <__svfscanf_r+0x4c>
    8bac:	0027883a 	mov	r19,zero
    8bb0:	003bdd06 	br	7b28 <__svfscanf_r+0x490>
    8bb4:	9cc00114 	ori	r19,r19,4
    8bb8:	003b1306 	br	7808 <__svfscanf_r+0x170>
    8bbc:	05400104 	movi	r21,4
    8bc0:	003ba306 	br	7a50 <__svfscanf_r+0x3b8>
    8bc4:	9cc00054 	ori	r19,r19,1
    8bc8:	00800074 	movhi	r2,1
    8bcc:	10be4804 	addi	r2,r2,-1760
    8bd0:	00c00284 	movi	r3,10
    8bd4:	054000c4 	movi	r21,3
    8bd8:	d880a015 	stw	r2,640(sp)
    8bdc:	d8c0a115 	stw	r3,644(sp)
    8be0:	003b9b06 	br	7a50 <__svfscanf_r+0x3b8>
    8be4:	9cc01014 	ori	r19,r19,64
    8be8:	002b883a 	mov	r21,zero
    8bec:	003b9806 	br	7a50 <__svfscanf_r+0x3b8>
    8bf0:	a00b883a 	mov	r5,r20
    8bf4:	d9000404 	addi	r4,sp,16
    8bf8:	000df100 	call	df10 <__sccl>
    8bfc:	1029883a 	mov	r20,r2
    8c00:	9cc01014 	ori	r19,r19,64
    8c04:	05400044 	movi	r21,1
    8c08:	003b9106 	br	7a50 <__svfscanf_r+0x3b8>
    8c0c:	9cc00054 	ori	r19,r19,1
    8c10:	00800204 	movi	r2,8
    8c14:	00c00074 	movhi	r3,1
    8c18:	18ffa804 	addi	r3,r3,-352
    8c1c:	054000c4 	movi	r21,3
    8c20:	d880a115 	stw	r2,644(sp)
    8c24:	d8c0a015 	stw	r3,640(sp)
    8c28:	003b8906 	br	7a50 <__svfscanf_r+0x3b8>
    8c2c:	9880040c 	andi	r2,r19,16
    8c30:	103aac1e 	bne	r2,zero,76e4 <__svfscanf_r+0x4c>
    8c34:	9880010c 	andi	r2,r19,4
    8c38:	10002426 	beq	r2,zero,8ccc <__svfscanf_r+0x1634>
    8c3c:	d900a417 	ldw	r4,656(sp)
    8c40:	20800017 	ldw	r2,0(r4)
    8c44:	21000104 	addi	r4,r4,4
    8c48:	d900a415 	stw	r4,656(sp)
    8c4c:	1440000d 	sth	r17,0(r2)
    8c50:	003aa406 	br	76e4 <__svfscanf_r+0x4c>
    8c54:	9cc00094 	ori	r19,r19,2
    8c58:	003aeb06 	br	7808 <__svfscanf_r+0x170>
    8c5c:	05400084 	movi	r21,2
    8c60:	003b7b06 	br	7a50 <__svfscanf_r+0x3b8>
    8c64:	00800404 	movi	r2,16
    8c68:	00c00074 	movhi	r3,1
    8c6c:	18ffa804 	addi	r3,r3,-352
    8c70:	9cc08814 	ori	r19,r19,544
    8c74:	054000c4 	movi	r21,3
    8c78:	d880a115 	stw	r2,644(sp)
    8c7c:	d8c0a015 	stw	r3,640(sp)
    8c80:	003b7306 	br	7a50 <__svfscanf_r+0x3b8>
    8c84:	0009883a 	mov	r4,zero
    8c88:	000dfd00 	call	dfd0 <nanf>
    8c8c:	b8800015 	stw	r2,0(r23)
    8c90:	003d2706 	br	8130 <__svfscanf_r+0xa98>
    8c94:	a0c00007 	ldb	r3,0(r20)
    8c98:	00801b04 	movi	r2,108
    8c9c:	18800826 	beq	r3,r2,8cc0 <__svfscanf_r+0x1628>
    8ca0:	9cc00054 	ori	r19,r19,1
    8ca4:	003ad806 	br	7808 <__svfscanf_r+0x170>
    8ca8:	01000074 	movhi	r4,1
    8cac:	213e4804 	addi	r4,r4,-1760
    8cb0:	054000c4 	movi	r21,3
    8cb4:	d900a015 	stw	r4,640(sp)
    8cb8:	d800a115 	stw	zero,644(sp)
    8cbc:	003b6406 	br	7a50 <__svfscanf_r+0x3b8>
    8cc0:	a5000044 	addi	r20,r20,1
    8cc4:	9cc00094 	ori	r19,r19,2
    8cc8:	003acf06 	br	7808 <__svfscanf_r+0x170>
    8ccc:	9880004c 	andi	r2,r19,1
    8cd0:	1005003a 	cmpeq	r2,r2,zero
    8cd4:	10000a26 	beq	r2,zero,8d00 <__svfscanf_r+0x1668>
    8cd8:	9880008c 	andi	r2,r19,2
    8cdc:	10000826 	beq	r2,zero,8d00 <__svfscanf_r+0x1668>
    8ce0:	d900a417 	ldw	r4,656(sp)
    8ce4:	8807d7fa 	srai	r3,r17,31
    8ce8:	20800017 	ldw	r2,0(r4)
    8cec:	21000104 	addi	r4,r4,4
    8cf0:	d900a415 	stw	r4,656(sp)
    8cf4:	14400015 	stw	r17,0(r2)
    8cf8:	10c00115 	stw	r3,4(r2)
    8cfc:	003a7906 	br	76e4 <__svfscanf_r+0x4c>
    8d00:	d8c0a417 	ldw	r3,656(sp)
    8d04:	18800017 	ldw	r2,0(r3)
    8d08:	18c00104 	addi	r3,r3,4
    8d0c:	d8c0a415 	stw	r3,656(sp)
    8d10:	14400015 	stw	r17,0(r2)
    8d14:	003a7306 	br	76e4 <__svfscanf_r+0x4c>

00008d18 <__svfscanf>:
    8d18:	008000b4 	movhi	r2,2
    8d1c:	10a91504 	addi	r2,r2,-23468
    8d20:	2013883a 	mov	r9,r4
    8d24:	11000017 	ldw	r4,0(r2)
    8d28:	2805883a 	mov	r2,r5
    8d2c:	300f883a 	mov	r7,r6
    8d30:	480b883a 	mov	r5,r9
    8d34:	100d883a 	mov	r6,r2
    8d38:	00076981 	jmpi	7698 <__svfscanf_r>

00008d3c <_vfscanf_r>:
    8d3c:	defffb04 	addi	sp,sp,-20
    8d40:	dcc00315 	stw	r19,12(sp)
    8d44:	dc800215 	stw	r18,8(sp)
    8d48:	dc400115 	stw	r17,4(sp)
    8d4c:	dc000015 	stw	r16,0(sp)
    8d50:	dfc00415 	stw	ra,16(sp)
    8d54:	2021883a 	mov	r16,r4
    8d58:	2823883a 	mov	r17,r5
    8d5c:	3025883a 	mov	r18,r6
    8d60:	3827883a 	mov	r19,r7
    8d64:	20000226 	beq	r4,zero,8d70 <_vfscanf_r+0x34>
    8d68:	20800e17 	ldw	r2,56(r4)
    8d6c:	10000b26 	beq	r2,zero,8d9c <_vfscanf_r+0x60>
    8d70:	8009883a 	mov	r4,r16
    8d74:	880b883a 	mov	r5,r17
    8d78:	900d883a 	mov	r6,r18
    8d7c:	980f883a 	mov	r7,r19
    8d80:	dfc00417 	ldw	ra,16(sp)
    8d84:	dcc00317 	ldw	r19,12(sp)
    8d88:	dc800217 	ldw	r18,8(sp)
    8d8c:	dc400117 	ldw	r17,4(sp)
    8d90:	dc000017 	ldw	r16,0(sp)
    8d94:	dec00504 	addi	sp,sp,20
    8d98:	00076981 	jmpi	7698 <__svfscanf_r>
    8d9c:	000a9b80 	call	a9b8 <__sinit>
    8da0:	003ff306 	br	8d70 <_vfscanf_r+0x34>

00008da4 <vfscanf>:
    8da4:	defffb04 	addi	sp,sp,-20
    8da8:	dcc00315 	stw	r19,12(sp)
    8dac:	04c000b4 	movhi	r19,2
    8db0:	9ce91504 	addi	r19,r19,-23468
    8db4:	98c00017 	ldw	r3,0(r19)
    8db8:	dc800215 	stw	r18,8(sp)
    8dbc:	dc400115 	stw	r17,4(sp)
    8dc0:	dc000015 	stw	r16,0(sp)
    8dc4:	dfc00415 	stw	ra,16(sp)
    8dc8:	2021883a 	mov	r16,r4
    8dcc:	2823883a 	mov	r17,r5
    8dd0:	3025883a 	mov	r18,r6
    8dd4:	18000326 	beq	r3,zero,8de4 <vfscanf+0x40>
    8dd8:	18800e17 	ldw	r2,56(r3)
    8ddc:	1809883a 	mov	r4,r3
    8de0:	10000b26 	beq	r2,zero,8e10 <vfscanf+0x6c>
    8de4:	99000017 	ldw	r4,0(r19)
    8de8:	800b883a 	mov	r5,r16
    8dec:	880d883a 	mov	r6,r17
    8df0:	900f883a 	mov	r7,r18
    8df4:	dfc00417 	ldw	ra,16(sp)
    8df8:	dcc00317 	ldw	r19,12(sp)
    8dfc:	dc800217 	ldw	r18,8(sp)
    8e00:	dc400117 	ldw	r17,4(sp)
    8e04:	dc000017 	ldw	r16,0(sp)
    8e08:	dec00504 	addi	sp,sp,20
    8e0c:	00076981 	jmpi	7698 <__svfscanf_r>
    8e10:	000a9b80 	call	a9b8 <__sinit>
    8e14:	003ff306 	br	8de4 <vfscanf+0x40>

00008e18 <__swsetup_r>:
    8e18:	008000b4 	movhi	r2,2
    8e1c:	10a91504 	addi	r2,r2,-23468
    8e20:	10c00017 	ldw	r3,0(r2)
    8e24:	defffd04 	addi	sp,sp,-12
    8e28:	dc400115 	stw	r17,4(sp)
    8e2c:	dc000015 	stw	r16,0(sp)
    8e30:	dfc00215 	stw	ra,8(sp)
    8e34:	2023883a 	mov	r17,r4
    8e38:	2821883a 	mov	r16,r5
    8e3c:	18000226 	beq	r3,zero,8e48 <__swsetup_r+0x30>
    8e40:	18800e17 	ldw	r2,56(r3)
    8e44:	10001f26 	beq	r2,zero,8ec4 <__swsetup_r+0xac>
    8e48:	8100030b 	ldhu	r4,12(r16)
    8e4c:	2080020c 	andi	r2,r4,8
    8e50:	10002826 	beq	r2,zero,8ef4 <__swsetup_r+0xdc>
    8e54:	81400417 	ldw	r5,16(r16)
    8e58:	28001d26 	beq	r5,zero,8ed0 <__swsetup_r+0xb8>
    8e5c:	2080004c 	andi	r2,r4,1
    8e60:	1005003a 	cmpeq	r2,r2,zero
    8e64:	10000b26 	beq	r2,zero,8e94 <__swsetup_r+0x7c>
    8e68:	2080008c 	andi	r2,r4,2
    8e6c:	10001226 	beq	r2,zero,8eb8 <__swsetup_r+0xa0>
    8e70:	0005883a 	mov	r2,zero
    8e74:	80800215 	stw	r2,8(r16)
    8e78:	28000b26 	beq	r5,zero,8ea8 <__swsetup_r+0x90>
    8e7c:	0005883a 	mov	r2,zero
    8e80:	dfc00217 	ldw	ra,8(sp)
    8e84:	dc400117 	ldw	r17,4(sp)
    8e88:	dc000017 	ldw	r16,0(sp)
    8e8c:	dec00304 	addi	sp,sp,12
    8e90:	f800283a 	ret
    8e94:	80800517 	ldw	r2,20(r16)
    8e98:	80000215 	stw	zero,8(r16)
    8e9c:	0085c83a 	sub	r2,zero,r2
    8ea0:	80800615 	stw	r2,24(r16)
    8ea4:	283ff51e 	bne	r5,zero,8e7c <__swsetup_r+0x64>
    8ea8:	2080200c 	andi	r2,r4,128
    8eac:	103ff326 	beq	r2,zero,8e7c <__swsetup_r+0x64>
    8eb0:	00bfffc4 	movi	r2,-1
    8eb4:	003ff206 	br	8e80 <__swsetup_r+0x68>
    8eb8:	80800517 	ldw	r2,20(r16)
    8ebc:	80800215 	stw	r2,8(r16)
    8ec0:	003fed06 	br	8e78 <__swsetup_r+0x60>
    8ec4:	1809883a 	mov	r4,r3
    8ec8:	000a9b80 	call	a9b8 <__sinit>
    8ecc:	003fde06 	br	8e48 <__swsetup_r+0x30>
    8ed0:	20c0a00c 	andi	r3,r4,640
    8ed4:	00808004 	movi	r2,512
    8ed8:	18bfe026 	beq	r3,r2,8e5c <__swsetup_r+0x44>
    8edc:	8809883a 	mov	r4,r17
    8ee0:	800b883a 	mov	r5,r16
    8ee4:	000b9980 	call	b998 <__smakebuf_r>
    8ee8:	8100030b 	ldhu	r4,12(r16)
    8eec:	81400417 	ldw	r5,16(r16)
    8ef0:	003fda06 	br	8e5c <__swsetup_r+0x44>
    8ef4:	2080040c 	andi	r2,r4,16
    8ef8:	103fed26 	beq	r2,zero,8eb0 <__swsetup_r+0x98>
    8efc:	2080010c 	andi	r2,r4,4
    8f00:	10001226 	beq	r2,zero,8f4c <__swsetup_r+0x134>
    8f04:	81400c17 	ldw	r5,48(r16)
    8f08:	28000526 	beq	r5,zero,8f20 <__swsetup_r+0x108>
    8f0c:	80801004 	addi	r2,r16,64
    8f10:	28800226 	beq	r5,r2,8f1c <__swsetup_r+0x104>
    8f14:	8809883a 	mov	r4,r17
    8f18:	000af780 	call	af78 <_free_r>
    8f1c:	80000c15 	stw	zero,48(r16)
    8f20:	8080030b 	ldhu	r2,12(r16)
    8f24:	81400417 	ldw	r5,16(r16)
    8f28:	80000115 	stw	zero,4(r16)
    8f2c:	10bff6cc 	andi	r2,r2,65499
    8f30:	8080030d 	sth	r2,12(r16)
    8f34:	81400015 	stw	r5,0(r16)
    8f38:	8080030b 	ldhu	r2,12(r16)
    8f3c:	10800214 	ori	r2,r2,8
    8f40:	113fffcc 	andi	r4,r2,65535
    8f44:	8080030d 	sth	r2,12(r16)
    8f48:	003fc306 	br	8e58 <__swsetup_r+0x40>
    8f4c:	81400417 	ldw	r5,16(r16)
    8f50:	003ff906 	br	8f38 <__swsetup_r+0x120>

00008f54 <quorem>:
    8f54:	28c00417 	ldw	r3,16(r5)
    8f58:	20800417 	ldw	r2,16(r4)
    8f5c:	defff604 	addi	sp,sp,-40
    8f60:	ddc00715 	stw	r23,28(sp)
    8f64:	dd400515 	stw	r21,20(sp)
    8f68:	dfc00915 	stw	ra,36(sp)
    8f6c:	df000815 	stw	fp,32(sp)
    8f70:	dd800615 	stw	r22,24(sp)
    8f74:	dd000415 	stw	r20,16(sp)
    8f78:	dcc00315 	stw	r19,12(sp)
    8f7c:	dc800215 	stw	r18,8(sp)
    8f80:	dc400115 	stw	r17,4(sp)
    8f84:	dc000015 	stw	r16,0(sp)
    8f88:	202f883a 	mov	r23,r4
    8f8c:	282b883a 	mov	r21,r5
    8f90:	10c07416 	blt	r2,r3,9164 <quorem+0x210>
    8f94:	1c7fffc4 	addi	r17,r3,-1
    8f98:	8c45883a 	add	r2,r17,r17
    8f9c:	1085883a 	add	r2,r2,r2
    8fa0:	2c000504 	addi	r16,r5,20
    8fa4:	24c00504 	addi	r19,r4,20
    8fa8:	14ed883a 	add	r22,r2,r19
    8fac:	80a5883a 	add	r18,r16,r2
    8fb0:	b7000017 	ldw	fp,0(r22)
    8fb4:	91400017 	ldw	r5,0(r18)
    8fb8:	e009883a 	mov	r4,fp
    8fbc:	29400044 	addi	r5,r5,1
    8fc0:	00051b00 	call	51b0 <__udivsi3>
    8fc4:	1029883a 	mov	r20,r2
    8fc8:	10003c1e 	bne	r2,zero,90bc <quorem+0x168>
    8fcc:	a80b883a 	mov	r5,r21
    8fd0:	b809883a 	mov	r4,r23
    8fd4:	000c7c40 	call	c7c4 <__mcmp>
    8fd8:	10002b16 	blt	r2,zero,9088 <quorem+0x134>
    8fdc:	a5000044 	addi	r20,r20,1
    8fe0:	980f883a 	mov	r7,r19
    8fe4:	0011883a 	mov	r8,zero
    8fe8:	0009883a 	mov	r4,zero
    8fec:	81400017 	ldw	r5,0(r16)
    8ff0:	38c00017 	ldw	r3,0(r7)
    8ff4:	84000104 	addi	r16,r16,4
    8ff8:	28bfffcc 	andi	r2,r5,65535
    8ffc:	2085883a 	add	r2,r4,r2
    9000:	11bfffcc 	andi	r6,r2,65535
    9004:	193fffcc 	andi	r4,r3,65535
    9008:	1004d43a 	srli	r2,r2,16
    900c:	280ad43a 	srli	r5,r5,16
    9010:	2189c83a 	sub	r4,r4,r6
    9014:	2209883a 	add	r4,r4,r8
    9018:	1806d43a 	srli	r3,r3,16
    901c:	288b883a 	add	r5,r5,r2
    9020:	200dd43a 	srai	r6,r4,16
    9024:	28bfffcc 	andi	r2,r5,65535
    9028:	1887c83a 	sub	r3,r3,r2
    902c:	1987883a 	add	r3,r3,r6
    9030:	3900000d 	sth	r4,0(r7)
    9034:	38c0008d 	sth	r3,2(r7)
    9038:	2808d43a 	srli	r4,r5,16
    903c:	39c00104 	addi	r7,r7,4
    9040:	1811d43a 	srai	r8,r3,16
    9044:	943fe92e 	bgeu	r18,r16,8fec <quorem+0x98>
    9048:	8c45883a 	add	r2,r17,r17
    904c:	1085883a 	add	r2,r2,r2
    9050:	9885883a 	add	r2,r19,r2
    9054:	10c00017 	ldw	r3,0(r2)
    9058:	18000b1e 	bne	r3,zero,9088 <quorem+0x134>
    905c:	113fff04 	addi	r4,r2,-4
    9060:	9900082e 	bgeu	r19,r4,9084 <quorem+0x130>
    9064:	10bfff17 	ldw	r2,-4(r2)
    9068:	10000326 	beq	r2,zero,9078 <quorem+0x124>
    906c:	00000506 	br	9084 <quorem+0x130>
    9070:	20800017 	ldw	r2,0(r4)
    9074:	1000031e 	bne	r2,zero,9084 <quorem+0x130>
    9078:	213fff04 	addi	r4,r4,-4
    907c:	8c7fffc4 	addi	r17,r17,-1
    9080:	993ffb36 	bltu	r19,r4,9070 <quorem+0x11c>
    9084:	bc400415 	stw	r17,16(r23)
    9088:	a005883a 	mov	r2,r20
    908c:	dfc00917 	ldw	ra,36(sp)
    9090:	df000817 	ldw	fp,32(sp)
    9094:	ddc00717 	ldw	r23,28(sp)
    9098:	dd800617 	ldw	r22,24(sp)
    909c:	dd400517 	ldw	r21,20(sp)
    90a0:	dd000417 	ldw	r20,16(sp)
    90a4:	dcc00317 	ldw	r19,12(sp)
    90a8:	dc800217 	ldw	r18,8(sp)
    90ac:	dc400117 	ldw	r17,4(sp)
    90b0:	dc000017 	ldw	r16,0(sp)
    90b4:	dec00a04 	addi	sp,sp,40
    90b8:	f800283a 	ret
    90bc:	980f883a 	mov	r7,r19
    90c0:	8011883a 	mov	r8,r16
    90c4:	0013883a 	mov	r9,zero
    90c8:	000d883a 	mov	r6,zero
    90cc:	40c00017 	ldw	r3,0(r8)
    90d0:	39000017 	ldw	r4,0(r7)
    90d4:	42000104 	addi	r8,r8,4
    90d8:	18bfffcc 	andi	r2,r3,65535
    90dc:	a085383a 	mul	r2,r20,r2
    90e0:	1806d43a 	srli	r3,r3,16
    90e4:	217fffcc 	andi	r5,r4,65535
    90e8:	3085883a 	add	r2,r6,r2
    90ec:	11bfffcc 	andi	r6,r2,65535
    90f0:	a0c7383a 	mul	r3,r20,r3
    90f4:	1004d43a 	srli	r2,r2,16
    90f8:	298bc83a 	sub	r5,r5,r6
    90fc:	2a4b883a 	add	r5,r5,r9
    9100:	2008d43a 	srli	r4,r4,16
    9104:	1887883a 	add	r3,r3,r2
    9108:	280dd43a 	srai	r6,r5,16
    910c:	18bfffcc 	andi	r2,r3,65535
    9110:	2089c83a 	sub	r4,r4,r2
    9114:	2189883a 	add	r4,r4,r6
    9118:	3900008d 	sth	r4,2(r7)
    911c:	3940000d 	sth	r5,0(r7)
    9120:	180cd43a 	srli	r6,r3,16
    9124:	39c00104 	addi	r7,r7,4
    9128:	2013d43a 	srai	r9,r4,16
    912c:	923fe72e 	bgeu	r18,r8,90cc <quorem+0x178>
    9130:	e03fa61e 	bne	fp,zero,8fcc <quorem+0x78>
    9134:	b0ffff04 	addi	r3,r22,-4
    9138:	98c0082e 	bgeu	r19,r3,915c <quorem+0x208>
    913c:	b0bfff17 	ldw	r2,-4(r22)
    9140:	10000326 	beq	r2,zero,9150 <quorem+0x1fc>
    9144:	00000506 	br	915c <quorem+0x208>
    9148:	18800017 	ldw	r2,0(r3)
    914c:	1000031e 	bne	r2,zero,915c <quorem+0x208>
    9150:	18ffff04 	addi	r3,r3,-4
    9154:	8c7fffc4 	addi	r17,r17,-1
    9158:	98fffb36 	bltu	r19,r3,9148 <quorem+0x1f4>
    915c:	bc400415 	stw	r17,16(r23)
    9160:	003f9a06 	br	8fcc <quorem+0x78>
    9164:	0005883a 	mov	r2,zero
    9168:	003fc806 	br	908c <quorem+0x138>

0000916c <_dtoa_r>:
    916c:	22001017 	ldw	r8,64(r4)
    9170:	deffda04 	addi	sp,sp,-152
    9174:	dd402115 	stw	r21,132(sp)
    9178:	dd002015 	stw	r20,128(sp)
    917c:	dc801e15 	stw	r18,120(sp)
    9180:	dc401d15 	stw	r17,116(sp)
    9184:	dfc02515 	stw	ra,148(sp)
    9188:	df002415 	stw	fp,144(sp)
    918c:	ddc02315 	stw	r23,140(sp)
    9190:	dd802215 	stw	r22,136(sp)
    9194:	dcc01f15 	stw	r19,124(sp)
    9198:	dc001c15 	stw	r16,112(sp)
    919c:	d9001615 	stw	r4,88(sp)
    91a0:	3023883a 	mov	r17,r6
    91a4:	2829883a 	mov	r20,r5
    91a8:	d9c01715 	stw	r7,92(sp)
    91ac:	dc802817 	ldw	r18,160(sp)
    91b0:	302b883a 	mov	r21,r6
    91b4:	40000a26 	beq	r8,zero,91e0 <_dtoa_r+0x74>
    91b8:	20801117 	ldw	r2,68(r4)
    91bc:	400b883a 	mov	r5,r8
    91c0:	40800115 	stw	r2,4(r8)
    91c4:	20c01117 	ldw	r3,68(r4)
    91c8:	00800044 	movi	r2,1
    91cc:	10c4983a 	sll	r2,r2,r3
    91d0:	40800215 	stw	r2,8(r8)
    91d4:	000c6680 	call	c668 <_Bfree>
    91d8:	d8c01617 	ldw	r3,88(sp)
    91dc:	18001015 	stw	zero,64(r3)
    91e0:	8800a316 	blt	r17,zero,9470 <_dtoa_r+0x304>
    91e4:	90000015 	stw	zero,0(r18)
    91e8:	a8dffc2c 	andhi	r3,r21,32752
    91ec:	009ffc34 	movhi	r2,32752
    91f0:	18809126 	beq	r3,r2,9438 <_dtoa_r+0x2cc>
    91f4:	000d883a 	mov	r6,zero
    91f8:	000f883a 	mov	r7,zero
    91fc:	a009883a 	mov	r4,r20
    9200:	a80b883a 	mov	r5,r21
    9204:	dd001215 	stw	r20,72(sp)
    9208:	dd401315 	stw	r21,76(sp)
    920c:	001306c0 	call	1306c <__nedf2>
    9210:	1000171e 	bne	r2,zero,9270 <_dtoa_r+0x104>
    9214:	d9802717 	ldw	r6,156(sp)
    9218:	00800044 	movi	r2,1
    921c:	30800015 	stw	r2,0(r6)
    9220:	d8802917 	ldw	r2,164(sp)
    9224:	10029b26 	beq	r2,zero,9c94 <_dtoa_r+0xb28>
    9228:	d9002917 	ldw	r4,164(sp)
    922c:	008000b4 	movhi	r2,2
    9230:	10a0fd44 	addi	r2,r2,-31755
    9234:	10ffffc4 	addi	r3,r2,-1
    9238:	20800015 	stw	r2,0(r4)
    923c:	1805883a 	mov	r2,r3
    9240:	dfc02517 	ldw	ra,148(sp)
    9244:	df002417 	ldw	fp,144(sp)
    9248:	ddc02317 	ldw	r23,140(sp)
    924c:	dd802217 	ldw	r22,136(sp)
    9250:	dd402117 	ldw	r21,132(sp)
    9254:	dd002017 	ldw	r20,128(sp)
    9258:	dcc01f17 	ldw	r19,124(sp)
    925c:	dc801e17 	ldw	r18,120(sp)
    9260:	dc401d17 	ldw	r17,116(sp)
    9264:	dc001c17 	ldw	r16,112(sp)
    9268:	dec02604 	addi	sp,sp,152
    926c:	f800283a 	ret
    9270:	d9001617 	ldw	r4,88(sp)
    9274:	d9401217 	ldw	r5,72(sp)
    9278:	d8800104 	addi	r2,sp,4
    927c:	a80d883a 	mov	r6,r21
    9280:	d9c00204 	addi	r7,sp,8
    9284:	d8800015 	stw	r2,0(sp)
    9288:	000cca40 	call	cca4 <__d2b>
    928c:	d8800715 	stw	r2,28(sp)
    9290:	a804d53a 	srli	r2,r21,20
    9294:	1101ffcc 	andi	r4,r2,2047
    9298:	20008626 	beq	r4,zero,94b4 <_dtoa_r+0x348>
    929c:	d8c01217 	ldw	r3,72(sp)
    92a0:	00800434 	movhi	r2,16
    92a4:	10bfffc4 	addi	r2,r2,-1
    92a8:	ddc00117 	ldw	r23,4(sp)
    92ac:	a884703a 	and	r2,r21,r2
    92b0:	1811883a 	mov	r8,r3
    92b4:	124ffc34 	orhi	r9,r2,16368
    92b8:	25bf0044 	addi	r22,r4,-1023
    92bc:	d8000815 	stw	zero,32(sp)
    92c0:	0005883a 	mov	r2,zero
    92c4:	00cffe34 	movhi	r3,16376
    92c8:	480b883a 	mov	r5,r9
    92cc:	4009883a 	mov	r4,r8
    92d0:	180f883a 	mov	r7,r3
    92d4:	100d883a 	mov	r6,r2
    92d8:	00128d40 	call	128d4 <__subdf3>
    92dc:	0218dbf4 	movhi	r8,25455
    92e0:	4210d844 	addi	r8,r8,17249
    92e4:	024ff4f4 	movhi	r9,16339
    92e8:	4a61e9c4 	addi	r9,r9,-30809
    92ec:	480f883a 	mov	r7,r9
    92f0:	400d883a 	mov	r6,r8
    92f4:	180b883a 	mov	r5,r3
    92f8:	1009883a 	mov	r4,r2
    92fc:	00129c80 	call	129c8 <__muldf3>
    9300:	0222d874 	movhi	r8,35681
    9304:	42322cc4 	addi	r8,r8,-14157
    9308:	024ff1f4 	movhi	r9,16327
    930c:	4a628a04 	addi	r9,r9,-30168
    9310:	480f883a 	mov	r7,r9
    9314:	400d883a 	mov	r6,r8
    9318:	180b883a 	mov	r5,r3
    931c:	1009883a 	mov	r4,r2
    9320:	00129540 	call	12954 <__adddf3>
    9324:	b009883a 	mov	r4,r22
    9328:	1021883a 	mov	r16,r2
    932c:	1823883a 	mov	r17,r3
    9330:	0004f7c0 	call	4f7c <__floatsidf>
    9334:	021427f4 	movhi	r8,20639
    9338:	421e7ec4 	addi	r8,r8,31227
    933c:	024ff4f4 	movhi	r9,16339
    9340:	4a5104c4 	addi	r9,r9,17427
    9344:	480f883a 	mov	r7,r9
    9348:	400d883a 	mov	r6,r8
    934c:	180b883a 	mov	r5,r3
    9350:	1009883a 	mov	r4,r2
    9354:	00129c80 	call	129c8 <__muldf3>
    9358:	180f883a 	mov	r7,r3
    935c:	880b883a 	mov	r5,r17
    9360:	100d883a 	mov	r6,r2
    9364:	8009883a 	mov	r4,r16
    9368:	00129540 	call	12954 <__adddf3>
    936c:	1009883a 	mov	r4,r2
    9370:	180b883a 	mov	r5,r3
    9374:	1021883a 	mov	r16,r2
    9378:	1823883a 	mov	r17,r3
    937c:	00133140 	call	13314 <__fixdfsi>
    9380:	000d883a 	mov	r6,zero
    9384:	000f883a 	mov	r7,zero
    9388:	8009883a 	mov	r4,r16
    938c:	880b883a 	mov	r5,r17
    9390:	d8800d15 	stw	r2,52(sp)
    9394:	00132040 	call	13204 <__ltdf2>
    9398:	10031716 	blt	r2,zero,9ff8 <_dtoa_r+0xe8c>
    939c:	d8c00d17 	ldw	r3,52(sp)
    93a0:	00800584 	movi	r2,22
    93a4:	10c1482e 	bgeu	r2,r3,98c8 <_dtoa_r+0x75c>
    93a8:	01000044 	movi	r4,1
    93ac:	d9000c15 	stw	r4,48(sp)
    93b0:	bd85c83a 	sub	r2,r23,r22
    93b4:	11bfffc4 	addi	r6,r2,-1
    93b8:	30030b16 	blt	r6,zero,9fe8 <_dtoa_r+0xe7c>
    93bc:	d9800a15 	stw	r6,40(sp)
    93c0:	d8001115 	stw	zero,68(sp)
    93c4:	d8c00d17 	ldw	r3,52(sp)
    93c8:	1802ff16 	blt	r3,zero,9fc8 <_dtoa_r+0xe5c>
    93cc:	d9000a17 	ldw	r4,40(sp)
    93d0:	d8c00915 	stw	r3,36(sp)
    93d4:	d8001015 	stw	zero,64(sp)
    93d8:	20c9883a 	add	r4,r4,r3
    93dc:	d9000a15 	stw	r4,40(sp)
    93e0:	d9001717 	ldw	r4,92(sp)
    93e4:	00800244 	movi	r2,9
    93e8:	11004636 	bltu	r2,r4,9504 <_dtoa_r+0x398>
    93ec:	00800144 	movi	r2,5
    93f0:	11020416 	blt	r2,r4,9c04 <_dtoa_r+0xa98>
    93f4:	04400044 	movi	r17,1
    93f8:	d8c01717 	ldw	r3,92(sp)
    93fc:	00800144 	movi	r2,5
    9400:	10c1ed36 	bltu	r2,r3,9bb8 <_dtoa_r+0xa4c>
    9404:	18c5883a 	add	r2,r3,r3
    9408:	1085883a 	add	r2,r2,r2
    940c:	00c00074 	movhi	r3,1
    9410:	18e50804 	addi	r3,r3,-27616
    9414:	10c5883a 	add	r2,r2,r3
    9418:	11000017 	ldw	r4,0(r2)
    941c:	2000683a 	jmp	r4
    9420:	0000950c 	andi	zero,zero,596
    9424:	0000950c 	andi	zero,zero,596
    9428:	00009f0c 	andi	zero,zero,636
    942c:	00009ee4 	muli	zero,zero,635
    9430:	00009f28 	cmpgeui	zero,zero,636
    9434:	00009f34 	movhi	zero,636
    9438:	d9002717 	ldw	r4,156(sp)
    943c:	0089c3c4 	movi	r2,9999
    9440:	20800015 	stw	r2,0(r4)
    9444:	a0001026 	beq	r20,zero,9488 <_dtoa_r+0x31c>
    9448:	00c000b4 	movhi	r3,2
    944c:	18e1b404 	addi	r3,r3,-31024
    9450:	d9802917 	ldw	r6,164(sp)
    9454:	303f7926 	beq	r6,zero,923c <_dtoa_r+0xd0>
    9458:	188000c7 	ldb	r2,3(r3)
    945c:	190000c4 	addi	r4,r3,3
    9460:	1000101e 	bne	r2,zero,94a4 <_dtoa_r+0x338>
    9464:	d8802917 	ldw	r2,164(sp)
    9468:	11000015 	stw	r4,0(r2)
    946c:	003f7306 	br	923c <_dtoa_r+0xd0>
    9470:	00a00034 	movhi	r2,32768
    9474:	10bfffc4 	addi	r2,r2,-1
    9478:	00c00044 	movi	r3,1
    947c:	88aa703a 	and	r21,r17,r2
    9480:	90c00015 	stw	r3,0(r18)
    9484:	003f5806 	br	91e8 <_dtoa_r+0x7c>
    9488:	00800434 	movhi	r2,16
    948c:	10bfffc4 	addi	r2,r2,-1
    9490:	a884703a 	and	r2,r21,r2
    9494:	103fec1e 	bne	r2,zero,9448 <_dtoa_r+0x2dc>
    9498:	00c000b4 	movhi	r3,2
    949c:	18e1b104 	addi	r3,r3,-31036
    94a0:	003feb06 	br	9450 <_dtoa_r+0x2e4>
    94a4:	d8802917 	ldw	r2,164(sp)
    94a8:	19000204 	addi	r4,r3,8
    94ac:	11000015 	stw	r4,0(r2)
    94b0:	003f6206 	br	923c <_dtoa_r+0xd0>
    94b4:	ddc00117 	ldw	r23,4(sp)
    94b8:	d8800217 	ldw	r2,8(sp)
    94bc:	01000804 	movi	r4,32
    94c0:	b8c10c84 	addi	r3,r23,1074
    94c4:	18a3883a 	add	r17,r3,r2
    94c8:	2441b80e 	bge	r4,r17,9bac <_dtoa_r+0xa40>
    94cc:	00c01004 	movi	r3,64
    94d0:	1c47c83a 	sub	r3,r3,r17
    94d4:	88bff804 	addi	r2,r17,-32
    94d8:	a8c6983a 	sll	r3,r21,r3
    94dc:	a084d83a 	srl	r2,r20,r2
    94e0:	1888b03a 	or	r4,r3,r2
    94e4:	00134600 	call	13460 <__floatunsidf>
    94e8:	1011883a 	mov	r8,r2
    94ec:	00bf8434 	movhi	r2,65040
    94f0:	01000044 	movi	r4,1
    94f4:	10d3883a 	add	r9,r2,r3
    94f8:	8dbef344 	addi	r22,r17,-1075
    94fc:	d9000815 	stw	r4,32(sp)
    9500:	003f6f06 	br	92c0 <_dtoa_r+0x154>
    9504:	d8001715 	stw	zero,92(sp)
    9508:	04400044 	movi	r17,1
    950c:	00bfffc4 	movi	r2,-1
    9510:	00c00044 	movi	r3,1
    9514:	d8800e15 	stw	r2,56(sp)
    9518:	d8002615 	stw	zero,152(sp)
    951c:	d8800f15 	stw	r2,60(sp)
    9520:	d8c00b15 	stw	r3,44(sp)
    9524:	1021883a 	mov	r16,r2
    9528:	d8801617 	ldw	r2,88(sp)
    952c:	10001115 	stw	zero,68(r2)
    9530:	d8801617 	ldw	r2,88(sp)
    9534:	11401117 	ldw	r5,68(r2)
    9538:	1009883a 	mov	r4,r2
    953c:	000cbe80 	call	cbe8 <_Balloc>
    9540:	d8c01617 	ldw	r3,88(sp)
    9544:	d8800515 	stw	r2,20(sp)
    9548:	18801015 	stw	r2,64(r3)
    954c:	00800384 	movi	r2,14
    9550:	14006836 	bltu	r2,r16,96f4 <_dtoa_r+0x588>
    9554:	8805003a 	cmpeq	r2,r17,zero
    9558:	1000661e 	bne	r2,zero,96f4 <_dtoa_r+0x588>
    955c:	d9000d17 	ldw	r4,52(sp)
    9560:	0102300e 	bge	zero,r4,9e24 <_dtoa_r+0xcb8>
    9564:	208003cc 	andi	r2,r4,15
    9568:	100490fa 	slli	r2,r2,3
    956c:	2025d13a 	srai	r18,r4,4
    9570:	00c000b4 	movhi	r3,2
    9574:	18e1c604 	addi	r3,r3,-30952
    9578:	10c5883a 	add	r2,r2,r3
    957c:	90c0040c 	andi	r3,r18,16
    9580:	14000017 	ldw	r16,0(r2)
    9584:	14400117 	ldw	r17,4(r2)
    9588:	18036a1e 	bne	r3,zero,a334 <_dtoa_r+0x11c8>
    958c:	05800084 	movi	r22,2
    9590:	90001026 	beq	r18,zero,95d4 <_dtoa_r+0x468>
    9594:	04c000b4 	movhi	r19,2
    9598:	9ce1f804 	addi	r19,r19,-30752
    959c:	9080004c 	andi	r2,r18,1
    95a0:	1005003a 	cmpeq	r2,r2,zero
    95a4:	1000081e 	bne	r2,zero,95c8 <_dtoa_r+0x45c>
    95a8:	99800017 	ldw	r6,0(r19)
    95ac:	99c00117 	ldw	r7,4(r19)
    95b0:	880b883a 	mov	r5,r17
    95b4:	8009883a 	mov	r4,r16
    95b8:	00129c80 	call	129c8 <__muldf3>
    95bc:	1021883a 	mov	r16,r2
    95c0:	b5800044 	addi	r22,r22,1
    95c4:	1823883a 	mov	r17,r3
    95c8:	9025d07a 	srai	r18,r18,1
    95cc:	9cc00204 	addi	r19,r19,8
    95d0:	903ff21e 	bne	r18,zero,959c <_dtoa_r+0x430>
    95d4:	a80b883a 	mov	r5,r21
    95d8:	a009883a 	mov	r4,r20
    95dc:	880f883a 	mov	r7,r17
    95e0:	800d883a 	mov	r6,r16
    95e4:	0012d8c0 	call	12d8c <__divdf3>
    95e8:	1029883a 	mov	r20,r2
    95ec:	182b883a 	mov	r21,r3
    95f0:	d8c00c17 	ldw	r3,48(sp)
    95f4:	1805003a 	cmpeq	r2,r3,zero
    95f8:	1000081e 	bne	r2,zero,961c <_dtoa_r+0x4b0>
    95fc:	0005883a 	mov	r2,zero
    9600:	00cffc34 	movhi	r3,16368
    9604:	180f883a 	mov	r7,r3
    9608:	a009883a 	mov	r4,r20
    960c:	a80b883a 	mov	r5,r21
    9610:	100d883a 	mov	r6,r2
    9614:	00132040 	call	13204 <__ltdf2>
    9618:	1003fe16 	blt	r2,zero,a614 <_dtoa_r+0x14a8>
    961c:	b009883a 	mov	r4,r22
    9620:	0004f7c0 	call	4f7c <__floatsidf>
    9624:	180b883a 	mov	r5,r3
    9628:	1009883a 	mov	r4,r2
    962c:	a00d883a 	mov	r6,r20
    9630:	a80f883a 	mov	r7,r21
    9634:	00129c80 	call	129c8 <__muldf3>
    9638:	0011883a 	mov	r8,zero
    963c:	02500734 	movhi	r9,16412
    9640:	1009883a 	mov	r4,r2
    9644:	180b883a 	mov	r5,r3
    9648:	480f883a 	mov	r7,r9
    964c:	400d883a 	mov	r6,r8
    9650:	00129540 	call	12954 <__adddf3>
    9654:	d9000f17 	ldw	r4,60(sp)
    9658:	102d883a 	mov	r22,r2
    965c:	00bf3034 	movhi	r2,64704
    9660:	18b9883a 	add	fp,r3,r2
    9664:	e02f883a 	mov	r23,fp
    9668:	20028f1e 	bne	r4,zero,a0a8 <_dtoa_r+0xf3c>
    966c:	0005883a 	mov	r2,zero
    9670:	00d00534 	movhi	r3,16404
    9674:	a009883a 	mov	r4,r20
    9678:	a80b883a 	mov	r5,r21
    967c:	180f883a 	mov	r7,r3
    9680:	100d883a 	mov	r6,r2
    9684:	00128d40 	call	128d4 <__subdf3>
    9688:	1009883a 	mov	r4,r2
    968c:	e00f883a 	mov	r7,fp
    9690:	180b883a 	mov	r5,r3
    9694:	b00d883a 	mov	r6,r22
    9698:	1025883a 	mov	r18,r2
    969c:	1827883a 	mov	r19,r3
    96a0:	00130f40 	call	130f4 <__gtdf2>
    96a4:	00834f16 	blt	zero,r2,a3e4 <_dtoa_r+0x1278>
    96a8:	e0e0003c 	xorhi	r3,fp,32768
    96ac:	9009883a 	mov	r4,r18
    96b0:	980b883a 	mov	r5,r19
    96b4:	180f883a 	mov	r7,r3
    96b8:	b00d883a 	mov	r6,r22
    96bc:	00132040 	call	13204 <__ltdf2>
    96c0:	1000080e 	bge	r2,zero,96e4 <_dtoa_r+0x578>
    96c4:	0027883a 	mov	r19,zero
    96c8:	0025883a 	mov	r18,zero
    96cc:	d8802617 	ldw	r2,152(sp)
    96d0:	df000517 	ldw	fp,20(sp)
    96d4:	d8000615 	stw	zero,24(sp)
    96d8:	0084303a 	nor	r2,zero,r2
    96dc:	d8800d15 	stw	r2,52(sp)
    96e0:	00019b06 	br	9d50 <_dtoa_r+0xbe4>
    96e4:	d9801217 	ldw	r6,72(sp)
    96e8:	d8801317 	ldw	r2,76(sp)
    96ec:	3029883a 	mov	r20,r6
    96f0:	102b883a 	mov	r21,r2
    96f4:	d8c00217 	ldw	r3,8(sp)
    96f8:	18008516 	blt	r3,zero,9910 <_dtoa_r+0x7a4>
    96fc:	d9000d17 	ldw	r4,52(sp)
    9700:	00800384 	movi	r2,14
    9704:	11008216 	blt	r2,r4,9910 <_dtoa_r+0x7a4>
    9708:	200490fa 	slli	r2,r4,3
    970c:	d9802617 	ldw	r6,152(sp)
    9710:	00c000b4 	movhi	r3,2
    9714:	18e1c604 	addi	r3,r3,-30952
    9718:	10c5883a 	add	r2,r2,r3
    971c:	14800017 	ldw	r18,0(r2)
    9720:	14c00117 	ldw	r19,4(r2)
    9724:	30031e16 	blt	r6,zero,a3a0 <_dtoa_r+0x1234>
    9728:	d9000517 	ldw	r4,20(sp)
    972c:	d8c00f17 	ldw	r3,60(sp)
    9730:	a823883a 	mov	r17,r21
    9734:	a021883a 	mov	r16,r20
    9738:	192b883a 	add	r21,r3,r4
    973c:	2039883a 	mov	fp,r4
    9740:	00000f06 	br	9780 <_dtoa_r+0x614>
    9744:	0005883a 	mov	r2,zero
    9748:	00d00934 	movhi	r3,16420
    974c:	5009883a 	mov	r4,r10
    9750:	580b883a 	mov	r5,r11
    9754:	180f883a 	mov	r7,r3
    9758:	100d883a 	mov	r6,r2
    975c:	00129c80 	call	129c8 <__muldf3>
    9760:	180b883a 	mov	r5,r3
    9764:	000d883a 	mov	r6,zero
    9768:	000f883a 	mov	r7,zero
    976c:	1009883a 	mov	r4,r2
    9770:	1021883a 	mov	r16,r2
    9774:	1823883a 	mov	r17,r3
    9778:	001306c0 	call	1306c <__nedf2>
    977c:	10004526 	beq	r2,zero,9894 <_dtoa_r+0x728>
    9780:	900d883a 	mov	r6,r18
    9784:	980f883a 	mov	r7,r19
    9788:	8009883a 	mov	r4,r16
    978c:	880b883a 	mov	r5,r17
    9790:	0012d8c0 	call	12d8c <__divdf3>
    9794:	180b883a 	mov	r5,r3
    9798:	1009883a 	mov	r4,r2
    979c:	00133140 	call	13314 <__fixdfsi>
    97a0:	1009883a 	mov	r4,r2
    97a4:	1029883a 	mov	r20,r2
    97a8:	0004f7c0 	call	4f7c <__floatsidf>
    97ac:	180f883a 	mov	r7,r3
    97b0:	9009883a 	mov	r4,r18
    97b4:	980b883a 	mov	r5,r19
    97b8:	100d883a 	mov	r6,r2
    97bc:	00129c80 	call	129c8 <__muldf3>
    97c0:	180f883a 	mov	r7,r3
    97c4:	880b883a 	mov	r5,r17
    97c8:	8009883a 	mov	r4,r16
    97cc:	100d883a 	mov	r6,r2
    97d0:	00128d40 	call	128d4 <__subdf3>
    97d4:	1015883a 	mov	r10,r2
    97d8:	a0800c04 	addi	r2,r20,48
    97dc:	e0800005 	stb	r2,0(fp)
    97e0:	e7000044 	addi	fp,fp,1
    97e4:	1817883a 	mov	r11,r3
    97e8:	e57fd61e 	bne	fp,r21,9744 <_dtoa_r+0x5d8>
    97ec:	500d883a 	mov	r6,r10
    97f0:	180f883a 	mov	r7,r3
    97f4:	5009883a 	mov	r4,r10
    97f8:	180b883a 	mov	r5,r3
    97fc:	00129540 	call	12954 <__adddf3>
    9800:	100d883a 	mov	r6,r2
    9804:	9009883a 	mov	r4,r18
    9808:	980b883a 	mov	r5,r19
    980c:	180f883a 	mov	r7,r3
    9810:	1021883a 	mov	r16,r2
    9814:	1823883a 	mov	r17,r3
    9818:	00132040 	call	13204 <__ltdf2>
    981c:	10000816 	blt	r2,zero,9840 <_dtoa_r+0x6d4>
    9820:	980b883a 	mov	r5,r19
    9824:	800d883a 	mov	r6,r16
    9828:	880f883a 	mov	r7,r17
    982c:	9009883a 	mov	r4,r18
    9830:	0012fe40 	call	12fe4 <__eqdf2>
    9834:	1000171e 	bne	r2,zero,9894 <_dtoa_r+0x728>
    9838:	a080004c 	andi	r2,r20,1
    983c:	10001526 	beq	r2,zero,9894 <_dtoa_r+0x728>
    9840:	d8800d17 	ldw	r2,52(sp)
    9844:	d8800415 	stw	r2,16(sp)
    9848:	e009883a 	mov	r4,fp
    984c:	213fffc4 	addi	r4,r4,-1
    9850:	20c00007 	ldb	r3,0(r4)
    9854:	00800e44 	movi	r2,57
    9858:	1880081e 	bne	r3,r2,987c <_dtoa_r+0x710>
    985c:	d8800517 	ldw	r2,20(sp)
    9860:	113ffa1e 	bne	r2,r4,984c <_dtoa_r+0x6e0>
    9864:	d8c00417 	ldw	r3,16(sp)
    9868:	d9800517 	ldw	r6,20(sp)
    986c:	00800c04 	movi	r2,48
    9870:	18c00044 	addi	r3,r3,1
    9874:	d8c00415 	stw	r3,16(sp)
    9878:	30800005 	stb	r2,0(r6)
    987c:	20800003 	ldbu	r2,0(r4)
    9880:	d8c00417 	ldw	r3,16(sp)
    9884:	27000044 	addi	fp,r4,1
    9888:	10800044 	addi	r2,r2,1
    988c:	d8c00d15 	stw	r3,52(sp)
    9890:	20800005 	stb	r2,0(r4)
    9894:	d9001617 	ldw	r4,88(sp)
    9898:	d9400717 	ldw	r5,28(sp)
    989c:	000c6680 	call	c668 <_Bfree>
    98a0:	e0000005 	stb	zero,0(fp)
    98a4:	d9800d17 	ldw	r6,52(sp)
    98a8:	d8c02717 	ldw	r3,156(sp)
    98ac:	d9002917 	ldw	r4,164(sp)
    98b0:	30800044 	addi	r2,r6,1
    98b4:	18800015 	stw	r2,0(r3)
    98b8:	20029c26 	beq	r4,zero,a32c <_dtoa_r+0x11c0>
    98bc:	d8c00517 	ldw	r3,20(sp)
    98c0:	27000015 	stw	fp,0(r4)
    98c4:	003e5d06 	br	923c <_dtoa_r+0xd0>
    98c8:	d9800d17 	ldw	r6,52(sp)
    98cc:	00c000b4 	movhi	r3,2
    98d0:	18e1c604 	addi	r3,r3,-30952
    98d4:	d9001217 	ldw	r4,72(sp)
    98d8:	300490fa 	slli	r2,r6,3
    98dc:	d9401317 	ldw	r5,76(sp)
    98e0:	10c5883a 	add	r2,r2,r3
    98e4:	12000017 	ldw	r8,0(r2)
    98e8:	12400117 	ldw	r9,4(r2)
    98ec:	400d883a 	mov	r6,r8
    98f0:	480f883a 	mov	r7,r9
    98f4:	00132040 	call	13204 <__ltdf2>
    98f8:	1000030e 	bge	r2,zero,9908 <_dtoa_r+0x79c>
    98fc:	d8800d17 	ldw	r2,52(sp)
    9900:	10bfffc4 	addi	r2,r2,-1
    9904:	d8800d15 	stw	r2,52(sp)
    9908:	d8000c15 	stw	zero,48(sp)
    990c:	003ea806 	br	93b0 <_dtoa_r+0x244>
    9910:	d9000b17 	ldw	r4,44(sp)
    9914:	202cc03a 	cmpne	r22,r4,zero
    9918:	b000c71e 	bne	r22,zero,9c38 <_dtoa_r+0xacc>
    991c:	dc001117 	ldw	r16,68(sp)
    9920:	dc801017 	ldw	r18,64(sp)
    9924:	0027883a 	mov	r19,zero
    9928:	04000b0e 	bge	zero,r16,9958 <_dtoa_r+0x7ec>
    992c:	d8c00a17 	ldw	r3,40(sp)
    9930:	00c0090e 	bge	zero,r3,9958 <_dtoa_r+0x7ec>
    9934:	8005883a 	mov	r2,r16
    9938:	1c011316 	blt	r3,r16,9d88 <_dtoa_r+0xc1c>
    993c:	d9000a17 	ldw	r4,40(sp)
    9940:	d9801117 	ldw	r6,68(sp)
    9944:	80a1c83a 	sub	r16,r16,r2
    9948:	2089c83a 	sub	r4,r4,r2
    994c:	308dc83a 	sub	r6,r6,r2
    9950:	d9000a15 	stw	r4,40(sp)
    9954:	d9801115 	stw	r6,68(sp)
    9958:	d8801017 	ldw	r2,64(sp)
    995c:	0080150e 	bge	zero,r2,99b4 <_dtoa_r+0x848>
    9960:	d8c00b17 	ldw	r3,44(sp)
    9964:	1805003a 	cmpeq	r2,r3,zero
    9968:	1001c91e 	bne	r2,zero,a090 <_dtoa_r+0xf24>
    996c:	04800e0e 	bge	zero,r18,99a8 <_dtoa_r+0x83c>
    9970:	d9001617 	ldw	r4,88(sp)
    9974:	980b883a 	mov	r5,r19
    9978:	900d883a 	mov	r6,r18
    997c:	000d41c0 	call	d41c <__pow5mult>
    9980:	d9001617 	ldw	r4,88(sp)
    9984:	d9800717 	ldw	r6,28(sp)
    9988:	100b883a 	mov	r5,r2
    998c:	1027883a 	mov	r19,r2
    9990:	000d0f80 	call	d0f8 <__multiply>
    9994:	d9001617 	ldw	r4,88(sp)
    9998:	d9400717 	ldw	r5,28(sp)
    999c:	1023883a 	mov	r17,r2
    99a0:	000c6680 	call	c668 <_Bfree>
    99a4:	dc400715 	stw	r17,28(sp)
    99a8:	d9001017 	ldw	r4,64(sp)
    99ac:	248dc83a 	sub	r6,r4,r18
    99b0:	30010e1e 	bne	r6,zero,9dec <_dtoa_r+0xc80>
    99b4:	d9001617 	ldw	r4,88(sp)
    99b8:	04400044 	movi	r17,1
    99bc:	880b883a 	mov	r5,r17
    99c0:	000d2e00 	call	d2e0 <__i2b>
    99c4:	d9800917 	ldw	r6,36(sp)
    99c8:	1025883a 	mov	r18,r2
    99cc:	0180040e 	bge	zero,r6,99e0 <_dtoa_r+0x874>
    99d0:	d9001617 	ldw	r4,88(sp)
    99d4:	100b883a 	mov	r5,r2
    99d8:	000d41c0 	call	d41c <__pow5mult>
    99dc:	1025883a 	mov	r18,r2
    99e0:	d8801717 	ldw	r2,92(sp)
    99e4:	8880f30e 	bge	r17,r2,9db4 <_dtoa_r+0xc48>
    99e8:	0023883a 	mov	r17,zero
    99ec:	d9800917 	ldw	r6,36(sp)
    99f0:	30019e1e 	bne	r6,zero,a06c <_dtoa_r+0xf00>
    99f4:	00c00044 	movi	r3,1
    99f8:	d9000a17 	ldw	r4,40(sp)
    99fc:	20c5883a 	add	r2,r4,r3
    9a00:	10c007cc 	andi	r3,r2,31
    9a04:	1800841e 	bne	r3,zero,9c18 <_dtoa_r+0xaac>
    9a08:	00800704 	movi	r2,28
    9a0c:	d9000a17 	ldw	r4,40(sp)
    9a10:	d9801117 	ldw	r6,68(sp)
    9a14:	80a1883a 	add	r16,r16,r2
    9a18:	2089883a 	add	r4,r4,r2
    9a1c:	308d883a 	add	r6,r6,r2
    9a20:	d9000a15 	stw	r4,40(sp)
    9a24:	d9801115 	stw	r6,68(sp)
    9a28:	d8801117 	ldw	r2,68(sp)
    9a2c:	0080050e 	bge	zero,r2,9a44 <_dtoa_r+0x8d8>
    9a30:	d9400717 	ldw	r5,28(sp)
    9a34:	d9001617 	ldw	r4,88(sp)
    9a38:	100d883a 	mov	r6,r2
    9a3c:	000cfac0 	call	cfac <__lshift>
    9a40:	d8800715 	stw	r2,28(sp)
    9a44:	d8c00a17 	ldw	r3,40(sp)
    9a48:	00c0050e 	bge	zero,r3,9a60 <_dtoa_r+0x8f4>
    9a4c:	d9001617 	ldw	r4,88(sp)
    9a50:	900b883a 	mov	r5,r18
    9a54:	180d883a 	mov	r6,r3
    9a58:	000cfac0 	call	cfac <__lshift>
    9a5c:	1025883a 	mov	r18,r2
    9a60:	d9000c17 	ldw	r4,48(sp)
    9a64:	2005003a 	cmpeq	r2,r4,zero
    9a68:	10016f26 	beq	r2,zero,a028 <_dtoa_r+0xebc>
    9a6c:	d9000f17 	ldw	r4,60(sp)
    9a70:	0102170e 	bge	zero,r4,a2d0 <_dtoa_r+0x1164>
    9a74:	d9800b17 	ldw	r6,44(sp)
    9a78:	3005003a 	cmpeq	r2,r6,zero
    9a7c:	1000881e 	bne	r2,zero,9ca0 <_dtoa_r+0xb34>
    9a80:	0400050e 	bge	zero,r16,9a98 <_dtoa_r+0x92c>
    9a84:	d9001617 	ldw	r4,88(sp)
    9a88:	980b883a 	mov	r5,r19
    9a8c:	800d883a 	mov	r6,r16
    9a90:	000cfac0 	call	cfac <__lshift>
    9a94:	1027883a 	mov	r19,r2
    9a98:	8804c03a 	cmpne	r2,r17,zero
    9a9c:	1002541e 	bne	r2,zero,a3f0 <_dtoa_r+0x1284>
    9aa0:	980b883a 	mov	r5,r19
    9aa4:	dd800517 	ldw	r22,20(sp)
    9aa8:	dcc00615 	stw	r19,24(sp)
    9aac:	a700004c 	andi	fp,r20,1
    9ab0:	2827883a 	mov	r19,r5
    9ab4:	d9000717 	ldw	r4,28(sp)
    9ab8:	900b883a 	mov	r5,r18
    9abc:	0008f540 	call	8f54 <quorem>
    9ac0:	d9000717 	ldw	r4,28(sp)
    9ac4:	d9400617 	ldw	r5,24(sp)
    9ac8:	1023883a 	mov	r17,r2
    9acc:	8dc00c04 	addi	r23,r17,48
    9ad0:	000c7c40 	call	c7c4 <__mcmp>
    9ad4:	d9001617 	ldw	r4,88(sp)
    9ad8:	900b883a 	mov	r5,r18
    9adc:	980d883a 	mov	r6,r19
    9ae0:	1029883a 	mov	r20,r2
    9ae4:	000ce200 	call	ce20 <__mdiff>
    9ae8:	102b883a 	mov	r21,r2
    9aec:	10800317 	ldw	r2,12(r2)
    9af0:	1001281e 	bne	r2,zero,9f94 <_dtoa_r+0xe28>
    9af4:	d9000717 	ldw	r4,28(sp)
    9af8:	a80b883a 	mov	r5,r21
    9afc:	000c7c40 	call	c7c4 <__mcmp>
    9b00:	d9001617 	ldw	r4,88(sp)
    9b04:	1021883a 	mov	r16,r2
    9b08:	a80b883a 	mov	r5,r21
    9b0c:	000c6680 	call	c668 <_Bfree>
    9b10:	8000041e 	bne	r16,zero,9b24 <_dtoa_r+0x9b8>
    9b14:	d8801717 	ldw	r2,92(sp)
    9b18:	1000021e 	bne	r2,zero,9b24 <_dtoa_r+0x9b8>
    9b1c:	e004c03a 	cmpne	r2,fp,zero
    9b20:	10011726 	beq	r2,zero,9f80 <_dtoa_r+0xe14>
    9b24:	a0010616 	blt	r20,zero,9f40 <_dtoa_r+0xdd4>
    9b28:	a000041e 	bne	r20,zero,9b3c <_dtoa_r+0x9d0>
    9b2c:	d8c01717 	ldw	r3,92(sp)
    9b30:	1800021e 	bne	r3,zero,9b3c <_dtoa_r+0x9d0>
    9b34:	e004c03a 	cmpne	r2,fp,zero
    9b38:	10010126 	beq	r2,zero,9f40 <_dtoa_r+0xdd4>
    9b3c:	04023d16 	blt	zero,r16,a434 <_dtoa_r+0x12c8>
    9b40:	b5c00005 	stb	r23,0(r22)
    9b44:	d9800517 	ldw	r6,20(sp)
    9b48:	d9000f17 	ldw	r4,60(sp)
    9b4c:	b5800044 	addi	r22,r22,1
    9b50:	3105883a 	add	r2,r6,r4
    9b54:	b0806526 	beq	r22,r2,9cec <_dtoa_r+0xb80>
    9b58:	d9400717 	ldw	r5,28(sp)
    9b5c:	d9001617 	ldw	r4,88(sp)
    9b60:	01800284 	movi	r6,10
    9b64:	000f883a 	mov	r7,zero
    9b68:	000d31c0 	call	d31c <__multadd>
    9b6c:	d8800715 	stw	r2,28(sp)
    9b70:	d8800617 	ldw	r2,24(sp)
    9b74:	14c10c26 	beq	r2,r19,9fa8 <_dtoa_r+0xe3c>
    9b78:	d9400617 	ldw	r5,24(sp)
    9b7c:	d9001617 	ldw	r4,88(sp)
    9b80:	01800284 	movi	r6,10
    9b84:	000f883a 	mov	r7,zero
    9b88:	000d31c0 	call	d31c <__multadd>
    9b8c:	d9001617 	ldw	r4,88(sp)
    9b90:	980b883a 	mov	r5,r19
    9b94:	01800284 	movi	r6,10
    9b98:	000f883a 	mov	r7,zero
    9b9c:	d8800615 	stw	r2,24(sp)
    9ba0:	000d31c0 	call	d31c <__multadd>
    9ba4:	1027883a 	mov	r19,r2
    9ba8:	003fc206 	br	9ab4 <_dtoa_r+0x948>
    9bac:	2445c83a 	sub	r2,r4,r17
    9bb0:	a088983a 	sll	r4,r20,r2
    9bb4:	003e4b06 	br	94e4 <_dtoa_r+0x378>
    9bb8:	01bfffc4 	movi	r6,-1
    9bbc:	00800044 	movi	r2,1
    9bc0:	d9800e15 	stw	r6,56(sp)
    9bc4:	d9800f15 	stw	r6,60(sp)
    9bc8:	d8800b15 	stw	r2,44(sp)
    9bcc:	d8c01617 	ldw	r3,88(sp)
    9bd0:	008005c4 	movi	r2,23
    9bd4:	18001115 	stw	zero,68(r3)
    9bd8:	1580082e 	bgeu	r2,r22,9bfc <_dtoa_r+0xa90>
    9bdc:	00c00104 	movi	r3,4
    9be0:	0009883a 	mov	r4,zero
    9be4:	18c7883a 	add	r3,r3,r3
    9be8:	18800504 	addi	r2,r3,20
    9bec:	21000044 	addi	r4,r4,1
    9bf0:	b0bffc2e 	bgeu	r22,r2,9be4 <_dtoa_r+0xa78>
    9bf4:	d9801617 	ldw	r6,88(sp)
    9bf8:	31001115 	stw	r4,68(r6)
    9bfc:	dc000f17 	ldw	r16,60(sp)
    9c00:	003e4b06 	br	9530 <_dtoa_r+0x3c4>
    9c04:	d9801717 	ldw	r6,92(sp)
    9c08:	0023883a 	mov	r17,zero
    9c0c:	31bfff04 	addi	r6,r6,-4
    9c10:	d9801715 	stw	r6,92(sp)
    9c14:	003df806 	br	93f8 <_dtoa_r+0x28c>
    9c18:	00800804 	movi	r2,32
    9c1c:	10c9c83a 	sub	r4,r2,r3
    9c20:	00c00104 	movi	r3,4
    9c24:	19005a16 	blt	r3,r4,9d90 <_dtoa_r+0xc24>
    9c28:	008000c4 	movi	r2,3
    9c2c:	113f7e16 	blt	r2,r4,9a28 <_dtoa_r+0x8bc>
    9c30:	20800704 	addi	r2,r4,28
    9c34:	003f7506 	br	9a0c <_dtoa_r+0x8a0>
    9c38:	d9801717 	ldw	r6,92(sp)
    9c3c:	00800044 	movi	r2,1
    9c40:	1180a10e 	bge	r2,r6,9ec8 <_dtoa_r+0xd5c>
    9c44:	d9800f17 	ldw	r6,60(sp)
    9c48:	d8c01017 	ldw	r3,64(sp)
    9c4c:	30bfffc4 	addi	r2,r6,-1
    9c50:	1881c616 	blt	r3,r2,a36c <_dtoa_r+0x1200>
    9c54:	18a5c83a 	sub	r18,r3,r2
    9c58:	d8800f17 	ldw	r2,60(sp)
    9c5c:	10026216 	blt	r2,zero,a5e8 <_dtoa_r+0x147c>
    9c60:	dc001117 	ldw	r16,68(sp)
    9c64:	1007883a 	mov	r3,r2
    9c68:	d9800a17 	ldw	r6,40(sp)
    9c6c:	d8801117 	ldw	r2,68(sp)
    9c70:	d9001617 	ldw	r4,88(sp)
    9c74:	30cd883a 	add	r6,r6,r3
    9c78:	10c5883a 	add	r2,r2,r3
    9c7c:	01400044 	movi	r5,1
    9c80:	d9800a15 	stw	r6,40(sp)
    9c84:	d8801115 	stw	r2,68(sp)
    9c88:	000d2e00 	call	d2e0 <__i2b>
    9c8c:	1027883a 	mov	r19,r2
    9c90:	003f2506 	br	9928 <_dtoa_r+0x7bc>
    9c94:	00c000b4 	movhi	r3,2
    9c98:	18e0fd04 	addi	r3,r3,-31756
    9c9c:	003d6706 	br	923c <_dtoa_r+0xd0>
    9ca0:	dd800517 	ldw	r22,20(sp)
    9ca4:	04000044 	movi	r16,1
    9ca8:	00000706 	br	9cc8 <_dtoa_r+0xb5c>
    9cac:	d9400717 	ldw	r5,28(sp)
    9cb0:	d9001617 	ldw	r4,88(sp)
    9cb4:	01800284 	movi	r6,10
    9cb8:	000f883a 	mov	r7,zero
    9cbc:	000d31c0 	call	d31c <__multadd>
    9cc0:	d8800715 	stw	r2,28(sp)
    9cc4:	84000044 	addi	r16,r16,1
    9cc8:	d9000717 	ldw	r4,28(sp)
    9ccc:	900b883a 	mov	r5,r18
    9cd0:	0008f540 	call	8f54 <quorem>
    9cd4:	15c00c04 	addi	r23,r2,48
    9cd8:	b5c00005 	stb	r23,0(r22)
    9cdc:	d8c00f17 	ldw	r3,60(sp)
    9ce0:	b5800044 	addi	r22,r22,1
    9ce4:	80fff116 	blt	r16,r3,9cac <_dtoa_r+0xb40>
    9ce8:	d8000615 	stw	zero,24(sp)
    9cec:	d9400717 	ldw	r5,28(sp)
    9cf0:	d9001617 	ldw	r4,88(sp)
    9cf4:	01800044 	movi	r6,1
    9cf8:	000cfac0 	call	cfac <__lshift>
    9cfc:	1009883a 	mov	r4,r2
    9d00:	900b883a 	mov	r5,r18
    9d04:	d8800715 	stw	r2,28(sp)
    9d08:	000c7c40 	call	c7c4 <__mcmp>
    9d0c:	00803c0e 	bge	zero,r2,9e00 <_dtoa_r+0xc94>
    9d10:	b009883a 	mov	r4,r22
    9d14:	213fffc4 	addi	r4,r4,-1
    9d18:	21400003 	ldbu	r5,0(r4)
    9d1c:	00800e44 	movi	r2,57
    9d20:	28c03fcc 	andi	r3,r5,255
    9d24:	18c0201c 	xori	r3,r3,128
    9d28:	18ffe004 	addi	r3,r3,-128
    9d2c:	1881981e 	bne	r3,r2,a390 <_dtoa_r+0x1224>
    9d30:	d9800517 	ldw	r6,20(sp)
    9d34:	21bff71e 	bne	r4,r6,9d14 <_dtoa_r+0xba8>
    9d38:	d8800d17 	ldw	r2,52(sp)
    9d3c:	37000044 	addi	fp,r6,1
    9d40:	10800044 	addi	r2,r2,1
    9d44:	d8800d15 	stw	r2,52(sp)
    9d48:	00800c44 	movi	r2,49
    9d4c:	30800005 	stb	r2,0(r6)
    9d50:	d9001617 	ldw	r4,88(sp)
    9d54:	900b883a 	mov	r5,r18
    9d58:	000c6680 	call	c668 <_Bfree>
    9d5c:	983ecd26 	beq	r19,zero,9894 <_dtoa_r+0x728>
    9d60:	d8c00617 	ldw	r3,24(sp)
    9d64:	18000426 	beq	r3,zero,9d78 <_dtoa_r+0xc0c>
    9d68:	1cc00326 	beq	r3,r19,9d78 <_dtoa_r+0xc0c>
    9d6c:	d9001617 	ldw	r4,88(sp)
    9d70:	180b883a 	mov	r5,r3
    9d74:	000c6680 	call	c668 <_Bfree>
    9d78:	d9001617 	ldw	r4,88(sp)
    9d7c:	980b883a 	mov	r5,r19
    9d80:	000c6680 	call	c668 <_Bfree>
    9d84:	003ec306 	br	9894 <_dtoa_r+0x728>
    9d88:	1805883a 	mov	r2,r3
    9d8c:	003eeb06 	br	993c <_dtoa_r+0x7d0>
    9d90:	d9800a17 	ldw	r6,40(sp)
    9d94:	d8c01117 	ldw	r3,68(sp)
    9d98:	20bfff04 	addi	r2,r4,-4
    9d9c:	308d883a 	add	r6,r6,r2
    9da0:	1887883a 	add	r3,r3,r2
    9da4:	80a1883a 	add	r16,r16,r2
    9da8:	d9800a15 	stw	r6,40(sp)
    9dac:	d8c01115 	stw	r3,68(sp)
    9db0:	003f1d06 	br	9a28 <_dtoa_r+0x8bc>
    9db4:	a03f0c1e 	bne	r20,zero,99e8 <_dtoa_r+0x87c>
    9db8:	00800434 	movhi	r2,16
    9dbc:	10bfffc4 	addi	r2,r2,-1
    9dc0:	a884703a 	and	r2,r21,r2
    9dc4:	103f081e 	bne	r2,zero,99e8 <_dtoa_r+0x87c>
    9dc8:	a89ffc2c 	andhi	r2,r21,32752
    9dcc:	103f0626 	beq	r2,zero,99e8 <_dtoa_r+0x87c>
    9dd0:	d8c01117 	ldw	r3,68(sp)
    9dd4:	d9000a17 	ldw	r4,40(sp)
    9dd8:	18c00044 	addi	r3,r3,1
    9ddc:	21000044 	addi	r4,r4,1
    9de0:	d8c01115 	stw	r3,68(sp)
    9de4:	d9000a15 	stw	r4,40(sp)
    9de8:	003f0006 	br	99ec <_dtoa_r+0x880>
    9dec:	d9400717 	ldw	r5,28(sp)
    9df0:	d9001617 	ldw	r4,88(sp)
    9df4:	000d41c0 	call	d41c <__pow5mult>
    9df8:	d8800715 	stw	r2,28(sp)
    9dfc:	003eed06 	br	99b4 <_dtoa_r+0x848>
    9e00:	1000021e 	bne	r2,zero,9e0c <_dtoa_r+0xca0>
    9e04:	b880004c 	andi	r2,r23,1
    9e08:	103fc11e 	bne	r2,zero,9d10 <_dtoa_r+0xba4>
    9e0c:	b5bfffc4 	addi	r22,r22,-1
    9e10:	b0c00007 	ldb	r3,0(r22)
    9e14:	00800c04 	movi	r2,48
    9e18:	18bffc26 	beq	r3,r2,9e0c <_dtoa_r+0xca0>
    9e1c:	b7000044 	addi	fp,r22,1
    9e20:	003fcb06 	br	9d50 <_dtoa_r+0xbe4>
    9e24:	d9800d17 	ldw	r6,52(sp)
    9e28:	018fc83a 	sub	r7,zero,r6
    9e2c:	3801f726 	beq	r7,zero,a60c <_dtoa_r+0x14a0>
    9e30:	398003cc 	andi	r6,r7,15
    9e34:	300c90fa 	slli	r6,r6,3
    9e38:	014000b4 	movhi	r5,2
    9e3c:	2961c604 	addi	r5,r5,-30952
    9e40:	d9001217 	ldw	r4,72(sp)
    9e44:	314d883a 	add	r6,r6,r5
    9e48:	30c00117 	ldw	r3,4(r6)
    9e4c:	30800017 	ldw	r2,0(r6)
    9e50:	d9401317 	ldw	r5,76(sp)
    9e54:	3821d13a 	srai	r16,r7,4
    9e58:	100d883a 	mov	r6,r2
    9e5c:	180f883a 	mov	r7,r3
    9e60:	00129c80 	call	129c8 <__muldf3>
    9e64:	1011883a 	mov	r8,r2
    9e68:	1813883a 	mov	r9,r3
    9e6c:	1029883a 	mov	r20,r2
    9e70:	182b883a 	mov	r21,r3
    9e74:	8001e526 	beq	r16,zero,a60c <_dtoa_r+0x14a0>
    9e78:	05800084 	movi	r22,2
    9e7c:	044000b4 	movhi	r17,2
    9e80:	8c61f804 	addi	r17,r17,-30752
    9e84:	8080004c 	andi	r2,r16,1
    9e88:	1005003a 	cmpeq	r2,r2,zero
    9e8c:	1000081e 	bne	r2,zero,9eb0 <_dtoa_r+0xd44>
    9e90:	89800017 	ldw	r6,0(r17)
    9e94:	89c00117 	ldw	r7,4(r17)
    9e98:	480b883a 	mov	r5,r9
    9e9c:	4009883a 	mov	r4,r8
    9ea0:	00129c80 	call	129c8 <__muldf3>
    9ea4:	1011883a 	mov	r8,r2
    9ea8:	b5800044 	addi	r22,r22,1
    9eac:	1813883a 	mov	r9,r3
    9eb0:	8021d07a 	srai	r16,r16,1
    9eb4:	8c400204 	addi	r17,r17,8
    9eb8:	803ff21e 	bne	r16,zero,9e84 <_dtoa_r+0xd18>
    9ebc:	4029883a 	mov	r20,r8
    9ec0:	482b883a 	mov	r21,r9
    9ec4:	003dca06 	br	95f0 <_dtoa_r+0x484>
    9ec8:	d9000817 	ldw	r4,32(sp)
    9ecc:	2005003a 	cmpeq	r2,r4,zero
    9ed0:	1001f61e 	bne	r2,zero,a6ac <_dtoa_r+0x1540>
    9ed4:	dc001117 	ldw	r16,68(sp)
    9ed8:	dc801017 	ldw	r18,64(sp)
    9edc:	18c10cc4 	addi	r3,r3,1075
    9ee0:	003f6106 	br	9c68 <_dtoa_r+0xafc>
    9ee4:	d8000b15 	stw	zero,44(sp)
    9ee8:	d9802617 	ldw	r6,152(sp)
    9eec:	d8c00d17 	ldw	r3,52(sp)
    9ef0:	30800044 	addi	r2,r6,1
    9ef4:	18ad883a 	add	r22,r3,r2
    9ef8:	b13fffc4 	addi	r4,r22,-1
    9efc:	d9000e15 	stw	r4,56(sp)
    9f00:	0581f60e 	bge	zero,r22,a6dc <_dtoa_r+0x1570>
    9f04:	dd800f15 	stw	r22,60(sp)
    9f08:	003f3006 	br	9bcc <_dtoa_r+0xa60>
    9f0c:	d8000b15 	stw	zero,44(sp)
    9f10:	d9002617 	ldw	r4,152(sp)
    9f14:	0101eb0e 	bge	zero,r4,a6c4 <_dtoa_r+0x1558>
    9f18:	202d883a 	mov	r22,r4
    9f1c:	d9000e15 	stw	r4,56(sp)
    9f20:	d9000f15 	stw	r4,60(sp)
    9f24:	003f2906 	br	9bcc <_dtoa_r+0xa60>
    9f28:	01800044 	movi	r6,1
    9f2c:	d9800b15 	stw	r6,44(sp)
    9f30:	003ff706 	br	9f10 <_dtoa_r+0xda4>
    9f34:	01000044 	movi	r4,1
    9f38:	d9000b15 	stw	r4,44(sp)
    9f3c:	003fea06 	br	9ee8 <_dtoa_r+0xd7c>
    9f40:	04000c0e 	bge	zero,r16,9f74 <_dtoa_r+0xe08>
    9f44:	d9400717 	ldw	r5,28(sp)
    9f48:	d9001617 	ldw	r4,88(sp)
    9f4c:	01800044 	movi	r6,1
    9f50:	000cfac0 	call	cfac <__lshift>
    9f54:	1009883a 	mov	r4,r2
    9f58:	900b883a 	mov	r5,r18
    9f5c:	d8800715 	stw	r2,28(sp)
    9f60:	000c7c40 	call	c7c4 <__mcmp>
    9f64:	0081e00e 	bge	zero,r2,a6e8 <_dtoa_r+0x157c>
    9f68:	bdc00044 	addi	r23,r23,1
    9f6c:	00800e84 	movi	r2,58
    9f70:	b881a226 	beq	r23,r2,a5fc <_dtoa_r+0x1490>
    9f74:	b7000044 	addi	fp,r22,1
    9f78:	b5c00005 	stb	r23,0(r22)
    9f7c:	003f7406 	br	9d50 <_dtoa_r+0xbe4>
    9f80:	00800e44 	movi	r2,57
    9f84:	b8819d26 	beq	r23,r2,a5fc <_dtoa_r+0x1490>
    9f88:	053ffa0e 	bge	zero,r20,9f74 <_dtoa_r+0xe08>
    9f8c:	8dc00c44 	addi	r23,r17,49
    9f90:	003ff806 	br	9f74 <_dtoa_r+0xe08>
    9f94:	d9001617 	ldw	r4,88(sp)
    9f98:	a80b883a 	mov	r5,r21
    9f9c:	04000044 	movi	r16,1
    9fa0:	000c6680 	call	c668 <_Bfree>
    9fa4:	003edf06 	br	9b24 <_dtoa_r+0x9b8>
    9fa8:	d9001617 	ldw	r4,88(sp)
    9fac:	980b883a 	mov	r5,r19
    9fb0:	01800284 	movi	r6,10
    9fb4:	000f883a 	mov	r7,zero
    9fb8:	000d31c0 	call	d31c <__multadd>
    9fbc:	1027883a 	mov	r19,r2
    9fc0:	d8800615 	stw	r2,24(sp)
    9fc4:	003ebb06 	br	9ab4 <_dtoa_r+0x948>
    9fc8:	d9801117 	ldw	r6,68(sp)
    9fcc:	d8800d17 	ldw	r2,52(sp)
    9fd0:	d8000915 	stw	zero,36(sp)
    9fd4:	308dc83a 	sub	r6,r6,r2
    9fd8:	0087c83a 	sub	r3,zero,r2
    9fdc:	d9801115 	stw	r6,68(sp)
    9fe0:	d8c01015 	stw	r3,64(sp)
    9fe4:	003cfe06 	br	93e0 <_dtoa_r+0x274>
    9fe8:	018dc83a 	sub	r6,zero,r6
    9fec:	d9801115 	stw	r6,68(sp)
    9ff0:	d8000a15 	stw	zero,40(sp)
    9ff4:	003cf306 	br	93c4 <_dtoa_r+0x258>
    9ff8:	d9000d17 	ldw	r4,52(sp)
    9ffc:	0004f7c0 	call	4f7c <__floatsidf>
    a000:	880b883a 	mov	r5,r17
    a004:	8009883a 	mov	r4,r16
    a008:	180f883a 	mov	r7,r3
    a00c:	100d883a 	mov	r6,r2
    a010:	001306c0 	call	1306c <__nedf2>
    a014:	103ce126 	beq	r2,zero,939c <_dtoa_r+0x230>
    a018:	d9800d17 	ldw	r6,52(sp)
    a01c:	31bfffc4 	addi	r6,r6,-1
    a020:	d9800d15 	stw	r6,52(sp)
    a024:	003cdd06 	br	939c <_dtoa_r+0x230>
    a028:	d9000717 	ldw	r4,28(sp)
    a02c:	900b883a 	mov	r5,r18
    a030:	000c7c40 	call	c7c4 <__mcmp>
    a034:	103e8d0e 	bge	r2,zero,9a6c <_dtoa_r+0x900>
    a038:	d9400717 	ldw	r5,28(sp)
    a03c:	d9001617 	ldw	r4,88(sp)
    a040:	01800284 	movi	r6,10
    a044:	000f883a 	mov	r7,zero
    a048:	000d31c0 	call	d31c <__multadd>
    a04c:	d9800d17 	ldw	r6,52(sp)
    a050:	d8800715 	stw	r2,28(sp)
    a054:	31bfffc4 	addi	r6,r6,-1
    a058:	d9800d15 	stw	r6,52(sp)
    a05c:	b001a71e 	bne	r22,zero,a6fc <_dtoa_r+0x1590>
    a060:	d8800e17 	ldw	r2,56(sp)
    a064:	d8800f15 	stw	r2,60(sp)
    a068:	003e8006 	br	9a6c <_dtoa_r+0x900>
    a06c:	90800417 	ldw	r2,16(r18)
    a070:	1085883a 	add	r2,r2,r2
    a074:	1085883a 	add	r2,r2,r2
    a078:	1485883a 	add	r2,r2,r18
    a07c:	11000417 	ldw	r4,16(r2)
    a080:	000c6900 	call	c690 <__hi0bits>
    a084:	00c00804 	movi	r3,32
    a088:	1887c83a 	sub	r3,r3,r2
    a08c:	003e5a06 	br	99f8 <_dtoa_r+0x88c>
    a090:	d9400717 	ldw	r5,28(sp)
    a094:	d9801017 	ldw	r6,64(sp)
    a098:	d9001617 	ldw	r4,88(sp)
    a09c:	000d41c0 	call	d41c <__pow5mult>
    a0a0:	d8800715 	stw	r2,28(sp)
    a0a4:	003e4306 	br	99b4 <_dtoa_r+0x848>
    a0a8:	d9800f17 	ldw	r6,60(sp)
    a0ac:	d8800d17 	ldw	r2,52(sp)
    a0b0:	d9800315 	stw	r6,12(sp)
    a0b4:	d8800415 	stw	r2,16(sp)
    a0b8:	d8c00b17 	ldw	r3,44(sp)
    a0bc:	1805003a 	cmpeq	r2,r3,zero
    a0c0:	1000e21e 	bne	r2,zero,a44c <_dtoa_r+0x12e0>
    a0c4:	d9000317 	ldw	r4,12(sp)
    a0c8:	0005883a 	mov	r2,zero
    a0cc:	00cff834 	movhi	r3,16352
    a0d0:	200c90fa 	slli	r6,r4,3
    a0d4:	010000b4 	movhi	r4,2
    a0d8:	2121c604 	addi	r4,r4,-30952
    a0dc:	180b883a 	mov	r5,r3
    a0e0:	310d883a 	add	r6,r6,r4
    a0e4:	327fff17 	ldw	r9,-4(r6)
    a0e8:	323ffe17 	ldw	r8,-8(r6)
    a0ec:	1009883a 	mov	r4,r2
    a0f0:	480f883a 	mov	r7,r9
    a0f4:	400d883a 	mov	r6,r8
    a0f8:	0012d8c0 	call	12d8c <__divdf3>
    a0fc:	180b883a 	mov	r5,r3
    a100:	b00d883a 	mov	r6,r22
    a104:	b80f883a 	mov	r7,r23
    a108:	1009883a 	mov	r4,r2
    a10c:	00128d40 	call	128d4 <__subdf3>
    a110:	a80b883a 	mov	r5,r21
    a114:	a009883a 	mov	r4,r20
    a118:	d8c01915 	stw	r3,100(sp)
    a11c:	d8801815 	stw	r2,96(sp)
    a120:	00133140 	call	13314 <__fixdfsi>
    a124:	1009883a 	mov	r4,r2
    a128:	1027883a 	mov	r19,r2
    a12c:	0004f7c0 	call	4f7c <__floatsidf>
    a130:	a80b883a 	mov	r5,r21
    a134:	a009883a 	mov	r4,r20
    a138:	180f883a 	mov	r7,r3
    a13c:	100d883a 	mov	r6,r2
    a140:	00128d40 	call	128d4 <__subdf3>
    a144:	d9801817 	ldw	r6,96(sp)
    a148:	1823883a 	mov	r17,r3
    a14c:	d8801415 	stw	r2,80(sp)
    a150:	302d883a 	mov	r22,r6
    a154:	d9800517 	ldw	r6,20(sp)
    a158:	9cc00c04 	addi	r19,r19,48
    a15c:	dc401515 	stw	r17,84(sp)
    a160:	d8c01917 	ldw	r3,100(sp)
    a164:	34c00005 	stb	r19,0(r6)
    a168:	d8800517 	ldw	r2,20(sp)
    a16c:	d9401917 	ldw	r5,100(sp)
    a170:	d9801417 	ldw	r6,80(sp)
    a174:	b009883a 	mov	r4,r22
    a178:	880f883a 	mov	r7,r17
    a17c:	182f883a 	mov	r23,r3
    a180:	17000044 	addi	fp,r2,1
    a184:	00130f40 	call	130f4 <__gtdf2>
    a188:	00804e16 	blt	zero,r2,a2c4 <_dtoa_r+0x1158>
    a18c:	d9801417 	ldw	r6,80(sp)
    a190:	0005883a 	mov	r2,zero
    a194:	00cffc34 	movhi	r3,16368
    a198:	180b883a 	mov	r5,r3
    a19c:	880f883a 	mov	r7,r17
    a1a0:	1009883a 	mov	r4,r2
    a1a4:	00128d40 	call	128d4 <__subdf3>
    a1a8:	d9401917 	ldw	r5,100(sp)
    a1ac:	180f883a 	mov	r7,r3
    a1b0:	b009883a 	mov	r4,r22
    a1b4:	100d883a 	mov	r6,r2
    a1b8:	00130f40 	call	130f4 <__gtdf2>
    a1bc:	00bda216 	blt	zero,r2,9848 <_dtoa_r+0x6dc>
    a1c0:	d8c00317 	ldw	r3,12(sp)
    a1c4:	00800044 	movi	r2,1
    a1c8:	10c01216 	blt	r2,r3,a214 <_dtoa_r+0x10a8>
    a1cc:	003d4506 	br	96e4 <_dtoa_r+0x578>
    a1d0:	d9801417 	ldw	r6,80(sp)
    a1d4:	0005883a 	mov	r2,zero
    a1d8:	00cffc34 	movhi	r3,16368
    a1dc:	180b883a 	mov	r5,r3
    a1e0:	880f883a 	mov	r7,r17
    a1e4:	1009883a 	mov	r4,r2
    a1e8:	00128d40 	call	128d4 <__subdf3>
    a1ec:	d9c01b17 	ldw	r7,108(sp)
    a1f0:	180b883a 	mov	r5,r3
    a1f4:	1009883a 	mov	r4,r2
    a1f8:	b00d883a 	mov	r6,r22
    a1fc:	00132040 	call	13204 <__ltdf2>
    a200:	103d9116 	blt	r2,zero,9848 <_dtoa_r+0x6dc>
    a204:	d9800517 	ldw	r6,20(sp)
    a208:	d9000317 	ldw	r4,12(sp)
    a20c:	3105883a 	add	r2,r6,r4
    a210:	e0bd3426 	beq	fp,r2,96e4 <_dtoa_r+0x578>
    a214:	04500934 	movhi	r17,16420
    a218:	0021883a 	mov	r16,zero
    a21c:	b80b883a 	mov	r5,r23
    a220:	b009883a 	mov	r4,r22
    a224:	800d883a 	mov	r6,r16
    a228:	880f883a 	mov	r7,r17
    a22c:	00129c80 	call	129c8 <__muldf3>
    a230:	d9401517 	ldw	r5,84(sp)
    a234:	d9001417 	ldw	r4,80(sp)
    a238:	880f883a 	mov	r7,r17
    a23c:	000d883a 	mov	r6,zero
    a240:	d8801a15 	stw	r2,104(sp)
    a244:	d8c01b15 	stw	r3,108(sp)
    a248:	00129c80 	call	129c8 <__muldf3>
    a24c:	180b883a 	mov	r5,r3
    a250:	1009883a 	mov	r4,r2
    a254:	1823883a 	mov	r17,r3
    a258:	1021883a 	mov	r16,r2
    a25c:	00133140 	call	13314 <__fixdfsi>
    a260:	1009883a 	mov	r4,r2
    a264:	102b883a 	mov	r21,r2
    a268:	0004f7c0 	call	4f7c <__floatsidf>
    a26c:	880b883a 	mov	r5,r17
    a270:	8009883a 	mov	r4,r16
    a274:	180f883a 	mov	r7,r3
    a278:	100d883a 	mov	r6,r2
    a27c:	00128d40 	call	128d4 <__subdf3>
    a280:	1021883a 	mov	r16,r2
    a284:	d9001b17 	ldw	r4,108(sp)
    a288:	1823883a 	mov	r17,r3
    a28c:	dc001415 	stw	r16,80(sp)
    a290:	ad400c04 	addi	r21,r21,48
    a294:	dc401515 	stw	r17,84(sp)
    a298:	d8801a17 	ldw	r2,104(sp)
    a29c:	e5400005 	stb	r21,0(fp)
    a2a0:	202f883a 	mov	r23,r4
    a2a4:	d9c01b17 	ldw	r7,108(sp)
    a2a8:	d9001417 	ldw	r4,80(sp)
    a2ac:	880b883a 	mov	r5,r17
    a2b0:	100d883a 	mov	r6,r2
    a2b4:	102d883a 	mov	r22,r2
    a2b8:	e7000044 	addi	fp,fp,1
    a2bc:	00132040 	call	13204 <__ltdf2>
    a2c0:	103fc30e 	bge	r2,zero,a1d0 <_dtoa_r+0x1064>
    a2c4:	d9000417 	ldw	r4,16(sp)
    a2c8:	d9000d15 	stw	r4,52(sp)
    a2cc:	003d7106 	br	9894 <_dtoa_r+0x728>
    a2d0:	d9801717 	ldw	r6,92(sp)
    a2d4:	00800084 	movi	r2,2
    a2d8:	11bde60e 	bge	r2,r6,9a74 <_dtoa_r+0x908>
    a2dc:	203cfb1e 	bne	r4,zero,96cc <_dtoa_r+0x560>
    a2e0:	d9001617 	ldw	r4,88(sp)
    a2e4:	900b883a 	mov	r5,r18
    a2e8:	01800144 	movi	r6,5
    a2ec:	000f883a 	mov	r7,zero
    a2f0:	000d31c0 	call	d31c <__multadd>
    a2f4:	d9000717 	ldw	r4,28(sp)
    a2f8:	100b883a 	mov	r5,r2
    a2fc:	1025883a 	mov	r18,r2
    a300:	000c7c40 	call	c7c4 <__mcmp>
    a304:	00bcf10e 	bge	zero,r2,96cc <_dtoa_r+0x560>
    a308:	d8c00d17 	ldw	r3,52(sp)
    a30c:	d9000517 	ldw	r4,20(sp)
    a310:	d8000615 	stw	zero,24(sp)
    a314:	18c00044 	addi	r3,r3,1
    a318:	d8c00d15 	stw	r3,52(sp)
    a31c:	00800c44 	movi	r2,49
    a320:	27000044 	addi	fp,r4,1
    a324:	20800005 	stb	r2,0(r4)
    a328:	003e8906 	br	9d50 <_dtoa_r+0xbe4>
    a32c:	d8c00517 	ldw	r3,20(sp)
    a330:	003bc206 	br	923c <_dtoa_r+0xd0>
    a334:	018000b4 	movhi	r6,2
    a338:	31a1f804 	addi	r6,r6,-30752
    a33c:	30c00917 	ldw	r3,36(r6)
    a340:	30800817 	ldw	r2,32(r6)
    a344:	d9001217 	ldw	r4,72(sp)
    a348:	d9401317 	ldw	r5,76(sp)
    a34c:	180f883a 	mov	r7,r3
    a350:	100d883a 	mov	r6,r2
    a354:	0012d8c0 	call	12d8c <__divdf3>
    a358:	948003cc 	andi	r18,r18,15
    a35c:	058000c4 	movi	r22,3
    a360:	1029883a 	mov	r20,r2
    a364:	182b883a 	mov	r21,r3
    a368:	003c8906 	br	9590 <_dtoa_r+0x424>
    a36c:	d9001017 	ldw	r4,64(sp)
    a370:	d9800917 	ldw	r6,36(sp)
    a374:	0025883a 	mov	r18,zero
    a378:	1105c83a 	sub	r2,r2,r4
    a37c:	2089883a 	add	r4,r4,r2
    a380:	308d883a 	add	r6,r6,r2
    a384:	d9001015 	stw	r4,64(sp)
    a388:	d9800915 	stw	r6,36(sp)
    a38c:	003e3206 	br	9c58 <_dtoa_r+0xaec>
    a390:	28800044 	addi	r2,r5,1
    a394:	27000044 	addi	fp,r4,1
    a398:	20800005 	stb	r2,0(r4)
    a39c:	003e6c06 	br	9d50 <_dtoa_r+0xbe4>
    a3a0:	d8800f17 	ldw	r2,60(sp)
    a3a4:	00bce016 	blt	zero,r2,9728 <_dtoa_r+0x5bc>
    a3a8:	d9800f17 	ldw	r6,60(sp)
    a3ac:	303cc51e 	bne	r6,zero,96c4 <_dtoa_r+0x558>
    a3b0:	0005883a 	mov	r2,zero
    a3b4:	00d00534 	movhi	r3,16404
    a3b8:	980b883a 	mov	r5,r19
    a3bc:	180f883a 	mov	r7,r3
    a3c0:	9009883a 	mov	r4,r18
    a3c4:	100d883a 	mov	r6,r2
    a3c8:	00129c80 	call	129c8 <__muldf3>
    a3cc:	180b883a 	mov	r5,r3
    a3d0:	a80f883a 	mov	r7,r21
    a3d4:	1009883a 	mov	r4,r2
    a3d8:	a00d883a 	mov	r6,r20
    a3dc:	001317c0 	call	1317c <__gedf2>
    a3e0:	103cb80e 	bge	r2,zero,96c4 <_dtoa_r+0x558>
    a3e4:	0027883a 	mov	r19,zero
    a3e8:	0025883a 	mov	r18,zero
    a3ec:	003fc606 	br	a308 <_dtoa_r+0x119c>
    a3f0:	99400117 	ldw	r5,4(r19)
    a3f4:	d9001617 	ldw	r4,88(sp)
    a3f8:	000cbe80 	call	cbe8 <_Balloc>
    a3fc:	99800417 	ldw	r6,16(r19)
    a400:	11000304 	addi	r4,r2,12
    a404:	99400304 	addi	r5,r19,12
    a408:	318d883a 	add	r6,r6,r6
    a40c:	318d883a 	add	r6,r6,r6
    a410:	31800204 	addi	r6,r6,8
    a414:	1023883a 	mov	r17,r2
    a418:	000c4500 	call	c450 <memcpy>
    a41c:	d9001617 	ldw	r4,88(sp)
    a420:	880b883a 	mov	r5,r17
    a424:	01800044 	movi	r6,1
    a428:	000cfac0 	call	cfac <__lshift>
    a42c:	100b883a 	mov	r5,r2
    a430:	003d9c06 	br	9aa4 <_dtoa_r+0x938>
    a434:	00800e44 	movi	r2,57
    a438:	b8807026 	beq	r23,r2,a5fc <_dtoa_r+0x1490>
    a43c:	b8800044 	addi	r2,r23,1
    a440:	b7000044 	addi	fp,r22,1
    a444:	b0800005 	stb	r2,0(r22)
    a448:	003e4106 	br	9d50 <_dtoa_r+0xbe4>
    a44c:	d8800317 	ldw	r2,12(sp)
    a450:	018000b4 	movhi	r6,2
    a454:	31a1c604 	addi	r6,r6,-30952
    a458:	b009883a 	mov	r4,r22
    a45c:	100e90fa 	slli	r7,r2,3
    a460:	b80b883a 	mov	r5,r23
    a464:	398f883a 	add	r7,r7,r6
    a468:	38bffe17 	ldw	r2,-8(r7)
    a46c:	d9800517 	ldw	r6,20(sp)
    a470:	38ffff17 	ldw	r3,-4(r7)
    a474:	37000044 	addi	fp,r6,1
    a478:	180f883a 	mov	r7,r3
    a47c:	100d883a 	mov	r6,r2
    a480:	00129c80 	call	129c8 <__muldf3>
    a484:	a80b883a 	mov	r5,r21
    a488:	a009883a 	mov	r4,r20
    a48c:	182f883a 	mov	r23,r3
    a490:	102d883a 	mov	r22,r2
    a494:	00133140 	call	13314 <__fixdfsi>
    a498:	1009883a 	mov	r4,r2
    a49c:	1027883a 	mov	r19,r2
    a4a0:	0004f7c0 	call	4f7c <__floatsidf>
    a4a4:	a80b883a 	mov	r5,r21
    a4a8:	a009883a 	mov	r4,r20
    a4ac:	180f883a 	mov	r7,r3
    a4b0:	100d883a 	mov	r6,r2
    a4b4:	00128d40 	call	128d4 <__subdf3>
    a4b8:	180b883a 	mov	r5,r3
    a4bc:	d8c00517 	ldw	r3,20(sp)
    a4c0:	9cc00c04 	addi	r19,r19,48
    a4c4:	1009883a 	mov	r4,r2
    a4c8:	1cc00005 	stb	r19,0(r3)
    a4cc:	2021883a 	mov	r16,r4
    a4d0:	d9000317 	ldw	r4,12(sp)
    a4d4:	00800044 	movi	r2,1
    a4d8:	2823883a 	mov	r17,r5
    a4dc:	20802226 	beq	r4,r2,a568 <_dtoa_r+0x13fc>
    a4e0:	1029883a 	mov	r20,r2
    a4e4:	0005883a 	mov	r2,zero
    a4e8:	00d00934 	movhi	r3,16420
    a4ec:	180f883a 	mov	r7,r3
    a4f0:	100d883a 	mov	r6,r2
    a4f4:	880b883a 	mov	r5,r17
    a4f8:	8009883a 	mov	r4,r16
    a4fc:	00129c80 	call	129c8 <__muldf3>
    a500:	180b883a 	mov	r5,r3
    a504:	1009883a 	mov	r4,r2
    a508:	1823883a 	mov	r17,r3
    a50c:	1021883a 	mov	r16,r2
    a510:	00133140 	call	13314 <__fixdfsi>
    a514:	1009883a 	mov	r4,r2
    a518:	102b883a 	mov	r21,r2
    a51c:	0004f7c0 	call	4f7c <__floatsidf>
    a520:	880b883a 	mov	r5,r17
    a524:	8009883a 	mov	r4,r16
    a528:	180f883a 	mov	r7,r3
    a52c:	100d883a 	mov	r6,r2
    a530:	00128d40 	call	128d4 <__subdf3>
    a534:	180b883a 	mov	r5,r3
    a538:	d8c00517 	ldw	r3,20(sp)
    a53c:	1009883a 	mov	r4,r2
    a540:	ad400c04 	addi	r21,r21,48
    a544:	1d05883a 	add	r2,r3,r20
    a548:	15400005 	stb	r21,0(r2)
    a54c:	2021883a 	mov	r16,r4
    a550:	d9000317 	ldw	r4,12(sp)
    a554:	a5000044 	addi	r20,r20,1
    a558:	2823883a 	mov	r17,r5
    a55c:	a13fe11e 	bne	r20,r4,a4e4 <_dtoa_r+0x1378>
    a560:	e505883a 	add	r2,fp,r20
    a564:	173fffc4 	addi	fp,r2,-1
    a568:	0025883a 	mov	r18,zero
    a56c:	04cff834 	movhi	r19,16352
    a570:	b009883a 	mov	r4,r22
    a574:	b80b883a 	mov	r5,r23
    a578:	900d883a 	mov	r6,r18
    a57c:	980f883a 	mov	r7,r19
    a580:	00129540 	call	12954 <__adddf3>
    a584:	180b883a 	mov	r5,r3
    a588:	1009883a 	mov	r4,r2
    a58c:	800d883a 	mov	r6,r16
    a590:	880f883a 	mov	r7,r17
    a594:	00132040 	call	13204 <__ltdf2>
    a598:	103cab16 	blt	r2,zero,9848 <_dtoa_r+0x6dc>
    a59c:	0009883a 	mov	r4,zero
    a5a0:	980b883a 	mov	r5,r19
    a5a4:	b80f883a 	mov	r7,r23
    a5a8:	b00d883a 	mov	r6,r22
    a5ac:	00128d40 	call	128d4 <__subdf3>
    a5b0:	180b883a 	mov	r5,r3
    a5b4:	880f883a 	mov	r7,r17
    a5b8:	1009883a 	mov	r4,r2
    a5bc:	800d883a 	mov	r6,r16
    a5c0:	00130f40 	call	130f4 <__gtdf2>
    a5c4:	00bc470e 	bge	zero,r2,96e4 <_dtoa_r+0x578>
    a5c8:	00c00c04 	movi	r3,48
    a5cc:	e73fffc4 	addi	fp,fp,-1
    a5d0:	e0800007 	ldb	r2,0(fp)
    a5d4:	10fffd26 	beq	r2,r3,a5cc <_dtoa_r+0x1460>
    a5d8:	d9800417 	ldw	r6,16(sp)
    a5dc:	e7000044 	addi	fp,fp,1
    a5e0:	d9800d15 	stw	r6,52(sp)
    a5e4:	003cab06 	br	9894 <_dtoa_r+0x728>
    a5e8:	d8c00f17 	ldw	r3,60(sp)
    a5ec:	d9001117 	ldw	r4,68(sp)
    a5f0:	20e1c83a 	sub	r16,r4,r3
    a5f4:	0007883a 	mov	r3,zero
    a5f8:	003d9b06 	br	9c68 <_dtoa_r+0xafc>
    a5fc:	00800e44 	movi	r2,57
    a600:	b0800005 	stb	r2,0(r22)
    a604:	b5800044 	addi	r22,r22,1
    a608:	003dc106 	br	9d10 <_dtoa_r+0xba4>
    a60c:	05800084 	movi	r22,2
    a610:	003bf706 	br	95f0 <_dtoa_r+0x484>
    a614:	d9000f17 	ldw	r4,60(sp)
    a618:	013c000e 	bge	zero,r4,961c <_dtoa_r+0x4b0>
    a61c:	d9800e17 	ldw	r6,56(sp)
    a620:	01bc300e 	bge	zero,r6,96e4 <_dtoa_r+0x578>
    a624:	0005883a 	mov	r2,zero
    a628:	00d00934 	movhi	r3,16420
    a62c:	a80b883a 	mov	r5,r21
    a630:	180f883a 	mov	r7,r3
    a634:	a009883a 	mov	r4,r20
    a638:	100d883a 	mov	r6,r2
    a63c:	00129c80 	call	129c8 <__muldf3>
    a640:	b1000044 	addi	r4,r22,1
    a644:	1021883a 	mov	r16,r2
    a648:	1823883a 	mov	r17,r3
    a64c:	0004f7c0 	call	4f7c <__floatsidf>
    a650:	880b883a 	mov	r5,r17
    a654:	8009883a 	mov	r4,r16
    a658:	180f883a 	mov	r7,r3
    a65c:	100d883a 	mov	r6,r2
    a660:	00129c80 	call	129c8 <__muldf3>
    a664:	0011883a 	mov	r8,zero
    a668:	02500734 	movhi	r9,16412
    a66c:	180b883a 	mov	r5,r3
    a670:	480f883a 	mov	r7,r9
    a674:	1009883a 	mov	r4,r2
    a678:	400d883a 	mov	r6,r8
    a67c:	00129540 	call	12954 <__adddf3>
    a680:	102d883a 	mov	r22,r2
    a684:	00bf3034 	movhi	r2,64704
    a688:	10ef883a 	add	r23,r2,r3
    a68c:	d8800d17 	ldw	r2,52(sp)
    a690:	d8c00e17 	ldw	r3,56(sp)
    a694:	8029883a 	mov	r20,r16
    a698:	10bfffc4 	addi	r2,r2,-1
    a69c:	882b883a 	mov	r21,r17
    a6a0:	d8800415 	stw	r2,16(sp)
    a6a4:	d8c00315 	stw	r3,12(sp)
    a6a8:	003e8306 	br	a0b8 <_dtoa_r+0xf4c>
    a6ac:	d8800117 	ldw	r2,4(sp)
    a6b0:	dc001117 	ldw	r16,68(sp)
    a6b4:	dc801017 	ldw	r18,64(sp)
    a6b8:	00c00d84 	movi	r3,54
    a6bc:	1887c83a 	sub	r3,r3,r2
    a6c0:	003d6906 	br	9c68 <_dtoa_r+0xafc>
    a6c4:	01800044 	movi	r6,1
    a6c8:	3021883a 	mov	r16,r6
    a6cc:	d9800f15 	stw	r6,60(sp)
    a6d0:	d9802615 	stw	r6,152(sp)
    a6d4:	d9800e15 	stw	r6,56(sp)
    a6d8:	003b9306 	br	9528 <_dtoa_r+0x3bc>
    a6dc:	b021883a 	mov	r16,r22
    a6e0:	dd800f15 	stw	r22,60(sp)
    a6e4:	003b9006 	br	9528 <_dtoa_r+0x3bc>
    a6e8:	103e221e 	bne	r2,zero,9f74 <_dtoa_r+0xe08>
    a6ec:	b880004c 	andi	r2,r23,1
    a6f0:	1005003a 	cmpeq	r2,r2,zero
    a6f4:	103e1f1e 	bne	r2,zero,9f74 <_dtoa_r+0xe08>
    a6f8:	003e1b06 	br	9f68 <_dtoa_r+0xdfc>
    a6fc:	d9001617 	ldw	r4,88(sp)
    a700:	980b883a 	mov	r5,r19
    a704:	01800284 	movi	r6,10
    a708:	000f883a 	mov	r7,zero
    a70c:	000d31c0 	call	d31c <__multadd>
    a710:	d8c00e17 	ldw	r3,56(sp)
    a714:	1027883a 	mov	r19,r2
    a718:	d8c00f15 	stw	r3,60(sp)
    a71c:	003cd306 	br	9a6c <_dtoa_r+0x900>

0000a720 <_fflush_r>:
    a720:	defffb04 	addi	sp,sp,-20
    a724:	dcc00315 	stw	r19,12(sp)
    a728:	dc800215 	stw	r18,8(sp)
    a72c:	dfc00415 	stw	ra,16(sp)
    a730:	dc400115 	stw	r17,4(sp)
    a734:	dc000015 	stw	r16,0(sp)
    a738:	2027883a 	mov	r19,r4
    a73c:	2825883a 	mov	r18,r5
    a740:	20000226 	beq	r4,zero,a74c <_fflush_r+0x2c>
    a744:	20800e17 	ldw	r2,56(r4)
    a748:	10005626 	beq	r2,zero,a8a4 <_fflush_r+0x184>
    a74c:	9100030b 	ldhu	r4,12(r18)
    a750:	20ffffcc 	andi	r3,r4,65535
    a754:	18e0001c 	xori	r3,r3,32768
    a758:	18e00004 	addi	r3,r3,-32768
    a75c:	1880020c 	andi	r2,r3,8
    a760:	1000261e 	bne	r2,zero,a7fc <_fflush_r+0xdc>
    a764:	90c00117 	ldw	r3,4(r18)
    a768:	20820014 	ori	r2,r4,2048
    a76c:	9080030d 	sth	r2,12(r18)
    a770:	1009883a 	mov	r4,r2
    a774:	00c0400e 	bge	zero,r3,a878 <_fflush_r+0x158>
    a778:	92000a17 	ldw	r8,40(r18)
    a77c:	40004026 	beq	r8,zero,a880 <_fflush_r+0x160>
    a780:	2084000c 	andi	r2,r4,4096
    a784:	10005326 	beq	r2,zero,a8d4 <_fflush_r+0x1b4>
    a788:	94001417 	ldw	r16,80(r18)
    a78c:	9080030b 	ldhu	r2,12(r18)
    a790:	1080010c 	andi	r2,r2,4
    a794:	1000481e 	bne	r2,zero,a8b8 <_fflush_r+0x198>
    a798:	91400717 	ldw	r5,28(r18)
    a79c:	9809883a 	mov	r4,r19
    a7a0:	800d883a 	mov	r6,r16
    a7a4:	000f883a 	mov	r7,zero
    a7a8:	403ee83a 	callr	r8
    a7ac:	8080261e 	bne	r16,r2,a848 <_fflush_r+0x128>
    a7b0:	9080030b 	ldhu	r2,12(r18)
    a7b4:	91000417 	ldw	r4,16(r18)
    a7b8:	90000115 	stw	zero,4(r18)
    a7bc:	10bdffcc 	andi	r2,r2,63487
    a7c0:	10ffffcc 	andi	r3,r2,65535
    a7c4:	18c4000c 	andi	r3,r3,4096
    a7c8:	9080030d 	sth	r2,12(r18)
    a7cc:	91000015 	stw	r4,0(r18)
    a7d0:	18002b26 	beq	r3,zero,a880 <_fflush_r+0x160>
    a7d4:	0007883a 	mov	r3,zero
    a7d8:	1805883a 	mov	r2,r3
    a7dc:	94001415 	stw	r16,80(r18)
    a7e0:	dfc00417 	ldw	ra,16(sp)
    a7e4:	dcc00317 	ldw	r19,12(sp)
    a7e8:	dc800217 	ldw	r18,8(sp)
    a7ec:	dc400117 	ldw	r17,4(sp)
    a7f0:	dc000017 	ldw	r16,0(sp)
    a7f4:	dec00504 	addi	sp,sp,20
    a7f8:	f800283a 	ret
    a7fc:	94400417 	ldw	r17,16(r18)
    a800:	88001f26 	beq	r17,zero,a880 <_fflush_r+0x160>
    a804:	90800017 	ldw	r2,0(r18)
    a808:	18c000cc 	andi	r3,r3,3
    a80c:	94400015 	stw	r17,0(r18)
    a810:	1461c83a 	sub	r16,r2,r17
    a814:	18002526 	beq	r3,zero,a8ac <_fflush_r+0x18c>
    a818:	0005883a 	mov	r2,zero
    a81c:	90800215 	stw	r2,8(r18)
    a820:	0400170e 	bge	zero,r16,a880 <_fflush_r+0x160>
    a824:	90c00917 	ldw	r3,36(r18)
    a828:	91400717 	ldw	r5,28(r18)
    a82c:	880d883a 	mov	r6,r17
    a830:	800f883a 	mov	r7,r16
    a834:	9809883a 	mov	r4,r19
    a838:	183ee83a 	callr	r3
    a83c:	88a3883a 	add	r17,r17,r2
    a840:	80a1c83a 	sub	r16,r16,r2
    a844:	00bff616 	blt	zero,r2,a820 <_fflush_r+0x100>
    a848:	9080030b 	ldhu	r2,12(r18)
    a84c:	00ffffc4 	movi	r3,-1
    a850:	10801014 	ori	r2,r2,64
    a854:	9080030d 	sth	r2,12(r18)
    a858:	1805883a 	mov	r2,r3
    a85c:	dfc00417 	ldw	ra,16(sp)
    a860:	dcc00317 	ldw	r19,12(sp)
    a864:	dc800217 	ldw	r18,8(sp)
    a868:	dc400117 	ldw	r17,4(sp)
    a86c:	dc000017 	ldw	r16,0(sp)
    a870:	dec00504 	addi	sp,sp,20
    a874:	f800283a 	ret
    a878:	90800f17 	ldw	r2,60(r18)
    a87c:	00bfbe16 	blt	zero,r2,a778 <_fflush_r+0x58>
    a880:	0007883a 	mov	r3,zero
    a884:	1805883a 	mov	r2,r3
    a888:	dfc00417 	ldw	ra,16(sp)
    a88c:	dcc00317 	ldw	r19,12(sp)
    a890:	dc800217 	ldw	r18,8(sp)
    a894:	dc400117 	ldw	r17,4(sp)
    a898:	dc000017 	ldw	r16,0(sp)
    a89c:	dec00504 	addi	sp,sp,20
    a8a0:	f800283a 	ret
    a8a4:	000a9b80 	call	a9b8 <__sinit>
    a8a8:	003fa806 	br	a74c <_fflush_r+0x2c>
    a8ac:	90800517 	ldw	r2,20(r18)
    a8b0:	90800215 	stw	r2,8(r18)
    a8b4:	003fda06 	br	a820 <_fflush_r+0x100>
    a8b8:	90800117 	ldw	r2,4(r18)
    a8bc:	90c00c17 	ldw	r3,48(r18)
    a8c0:	80a1c83a 	sub	r16,r16,r2
    a8c4:	183fb426 	beq	r3,zero,a798 <_fflush_r+0x78>
    a8c8:	90800f17 	ldw	r2,60(r18)
    a8cc:	80a1c83a 	sub	r16,r16,r2
    a8d0:	003fb106 	br	a798 <_fflush_r+0x78>
    a8d4:	91400717 	ldw	r5,28(r18)
    a8d8:	9809883a 	mov	r4,r19
    a8dc:	000d883a 	mov	r6,zero
    a8e0:	01c00044 	movi	r7,1
    a8e4:	403ee83a 	callr	r8
    a8e8:	1021883a 	mov	r16,r2
    a8ec:	00bfffc4 	movi	r2,-1
    a8f0:	80800226 	beq	r16,r2,a8fc <_fflush_r+0x1dc>
    a8f4:	92000a17 	ldw	r8,40(r18)
    a8f8:	003fa406 	br	a78c <_fflush_r+0x6c>
    a8fc:	98c00017 	ldw	r3,0(r19)
    a900:	00800744 	movi	r2,29
    a904:	18bfde26 	beq	r3,r2,a880 <_fflush_r+0x160>
    a908:	9080030b 	ldhu	r2,12(r18)
    a90c:	8007883a 	mov	r3,r16
    a910:	10801014 	ori	r2,r2,64
    a914:	9080030d 	sth	r2,12(r18)
    a918:	003fcf06 	br	a858 <_fflush_r+0x138>

0000a91c <fflush>:
    a91c:	01400074 	movhi	r5,1
    a920:	2969c804 	addi	r5,r5,-22752
    a924:	2007883a 	mov	r3,r4
    a928:	20000526 	beq	r4,zero,a940 <fflush+0x24>
    a92c:	008000b4 	movhi	r2,2
    a930:	10a91504 	addi	r2,r2,-23468
    a934:	11000017 	ldw	r4,0(r2)
    a938:	180b883a 	mov	r5,r3
    a93c:	000a7201 	jmpi	a720 <_fflush_r>
    a940:	008000b4 	movhi	r2,2
    a944:	10a91604 	addi	r2,r2,-23464
    a948:	11000017 	ldw	r4,0(r2)
    a94c:	000b7281 	jmpi	b728 <_fwalk_reent>

0000a950 <std>:
    a950:	00800074 	movhi	r2,1
    a954:	10b82b04 	addi	r2,r2,-8020
    a958:	20800b15 	stw	r2,44(r4)
    a95c:	00800074 	movhi	r2,1
    a960:	10b86604 	addi	r2,r2,-7784
    a964:	20800815 	stw	r2,32(r4)
    a968:	00c00074 	movhi	r3,1
    a96c:	18f84704 	addi	r3,r3,-7908
    a970:	00800074 	movhi	r2,1
    a974:	10b82d04 	addi	r2,r2,-8012
    a978:	2140030d 	sth	r5,12(r4)
    a97c:	2180038d 	sth	r6,14(r4)
    a980:	20c00915 	stw	r3,36(r4)
    a984:	20800a15 	stw	r2,40(r4)
    a988:	20000015 	stw	zero,0(r4)
    a98c:	20000115 	stw	zero,4(r4)
    a990:	20000215 	stw	zero,8(r4)
    a994:	20000415 	stw	zero,16(r4)
    a998:	20000515 	stw	zero,20(r4)
    a99c:	20000615 	stw	zero,24(r4)
    a9a0:	21000715 	stw	r4,28(r4)
    a9a4:	f800283a 	ret

0000a9a8 <__sfp_lock_acquire>:
    a9a8:	f800283a 	ret

0000a9ac <__sfp_lock_release>:
    a9ac:	f800283a 	ret

0000a9b0 <__sinit_lock_acquire>:
    a9b0:	f800283a 	ret

0000a9b4 <__sinit_lock_release>:
    a9b4:	f800283a 	ret

0000a9b8 <__sinit>:
    a9b8:	20800e17 	ldw	r2,56(r4)
    a9bc:	defffd04 	addi	sp,sp,-12
    a9c0:	dc400115 	stw	r17,4(sp)
    a9c4:	dc000015 	stw	r16,0(sp)
    a9c8:	dfc00215 	stw	ra,8(sp)
    a9cc:	04400044 	movi	r17,1
    a9d0:	01400104 	movi	r5,4
    a9d4:	000d883a 	mov	r6,zero
    a9d8:	2021883a 	mov	r16,r4
    a9dc:	2200bb04 	addi	r8,r4,748
    a9e0:	200f883a 	mov	r7,r4
    a9e4:	10000526 	beq	r2,zero,a9fc <__sinit+0x44>
    a9e8:	dfc00217 	ldw	ra,8(sp)
    a9ec:	dc400117 	ldw	r17,4(sp)
    a9f0:	dc000017 	ldw	r16,0(sp)
    a9f4:	dec00304 	addi	sp,sp,12
    a9f8:	f800283a 	ret
    a9fc:	21000117 	ldw	r4,4(r4)
    aa00:	00800074 	movhi	r2,1
    aa04:	10aaa704 	addi	r2,r2,-21860
    aa08:	00c000c4 	movi	r3,3
    aa0c:	80800f15 	stw	r2,60(r16)
    aa10:	80c0b915 	stw	r3,740(r16)
    aa14:	8200ba15 	stw	r8,744(r16)
    aa18:	84400e15 	stw	r17,56(r16)
    aa1c:	8000b815 	stw	zero,736(r16)
    aa20:	000a9500 	call	a950 <std>
    aa24:	81000217 	ldw	r4,8(r16)
    aa28:	880d883a 	mov	r6,r17
    aa2c:	800f883a 	mov	r7,r16
    aa30:	01400284 	movi	r5,10
    aa34:	000a9500 	call	a950 <std>
    aa38:	81000317 	ldw	r4,12(r16)
    aa3c:	800f883a 	mov	r7,r16
    aa40:	01400484 	movi	r5,18
    aa44:	01800084 	movi	r6,2
    aa48:	dfc00217 	ldw	ra,8(sp)
    aa4c:	dc400117 	ldw	r17,4(sp)
    aa50:	dc000017 	ldw	r16,0(sp)
    aa54:	dec00304 	addi	sp,sp,12
    aa58:	000a9501 	jmpi	a950 <std>

0000aa5c <__fp_lock>:
    aa5c:	0005883a 	mov	r2,zero
    aa60:	f800283a 	ret

0000aa64 <__fp_unlock>:
    aa64:	0005883a 	mov	r2,zero
    aa68:	f800283a 	ret

0000aa6c <__fp_unlock_all>:
    aa6c:	008000b4 	movhi	r2,2
    aa70:	10a91504 	addi	r2,r2,-23468
    aa74:	11000017 	ldw	r4,0(r2)
    aa78:	01400074 	movhi	r5,1
    aa7c:	296a9904 	addi	r5,r5,-21916
    aa80:	000b7f01 	jmpi	b7f0 <_fwalk>

0000aa84 <__fp_lock_all>:
    aa84:	008000b4 	movhi	r2,2
    aa88:	10a91504 	addi	r2,r2,-23468
    aa8c:	11000017 	ldw	r4,0(r2)
    aa90:	01400074 	movhi	r5,1
    aa94:	296a9704 	addi	r5,r5,-21924
    aa98:	000b7f01 	jmpi	b7f0 <_fwalk>

0000aa9c <_cleanup_r>:
    aa9c:	01400074 	movhi	r5,1
    aaa0:	29424904 	addi	r5,r5,2340
    aaa4:	000b7f01 	jmpi	b7f0 <_fwalk>

0000aaa8 <_cleanup>:
    aaa8:	008000b4 	movhi	r2,2
    aaac:	10a91604 	addi	r2,r2,-23464
    aab0:	11000017 	ldw	r4,0(r2)
    aab4:	000aa9c1 	jmpi	aa9c <_cleanup_r>

0000aab8 <__sfmoreglue>:
    aab8:	defffc04 	addi	sp,sp,-16
    aabc:	dc400115 	stw	r17,4(sp)
    aac0:	2c401724 	muli	r17,r5,92
    aac4:	dc800215 	stw	r18,8(sp)
    aac8:	2825883a 	mov	r18,r5
    aacc:	89400304 	addi	r5,r17,12
    aad0:	dc000015 	stw	r16,0(sp)
    aad4:	dfc00315 	stw	ra,12(sp)
    aad8:	000bb2c0 	call	bb2c <_malloc_r>
    aadc:	0021883a 	mov	r16,zero
    aae0:	880d883a 	mov	r6,r17
    aae4:	000b883a 	mov	r5,zero
    aae8:	10000626 	beq	r2,zero,ab04 <__sfmoreglue+0x4c>
    aaec:	11000304 	addi	r4,r2,12
    aaf0:	14800115 	stw	r18,4(r2)
    aaf4:	10000015 	stw	zero,0(r2)
    aaf8:	11000215 	stw	r4,8(r2)
    aafc:	1021883a 	mov	r16,r2
    ab00:	000c5d00 	call	c5d0 <memset>
    ab04:	8005883a 	mov	r2,r16
    ab08:	dfc00317 	ldw	ra,12(sp)
    ab0c:	dc800217 	ldw	r18,8(sp)
    ab10:	dc400117 	ldw	r17,4(sp)
    ab14:	dc000017 	ldw	r16,0(sp)
    ab18:	dec00404 	addi	sp,sp,16
    ab1c:	f800283a 	ret

0000ab20 <__sfp>:
    ab20:	defffd04 	addi	sp,sp,-12
    ab24:	008000b4 	movhi	r2,2
    ab28:	10a91604 	addi	r2,r2,-23464
    ab2c:	dc000015 	stw	r16,0(sp)
    ab30:	14000017 	ldw	r16,0(r2)
    ab34:	dc400115 	stw	r17,4(sp)
    ab38:	dfc00215 	stw	ra,8(sp)
    ab3c:	80800e17 	ldw	r2,56(r16)
    ab40:	2023883a 	mov	r17,r4
    ab44:	10002626 	beq	r2,zero,abe0 <__sfp+0xc0>
    ab48:	8400b804 	addi	r16,r16,736
    ab4c:	80800117 	ldw	r2,4(r16)
    ab50:	81000217 	ldw	r4,8(r16)
    ab54:	10ffffc4 	addi	r3,r2,-1
    ab58:	18000916 	blt	r3,zero,ab80 <__sfp+0x60>
    ab5c:	2080030f 	ldh	r2,12(r4)
    ab60:	10000b26 	beq	r2,zero,ab90 <__sfp+0x70>
    ab64:	017fffc4 	movi	r5,-1
    ab68:	00000206 	br	ab74 <__sfp+0x54>
    ab6c:	2080030f 	ldh	r2,12(r4)
    ab70:	10000726 	beq	r2,zero,ab90 <__sfp+0x70>
    ab74:	18ffffc4 	addi	r3,r3,-1
    ab78:	21001704 	addi	r4,r4,92
    ab7c:	197ffb1e 	bne	r3,r5,ab6c <__sfp+0x4c>
    ab80:	80800017 	ldw	r2,0(r16)
    ab84:	10001926 	beq	r2,zero,abec <__sfp+0xcc>
    ab88:	1021883a 	mov	r16,r2
    ab8c:	003fef06 	br	ab4c <__sfp+0x2c>
    ab90:	00bfffc4 	movi	r2,-1
    ab94:	00c00044 	movi	r3,1
    ab98:	2080038d 	sth	r2,14(r4)
    ab9c:	20c0030d 	sth	r3,12(r4)
    aba0:	20000015 	stw	zero,0(r4)
    aba4:	20000215 	stw	zero,8(r4)
    aba8:	20000115 	stw	zero,4(r4)
    abac:	20000415 	stw	zero,16(r4)
    abb0:	20000515 	stw	zero,20(r4)
    abb4:	20000615 	stw	zero,24(r4)
    abb8:	20000c15 	stw	zero,48(r4)
    abbc:	20000d15 	stw	zero,52(r4)
    abc0:	20001115 	stw	zero,68(r4)
    abc4:	20001215 	stw	zero,72(r4)
    abc8:	2005883a 	mov	r2,r4
    abcc:	dfc00217 	ldw	ra,8(sp)
    abd0:	dc400117 	ldw	r17,4(sp)
    abd4:	dc000017 	ldw	r16,0(sp)
    abd8:	dec00304 	addi	sp,sp,12
    abdc:	f800283a 	ret
    abe0:	8009883a 	mov	r4,r16
    abe4:	000a9b80 	call	a9b8 <__sinit>
    abe8:	003fd706 	br	ab48 <__sfp+0x28>
    abec:	8809883a 	mov	r4,r17
    abf0:	01400104 	movi	r5,4
    abf4:	000aab80 	call	aab8 <__sfmoreglue>
    abf8:	80800015 	stw	r2,0(r16)
    abfc:	103fe21e 	bne	r2,zero,ab88 <__sfp+0x68>
    ac00:	00800304 	movi	r2,12
    ac04:	0009883a 	mov	r4,zero
    ac08:	88800015 	stw	r2,0(r17)
    ac0c:	003fee06 	br	abc8 <__sfp+0xa8>

0000ac10 <_fread_r>:
    ac10:	defff504 	addi	sp,sp,-44
    ac14:	ddc00815 	stw	r23,32(sp)
    ac18:	39af383a 	mul	r23,r7,r6
    ac1c:	df000915 	stw	fp,36(sp)
    ac20:	dd800715 	stw	r22,28(sp)
    ac24:	dcc00415 	stw	r19,16(sp)
    ac28:	dc000115 	stw	r16,4(sp)
    ac2c:	dfc00a15 	stw	ra,40(sp)
    ac30:	dd400615 	stw	r21,24(sp)
    ac34:	dd000515 	stw	r20,20(sp)
    ac38:	dc800315 	stw	r18,12(sp)
    ac3c:	dc400215 	stw	r17,8(sp)
    ac40:	d9800015 	stw	r6,0(sp)
    ac44:	3839883a 	mov	fp,r7
    ac48:	2821883a 	mov	r16,r5
    ac4c:	202d883a 	mov	r22,r4
    ac50:	dcc00b17 	ldw	r19,44(sp)
    ac54:	b8005926 	beq	r23,zero,adbc <_fread_r+0x1ac>
    ac58:	20000226 	beq	r4,zero,ac64 <_fread_r+0x54>
    ac5c:	20800e17 	ldw	r2,56(r4)
    ac60:	10005826 	beq	r2,zero,adc4 <_fread_r+0x1b4>
    ac64:	9c400117 	ldw	r17,4(r19)
    ac68:	88005916 	blt	r17,zero,add0 <_fread_r+0x1c0>
    ac6c:	9880030b 	ldhu	r2,12(r19)
    ac70:	8029883a 	mov	r20,r16
    ac74:	1080008c 	andi	r2,r2,2
    ac78:	1000221e 	bne	r2,zero,ad04 <_fread_r+0xf4>
    ac7c:	b825883a 	mov	r18,r23
    ac80:	00000106 	br	ac88 <_fread_r+0x78>
    ac84:	9c400117 	ldw	r17,4(r19)
    ac88:	a009883a 	mov	r4,r20
    ac8c:	880d883a 	mov	r6,r17
    ac90:	8c80542e 	bgeu	r17,r18,ade4 <_fread_r+0x1d4>
    ac94:	99400017 	ldw	r5,0(r19)
    ac98:	a469883a 	add	r20,r20,r17
    ac9c:	9465c83a 	sub	r18,r18,r17
    aca0:	000c4500 	call	c450 <memcpy>
    aca4:	98800017 	ldw	r2,0(r19)
    aca8:	b009883a 	mov	r4,r22
    acac:	980b883a 	mov	r5,r19
    acb0:	1461883a 	add	r16,r2,r17
    acb4:	9c000015 	stw	r16,0(r19)
    acb8:	000dc500 	call	dc50 <__srefill_r>
    acbc:	103ff126 	beq	r2,zero,ac84 <_fread_r+0x74>
    acc0:	d9400017 	ldw	r5,0(sp)
    acc4:	bc89c83a 	sub	r4,r23,r18
    acc8:	00051b00 	call	51b0 <__udivsi3>
    accc:	1039883a 	mov	fp,r2
    acd0:	e005883a 	mov	r2,fp
    acd4:	dfc00a17 	ldw	ra,40(sp)
    acd8:	df000917 	ldw	fp,36(sp)
    acdc:	ddc00817 	ldw	r23,32(sp)
    ace0:	dd800717 	ldw	r22,28(sp)
    ace4:	dd400617 	ldw	r21,24(sp)
    ace8:	dd000517 	ldw	r20,20(sp)
    acec:	dcc00417 	ldw	r19,16(sp)
    acf0:	dc800317 	ldw	r18,12(sp)
    acf4:	dc400217 	ldw	r17,8(sp)
    acf8:	dc000117 	ldw	r16,4(sp)
    acfc:	dec00b04 	addi	sp,sp,44
    ad00:	f800283a 	ret
    ad04:	b825883a 	mov	r18,r23
    ad08:	8dc03436 	bltu	r17,r23,addc <_fread_r+0x1cc>
    ad0c:	99400017 	ldw	r5,0(r19)
    ad10:	a009883a 	mov	r4,r20
    ad14:	900d883a 	mov	r6,r18
    ad18:	000c4500 	call	c450 <memcpy>
    ad1c:	9c000017 	ldw	r16,0(r19)
    ad20:	98800117 	ldw	r2,4(r19)
    ad24:	99400c17 	ldw	r5,48(r19)
    ad28:	84a1883a 	add	r16,r16,r18
    ad2c:	14a3c83a 	sub	r17,r2,r18
    ad30:	a4ab883a 	add	r21,r20,r18
    ad34:	9c400115 	stw	r17,4(r19)
    ad38:	9c000015 	stw	r16,0(r19)
    ad3c:	bca9c83a 	sub	r20,r23,r18
    ad40:	28000826 	beq	r5,zero,ad64 <_fread_r+0x154>
    ad44:	a03fe226 	beq	r20,zero,acd0 <_fread_r+0xc0>
    ad48:	98801004 	addi	r2,r19,64
    ad4c:	28800326 	beq	r5,r2,ad5c <_fread_r+0x14c>
    ad50:	b009883a 	mov	r4,r22
    ad54:	000af780 	call	af78 <_free_r>
    ad58:	9c000017 	ldw	r16,0(r19)
    ad5c:	98000c15 	stw	zero,48(r19)
    ad60:	00000106 	br	ad68 <_fread_r+0x158>
    ad64:	a03fda26 	beq	r20,zero,acd0 <_fread_r+0xc0>
    ad68:	9c800417 	ldw	r18,16(r19)
    ad6c:	9c400517 	ldw	r17,20(r19)
    ad70:	9d400015 	stw	r21,0(r19)
    ad74:	9d400415 	stw	r21,16(r19)
    ad78:	9d000515 	stw	r20,20(r19)
    ad7c:	b009883a 	mov	r4,r22
    ad80:	980b883a 	mov	r5,r19
    ad84:	000dc500 	call	dc50 <__srefill_r>
    ad88:	98c00117 	ldw	r3,4(r19)
    ad8c:	9c800415 	stw	r18,16(r19)
    ad90:	9c400515 	stw	r17,20(r19)
    ad94:	a8eb883a 	add	r21,r21,r3
    ad98:	9c000015 	stw	r16,0(r19)
    ad9c:	a0e9c83a 	sub	r20,r20,r3
    ada0:	98000115 	stw	zero,4(r19)
    ada4:	103fef26 	beq	r2,zero,ad64 <_fread_r+0x154>
    ada8:	d9400017 	ldw	r5,0(sp)
    adac:	bd09c83a 	sub	r4,r23,r20
    adb0:	00051b00 	call	51b0 <__udivsi3>
    adb4:	1039883a 	mov	fp,r2
    adb8:	003fc506 	br	acd0 <_fread_r+0xc0>
    adbc:	0039883a 	mov	fp,zero
    adc0:	003fc306 	br	acd0 <_fread_r+0xc0>
    adc4:	000a9b80 	call	a9b8 <__sinit>
    adc8:	9c400117 	ldw	r17,4(r19)
    adcc:	883fa70e 	bge	r17,zero,ac6c <_fread_r+0x5c>
    add0:	0023883a 	mov	r17,zero
    add4:	98000115 	stw	zero,4(r19)
    add8:	003fa406 	br	ac6c <_fread_r+0x5c>
    addc:	8825883a 	mov	r18,r17
    ade0:	003fca06 	br	ad0c <_fread_r+0xfc>
    ade4:	99400017 	ldw	r5,0(r19)
    ade8:	900d883a 	mov	r6,r18
    adec:	000c4500 	call	c450 <memcpy>
    adf0:	98c00117 	ldw	r3,4(r19)
    adf4:	98800017 	ldw	r2,0(r19)
    adf8:	1c87c83a 	sub	r3,r3,r18
    adfc:	1485883a 	add	r2,r2,r18
    ae00:	98800015 	stw	r2,0(r19)
    ae04:	98c00115 	stw	r3,4(r19)
    ae08:	003fb106 	br	acd0 <_fread_r+0xc0>

0000ae0c <fread>:
    ae0c:	008000b4 	movhi	r2,2
    ae10:	10a91504 	addi	r2,r2,-23468
    ae14:	2017883a 	mov	r11,r4
    ae18:	11000017 	ldw	r4,0(r2)
    ae1c:	defffe04 	addi	sp,sp,-8
    ae20:	3013883a 	mov	r9,r6
    ae24:	2805883a 	mov	r2,r5
    ae28:	d9c00015 	stw	r7,0(sp)
    ae2c:	580b883a 	mov	r5,r11
    ae30:	100d883a 	mov	r6,r2
    ae34:	480f883a 	mov	r7,r9
    ae38:	dfc00115 	stw	ra,4(sp)
    ae3c:	000ac100 	call	ac10 <_fread_r>
    ae40:	dfc00117 	ldw	ra,4(sp)
    ae44:	dec00204 	addi	sp,sp,8
    ae48:	f800283a 	ret

0000ae4c <_malloc_trim_r>:
    ae4c:	defffb04 	addi	sp,sp,-20
    ae50:	dcc00315 	stw	r19,12(sp)
    ae54:	04c000b4 	movhi	r19,2
    ae58:	9ce33e04 	addi	r19,r19,-29448
    ae5c:	dc800215 	stw	r18,8(sp)
    ae60:	dc400115 	stw	r17,4(sp)
    ae64:	dc000015 	stw	r16,0(sp)
    ae68:	2823883a 	mov	r17,r5
    ae6c:	2025883a 	mov	r18,r4
    ae70:	dfc00415 	stw	ra,16(sp)
    ae74:	00143900 	call	14390 <__malloc_lock>
    ae78:	98800217 	ldw	r2,8(r19)
    ae7c:	9009883a 	mov	r4,r18
    ae80:	000b883a 	mov	r5,zero
    ae84:	10c00117 	ldw	r3,4(r2)
    ae88:	00bfff04 	movi	r2,-4
    ae8c:	18a0703a 	and	r16,r3,r2
    ae90:	8463c83a 	sub	r17,r16,r17
    ae94:	8c43fbc4 	addi	r17,r17,4079
    ae98:	8822d33a 	srli	r17,r17,12
    ae9c:	0083ffc4 	movi	r2,4095
    aea0:	8c7fffc4 	addi	r17,r17,-1
    aea4:	8822933a 	slli	r17,r17,12
    aea8:	1440060e 	bge	r2,r17,aec4 <_malloc_trim_r+0x78>
    aeac:	000dea00 	call	dea0 <_sbrk_r>
    aeb0:	98c00217 	ldw	r3,8(r19)
    aeb4:	9009883a 	mov	r4,r18
    aeb8:	044bc83a 	sub	r5,zero,r17
    aebc:	80c7883a 	add	r3,r16,r3
    aec0:	10c00926 	beq	r2,r3,aee8 <_malloc_trim_r+0x9c>
    aec4:	00143b00 	call	143b0 <__malloc_unlock>
    aec8:	0005883a 	mov	r2,zero
    aecc:	dfc00417 	ldw	ra,16(sp)
    aed0:	dcc00317 	ldw	r19,12(sp)
    aed4:	dc800217 	ldw	r18,8(sp)
    aed8:	dc400117 	ldw	r17,4(sp)
    aedc:	dc000017 	ldw	r16,0(sp)
    aee0:	dec00504 	addi	sp,sp,20
    aee4:	f800283a 	ret
    aee8:	9009883a 	mov	r4,r18
    aeec:	000dea00 	call	dea0 <_sbrk_r>
    aef0:	844dc83a 	sub	r6,r16,r17
    aef4:	00ffffc4 	movi	r3,-1
    aef8:	9009883a 	mov	r4,r18
    aefc:	000b883a 	mov	r5,zero
    af00:	01c000b4 	movhi	r7,2
    af04:	39f02b04 	addi	r7,r7,-16212
    af08:	31800054 	ori	r6,r6,1
    af0c:	10c00926 	beq	r2,r3,af34 <_malloc_trim_r+0xe8>
    af10:	38800017 	ldw	r2,0(r7)
    af14:	98c00217 	ldw	r3,8(r19)
    af18:	9009883a 	mov	r4,r18
    af1c:	1445c83a 	sub	r2,r2,r17
    af20:	38800015 	stw	r2,0(r7)
    af24:	19800115 	stw	r6,4(r3)
    af28:	00143b00 	call	143b0 <__malloc_unlock>
    af2c:	00800044 	movi	r2,1
    af30:	003fe606 	br	aecc <_malloc_trim_r+0x80>
    af34:	000dea00 	call	dea0 <_sbrk_r>
    af38:	99800217 	ldw	r6,8(r19)
    af3c:	100f883a 	mov	r7,r2
    af40:	9009883a 	mov	r4,r18
    af44:	1187c83a 	sub	r3,r2,r6
    af48:	008003c4 	movi	r2,15
    af4c:	19400054 	ori	r5,r3,1
    af50:	10ffdc0e 	bge	r2,r3,aec4 <_malloc_trim_r+0x78>
    af54:	008000b4 	movhi	r2,2
    af58:	10a91a04 	addi	r2,r2,-23448
    af5c:	10c00017 	ldw	r3,0(r2)
    af60:	008000b4 	movhi	r2,2
    af64:	10b02b04 	addi	r2,r2,-16212
    af68:	31400115 	stw	r5,4(r6)
    af6c:	38c7c83a 	sub	r3,r7,r3
    af70:	10c00015 	stw	r3,0(r2)
    af74:	003fd306 	br	aec4 <_malloc_trim_r+0x78>

0000af78 <_free_r>:
    af78:	defffd04 	addi	sp,sp,-12
    af7c:	dc400115 	stw	r17,4(sp)
    af80:	dc000015 	stw	r16,0(sp)
    af84:	dfc00215 	stw	ra,8(sp)
    af88:	2821883a 	mov	r16,r5
    af8c:	2023883a 	mov	r17,r4
    af90:	28005a26 	beq	r5,zero,b0fc <_free_r+0x184>
    af94:	00143900 	call	14390 <__malloc_lock>
    af98:	823ffe04 	addi	r8,r16,-8
    af9c:	41400117 	ldw	r5,4(r8)
    afa0:	00bfff84 	movi	r2,-2
    afa4:	028000b4 	movhi	r10,2
    afa8:	52a33e04 	addi	r10,r10,-29448
    afac:	288e703a 	and	r7,r5,r2
    afb0:	41cd883a 	add	r6,r8,r7
    afb4:	30c00117 	ldw	r3,4(r6)
    afb8:	51000217 	ldw	r4,8(r10)
    afbc:	00bfff04 	movi	r2,-4
    afc0:	1892703a 	and	r9,r3,r2
    afc4:	5017883a 	mov	r11,r10
    afc8:	31006726 	beq	r6,r4,b168 <_free_r+0x1f0>
    afcc:	2880004c 	andi	r2,r5,1
    afd0:	1005003a 	cmpeq	r2,r2,zero
    afd4:	32400115 	stw	r9,4(r6)
    afd8:	10001a1e 	bne	r2,zero,b044 <_free_r+0xcc>
    afdc:	000b883a 	mov	r5,zero
    afe0:	3247883a 	add	r3,r6,r9
    afe4:	18800117 	ldw	r2,4(r3)
    afe8:	1080004c 	andi	r2,r2,1
    afec:	1000231e 	bne	r2,zero,b07c <_free_r+0x104>
    aff0:	280ac03a 	cmpne	r5,r5,zero
    aff4:	3a4f883a 	add	r7,r7,r9
    aff8:	2800451e 	bne	r5,zero,b110 <_free_r+0x198>
    affc:	31000217 	ldw	r4,8(r6)
    b000:	008000b4 	movhi	r2,2
    b004:	10a34004 	addi	r2,r2,-29440
    b008:	20807b26 	beq	r4,r2,b1f8 <_free_r+0x280>
    b00c:	30800317 	ldw	r2,12(r6)
    b010:	3a07883a 	add	r3,r7,r8
    b014:	19c00015 	stw	r7,0(r3)
    b018:	11000215 	stw	r4,8(r2)
    b01c:	20800315 	stw	r2,12(r4)
    b020:	38800054 	ori	r2,r7,1
    b024:	40800115 	stw	r2,4(r8)
    b028:	28001a26 	beq	r5,zero,b094 <_free_r+0x11c>
    b02c:	8809883a 	mov	r4,r17
    b030:	dfc00217 	ldw	ra,8(sp)
    b034:	dc400117 	ldw	r17,4(sp)
    b038:	dc000017 	ldw	r16,0(sp)
    b03c:	dec00304 	addi	sp,sp,12
    b040:	00143b01 	jmpi	143b0 <__malloc_unlock>
    b044:	80bffe17 	ldw	r2,-8(r16)
    b048:	50c00204 	addi	r3,r10,8
    b04c:	4091c83a 	sub	r8,r8,r2
    b050:	41000217 	ldw	r4,8(r8)
    b054:	388f883a 	add	r7,r7,r2
    b058:	20c06126 	beq	r4,r3,b1e0 <_free_r+0x268>
    b05c:	40800317 	ldw	r2,12(r8)
    b060:	3247883a 	add	r3,r6,r9
    b064:	000b883a 	mov	r5,zero
    b068:	11000215 	stw	r4,8(r2)
    b06c:	20800315 	stw	r2,12(r4)
    b070:	18800117 	ldw	r2,4(r3)
    b074:	1080004c 	andi	r2,r2,1
    b078:	103fdd26 	beq	r2,zero,aff0 <_free_r+0x78>
    b07c:	38800054 	ori	r2,r7,1
    b080:	3a07883a 	add	r3,r7,r8
    b084:	280ac03a 	cmpne	r5,r5,zero
    b088:	40800115 	stw	r2,4(r8)
    b08c:	19c00015 	stw	r7,0(r3)
    b090:	283fe61e 	bne	r5,zero,b02c <_free_r+0xb4>
    b094:	00807fc4 	movi	r2,511
    b098:	11c01f2e 	bgeu	r2,r7,b118 <_free_r+0x1a0>
    b09c:	3806d27a 	srli	r3,r7,9
    b0a0:	1800481e 	bne	r3,zero,b1c4 <_free_r+0x24c>
    b0a4:	3804d0fa 	srli	r2,r7,3
    b0a8:	100690fa 	slli	r3,r2,3
    b0ac:	1acd883a 	add	r6,r3,r11
    b0b0:	31400217 	ldw	r5,8(r6)
    b0b4:	31405926 	beq	r6,r5,b21c <_free_r+0x2a4>
    b0b8:	28800117 	ldw	r2,4(r5)
    b0bc:	00ffff04 	movi	r3,-4
    b0c0:	10c4703a 	and	r2,r2,r3
    b0c4:	3880022e 	bgeu	r7,r2,b0d0 <_free_r+0x158>
    b0c8:	29400217 	ldw	r5,8(r5)
    b0cc:	317ffa1e 	bne	r6,r5,b0b8 <_free_r+0x140>
    b0d0:	29800317 	ldw	r6,12(r5)
    b0d4:	41800315 	stw	r6,12(r8)
    b0d8:	41400215 	stw	r5,8(r8)
    b0dc:	8809883a 	mov	r4,r17
    b0e0:	2a000315 	stw	r8,12(r5)
    b0e4:	32000215 	stw	r8,8(r6)
    b0e8:	dfc00217 	ldw	ra,8(sp)
    b0ec:	dc400117 	ldw	r17,4(sp)
    b0f0:	dc000017 	ldw	r16,0(sp)
    b0f4:	dec00304 	addi	sp,sp,12
    b0f8:	00143b01 	jmpi	143b0 <__malloc_unlock>
    b0fc:	dfc00217 	ldw	ra,8(sp)
    b100:	dc400117 	ldw	r17,4(sp)
    b104:	dc000017 	ldw	r16,0(sp)
    b108:	dec00304 	addi	sp,sp,12
    b10c:	f800283a 	ret
    b110:	31000217 	ldw	r4,8(r6)
    b114:	003fbd06 	br	b00c <_free_r+0x94>
    b118:	3806d0fa 	srli	r3,r7,3
    b11c:	00800044 	movi	r2,1
    b120:	51400117 	ldw	r5,4(r10)
    b124:	180890fa 	slli	r4,r3,3
    b128:	1807d0ba 	srai	r3,r3,2
    b12c:	22c9883a 	add	r4,r4,r11
    b130:	21800217 	ldw	r6,8(r4)
    b134:	10c4983a 	sll	r2,r2,r3
    b138:	41000315 	stw	r4,12(r8)
    b13c:	41800215 	stw	r6,8(r8)
    b140:	288ab03a 	or	r5,r5,r2
    b144:	22000215 	stw	r8,8(r4)
    b148:	8809883a 	mov	r4,r17
    b14c:	51400115 	stw	r5,4(r10)
    b150:	32000315 	stw	r8,12(r6)
    b154:	dfc00217 	ldw	ra,8(sp)
    b158:	dc400117 	ldw	r17,4(sp)
    b15c:	dc000017 	ldw	r16,0(sp)
    b160:	dec00304 	addi	sp,sp,12
    b164:	00143b01 	jmpi	143b0 <__malloc_unlock>
    b168:	2880004c 	andi	r2,r5,1
    b16c:	3a4d883a 	add	r6,r7,r9
    b170:	1000071e 	bne	r2,zero,b190 <_free_r+0x218>
    b174:	80bffe17 	ldw	r2,-8(r16)
    b178:	4091c83a 	sub	r8,r8,r2
    b17c:	41000317 	ldw	r4,12(r8)
    b180:	40c00217 	ldw	r3,8(r8)
    b184:	308d883a 	add	r6,r6,r2
    b188:	20c00215 	stw	r3,8(r4)
    b18c:	19000315 	stw	r4,12(r3)
    b190:	008000b4 	movhi	r2,2
    b194:	10a91904 	addi	r2,r2,-23452
    b198:	11000017 	ldw	r4,0(r2)
    b19c:	30c00054 	ori	r3,r6,1
    b1a0:	52000215 	stw	r8,8(r10)
    b1a4:	40c00115 	stw	r3,4(r8)
    b1a8:	313fa036 	bltu	r6,r4,b02c <_free_r+0xb4>
    b1ac:	008000b4 	movhi	r2,2
    b1b0:	10b01d04 	addi	r2,r2,-16268
    b1b4:	11400017 	ldw	r5,0(r2)
    b1b8:	8809883a 	mov	r4,r17
    b1bc:	000ae4c0 	call	ae4c <_malloc_trim_r>
    b1c0:	003f9a06 	br	b02c <_free_r+0xb4>
    b1c4:	00800104 	movi	r2,4
    b1c8:	10c0072e 	bgeu	r2,r3,b1e8 <_free_r+0x270>
    b1cc:	00800504 	movi	r2,20
    b1d0:	10c01936 	bltu	r2,r3,b238 <_free_r+0x2c0>
    b1d4:	188016c4 	addi	r2,r3,91
    b1d8:	100690fa 	slli	r3,r2,3
    b1dc:	003fb306 	br	b0ac <_free_r+0x134>
    b1e0:	01400044 	movi	r5,1
    b1e4:	003f7e06 	br	afe0 <_free_r+0x68>
    b1e8:	3804d1ba 	srli	r2,r7,6
    b1ec:	10800e04 	addi	r2,r2,56
    b1f0:	100690fa 	slli	r3,r2,3
    b1f4:	003fad06 	br	b0ac <_free_r+0x134>
    b1f8:	22000315 	stw	r8,12(r4)
    b1fc:	22000215 	stw	r8,8(r4)
    b200:	3a05883a 	add	r2,r7,r8
    b204:	38c00054 	ori	r3,r7,1
    b208:	11c00015 	stw	r7,0(r2)
    b20c:	41000215 	stw	r4,8(r8)
    b210:	40c00115 	stw	r3,4(r8)
    b214:	41000315 	stw	r4,12(r8)
    b218:	003f8406 	br	b02c <_free_r+0xb4>
    b21c:	1005d0ba 	srai	r2,r2,2
    b220:	00c00044 	movi	r3,1
    b224:	51000117 	ldw	r4,4(r10)
    b228:	1886983a 	sll	r3,r3,r2
    b22c:	20c8b03a 	or	r4,r4,r3
    b230:	51000115 	stw	r4,4(r10)
    b234:	003fa706 	br	b0d4 <_free_r+0x15c>
    b238:	00801504 	movi	r2,84
    b23c:	10c00436 	bltu	r2,r3,b250 <_free_r+0x2d8>
    b240:	3804d33a 	srli	r2,r7,12
    b244:	10801b84 	addi	r2,r2,110
    b248:	100690fa 	slli	r3,r2,3
    b24c:	003f9706 	br	b0ac <_free_r+0x134>
    b250:	00805504 	movi	r2,340
    b254:	10c00436 	bltu	r2,r3,b268 <_free_r+0x2f0>
    b258:	3804d3fa 	srli	r2,r7,15
    b25c:	10801dc4 	addi	r2,r2,119
    b260:	100690fa 	slli	r3,r2,3
    b264:	003f9106 	br	b0ac <_free_r+0x134>
    b268:	00815504 	movi	r2,1364
    b26c:	10c0032e 	bgeu	r2,r3,b27c <_free_r+0x304>
    b270:	00801f84 	movi	r2,126
    b274:	00c0fc04 	movi	r3,1008
    b278:	003f8c06 	br	b0ac <_free_r+0x134>
    b27c:	3804d4ba 	srli	r2,r7,18
    b280:	10801f04 	addi	r2,r2,124
    b284:	100690fa 	slli	r3,r2,3
    b288:	003f8806 	br	b0ac <_free_r+0x134>

0000b28c <__sfvwrite_r>:
    b28c:	30800217 	ldw	r2,8(r6)
    b290:	defff504 	addi	sp,sp,-44
    b294:	df000915 	stw	fp,36(sp)
    b298:	dd800715 	stw	r22,28(sp)
    b29c:	dc800315 	stw	r18,12(sp)
    b2a0:	dfc00a15 	stw	ra,40(sp)
    b2a4:	ddc00815 	stw	r23,32(sp)
    b2a8:	dd400615 	stw	r21,24(sp)
    b2ac:	dd000515 	stw	r20,20(sp)
    b2b0:	dcc00415 	stw	r19,16(sp)
    b2b4:	dc400215 	stw	r17,8(sp)
    b2b8:	dc000115 	stw	r16,4(sp)
    b2bc:	302d883a 	mov	r22,r6
    b2c0:	2039883a 	mov	fp,r4
    b2c4:	2825883a 	mov	r18,r5
    b2c8:	10001c26 	beq	r2,zero,b33c <__sfvwrite_r+0xb0>
    b2cc:	29c0030b 	ldhu	r7,12(r5)
    b2d0:	3880020c 	andi	r2,r7,8
    b2d4:	10002726 	beq	r2,zero,b374 <__sfvwrite_r+0xe8>
    b2d8:	28800417 	ldw	r2,16(r5)
    b2dc:	10002526 	beq	r2,zero,b374 <__sfvwrite_r+0xe8>
    b2e0:	3880008c 	andi	r2,r7,2
    b2e4:	b5400017 	ldw	r21,0(r22)
    b2e8:	10002826 	beq	r2,zero,b38c <__sfvwrite_r+0x100>
    b2ec:	0021883a 	mov	r16,zero
    b2f0:	0023883a 	mov	r17,zero
    b2f4:	880d883a 	mov	r6,r17
    b2f8:	e009883a 	mov	r4,fp
    b2fc:	00810004 	movi	r2,1024
    b300:	80006e26 	beq	r16,zero,b4bc <__sfvwrite_r+0x230>
    b304:	800f883a 	mov	r7,r16
    b308:	91400717 	ldw	r5,28(r18)
    b30c:	1400012e 	bgeu	r2,r16,b314 <__sfvwrite_r+0x88>
    b310:	100f883a 	mov	r7,r2
    b314:	90c00917 	ldw	r3,36(r18)
    b318:	183ee83a 	callr	r3
    b31c:	1007883a 	mov	r3,r2
    b320:	80a1c83a 	sub	r16,r16,r2
    b324:	88a3883a 	add	r17,r17,r2
    b328:	00806d0e 	bge	zero,r2,b4e0 <__sfvwrite_r+0x254>
    b32c:	b0800217 	ldw	r2,8(r22)
    b330:	10c5c83a 	sub	r2,r2,r3
    b334:	b0800215 	stw	r2,8(r22)
    b338:	103fee1e 	bne	r2,zero,b2f4 <__sfvwrite_r+0x68>
    b33c:	0009883a 	mov	r4,zero
    b340:	2005883a 	mov	r2,r4
    b344:	dfc00a17 	ldw	ra,40(sp)
    b348:	df000917 	ldw	fp,36(sp)
    b34c:	ddc00817 	ldw	r23,32(sp)
    b350:	dd800717 	ldw	r22,28(sp)
    b354:	dd400617 	ldw	r21,24(sp)
    b358:	dd000517 	ldw	r20,20(sp)
    b35c:	dcc00417 	ldw	r19,16(sp)
    b360:	dc800317 	ldw	r18,12(sp)
    b364:	dc400217 	ldw	r17,8(sp)
    b368:	dc000117 	ldw	r16,4(sp)
    b36c:	dec00b04 	addi	sp,sp,44
    b370:	f800283a 	ret
    b374:	0008e180 	call	8e18 <__swsetup_r>
    b378:	1000e41e 	bne	r2,zero,b70c <__sfvwrite_r+0x480>
    b37c:	91c0030b 	ldhu	r7,12(r18)
    b380:	b5400017 	ldw	r21,0(r22)
    b384:	3880008c 	andi	r2,r7,2
    b388:	103fd81e 	bne	r2,zero,b2ec <__sfvwrite_r+0x60>
    b38c:	3880004c 	andi	r2,r7,1
    b390:	1005003a 	cmpeq	r2,r2,zero
    b394:	10005726 	beq	r2,zero,b4f4 <__sfvwrite_r+0x268>
    b398:	0029883a 	mov	r20,zero
    b39c:	002f883a 	mov	r23,zero
    b3a0:	a0004226 	beq	r20,zero,b4ac <__sfvwrite_r+0x220>
    b3a4:	3880800c 	andi	r2,r7,512
    b3a8:	94000217 	ldw	r16,8(r18)
    b3ac:	10008b26 	beq	r2,zero,b5dc <__sfvwrite_r+0x350>
    b3b0:	800d883a 	mov	r6,r16
    b3b4:	a400a536 	bltu	r20,r16,b64c <__sfvwrite_r+0x3c0>
    b3b8:	3881200c 	andi	r2,r7,1152
    b3bc:	10002726 	beq	r2,zero,b45c <__sfvwrite_r+0x1d0>
    b3c0:	90800517 	ldw	r2,20(r18)
    b3c4:	92000417 	ldw	r8,16(r18)
    b3c8:	91400017 	ldw	r5,0(r18)
    b3cc:	1087883a 	add	r3,r2,r2
    b3d0:	1887883a 	add	r3,r3,r2
    b3d4:	1808d7fa 	srli	r4,r3,31
    b3d8:	2a21c83a 	sub	r16,r5,r8
    b3dc:	80800044 	addi	r2,r16,1
    b3e0:	20c9883a 	add	r4,r4,r3
    b3e4:	2027d07a 	srai	r19,r4,1
    b3e8:	a085883a 	add	r2,r20,r2
    b3ec:	980d883a 	mov	r6,r19
    b3f0:	9880022e 	bgeu	r19,r2,b3fc <__sfvwrite_r+0x170>
    b3f4:	1027883a 	mov	r19,r2
    b3f8:	100d883a 	mov	r6,r2
    b3fc:	3881000c 	andi	r2,r7,1024
    b400:	1000b826 	beq	r2,zero,b6e4 <__sfvwrite_r+0x458>
    b404:	300b883a 	mov	r5,r6
    b408:	e009883a 	mov	r4,fp
    b40c:	000bb2c0 	call	bb2c <_malloc_r>
    b410:	10003126 	beq	r2,zero,b4d8 <__sfvwrite_r+0x24c>
    b414:	91400417 	ldw	r5,16(r18)
    b418:	1009883a 	mov	r4,r2
    b41c:	800d883a 	mov	r6,r16
    b420:	1023883a 	mov	r17,r2
    b424:	000c4500 	call	c450 <memcpy>
    b428:	90c0030b 	ldhu	r3,12(r18)
    b42c:	00beffc4 	movi	r2,-1025
    b430:	1886703a 	and	r3,r3,r2
    b434:	18c02014 	ori	r3,r3,128
    b438:	90c0030d 	sth	r3,12(r18)
    b43c:	9c07c83a 	sub	r3,r19,r16
    b440:	8c05883a 	add	r2,r17,r16
    b444:	a00d883a 	mov	r6,r20
    b448:	a021883a 	mov	r16,r20
    b44c:	90800015 	stw	r2,0(r18)
    b450:	90c00215 	stw	r3,8(r18)
    b454:	94400415 	stw	r17,16(r18)
    b458:	94c00515 	stw	r19,20(r18)
    b45c:	91000017 	ldw	r4,0(r18)
    b460:	b80b883a 	mov	r5,r23
    b464:	a023883a 	mov	r17,r20
    b468:	000c4f00 	call	c4f0 <memmove>
    b46c:	90c00217 	ldw	r3,8(r18)
    b470:	90800017 	ldw	r2,0(r18)
    b474:	a027883a 	mov	r19,r20
    b478:	1c07c83a 	sub	r3,r3,r16
    b47c:	1405883a 	add	r2,r2,r16
    b480:	90c00215 	stw	r3,8(r18)
    b484:	a021883a 	mov	r16,r20
    b488:	90800015 	stw	r2,0(r18)
    b48c:	b0800217 	ldw	r2,8(r22)
    b490:	1405c83a 	sub	r2,r2,r16
    b494:	b0800215 	stw	r2,8(r22)
    b498:	103fa826 	beq	r2,zero,b33c <__sfvwrite_r+0xb0>
    b49c:	a469c83a 	sub	r20,r20,r17
    b4a0:	91c0030b 	ldhu	r7,12(r18)
    b4a4:	bcef883a 	add	r23,r23,r19
    b4a8:	a03fbe1e 	bne	r20,zero,b3a4 <__sfvwrite_r+0x118>
    b4ac:	adc00017 	ldw	r23,0(r21)
    b4b0:	ad000117 	ldw	r20,4(r21)
    b4b4:	ad400204 	addi	r21,r21,8
    b4b8:	003fb906 	br	b3a0 <__sfvwrite_r+0x114>
    b4bc:	ac400017 	ldw	r17,0(r21)
    b4c0:	ac000117 	ldw	r16,4(r21)
    b4c4:	ad400204 	addi	r21,r21,8
    b4c8:	003f8a06 	br	b2f4 <__sfvwrite_r+0x68>
    b4cc:	91400417 	ldw	r5,16(r18)
    b4d0:	e009883a 	mov	r4,fp
    b4d4:	000af780 	call	af78 <_free_r>
    b4d8:	00800304 	movi	r2,12
    b4dc:	e0800015 	stw	r2,0(fp)
    b4e0:	9080030b 	ldhu	r2,12(r18)
    b4e4:	013fffc4 	movi	r4,-1
    b4e8:	10801014 	ori	r2,r2,64
    b4ec:	9080030d 	sth	r2,12(r18)
    b4f0:	003f9306 	br	b340 <__sfvwrite_r+0xb4>
    b4f4:	0027883a 	mov	r19,zero
    b4f8:	002f883a 	mov	r23,zero
    b4fc:	d8000015 	stw	zero,0(sp)
    b500:	0029883a 	mov	r20,zero
    b504:	98001e26 	beq	r19,zero,b580 <__sfvwrite_r+0x2f4>
    b508:	d8c00017 	ldw	r3,0(sp)
    b50c:	1804c03a 	cmpne	r2,r3,zero
    b510:	10005e26 	beq	r2,zero,b68c <__sfvwrite_r+0x400>
    b514:	9821883a 	mov	r16,r19
    b518:	a4c0012e 	bgeu	r20,r19,b520 <__sfvwrite_r+0x294>
    b51c:	a021883a 	mov	r16,r20
    b520:	91000017 	ldw	r4,0(r18)
    b524:	90800417 	ldw	r2,16(r18)
    b528:	91800217 	ldw	r6,8(r18)
    b52c:	91c00517 	ldw	r7,20(r18)
    b530:	1100022e 	bgeu	r2,r4,b53c <__sfvwrite_r+0x2b0>
    b534:	31e3883a 	add	r17,r6,r7
    b538:	8c001616 	blt	r17,r16,b594 <__sfvwrite_r+0x308>
    b53c:	81c03816 	blt	r16,r7,b620 <__sfvwrite_r+0x394>
    b540:	90c00917 	ldw	r3,36(r18)
    b544:	91400717 	ldw	r5,28(r18)
    b548:	e009883a 	mov	r4,fp
    b54c:	b80d883a 	mov	r6,r23
    b550:	183ee83a 	callr	r3
    b554:	1023883a 	mov	r17,r2
    b558:	00bfe10e 	bge	zero,r2,b4e0 <__sfvwrite_r+0x254>
    b55c:	a469c83a 	sub	r20,r20,r17
    b560:	a0001826 	beq	r20,zero,b5c4 <__sfvwrite_r+0x338>
    b564:	b0800217 	ldw	r2,8(r22)
    b568:	1445c83a 	sub	r2,r2,r17
    b56c:	b0800215 	stw	r2,8(r22)
    b570:	103f7226 	beq	r2,zero,b33c <__sfvwrite_r+0xb0>
    b574:	9c67c83a 	sub	r19,r19,r17
    b578:	bc6f883a 	add	r23,r23,r17
    b57c:	983fe21e 	bne	r19,zero,b508 <__sfvwrite_r+0x27c>
    b580:	adc00017 	ldw	r23,0(r21)
    b584:	acc00117 	ldw	r19,4(r21)
    b588:	ad400204 	addi	r21,r21,8
    b58c:	d8000015 	stw	zero,0(sp)
    b590:	003fdc06 	br	b504 <__sfvwrite_r+0x278>
    b594:	b80b883a 	mov	r5,r23
    b598:	880d883a 	mov	r6,r17
    b59c:	000c4f00 	call	c4f0 <memmove>
    b5a0:	90c00017 	ldw	r3,0(r18)
    b5a4:	e009883a 	mov	r4,fp
    b5a8:	900b883a 	mov	r5,r18
    b5ac:	1c47883a 	add	r3,r3,r17
    b5b0:	90c00015 	stw	r3,0(r18)
    b5b4:	000a7200 	call	a720 <_fflush_r>
    b5b8:	103fc91e 	bne	r2,zero,b4e0 <__sfvwrite_r+0x254>
    b5bc:	a469c83a 	sub	r20,r20,r17
    b5c0:	a03fe81e 	bne	r20,zero,b564 <__sfvwrite_r+0x2d8>
    b5c4:	e009883a 	mov	r4,fp
    b5c8:	900b883a 	mov	r5,r18
    b5cc:	000a7200 	call	a720 <_fflush_r>
    b5d0:	103fc31e 	bne	r2,zero,b4e0 <__sfvwrite_r+0x254>
    b5d4:	d8000015 	stw	zero,0(sp)
    b5d8:	003fe206 	br	b564 <__sfvwrite_r+0x2d8>
    b5dc:	91000017 	ldw	r4,0(r18)
    b5e0:	90800417 	ldw	r2,16(r18)
    b5e4:	1100022e 	bgeu	r2,r4,b5f0 <__sfvwrite_r+0x364>
    b5e8:	8023883a 	mov	r17,r16
    b5ec:	85003136 	bltu	r16,r20,b6b4 <__sfvwrite_r+0x428>
    b5f0:	91c00517 	ldw	r7,20(r18)
    b5f4:	a1c01836 	bltu	r20,r7,b658 <__sfvwrite_r+0x3cc>
    b5f8:	90c00917 	ldw	r3,36(r18)
    b5fc:	91400717 	ldw	r5,28(r18)
    b600:	e009883a 	mov	r4,fp
    b604:	b80d883a 	mov	r6,r23
    b608:	183ee83a 	callr	r3
    b60c:	1021883a 	mov	r16,r2
    b610:	00bfb30e 	bge	zero,r2,b4e0 <__sfvwrite_r+0x254>
    b614:	1023883a 	mov	r17,r2
    b618:	1027883a 	mov	r19,r2
    b61c:	003f9b06 	br	b48c <__sfvwrite_r+0x200>
    b620:	b80b883a 	mov	r5,r23
    b624:	800d883a 	mov	r6,r16
    b628:	000c4f00 	call	c4f0 <memmove>
    b62c:	90c00217 	ldw	r3,8(r18)
    b630:	90800017 	ldw	r2,0(r18)
    b634:	8023883a 	mov	r17,r16
    b638:	1c07c83a 	sub	r3,r3,r16
    b63c:	1405883a 	add	r2,r2,r16
    b640:	90c00215 	stw	r3,8(r18)
    b644:	90800015 	stw	r2,0(r18)
    b648:	003fc406 	br	b55c <__sfvwrite_r+0x2d0>
    b64c:	a00d883a 	mov	r6,r20
    b650:	a021883a 	mov	r16,r20
    b654:	003f8106 	br	b45c <__sfvwrite_r+0x1d0>
    b658:	b80b883a 	mov	r5,r23
    b65c:	a00d883a 	mov	r6,r20
    b660:	000c4f00 	call	c4f0 <memmove>
    b664:	90c00217 	ldw	r3,8(r18)
    b668:	90800017 	ldw	r2,0(r18)
    b66c:	a021883a 	mov	r16,r20
    b670:	1d07c83a 	sub	r3,r3,r20
    b674:	1505883a 	add	r2,r2,r20
    b678:	a023883a 	mov	r17,r20
    b67c:	a027883a 	mov	r19,r20
    b680:	90c00215 	stw	r3,8(r18)
    b684:	90800015 	stw	r2,0(r18)
    b688:	003f8006 	br	b48c <__sfvwrite_r+0x200>
    b68c:	b809883a 	mov	r4,r23
    b690:	01400284 	movi	r5,10
    b694:	980d883a 	mov	r6,r19
    b698:	000c36c0 	call	c36c <memchr>
    b69c:	10001726 	beq	r2,zero,b6fc <__sfvwrite_r+0x470>
    b6a0:	15c5c83a 	sub	r2,r2,r23
    b6a4:	15000044 	addi	r20,r2,1
    b6a8:	00800044 	movi	r2,1
    b6ac:	d8800015 	stw	r2,0(sp)
    b6b0:	003f9806 	br	b514 <__sfvwrite_r+0x288>
    b6b4:	b80b883a 	mov	r5,r23
    b6b8:	800d883a 	mov	r6,r16
    b6bc:	000c4f00 	call	c4f0 <memmove>
    b6c0:	90c00017 	ldw	r3,0(r18)
    b6c4:	e009883a 	mov	r4,fp
    b6c8:	900b883a 	mov	r5,r18
    b6cc:	1c07883a 	add	r3,r3,r16
    b6d0:	90c00015 	stw	r3,0(r18)
    b6d4:	8027883a 	mov	r19,r16
    b6d8:	000a7200 	call	a720 <_fflush_r>
    b6dc:	103f6b26 	beq	r2,zero,b48c <__sfvwrite_r+0x200>
    b6e0:	003f7f06 	br	b4e0 <__sfvwrite_r+0x254>
    b6e4:	400b883a 	mov	r5,r8
    b6e8:	e009883a 	mov	r4,fp
    b6ec:	000d65c0 	call	d65c <_realloc_r>
    b6f0:	103f7626 	beq	r2,zero,b4cc <__sfvwrite_r+0x240>
    b6f4:	1023883a 	mov	r17,r2
    b6f8:	003f5006 	br	b43c <__sfvwrite_r+0x1b0>
    b6fc:	00c00044 	movi	r3,1
    b700:	9d000044 	addi	r20,r19,1
    b704:	d8c00015 	stw	r3,0(sp)
    b708:	003f8206 	br	b514 <__sfvwrite_r+0x288>
    b70c:	9080030b 	ldhu	r2,12(r18)
    b710:	00c00244 	movi	r3,9
    b714:	013fffc4 	movi	r4,-1
    b718:	10801014 	ori	r2,r2,64
    b71c:	9080030d 	sth	r2,12(r18)
    b720:	e0c00015 	stw	r3,0(fp)
    b724:	003f0606 	br	b340 <__sfvwrite_r+0xb4>

0000b728 <_fwalk_reent>:
    b728:	defff704 	addi	sp,sp,-36
    b72c:	dcc00315 	stw	r19,12(sp)
    b730:	24c0b804 	addi	r19,r4,736
    b734:	dd800615 	stw	r22,24(sp)
    b738:	dd400515 	stw	r21,20(sp)
    b73c:	dfc00815 	stw	ra,32(sp)
    b740:	ddc00715 	stw	r23,28(sp)
    b744:	dd000415 	stw	r20,16(sp)
    b748:	dc800215 	stw	r18,8(sp)
    b74c:	dc400115 	stw	r17,4(sp)
    b750:	dc000015 	stw	r16,0(sp)
    b754:	202b883a 	mov	r21,r4
    b758:	282d883a 	mov	r22,r5
    b75c:	000a9a80 	call	a9a8 <__sfp_lock_acquire>
    b760:	98002126 	beq	r19,zero,b7e8 <_fwalk_reent+0xc0>
    b764:	002f883a 	mov	r23,zero
    b768:	9c800117 	ldw	r18,4(r19)
    b76c:	9c000217 	ldw	r16,8(r19)
    b770:	90bfffc4 	addi	r2,r18,-1
    b774:	10000d16 	blt	r2,zero,b7ac <_fwalk_reent+0x84>
    b778:	0023883a 	mov	r17,zero
    b77c:	053fffc4 	movi	r20,-1
    b780:	8080030f 	ldh	r2,12(r16)
    b784:	8c400044 	addi	r17,r17,1
    b788:	10000626 	beq	r2,zero,b7a4 <_fwalk_reent+0x7c>
    b78c:	8080038f 	ldh	r2,14(r16)
    b790:	800b883a 	mov	r5,r16
    b794:	a809883a 	mov	r4,r21
    b798:	15000226 	beq	r2,r20,b7a4 <_fwalk_reent+0x7c>
    b79c:	b03ee83a 	callr	r22
    b7a0:	b8aeb03a 	or	r23,r23,r2
    b7a4:	84001704 	addi	r16,r16,92
    b7a8:	947ff51e 	bne	r18,r17,b780 <_fwalk_reent+0x58>
    b7ac:	9cc00017 	ldw	r19,0(r19)
    b7b0:	983fed1e 	bne	r19,zero,b768 <_fwalk_reent+0x40>
    b7b4:	000a9ac0 	call	a9ac <__sfp_lock_release>
    b7b8:	b805883a 	mov	r2,r23
    b7bc:	dfc00817 	ldw	ra,32(sp)
    b7c0:	ddc00717 	ldw	r23,28(sp)
    b7c4:	dd800617 	ldw	r22,24(sp)
    b7c8:	dd400517 	ldw	r21,20(sp)
    b7cc:	dd000417 	ldw	r20,16(sp)
    b7d0:	dcc00317 	ldw	r19,12(sp)
    b7d4:	dc800217 	ldw	r18,8(sp)
    b7d8:	dc400117 	ldw	r17,4(sp)
    b7dc:	dc000017 	ldw	r16,0(sp)
    b7e0:	dec00904 	addi	sp,sp,36
    b7e4:	f800283a 	ret
    b7e8:	002f883a 	mov	r23,zero
    b7ec:	003ff106 	br	b7b4 <_fwalk_reent+0x8c>

0000b7f0 <_fwalk>:
    b7f0:	defff804 	addi	sp,sp,-32
    b7f4:	dcc00315 	stw	r19,12(sp)
    b7f8:	24c0b804 	addi	r19,r4,736
    b7fc:	dd400515 	stw	r21,20(sp)
    b800:	dfc00715 	stw	ra,28(sp)
    b804:	dd800615 	stw	r22,24(sp)
    b808:	dd000415 	stw	r20,16(sp)
    b80c:	dc800215 	stw	r18,8(sp)
    b810:	dc400115 	stw	r17,4(sp)
    b814:	dc000015 	stw	r16,0(sp)
    b818:	282b883a 	mov	r21,r5
    b81c:	000a9a80 	call	a9a8 <__sfp_lock_acquire>
    b820:	98001f26 	beq	r19,zero,b8a0 <_fwalk+0xb0>
    b824:	002d883a 	mov	r22,zero
    b828:	9c800117 	ldw	r18,4(r19)
    b82c:	9c000217 	ldw	r16,8(r19)
    b830:	90bfffc4 	addi	r2,r18,-1
    b834:	10000c16 	blt	r2,zero,b868 <_fwalk+0x78>
    b838:	0023883a 	mov	r17,zero
    b83c:	053fffc4 	movi	r20,-1
    b840:	8080030f 	ldh	r2,12(r16)
    b844:	8c400044 	addi	r17,r17,1
    b848:	10000526 	beq	r2,zero,b860 <_fwalk+0x70>
    b84c:	8080038f 	ldh	r2,14(r16)
    b850:	8009883a 	mov	r4,r16
    b854:	15000226 	beq	r2,r20,b860 <_fwalk+0x70>
    b858:	a83ee83a 	callr	r21
    b85c:	b0acb03a 	or	r22,r22,r2
    b860:	84001704 	addi	r16,r16,92
    b864:	947ff61e 	bne	r18,r17,b840 <_fwalk+0x50>
    b868:	9cc00017 	ldw	r19,0(r19)
    b86c:	983fee1e 	bne	r19,zero,b828 <_fwalk+0x38>
    b870:	000a9ac0 	call	a9ac <__sfp_lock_release>
    b874:	b005883a 	mov	r2,r22
    b878:	dfc00717 	ldw	ra,28(sp)
    b87c:	dd800617 	ldw	r22,24(sp)
    b880:	dd400517 	ldw	r21,20(sp)
    b884:	dd000417 	ldw	r20,16(sp)
    b888:	dcc00317 	ldw	r19,12(sp)
    b88c:	dc800217 	ldw	r18,8(sp)
    b890:	dc400117 	ldw	r17,4(sp)
    b894:	dc000017 	ldw	r16,0(sp)
    b898:	dec00804 	addi	sp,sp,32
    b89c:	f800283a 	ret
    b8a0:	002d883a 	mov	r22,zero
    b8a4:	003ff206 	br	b870 <_fwalk+0x80>

0000b8a8 <iswspace>:
    b8a8:	00803fc4 	movi	r2,255
    b8ac:	0007883a 	mov	r3,zero
    b8b0:	11000636 	bltu	r2,r4,b8cc <iswspace+0x24>
    b8b4:	008000b4 	movhi	r2,2
    b8b8:	10a91404 	addi	r2,r2,-23472
    b8bc:	10c00017 	ldw	r3,0(r2)
    b8c0:	1907883a 	add	r3,r3,r4
    b8c4:	18800003 	ldbu	r2,0(r3)
    b8c8:	10c0020c 	andi	r3,r2,8
    b8cc:	1805883a 	mov	r2,r3
    b8d0:	f800283a 	ret

0000b8d4 <__locale_charset>:
    b8d4:	d0a00417 	ldw	r2,-32752(gp)
    b8d8:	f800283a 	ret

0000b8dc <_localeconv_r>:
    b8dc:	008000b4 	movhi	r2,2
    b8e0:	10a1ba04 	addi	r2,r2,-31000
    b8e4:	f800283a 	ret

0000b8e8 <localeconv>:
    b8e8:	008000b4 	movhi	r2,2
    b8ec:	10a91504 	addi	r2,r2,-23468
    b8f0:	11000017 	ldw	r4,0(r2)
    b8f4:	000b8dc1 	jmpi	b8dc <_localeconv_r>

0000b8f8 <_setlocale_r>:
    b8f8:	defffc04 	addi	sp,sp,-16
    b8fc:	00c000b4 	movhi	r3,2
    b900:	18e1b504 	addi	r3,r3,-31020
    b904:	dc800215 	stw	r18,8(sp)
    b908:	dc400115 	stw	r17,4(sp)
    b90c:	dc000015 	stw	r16,0(sp)
    b910:	2023883a 	mov	r17,r4
    b914:	2825883a 	mov	r18,r5
    b918:	dfc00315 	stw	ra,12(sp)
    b91c:	3021883a 	mov	r16,r6
    b920:	3009883a 	mov	r4,r6
    b924:	180b883a 	mov	r5,r3
    b928:	30000926 	beq	r6,zero,b950 <_setlocale_r+0x58>
    b92c:	000e1f80 	call	e1f8 <strcmp>
    b930:	8009883a 	mov	r4,r16
    b934:	014000b4 	movhi	r5,2
    b938:	2960f504 	addi	r5,r5,-31788
    b93c:	10000b1e 	bne	r2,zero,b96c <_setlocale_r+0x74>
    b940:	8c000d15 	stw	r16,52(r17)
    b944:	8c800c15 	stw	r18,48(r17)
    b948:	00c000b4 	movhi	r3,2
    b94c:	18e1b504 	addi	r3,r3,-31020
    b950:	1805883a 	mov	r2,r3
    b954:	dfc00317 	ldw	ra,12(sp)
    b958:	dc800217 	ldw	r18,8(sp)
    b95c:	dc400117 	ldw	r17,4(sp)
    b960:	dc000017 	ldw	r16,0(sp)
    b964:	dec00404 	addi	sp,sp,16
    b968:	f800283a 	ret
    b96c:	000e1f80 	call	e1f8 <strcmp>
    b970:	0007883a 	mov	r3,zero
    b974:	103ff226 	beq	r2,zero,b940 <_setlocale_r+0x48>
    b978:	003ff506 	br	b950 <_setlocale_r+0x58>

0000b97c <setlocale>:
    b97c:	018000b4 	movhi	r6,2
    b980:	31a91504 	addi	r6,r6,-23468
    b984:	2007883a 	mov	r3,r4
    b988:	31000017 	ldw	r4,0(r6)
    b98c:	280d883a 	mov	r6,r5
    b990:	180b883a 	mov	r5,r3
    b994:	000b8f81 	jmpi	b8f8 <_setlocale_r>

0000b998 <__smakebuf_r>:
    b998:	2880030b 	ldhu	r2,12(r5)
    b99c:	deffed04 	addi	sp,sp,-76
    b9a0:	dc401015 	stw	r17,64(sp)
    b9a4:	1080008c 	andi	r2,r2,2
    b9a8:	dc000f15 	stw	r16,60(sp)
    b9ac:	dfc01215 	stw	ra,72(sp)
    b9b0:	dc801115 	stw	r18,68(sp)
    b9b4:	2821883a 	mov	r16,r5
    b9b8:	2023883a 	mov	r17,r4
    b9bc:	10000b26 	beq	r2,zero,b9ec <__smakebuf_r+0x54>
    b9c0:	28c010c4 	addi	r3,r5,67
    b9c4:	00800044 	movi	r2,1
    b9c8:	28800515 	stw	r2,20(r5)
    b9cc:	28c00415 	stw	r3,16(r5)
    b9d0:	28c00015 	stw	r3,0(r5)
    b9d4:	dfc01217 	ldw	ra,72(sp)
    b9d8:	dc801117 	ldw	r18,68(sp)
    b9dc:	dc401017 	ldw	r17,64(sp)
    b9e0:	dc000f17 	ldw	r16,60(sp)
    b9e4:	dec01304 	addi	sp,sp,76
    b9e8:	f800283a 	ret
    b9ec:	2940038f 	ldh	r5,14(r5)
    b9f0:	28002116 	blt	r5,zero,ba78 <__smakebuf_r+0xe0>
    b9f4:	d80d883a 	mov	r6,sp
    b9f8:	00109380 	call	10938 <_fstat_r>
    b9fc:	10001e16 	blt	r2,zero,ba78 <__smakebuf_r+0xe0>
    ba00:	d8800117 	ldw	r2,4(sp)
    ba04:	00e00014 	movui	r3,32768
    ba08:	113c000c 	andi	r4,r2,61440
    ba0c:	20c03126 	beq	r4,r3,bad4 <__smakebuf_r+0x13c>
    ba10:	8080030b 	ldhu	r2,12(r16)
    ba14:	00c80004 	movi	r3,8192
    ba18:	10820014 	ori	r2,r2,2048
    ba1c:	8080030d 	sth	r2,12(r16)
    ba20:	20c01e26 	beq	r4,r3,ba9c <__smakebuf_r+0x104>
    ba24:	04810004 	movi	r18,1024
    ba28:	8809883a 	mov	r4,r17
    ba2c:	900b883a 	mov	r5,r18
    ba30:	000bb2c0 	call	bb2c <_malloc_r>
    ba34:	1009883a 	mov	r4,r2
    ba38:	10003126 	beq	r2,zero,bb00 <__smakebuf_r+0x168>
    ba3c:	80c0030b 	ldhu	r3,12(r16)
    ba40:	00800074 	movhi	r2,1
    ba44:	10aaa704 	addi	r2,r2,-21860
    ba48:	88800f15 	stw	r2,60(r17)
    ba4c:	18c02014 	ori	r3,r3,128
    ba50:	84800515 	stw	r18,20(r16)
    ba54:	80c0030d 	sth	r3,12(r16)
    ba58:	81000415 	stw	r4,16(r16)
    ba5c:	81000015 	stw	r4,0(r16)
    ba60:	dfc01217 	ldw	ra,72(sp)
    ba64:	dc801117 	ldw	r18,68(sp)
    ba68:	dc401017 	ldw	r17,64(sp)
    ba6c:	dc000f17 	ldw	r16,60(sp)
    ba70:	dec01304 	addi	sp,sp,76
    ba74:	f800283a 	ret
    ba78:	80c0030b 	ldhu	r3,12(r16)
    ba7c:	1880200c 	andi	r2,r3,128
    ba80:	10000426 	beq	r2,zero,ba94 <__smakebuf_r+0xfc>
    ba84:	04801004 	movi	r18,64
    ba88:	18820014 	ori	r2,r3,2048
    ba8c:	8080030d 	sth	r2,12(r16)
    ba90:	003fe506 	br	ba28 <__smakebuf_r+0x90>
    ba94:	04810004 	movi	r18,1024
    ba98:	003ffb06 	br	ba88 <__smakebuf_r+0xf0>
    ba9c:	8140038f 	ldh	r5,14(r16)
    baa0:	8809883a 	mov	r4,r17
    baa4:	00115340 	call	11534 <_isatty_r>
    baa8:	103fde26 	beq	r2,zero,ba24 <__smakebuf_r+0x8c>
    baac:	8080030b 	ldhu	r2,12(r16)
    bab0:	80c010c4 	addi	r3,r16,67
    bab4:	04810004 	movi	r18,1024
    bab8:	10800054 	ori	r2,r2,1
    babc:	8080030d 	sth	r2,12(r16)
    bac0:	00800044 	movi	r2,1
    bac4:	80c00415 	stw	r3,16(r16)
    bac8:	80800515 	stw	r2,20(r16)
    bacc:	80c00015 	stw	r3,0(r16)
    bad0:	003fd506 	br	ba28 <__smakebuf_r+0x90>
    bad4:	80c00a17 	ldw	r3,40(r16)
    bad8:	00800074 	movhi	r2,1
    badc:	10b82d04 	addi	r2,r2,-8012
    bae0:	18bfcb1e 	bne	r3,r2,ba10 <__smakebuf_r+0x78>
    bae4:	8080030b 	ldhu	r2,12(r16)
    bae8:	00c10004 	movi	r3,1024
    baec:	1825883a 	mov	r18,r3
    baf0:	10c4b03a 	or	r2,r2,r3
    baf4:	8080030d 	sth	r2,12(r16)
    baf8:	80c01315 	stw	r3,76(r16)
    bafc:	003fca06 	br	ba28 <__smakebuf_r+0x90>
    bb00:	8100030b 	ldhu	r4,12(r16)
    bb04:	2080800c 	andi	r2,r4,512
    bb08:	103fb21e 	bne	r2,zero,b9d4 <__smakebuf_r+0x3c>
    bb0c:	80c010c4 	addi	r3,r16,67
    bb10:	21000094 	ori	r4,r4,2
    bb14:	00800044 	movi	r2,1
    bb18:	80800515 	stw	r2,20(r16)
    bb1c:	8100030d 	sth	r4,12(r16)
    bb20:	80c00415 	stw	r3,16(r16)
    bb24:	80c00015 	stw	r3,0(r16)
    bb28:	003faa06 	br	b9d4 <__smakebuf_r+0x3c>

0000bb2c <_malloc_r>:
    bb2c:	defff604 	addi	sp,sp,-40
    bb30:	28c002c4 	addi	r3,r5,11
    bb34:	00800584 	movi	r2,22
    bb38:	dc800215 	stw	r18,8(sp)
    bb3c:	dfc00915 	stw	ra,36(sp)
    bb40:	df000815 	stw	fp,32(sp)
    bb44:	ddc00715 	stw	r23,28(sp)
    bb48:	dd800615 	stw	r22,24(sp)
    bb4c:	dd400515 	stw	r21,20(sp)
    bb50:	dd000415 	stw	r20,16(sp)
    bb54:	dcc00315 	stw	r19,12(sp)
    bb58:	dc400115 	stw	r17,4(sp)
    bb5c:	dc000015 	stw	r16,0(sp)
    bb60:	2025883a 	mov	r18,r4
    bb64:	10c01236 	bltu	r2,r3,bbb0 <_malloc_r+0x84>
    bb68:	04400404 	movi	r17,16
    bb6c:	8940142e 	bgeu	r17,r5,bbc0 <_malloc_r+0x94>
    bb70:	00800304 	movi	r2,12
    bb74:	0007883a 	mov	r3,zero
    bb78:	90800015 	stw	r2,0(r18)
    bb7c:	1805883a 	mov	r2,r3
    bb80:	dfc00917 	ldw	ra,36(sp)
    bb84:	df000817 	ldw	fp,32(sp)
    bb88:	ddc00717 	ldw	r23,28(sp)
    bb8c:	dd800617 	ldw	r22,24(sp)
    bb90:	dd400517 	ldw	r21,20(sp)
    bb94:	dd000417 	ldw	r20,16(sp)
    bb98:	dcc00317 	ldw	r19,12(sp)
    bb9c:	dc800217 	ldw	r18,8(sp)
    bba0:	dc400117 	ldw	r17,4(sp)
    bba4:	dc000017 	ldw	r16,0(sp)
    bba8:	dec00a04 	addi	sp,sp,40
    bbac:	f800283a 	ret
    bbb0:	00bffe04 	movi	r2,-8
    bbb4:	18a2703a 	and	r17,r3,r2
    bbb8:	883fed16 	blt	r17,zero,bb70 <_malloc_r+0x44>
    bbbc:	897fec36 	bltu	r17,r5,bb70 <_malloc_r+0x44>
    bbc0:	9009883a 	mov	r4,r18
    bbc4:	00143900 	call	14390 <__malloc_lock>
    bbc8:	00807dc4 	movi	r2,503
    bbcc:	14402b2e 	bgeu	r2,r17,bc7c <_malloc_r+0x150>
    bbd0:	8806d27a 	srli	r3,r17,9
    bbd4:	18003f1e 	bne	r3,zero,bcd4 <_malloc_r+0x1a8>
    bbd8:	880cd0fa 	srli	r6,r17,3
    bbdc:	300490fa 	slli	r2,r6,3
    bbe0:	02c000b4 	movhi	r11,2
    bbe4:	5ae33e04 	addi	r11,r11,-29448
    bbe8:	12cb883a 	add	r5,r2,r11
    bbec:	2c000317 	ldw	r16,12(r5)
    bbf0:	580f883a 	mov	r7,r11
    bbf4:	2c00041e 	bne	r5,r16,bc08 <_malloc_r+0xdc>
    bbf8:	00000a06 	br	bc24 <_malloc_r+0xf8>
    bbfc:	1800860e 	bge	r3,zero,be18 <_malloc_r+0x2ec>
    bc00:	84000317 	ldw	r16,12(r16)
    bc04:	2c000726 	beq	r5,r16,bc24 <_malloc_r+0xf8>
    bc08:	80800117 	ldw	r2,4(r16)
    bc0c:	00ffff04 	movi	r3,-4
    bc10:	10c8703a 	and	r4,r2,r3
    bc14:	2447c83a 	sub	r3,r4,r17
    bc18:	008003c4 	movi	r2,15
    bc1c:	10fff70e 	bge	r2,r3,bbfc <_malloc_r+0xd0>
    bc20:	31bfffc4 	addi	r6,r6,-1
    bc24:	32400044 	addi	r9,r6,1
    bc28:	028000b4 	movhi	r10,2
    bc2c:	52a34004 	addi	r10,r10,-29440
    bc30:	54000217 	ldw	r16,8(r10)
    bc34:	8280a026 	beq	r16,r10,beb8 <_malloc_r+0x38c>
    bc38:	80800117 	ldw	r2,4(r16)
    bc3c:	00ffff04 	movi	r3,-4
    bc40:	10ca703a 	and	r5,r2,r3
    bc44:	2c4dc83a 	sub	r6,r5,r17
    bc48:	008003c4 	movi	r2,15
    bc4c:	11808316 	blt	r2,r6,be5c <_malloc_r+0x330>
    bc50:	52800315 	stw	r10,12(r10)
    bc54:	52800215 	stw	r10,8(r10)
    bc58:	30002916 	blt	r6,zero,bd00 <_malloc_r+0x1d4>
    bc5c:	8147883a 	add	r3,r16,r5
    bc60:	18800117 	ldw	r2,4(r3)
    bc64:	9009883a 	mov	r4,r18
    bc68:	10800054 	ori	r2,r2,1
    bc6c:	18800115 	stw	r2,4(r3)
    bc70:	00143b00 	call	143b0 <__malloc_unlock>
    bc74:	80c00204 	addi	r3,r16,8
    bc78:	003fc006 	br	bb7c <_malloc_r+0x50>
    bc7c:	02c000b4 	movhi	r11,2
    bc80:	5ae33e04 	addi	r11,r11,-29448
    bc84:	8ac5883a 	add	r2,r17,r11
    bc88:	14000317 	ldw	r16,12(r2)
    bc8c:	580f883a 	mov	r7,r11
    bc90:	8806d0fa 	srli	r3,r17,3
    bc94:	14006c26 	beq	r2,r16,be48 <_malloc_r+0x31c>
    bc98:	80c00117 	ldw	r3,4(r16)
    bc9c:	00bfff04 	movi	r2,-4
    bca0:	81800317 	ldw	r6,12(r16)
    bca4:	1886703a 	and	r3,r3,r2
    bca8:	80c7883a 	add	r3,r16,r3
    bcac:	18800117 	ldw	r2,4(r3)
    bcb0:	81400217 	ldw	r5,8(r16)
    bcb4:	9009883a 	mov	r4,r18
    bcb8:	10800054 	ori	r2,r2,1
    bcbc:	18800115 	stw	r2,4(r3)
    bcc0:	31400215 	stw	r5,8(r6)
    bcc4:	29800315 	stw	r6,12(r5)
    bcc8:	00143b00 	call	143b0 <__malloc_unlock>
    bccc:	80c00204 	addi	r3,r16,8
    bcd0:	003faa06 	br	bb7c <_malloc_r+0x50>
    bcd4:	00800104 	movi	r2,4
    bcd8:	10c0052e 	bgeu	r2,r3,bcf0 <_malloc_r+0x1c4>
    bcdc:	00800504 	movi	r2,20
    bce0:	10c07836 	bltu	r2,r3,bec4 <_malloc_r+0x398>
    bce4:	198016c4 	addi	r6,r3,91
    bce8:	300490fa 	slli	r2,r6,3
    bcec:	003fbc06 	br	bbe0 <_malloc_r+0xb4>
    bcf0:	8804d1ba 	srli	r2,r17,6
    bcf4:	11800e04 	addi	r6,r2,56
    bcf8:	300490fa 	slli	r2,r6,3
    bcfc:	003fb806 	br	bbe0 <_malloc_r+0xb4>
    bd00:	00807fc4 	movi	r2,511
    bd04:	1140bb36 	bltu	r2,r5,bff4 <_malloc_r+0x4c8>
    bd08:	2806d0fa 	srli	r3,r5,3
    bd0c:	573ffe04 	addi	fp,r10,-8
    bd10:	00800044 	movi	r2,1
    bd14:	180890fa 	slli	r4,r3,3
    bd18:	1807d0ba 	srai	r3,r3,2
    bd1c:	e1c00117 	ldw	r7,4(fp)
    bd20:	5909883a 	add	r4,r11,r4
    bd24:	21400217 	ldw	r5,8(r4)
    bd28:	10c4983a 	sll	r2,r2,r3
    bd2c:	81000315 	stw	r4,12(r16)
    bd30:	81400215 	stw	r5,8(r16)
    bd34:	388eb03a 	or	r7,r7,r2
    bd38:	2c000315 	stw	r16,12(r5)
    bd3c:	24000215 	stw	r16,8(r4)
    bd40:	e1c00115 	stw	r7,4(fp)
    bd44:	4807883a 	mov	r3,r9
    bd48:	4800cd16 	blt	r9,zero,c080 <_malloc_r+0x554>
    bd4c:	1807d0ba 	srai	r3,r3,2
    bd50:	00800044 	movi	r2,1
    bd54:	10c8983a 	sll	r4,r2,r3
    bd58:	39004436 	bltu	r7,r4,be6c <_malloc_r+0x340>
    bd5c:	21c4703a 	and	r2,r4,r7
    bd60:	10000a1e 	bne	r2,zero,bd8c <_malloc_r+0x260>
    bd64:	2109883a 	add	r4,r4,r4
    bd68:	00bfff04 	movi	r2,-4
    bd6c:	4884703a 	and	r2,r9,r2
    bd70:	3906703a 	and	r3,r7,r4
    bd74:	12400104 	addi	r9,r2,4
    bd78:	1800041e 	bne	r3,zero,bd8c <_malloc_r+0x260>
    bd7c:	2109883a 	add	r4,r4,r4
    bd80:	3904703a 	and	r2,r7,r4
    bd84:	4a400104 	addi	r9,r9,4
    bd88:	103ffc26 	beq	r2,zero,bd7c <_malloc_r+0x250>
    bd8c:	480490fa 	slli	r2,r9,3
    bd90:	4819883a 	mov	r12,r9
    bd94:	023fff04 	movi	r8,-4
    bd98:	589b883a 	add	r13,r11,r2
    bd9c:	6807883a 	mov	r3,r13
    bda0:	014003c4 	movi	r5,15
    bda4:	1c000317 	ldw	r16,12(r3)
    bda8:	1c00041e 	bne	r3,r16,bdbc <_malloc_r+0x290>
    bdac:	0000a706 	br	c04c <_malloc_r+0x520>
    bdb0:	3000ab0e 	bge	r6,zero,c060 <_malloc_r+0x534>
    bdb4:	84000317 	ldw	r16,12(r16)
    bdb8:	1c00a426 	beq	r3,r16,c04c <_malloc_r+0x520>
    bdbc:	80800117 	ldw	r2,4(r16)
    bdc0:	1204703a 	and	r2,r2,r8
    bdc4:	144dc83a 	sub	r6,r2,r17
    bdc8:	29bff90e 	bge	r5,r6,bdb0 <_malloc_r+0x284>
    bdcc:	81000317 	ldw	r4,12(r16)
    bdd0:	80c00217 	ldw	r3,8(r16)
    bdd4:	89400054 	ori	r5,r17,1
    bdd8:	8445883a 	add	r2,r16,r17
    bddc:	20c00215 	stw	r3,8(r4)
    bde0:	19000315 	stw	r4,12(r3)
    bde4:	81400115 	stw	r5,4(r16)
    bde8:	1187883a 	add	r3,r2,r6
    bdec:	31000054 	ori	r4,r6,1
    bdf0:	50800315 	stw	r2,12(r10)
    bdf4:	50800215 	stw	r2,8(r10)
    bdf8:	19800015 	stw	r6,0(r3)
    bdfc:	11000115 	stw	r4,4(r2)
    be00:	12800215 	stw	r10,8(r2)
    be04:	12800315 	stw	r10,12(r2)
    be08:	9009883a 	mov	r4,r18
    be0c:	00143b00 	call	143b0 <__malloc_unlock>
    be10:	80c00204 	addi	r3,r16,8
    be14:	003f5906 	br	bb7c <_malloc_r+0x50>
    be18:	8109883a 	add	r4,r16,r4
    be1c:	20800117 	ldw	r2,4(r4)
    be20:	80c00217 	ldw	r3,8(r16)
    be24:	81400317 	ldw	r5,12(r16)
    be28:	10800054 	ori	r2,r2,1
    be2c:	20800115 	stw	r2,4(r4)
    be30:	28c00215 	stw	r3,8(r5)
    be34:	19400315 	stw	r5,12(r3)
    be38:	9009883a 	mov	r4,r18
    be3c:	00143b00 	call	143b0 <__malloc_unlock>
    be40:	80c00204 	addi	r3,r16,8
    be44:	003f4d06 	br	bb7c <_malloc_r+0x50>
    be48:	80800204 	addi	r2,r16,8
    be4c:	14000317 	ldw	r16,12(r2)
    be50:	143f911e 	bne	r2,r16,bc98 <_malloc_r+0x16c>
    be54:	1a400084 	addi	r9,r3,2
    be58:	003f7306 	br	bc28 <_malloc_r+0xfc>
    be5c:	88c00054 	ori	r3,r17,1
    be60:	8445883a 	add	r2,r16,r17
    be64:	80c00115 	stw	r3,4(r16)
    be68:	003fdf06 	br	bde8 <_malloc_r+0x2bc>
    be6c:	e4000217 	ldw	r16,8(fp)
    be70:	00bfff04 	movi	r2,-4
    be74:	80c00117 	ldw	r3,4(r16)
    be78:	802d883a 	mov	r22,r16
    be7c:	18aa703a 	and	r21,r3,r2
    be80:	ac401636 	bltu	r21,r17,bedc <_malloc_r+0x3b0>
    be84:	ac49c83a 	sub	r4,r21,r17
    be88:	008003c4 	movi	r2,15
    be8c:	1100130e 	bge	r2,r4,bedc <_malloc_r+0x3b0>
    be90:	88800054 	ori	r2,r17,1
    be94:	8447883a 	add	r3,r16,r17
    be98:	80800115 	stw	r2,4(r16)
    be9c:	20800054 	ori	r2,r4,1
    bea0:	18800115 	stw	r2,4(r3)
    bea4:	e0c00215 	stw	r3,8(fp)
    bea8:	9009883a 	mov	r4,r18
    beac:	00143b00 	call	143b0 <__malloc_unlock>
    beb0:	80c00204 	addi	r3,r16,8
    beb4:	003f3106 	br	bb7c <_malloc_r+0x50>
    beb8:	39c00117 	ldw	r7,4(r7)
    bebc:	573ffe04 	addi	fp,r10,-8
    bec0:	003fa006 	br	bd44 <_malloc_r+0x218>
    bec4:	00801504 	movi	r2,84
    bec8:	10c06736 	bltu	r2,r3,c068 <_malloc_r+0x53c>
    becc:	8804d33a 	srli	r2,r17,12
    bed0:	11801b84 	addi	r6,r2,110
    bed4:	300490fa 	slli	r2,r6,3
    bed8:	003f4106 	br	bbe0 <_malloc_r+0xb4>
    bedc:	d0a70917 	ldw	r2,-25564(gp)
    bee0:	d0e00617 	ldw	r3,-32744(gp)
    bee4:	053fffc4 	movi	r20,-1
    bee8:	10800404 	addi	r2,r2,16
    beec:	88a7883a 	add	r19,r17,r2
    bef0:	1d000326 	beq	r3,r20,bf00 <_malloc_r+0x3d4>
    bef4:	98c3ffc4 	addi	r3,r19,4095
    bef8:	00bc0004 	movi	r2,-4096
    befc:	18a6703a 	and	r19,r3,r2
    bf00:	9009883a 	mov	r4,r18
    bf04:	980b883a 	mov	r5,r19
    bf08:	000dea00 	call	dea0 <_sbrk_r>
    bf0c:	1009883a 	mov	r4,r2
    bf10:	15000426 	beq	r2,r20,bf24 <_malloc_r+0x3f8>
    bf14:	854b883a 	add	r5,r16,r21
    bf18:	1029883a 	mov	r20,r2
    bf1c:	11405a2e 	bgeu	r2,r5,c088 <_malloc_r+0x55c>
    bf20:	87000c26 	beq	r16,fp,bf54 <_malloc_r+0x428>
    bf24:	e4000217 	ldw	r16,8(fp)
    bf28:	80c00117 	ldw	r3,4(r16)
    bf2c:	00bfff04 	movi	r2,-4
    bf30:	1884703a 	and	r2,r3,r2
    bf34:	14400336 	bltu	r2,r17,bf44 <_malloc_r+0x418>
    bf38:	1449c83a 	sub	r4,r2,r17
    bf3c:	008003c4 	movi	r2,15
    bf40:	113fd316 	blt	r2,r4,be90 <_malloc_r+0x364>
    bf44:	9009883a 	mov	r4,r18
    bf48:	00143b00 	call	143b0 <__malloc_unlock>
    bf4c:	0007883a 	mov	r3,zero
    bf50:	003f0a06 	br	bb7c <_malloc_r+0x50>
    bf54:	05c000b4 	movhi	r23,2
    bf58:	bdf02b04 	addi	r23,r23,-16212
    bf5c:	b8800017 	ldw	r2,0(r23)
    bf60:	988d883a 	add	r6,r19,r2
    bf64:	b9800015 	stw	r6,0(r23)
    bf68:	d0e00617 	ldw	r3,-32744(gp)
    bf6c:	00bfffc4 	movi	r2,-1
    bf70:	18808e26 	beq	r3,r2,c1ac <_malloc_r+0x680>
    bf74:	2145c83a 	sub	r2,r4,r5
    bf78:	3085883a 	add	r2,r6,r2
    bf7c:	b8800015 	stw	r2,0(r23)
    bf80:	20c001cc 	andi	r3,r4,7
    bf84:	18005f1e 	bne	r3,zero,c104 <_malloc_r+0x5d8>
    bf88:	000b883a 	mov	r5,zero
    bf8c:	a4c5883a 	add	r2,r20,r19
    bf90:	1083ffcc 	andi	r2,r2,4095
    bf94:	00c40004 	movi	r3,4096
    bf98:	1887c83a 	sub	r3,r3,r2
    bf9c:	28e7883a 	add	r19,r5,r3
    bfa0:	9009883a 	mov	r4,r18
    bfa4:	980b883a 	mov	r5,r19
    bfa8:	000dea00 	call	dea0 <_sbrk_r>
    bfac:	1007883a 	mov	r3,r2
    bfb0:	00bfffc4 	movi	r2,-1
    bfb4:	18807a26 	beq	r3,r2,c1a0 <_malloc_r+0x674>
    bfb8:	1d05c83a 	sub	r2,r3,r20
    bfbc:	9885883a 	add	r2,r19,r2
    bfc0:	10c00054 	ori	r3,r2,1
    bfc4:	b8800017 	ldw	r2,0(r23)
    bfc8:	a021883a 	mov	r16,r20
    bfcc:	a0c00115 	stw	r3,4(r20)
    bfd0:	9885883a 	add	r2,r19,r2
    bfd4:	b8800015 	stw	r2,0(r23)
    bfd8:	e5000215 	stw	r20,8(fp)
    bfdc:	b7003626 	beq	r22,fp,c0b8 <_malloc_r+0x58c>
    bfe0:	018003c4 	movi	r6,15
    bfe4:	35404b36 	bltu	r6,r21,c114 <_malloc_r+0x5e8>
    bfe8:	00800044 	movi	r2,1
    bfec:	a0800115 	stw	r2,4(r20)
    bff0:	003fcd06 	br	bf28 <_malloc_r+0x3fc>
    bff4:	2808d27a 	srli	r4,r5,9
    bff8:	2000371e 	bne	r4,zero,c0d8 <_malloc_r+0x5ac>
    bffc:	2808d0fa 	srli	r4,r5,3
    c000:	200690fa 	slli	r3,r4,3
    c004:	1ad1883a 	add	r8,r3,r11
    c008:	41800217 	ldw	r6,8(r8)
    c00c:	41805b26 	beq	r8,r6,c17c <_malloc_r+0x650>
    c010:	30800117 	ldw	r2,4(r6)
    c014:	00ffff04 	movi	r3,-4
    c018:	10c4703a 	and	r2,r2,r3
    c01c:	2880022e 	bgeu	r5,r2,c028 <_malloc_r+0x4fc>
    c020:	31800217 	ldw	r6,8(r6)
    c024:	41bffa1e 	bne	r8,r6,c010 <_malloc_r+0x4e4>
    c028:	32000317 	ldw	r8,12(r6)
    c02c:	39c00117 	ldw	r7,4(r7)
    c030:	82000315 	stw	r8,12(r16)
    c034:	81800215 	stw	r6,8(r16)
    c038:	070000b4 	movhi	fp,2
    c03c:	e7233e04 	addi	fp,fp,-29448
    c040:	34000315 	stw	r16,12(r6)
    c044:	44000215 	stw	r16,8(r8)
    c048:	003f3e06 	br	bd44 <_malloc_r+0x218>
    c04c:	63000044 	addi	r12,r12,1
    c050:	608000cc 	andi	r2,r12,3
    c054:	10005d26 	beq	r2,zero,c1cc <_malloc_r+0x6a0>
    c058:	18c00204 	addi	r3,r3,8
    c05c:	003f5106 	br	bda4 <_malloc_r+0x278>
    c060:	8089883a 	add	r4,r16,r2
    c064:	003f6d06 	br	be1c <_malloc_r+0x2f0>
    c068:	00805504 	movi	r2,340
    c06c:	10c02036 	bltu	r2,r3,c0f0 <_malloc_r+0x5c4>
    c070:	8804d3fa 	srli	r2,r17,15
    c074:	11801dc4 	addi	r6,r2,119
    c078:	300490fa 	slli	r2,r6,3
    c07c:	003ed806 	br	bbe0 <_malloc_r+0xb4>
    c080:	48c000c4 	addi	r3,r9,3
    c084:	003f3106 	br	bd4c <_malloc_r+0x220>
    c088:	05c000b4 	movhi	r23,2
    c08c:	bdf02b04 	addi	r23,r23,-16212
    c090:	b8800017 	ldw	r2,0(r23)
    c094:	988d883a 	add	r6,r19,r2
    c098:	b9800015 	stw	r6,0(r23)
    c09c:	293fb21e 	bne	r5,r4,bf68 <_malloc_r+0x43c>
    c0a0:	2083ffcc 	andi	r2,r4,4095
    c0a4:	103fb01e 	bne	r2,zero,bf68 <_malloc_r+0x43c>
    c0a8:	e4000217 	ldw	r16,8(fp)
    c0ac:	9d45883a 	add	r2,r19,r21
    c0b0:	10800054 	ori	r2,r2,1
    c0b4:	80800115 	stw	r2,4(r16)
    c0b8:	b8c00017 	ldw	r3,0(r23)
    c0bc:	d0a70a17 	ldw	r2,-25560(gp)
    c0c0:	10c0012e 	bgeu	r2,r3,c0c8 <_malloc_r+0x59c>
    c0c4:	d0e70a15 	stw	r3,-25560(gp)
    c0c8:	d0a70b17 	ldw	r2,-25556(gp)
    c0cc:	10ff962e 	bgeu	r2,r3,bf28 <_malloc_r+0x3fc>
    c0d0:	d0e70b15 	stw	r3,-25556(gp)
    c0d4:	003f9406 	br	bf28 <_malloc_r+0x3fc>
    c0d8:	00800104 	movi	r2,4
    c0dc:	11001e36 	bltu	r2,r4,c158 <_malloc_r+0x62c>
    c0e0:	2804d1ba 	srli	r2,r5,6
    c0e4:	11000e04 	addi	r4,r2,56
    c0e8:	200690fa 	slli	r3,r4,3
    c0ec:	003fc506 	br	c004 <_malloc_r+0x4d8>
    c0f0:	00815504 	movi	r2,1364
    c0f4:	10c01d2e 	bgeu	r2,r3,c16c <_malloc_r+0x640>
    c0f8:	01801f84 	movi	r6,126
    c0fc:	0080fc04 	movi	r2,1008
    c100:	003eb706 	br	bbe0 <_malloc_r+0xb4>
    c104:	00800204 	movi	r2,8
    c108:	10cbc83a 	sub	r5,r2,r3
    c10c:	2169883a 	add	r20,r4,r5
    c110:	003f9e06 	br	bf8c <_malloc_r+0x460>
    c114:	00bffe04 	movi	r2,-8
    c118:	a93ffd04 	addi	r4,r21,-12
    c11c:	2088703a 	and	r4,r4,r2
    c120:	b10b883a 	add	r5,r22,r4
    c124:	00c00144 	movi	r3,5
    c128:	28c00215 	stw	r3,8(r5)
    c12c:	28c00115 	stw	r3,4(r5)
    c130:	b0800117 	ldw	r2,4(r22)
    c134:	1080004c 	andi	r2,r2,1
    c138:	2084b03a 	or	r2,r4,r2
    c13c:	b0800115 	stw	r2,4(r22)
    c140:	313fdd2e 	bgeu	r6,r4,c0b8 <_malloc_r+0x58c>
    c144:	b1400204 	addi	r5,r22,8
    c148:	9009883a 	mov	r4,r18
    c14c:	000af780 	call	af78 <_free_r>
    c150:	e4000217 	ldw	r16,8(fp)
    c154:	003fd806 	br	c0b8 <_malloc_r+0x58c>
    c158:	00800504 	movi	r2,20
    c15c:	11001536 	bltu	r2,r4,c1b4 <_malloc_r+0x688>
    c160:	210016c4 	addi	r4,r4,91
    c164:	200690fa 	slli	r3,r4,3
    c168:	003fa606 	br	c004 <_malloc_r+0x4d8>
    c16c:	8804d4ba 	srli	r2,r17,18
    c170:	11801f04 	addi	r6,r2,124
    c174:	300490fa 	slli	r2,r6,3
    c178:	003e9906 	br	bbe0 <_malloc_r+0xb4>
    c17c:	2009d0ba 	srai	r4,r4,2
    c180:	014000b4 	movhi	r5,2
    c184:	29633e04 	addi	r5,r5,-29448
    c188:	00c00044 	movi	r3,1
    c18c:	28800117 	ldw	r2,4(r5)
    c190:	1906983a 	sll	r3,r3,r4
    c194:	10c4b03a 	or	r2,r2,r3
    c198:	28800115 	stw	r2,4(r5)
    c19c:	003fa306 	br	c02c <_malloc_r+0x500>
    c1a0:	0027883a 	mov	r19,zero
    c1a4:	00c00044 	movi	r3,1
    c1a8:	003f8606 	br	bfc4 <_malloc_r+0x498>
    c1ac:	d1200615 	stw	r4,-32744(gp)
    c1b0:	003f7306 	br	bf80 <_malloc_r+0x454>
    c1b4:	00801504 	movi	r2,84
    c1b8:	11001936 	bltu	r2,r4,c220 <_malloc_r+0x6f4>
    c1bc:	2804d33a 	srli	r2,r5,12
    c1c0:	11001b84 	addi	r4,r2,110
    c1c4:	200690fa 	slli	r3,r4,3
    c1c8:	003f8e06 	br	c004 <_malloc_r+0x4d8>
    c1cc:	480b883a 	mov	r5,r9
    c1d0:	6807883a 	mov	r3,r13
    c1d4:	288000cc 	andi	r2,r5,3
    c1d8:	18fffe04 	addi	r3,r3,-8
    c1dc:	297fffc4 	addi	r5,r5,-1
    c1e0:	10001526 	beq	r2,zero,c238 <_malloc_r+0x70c>
    c1e4:	18800217 	ldw	r2,8(r3)
    c1e8:	10fffa26 	beq	r2,r3,c1d4 <_malloc_r+0x6a8>
    c1ec:	2109883a 	add	r4,r4,r4
    c1f0:	393f1e36 	bltu	r7,r4,be6c <_malloc_r+0x340>
    c1f4:	203f1d26 	beq	r4,zero,be6c <_malloc_r+0x340>
    c1f8:	21c4703a 	and	r2,r4,r7
    c1fc:	10000226 	beq	r2,zero,c208 <_malloc_r+0x6dc>
    c200:	6013883a 	mov	r9,r12
    c204:	003ee106 	br	bd8c <_malloc_r+0x260>
    c208:	2109883a 	add	r4,r4,r4
    c20c:	3904703a 	and	r2,r7,r4
    c210:	63000104 	addi	r12,r12,4
    c214:	103ffc26 	beq	r2,zero,c208 <_malloc_r+0x6dc>
    c218:	6013883a 	mov	r9,r12
    c21c:	003edb06 	br	bd8c <_malloc_r+0x260>
    c220:	00805504 	movi	r2,340
    c224:	11000836 	bltu	r2,r4,c248 <_malloc_r+0x71c>
    c228:	2804d3fa 	srli	r2,r5,15
    c22c:	11001dc4 	addi	r4,r2,119
    c230:	200690fa 	slli	r3,r4,3
    c234:	003f7306 	br	c004 <_malloc_r+0x4d8>
    c238:	0104303a 	nor	r2,zero,r4
    c23c:	388e703a 	and	r7,r7,r2
    c240:	e1c00115 	stw	r7,4(fp)
    c244:	003fe906 	br	c1ec <_malloc_r+0x6c0>
    c248:	00815504 	movi	r2,1364
    c24c:	1100032e 	bgeu	r2,r4,c25c <_malloc_r+0x730>
    c250:	01001f84 	movi	r4,126
    c254:	00c0fc04 	movi	r3,1008
    c258:	003f6a06 	br	c004 <_malloc_r+0x4d8>
    c25c:	2804d4ba 	srli	r2,r5,18
    c260:	11001f04 	addi	r4,r2,124
    c264:	200690fa 	slli	r3,r4,3
    c268:	003f6606 	br	c004 <_malloc_r+0x4d8>

0000c26c <_mbrtowc_r>:
    c26c:	defffc04 	addi	sp,sp,-16
    c270:	dc400215 	stw	r17,8(sp)
    c274:	dc000115 	stw	r16,4(sp)
    c278:	dfc00315 	stw	ra,12(sp)
    c27c:	dc000417 	ldw	r16,16(sp)
    c280:	2023883a 	mov	r17,r4
    c284:	30000f26 	beq	r6,zero,c2c4 <_mbrtowc_r+0x58>
    c288:	dc000015 	stw	r16,0(sp)
    c28c:	000c32c0 	call	c32c <_mbtowc_r>
    c290:	1007883a 	mov	r3,r2
    c294:	00bfffc4 	movi	r2,-1
    c298:	1809883a 	mov	r4,r3
    c29c:	1880111e 	bne	r3,r2,c2e4 <_mbrtowc_r+0x78>
    c2a0:	80000015 	stw	zero,0(r16)
    c2a4:	00802284 	movi	r2,138
    c2a8:	88800015 	stw	r2,0(r17)
    c2ac:	2005883a 	mov	r2,r4
    c2b0:	dfc00317 	ldw	ra,12(sp)
    c2b4:	dc400217 	ldw	r17,8(sp)
    c2b8:	dc000117 	ldw	r16,4(sp)
    c2bc:	dec00404 	addi	sp,sp,16
    c2c0:	f800283a 	ret
    c2c4:	000b883a 	mov	r5,zero
    c2c8:	018000b4 	movhi	r6,2
    c2cc:	31a0f504 	addi	r6,r6,-31788
    c2d0:	01c00044 	movi	r7,1
    c2d4:	dc000015 	stw	r16,0(sp)
    c2d8:	000c32c0 	call	c32c <_mbtowc_r>
    c2dc:	1007883a 	mov	r3,r2
    c2e0:	003fec06 	br	c294 <_mbrtowc_r+0x28>
    c2e4:	1809883a 	mov	r4,r3
    c2e8:	003ff006 	br	c2ac <_mbrtowc_r+0x40>

0000c2ec <mbrtowc>:
    c2ec:	008000b4 	movhi	r2,2
    c2f0:	10a91504 	addi	r2,r2,-23468
    c2f4:	2017883a 	mov	r11,r4
    c2f8:	11000017 	ldw	r4,0(r2)
    c2fc:	defffe04 	addi	sp,sp,-8
    c300:	3013883a 	mov	r9,r6
    c304:	2805883a 	mov	r2,r5
    c308:	d9c00015 	stw	r7,0(sp)
    c30c:	580b883a 	mov	r5,r11
    c310:	100d883a 	mov	r6,r2
    c314:	480f883a 	mov	r7,r9
    c318:	dfc00115 	stw	ra,4(sp)
    c31c:	000c26c0 	call	c26c <_mbrtowc_r>
    c320:	dfc00117 	ldw	ra,4(sp)
    c324:	dec00204 	addi	sp,sp,8
    c328:	f800283a 	ret

0000c32c <_mbtowc_r>:
    c32c:	deffff04 	addi	sp,sp,-4
    c330:	0005883a 	mov	r2,zero
    c334:	28000326 	beq	r5,zero,c344 <_mbtowc_r+0x18>
    c338:	3000041e 	bne	r6,zero,c34c <_mbtowc_r+0x20>
    c33c:	dec00104 	addi	sp,sp,4
    c340:	f800283a 	ret
    c344:	d80b883a 	mov	r5,sp
    c348:	303ffc26 	beq	r6,zero,c33c <_mbtowc_r+0x10>
    c34c:	00bfff84 	movi	r2,-2
    c350:	383ffa26 	beq	r7,zero,c33c <_mbtowc_r+0x10>
    c354:	30800003 	ldbu	r2,0(r6)
    c358:	28800015 	stw	r2,0(r5)
    c35c:	30c00003 	ldbu	r3,0(r6)
    c360:	1804c03a 	cmpne	r2,r3,zero
    c364:	dec00104 	addi	sp,sp,4
    c368:	f800283a 	ret

0000c36c <memchr>:
    c36c:	008000c4 	movi	r2,3
    c370:	29403fcc 	andi	r5,r5,255
    c374:	2007883a 	mov	r3,r4
    c378:	1180022e 	bgeu	r2,r6,c384 <memchr+0x18>
    c37c:	2084703a 	and	r2,r4,r2
    c380:	10000b26 	beq	r2,zero,c3b0 <memchr+0x44>
    c384:	313fffc4 	addi	r4,r6,-1
    c388:	3000051e 	bne	r6,zero,c3a0 <memchr+0x34>
    c38c:	00002c06 	br	c440 <memchr+0xd4>
    c390:	213fffc4 	addi	r4,r4,-1
    c394:	00bfffc4 	movi	r2,-1
    c398:	18c00044 	addi	r3,r3,1
    c39c:	20802826 	beq	r4,r2,c440 <memchr+0xd4>
    c3a0:	18800003 	ldbu	r2,0(r3)
    c3a4:	28bffa1e 	bne	r5,r2,c390 <memchr+0x24>
    c3a8:	1805883a 	mov	r2,r3
    c3ac:	f800283a 	ret
    c3b0:	0011883a 	mov	r8,zero
    c3b4:	0007883a 	mov	r3,zero
    c3b8:	01c00104 	movi	r7,4
    c3bc:	4004923a 	slli	r2,r8,8
    c3c0:	18c00044 	addi	r3,r3,1
    c3c4:	1151883a 	add	r8,r2,r5
    c3c8:	19fffc1e 	bne	r3,r7,c3bc <memchr+0x50>
    c3cc:	02bfbff4 	movhi	r10,65279
    c3d0:	52bfbfc4 	addi	r10,r10,-257
    c3d4:	02602074 	movhi	r9,32897
    c3d8:	4a602004 	addi	r9,r9,-32640
    c3dc:	02c000c4 	movi	r11,3
    c3e0:	20800017 	ldw	r2,0(r4)
    c3e4:	31bfff04 	addi	r6,r6,-4
    c3e8:	200f883a 	mov	r7,r4
    c3ec:	1204f03a 	xor	r2,r2,r8
    c3f0:	1287883a 	add	r3,r2,r10
    c3f4:	1a46703a 	and	r3,r3,r9
    c3f8:	0084303a 	nor	r2,zero,r2
    c3fc:	10c4703a 	and	r2,r2,r3
    c400:	10000b26 	beq	r2,zero,c430 <memchr+0xc4>
    c404:	20800003 	ldbu	r2,0(r4)
    c408:	28800f26 	beq	r5,r2,c448 <memchr+0xdc>
    c40c:	20800043 	ldbu	r2,1(r4)
    c410:	21c00044 	addi	r7,r4,1
    c414:	28800c26 	beq	r5,r2,c448 <memchr+0xdc>
    c418:	20800083 	ldbu	r2,2(r4)
    c41c:	21c00084 	addi	r7,r4,2
    c420:	28800926 	beq	r5,r2,c448 <memchr+0xdc>
    c424:	208000c3 	ldbu	r2,3(r4)
    c428:	21c000c4 	addi	r7,r4,3
    c42c:	28800626 	beq	r5,r2,c448 <memchr+0xdc>
    c430:	21000104 	addi	r4,r4,4
    c434:	59bfea36 	bltu	r11,r6,c3e0 <memchr+0x74>
    c438:	2007883a 	mov	r3,r4
    c43c:	003fd106 	br	c384 <memchr+0x18>
    c440:	0005883a 	mov	r2,zero
    c444:	f800283a 	ret
    c448:	3805883a 	mov	r2,r7
    c44c:	f800283a 	ret

0000c450 <memcpy>:
    c450:	01c003c4 	movi	r7,15
    c454:	2007883a 	mov	r3,r4
    c458:	3980032e 	bgeu	r7,r6,c468 <memcpy+0x18>
    c45c:	2904b03a 	or	r2,r5,r4
    c460:	108000cc 	andi	r2,r2,3
    c464:	10000926 	beq	r2,zero,c48c <memcpy+0x3c>
    c468:	30000626 	beq	r6,zero,c484 <memcpy+0x34>
    c46c:	30cd883a 	add	r6,r6,r3
    c470:	28800003 	ldbu	r2,0(r5)
    c474:	29400044 	addi	r5,r5,1
    c478:	18800005 	stb	r2,0(r3)
    c47c:	18c00044 	addi	r3,r3,1
    c480:	30fffb1e 	bne	r6,r3,c470 <memcpy+0x20>
    c484:	2005883a 	mov	r2,r4
    c488:	f800283a 	ret
    c48c:	3811883a 	mov	r8,r7
    c490:	200f883a 	mov	r7,r4
    c494:	28c00017 	ldw	r3,0(r5)
    c498:	31bffc04 	addi	r6,r6,-16
    c49c:	38c00015 	stw	r3,0(r7)
    c4a0:	28800117 	ldw	r2,4(r5)
    c4a4:	38800115 	stw	r2,4(r7)
    c4a8:	28c00217 	ldw	r3,8(r5)
    c4ac:	38c00215 	stw	r3,8(r7)
    c4b0:	28800317 	ldw	r2,12(r5)
    c4b4:	29400404 	addi	r5,r5,16
    c4b8:	38800315 	stw	r2,12(r7)
    c4bc:	39c00404 	addi	r7,r7,16
    c4c0:	41bff436 	bltu	r8,r6,c494 <memcpy+0x44>
    c4c4:	008000c4 	movi	r2,3
    c4c8:	1180072e 	bgeu	r2,r6,c4e8 <memcpy+0x98>
    c4cc:	1007883a 	mov	r3,r2
    c4d0:	28800017 	ldw	r2,0(r5)
    c4d4:	31bfff04 	addi	r6,r6,-4
    c4d8:	29400104 	addi	r5,r5,4
    c4dc:	38800015 	stw	r2,0(r7)
    c4e0:	39c00104 	addi	r7,r7,4
    c4e4:	19bffa36 	bltu	r3,r6,c4d0 <memcpy+0x80>
    c4e8:	3807883a 	mov	r3,r7
    c4ec:	003fde06 	br	c468 <memcpy+0x18>

0000c4f0 <memmove>:
    c4f0:	2807883a 	mov	r3,r5
    c4f4:	2011883a 	mov	r8,r4
    c4f8:	29000c2e 	bgeu	r5,r4,c52c <memmove+0x3c>
    c4fc:	298f883a 	add	r7,r5,r6
    c500:	21c00a2e 	bgeu	r4,r7,c52c <memmove+0x3c>
    c504:	30000726 	beq	r6,zero,c524 <memmove+0x34>
    c508:	2187883a 	add	r3,r4,r6
    c50c:	198dc83a 	sub	r6,r3,r6
    c510:	39ffffc4 	addi	r7,r7,-1
    c514:	38800003 	ldbu	r2,0(r7)
    c518:	18ffffc4 	addi	r3,r3,-1
    c51c:	18800005 	stb	r2,0(r3)
    c520:	19bffb1e 	bne	r3,r6,c510 <memmove+0x20>
    c524:	2005883a 	mov	r2,r4
    c528:	f800283a 	ret
    c52c:	01c003c4 	movi	r7,15
    c530:	39800a36 	bltu	r7,r6,c55c <memmove+0x6c>
    c534:	303ffb26 	beq	r6,zero,c524 <memmove+0x34>
    c538:	400f883a 	mov	r7,r8
    c53c:	320d883a 	add	r6,r6,r8
    c540:	28800003 	ldbu	r2,0(r5)
    c544:	29400044 	addi	r5,r5,1
    c548:	38800005 	stb	r2,0(r7)
    c54c:	39c00044 	addi	r7,r7,1
    c550:	39bffb1e 	bne	r7,r6,c540 <memmove+0x50>
    c554:	2005883a 	mov	r2,r4
    c558:	f800283a 	ret
    c55c:	1904b03a 	or	r2,r3,r4
    c560:	108000cc 	andi	r2,r2,3
    c564:	103ff31e 	bne	r2,zero,c534 <memmove+0x44>
    c568:	3811883a 	mov	r8,r7
    c56c:	180b883a 	mov	r5,r3
    c570:	200f883a 	mov	r7,r4
    c574:	28c00017 	ldw	r3,0(r5)
    c578:	31bffc04 	addi	r6,r6,-16
    c57c:	38c00015 	stw	r3,0(r7)
    c580:	28800117 	ldw	r2,4(r5)
    c584:	38800115 	stw	r2,4(r7)
    c588:	28c00217 	ldw	r3,8(r5)
    c58c:	38c00215 	stw	r3,8(r7)
    c590:	28800317 	ldw	r2,12(r5)
    c594:	29400404 	addi	r5,r5,16
    c598:	38800315 	stw	r2,12(r7)
    c59c:	39c00404 	addi	r7,r7,16
    c5a0:	41bff436 	bltu	r8,r6,c574 <memmove+0x84>
    c5a4:	008000c4 	movi	r2,3
    c5a8:	1180072e 	bgeu	r2,r6,c5c8 <memmove+0xd8>
    c5ac:	1007883a 	mov	r3,r2
    c5b0:	28800017 	ldw	r2,0(r5)
    c5b4:	31bfff04 	addi	r6,r6,-4
    c5b8:	29400104 	addi	r5,r5,4
    c5bc:	38800015 	stw	r2,0(r7)
    c5c0:	39c00104 	addi	r7,r7,4
    c5c4:	19bffa36 	bltu	r3,r6,c5b0 <memmove+0xc0>
    c5c8:	3811883a 	mov	r8,r7
    c5cc:	003fd906 	br	c534 <memmove+0x44>

0000c5d0 <memset>:
    c5d0:	008000c4 	movi	r2,3
    c5d4:	29403fcc 	andi	r5,r5,255
    c5d8:	2007883a 	mov	r3,r4
    c5dc:	1180022e 	bgeu	r2,r6,c5e8 <memset+0x18>
    c5e0:	2084703a 	and	r2,r4,r2
    c5e4:	10000826 	beq	r2,zero,c608 <memset+0x38>
    c5e8:	30000526 	beq	r6,zero,c600 <memset+0x30>
    c5ec:	2805883a 	mov	r2,r5
    c5f0:	30cd883a 	add	r6,r6,r3
    c5f4:	18800005 	stb	r2,0(r3)
    c5f8:	18c00044 	addi	r3,r3,1
    c5fc:	19bffd1e 	bne	r3,r6,c5f4 <memset+0x24>
    c600:	2005883a 	mov	r2,r4
    c604:	f800283a 	ret
    c608:	2804923a 	slli	r2,r5,8
    c60c:	020003c4 	movi	r8,15
    c610:	200f883a 	mov	r7,r4
    c614:	2884b03a 	or	r2,r5,r2
    c618:	1006943a 	slli	r3,r2,16
    c61c:	10c6b03a 	or	r3,r2,r3
    c620:	41800a2e 	bgeu	r8,r6,c64c <memset+0x7c>
    c624:	4005883a 	mov	r2,r8
    c628:	31bffc04 	addi	r6,r6,-16
    c62c:	38c00015 	stw	r3,0(r7)
    c630:	38c00115 	stw	r3,4(r7)
    c634:	38c00215 	stw	r3,8(r7)
    c638:	38c00315 	stw	r3,12(r7)
    c63c:	39c00404 	addi	r7,r7,16
    c640:	11bff936 	bltu	r2,r6,c628 <memset+0x58>
    c644:	008000c4 	movi	r2,3
    c648:	1180052e 	bgeu	r2,r6,c660 <memset+0x90>
    c64c:	31bfff04 	addi	r6,r6,-4
    c650:	008000c4 	movi	r2,3
    c654:	38c00015 	stw	r3,0(r7)
    c658:	39c00104 	addi	r7,r7,4
    c65c:	11bffb36 	bltu	r2,r6,c64c <memset+0x7c>
    c660:	3807883a 	mov	r3,r7
    c664:	003fe006 	br	c5e8 <memset+0x18>

0000c668 <_Bfree>:
    c668:	28000826 	beq	r5,zero,c68c <_Bfree+0x24>
    c66c:	28800117 	ldw	r2,4(r5)
    c670:	21001317 	ldw	r4,76(r4)
    c674:	1085883a 	add	r2,r2,r2
    c678:	1085883a 	add	r2,r2,r2
    c67c:	1105883a 	add	r2,r2,r4
    c680:	10c00017 	ldw	r3,0(r2)
    c684:	28c00015 	stw	r3,0(r5)
    c688:	11400015 	stw	r5,0(r2)
    c68c:	f800283a 	ret

0000c690 <__hi0bits>:
    c690:	20bfffec 	andhi	r2,r4,65535
    c694:	10001426 	beq	r2,zero,c6e8 <__hi0bits+0x58>
    c698:	0007883a 	mov	r3,zero
    c69c:	20bfc02c 	andhi	r2,r4,65280
    c6a0:	1000021e 	bne	r2,zero,c6ac <__hi0bits+0x1c>
    c6a4:	2008923a 	slli	r4,r4,8
    c6a8:	18c00204 	addi	r3,r3,8
    c6ac:	20bc002c 	andhi	r2,r4,61440
    c6b0:	1000021e 	bne	r2,zero,c6bc <__hi0bits+0x2c>
    c6b4:	2008913a 	slli	r4,r4,4
    c6b8:	18c00104 	addi	r3,r3,4
    c6bc:	20b0002c 	andhi	r2,r4,49152
    c6c0:	1000031e 	bne	r2,zero,c6d0 <__hi0bits+0x40>
    c6c4:	2105883a 	add	r2,r4,r4
    c6c8:	18c00084 	addi	r3,r3,2
    c6cc:	1089883a 	add	r4,r2,r2
    c6d0:	20000316 	blt	r4,zero,c6e0 <__hi0bits+0x50>
    c6d4:	2090002c 	andhi	r2,r4,16384
    c6d8:	10000626 	beq	r2,zero,c6f4 <__hi0bits+0x64>
    c6dc:	18c00044 	addi	r3,r3,1
    c6e0:	1805883a 	mov	r2,r3
    c6e4:	f800283a 	ret
    c6e8:	2008943a 	slli	r4,r4,16
    c6ec:	00c00404 	movi	r3,16
    c6f0:	003fea06 	br	c69c <__hi0bits+0xc>
    c6f4:	00c00804 	movi	r3,32
    c6f8:	1805883a 	mov	r2,r3
    c6fc:	f800283a 	ret

0000c700 <__lo0bits>:
    c700:	20c00017 	ldw	r3,0(r4)
    c704:	188001cc 	andi	r2,r3,7
    c708:	10000a26 	beq	r2,zero,c734 <__lo0bits+0x34>
    c70c:	1880004c 	andi	r2,r3,1
    c710:	1005003a 	cmpeq	r2,r2,zero
    c714:	10002126 	beq	r2,zero,c79c <__lo0bits+0x9c>
    c718:	1880008c 	andi	r2,r3,2
    c71c:	1000251e 	bne	r2,zero,c7b4 <__lo0bits+0xb4>
    c720:	1804d0ba 	srli	r2,r3,2
    c724:	01400084 	movi	r5,2
    c728:	20800015 	stw	r2,0(r4)
    c72c:	2805883a 	mov	r2,r5
    c730:	f800283a 	ret
    c734:	18bfffcc 	andi	r2,r3,65535
    c738:	10001526 	beq	r2,zero,c790 <__lo0bits+0x90>
    c73c:	000b883a 	mov	r5,zero
    c740:	18803fcc 	andi	r2,r3,255
    c744:	1000021e 	bne	r2,zero,c750 <__lo0bits+0x50>
    c748:	1806d23a 	srli	r3,r3,8
    c74c:	29400204 	addi	r5,r5,8
    c750:	188003cc 	andi	r2,r3,15
    c754:	1000021e 	bne	r2,zero,c760 <__lo0bits+0x60>
    c758:	1806d13a 	srli	r3,r3,4
    c75c:	29400104 	addi	r5,r5,4
    c760:	188000cc 	andi	r2,r3,3
    c764:	1000021e 	bne	r2,zero,c770 <__lo0bits+0x70>
    c768:	1806d0ba 	srli	r3,r3,2
    c76c:	29400084 	addi	r5,r5,2
    c770:	1880004c 	andi	r2,r3,1
    c774:	1000031e 	bne	r2,zero,c784 <__lo0bits+0x84>
    c778:	1806d07a 	srli	r3,r3,1
    c77c:	18000a26 	beq	r3,zero,c7a8 <__lo0bits+0xa8>
    c780:	29400044 	addi	r5,r5,1
    c784:	2805883a 	mov	r2,r5
    c788:	20c00015 	stw	r3,0(r4)
    c78c:	f800283a 	ret
    c790:	1806d43a 	srli	r3,r3,16
    c794:	01400404 	movi	r5,16
    c798:	003fe906 	br	c740 <__lo0bits+0x40>
    c79c:	000b883a 	mov	r5,zero
    c7a0:	2805883a 	mov	r2,r5
    c7a4:	f800283a 	ret
    c7a8:	01400804 	movi	r5,32
    c7ac:	2805883a 	mov	r2,r5
    c7b0:	f800283a 	ret
    c7b4:	1804d07a 	srli	r2,r3,1
    c7b8:	01400044 	movi	r5,1
    c7bc:	20800015 	stw	r2,0(r4)
    c7c0:	003fda06 	br	c72c <__lo0bits+0x2c>

0000c7c4 <__mcmp>:
    c7c4:	20800417 	ldw	r2,16(r4)
    c7c8:	28c00417 	ldw	r3,16(r5)
    c7cc:	10cfc83a 	sub	r7,r2,r3
    c7d0:	38000c1e 	bne	r7,zero,c804 <__mcmp+0x40>
    c7d4:	18c5883a 	add	r2,r3,r3
    c7d8:	1085883a 	add	r2,r2,r2
    c7dc:	10c00504 	addi	r3,r2,20
    c7e0:	21000504 	addi	r4,r4,20
    c7e4:	28cb883a 	add	r5,r5,r3
    c7e8:	2085883a 	add	r2,r4,r2
    c7ec:	10bfff04 	addi	r2,r2,-4
    c7f0:	297fff04 	addi	r5,r5,-4
    c7f4:	11800017 	ldw	r6,0(r2)
    c7f8:	28c00017 	ldw	r3,0(r5)
    c7fc:	30c0031e 	bne	r6,r3,c80c <__mcmp+0x48>
    c800:	20bffa36 	bltu	r4,r2,c7ec <__mcmp+0x28>
    c804:	3805883a 	mov	r2,r7
    c808:	f800283a 	ret
    c80c:	30c00336 	bltu	r6,r3,c81c <__mcmp+0x58>
    c810:	01c00044 	movi	r7,1
    c814:	3805883a 	mov	r2,r7
    c818:	f800283a 	ret
    c81c:	01ffffc4 	movi	r7,-1
    c820:	003ff806 	br	c804 <__mcmp+0x40>

0000c824 <__ulp>:
    c824:	295ffc2c 	andhi	r5,r5,32752
    c828:	013f3034 	movhi	r4,64704
    c82c:	290b883a 	add	r5,r5,r4
    c830:	0145c83a 	sub	r2,zero,r5
    c834:	1007d53a 	srai	r3,r2,20
    c838:	000d883a 	mov	r6,zero
    c83c:	0140040e 	bge	zero,r5,c850 <__ulp+0x2c>
    c840:	280f883a 	mov	r7,r5
    c844:	3807883a 	mov	r3,r7
    c848:	3005883a 	mov	r2,r6
    c84c:	f800283a 	ret
    c850:	008004c4 	movi	r2,19
    c854:	193ffb04 	addi	r4,r3,-20
    c858:	10c00c0e 	bge	r2,r3,c88c <__ulp+0x68>
    c85c:	008007c4 	movi	r2,31
    c860:	1107c83a 	sub	r3,r2,r4
    c864:	00800784 	movi	r2,30
    c868:	01400044 	movi	r5,1
    c86c:	11000216 	blt	r2,r4,c878 <__ulp+0x54>
    c870:	00800044 	movi	r2,1
    c874:	10ca983a 	sll	r5,r2,r3
    c878:	000f883a 	mov	r7,zero
    c87c:	280d883a 	mov	r6,r5
    c880:	3807883a 	mov	r3,r7
    c884:	3005883a 	mov	r2,r6
    c888:	f800283a 	ret
    c88c:	00800234 	movhi	r2,8
    c890:	10cfd83a 	sra	r7,r2,r3
    c894:	000d883a 	mov	r6,zero
    c898:	3005883a 	mov	r2,r6
    c89c:	3807883a 	mov	r3,r7
    c8a0:	f800283a 	ret

0000c8a4 <__b2d>:
    c8a4:	20800417 	ldw	r2,16(r4)
    c8a8:	defff904 	addi	sp,sp,-28
    c8ac:	dd000415 	stw	r20,16(sp)
    c8b0:	1085883a 	add	r2,r2,r2
    c8b4:	25000504 	addi	r20,r4,20
    c8b8:	1085883a 	add	r2,r2,r2
    c8bc:	dc000015 	stw	r16,0(sp)
    c8c0:	a0a1883a 	add	r16,r20,r2
    c8c4:	dd400515 	stw	r21,20(sp)
    c8c8:	857fff17 	ldw	r21,-4(r16)
    c8cc:	dc400115 	stw	r17,4(sp)
    c8d0:	dfc00615 	stw	ra,24(sp)
    c8d4:	a809883a 	mov	r4,r21
    c8d8:	2823883a 	mov	r17,r5
    c8dc:	dcc00315 	stw	r19,12(sp)
    c8e0:	dc800215 	stw	r18,8(sp)
    c8e4:	000c6900 	call	c690 <__hi0bits>
    c8e8:	100b883a 	mov	r5,r2
    c8ec:	00800804 	movi	r2,32
    c8f0:	1145c83a 	sub	r2,r2,r5
    c8f4:	88800015 	stw	r2,0(r17)
    c8f8:	00800284 	movi	r2,10
    c8fc:	80ffff04 	addi	r3,r16,-4
    c900:	11401416 	blt	r2,r5,c954 <__b2d+0xb0>
    c904:	008002c4 	movi	r2,11
    c908:	1149c83a 	sub	r4,r2,r5
    c90c:	a0c02736 	bltu	r20,r3,c9ac <__b2d+0x108>
    c910:	000d883a 	mov	r6,zero
    c914:	28800544 	addi	r2,r5,21
    c918:	a906d83a 	srl	r3,r21,r4
    c91c:	a884983a 	sll	r2,r21,r2
    c920:	1ccffc34 	orhi	r19,r3,16368
    c924:	11a4b03a 	or	r18,r2,r6
    c928:	9005883a 	mov	r2,r18
    c92c:	9807883a 	mov	r3,r19
    c930:	dfc00617 	ldw	ra,24(sp)
    c934:	dd400517 	ldw	r21,20(sp)
    c938:	dd000417 	ldw	r20,16(sp)
    c93c:	dcc00317 	ldw	r19,12(sp)
    c940:	dc800217 	ldw	r18,8(sp)
    c944:	dc400117 	ldw	r17,4(sp)
    c948:	dc000017 	ldw	r16,0(sp)
    c94c:	dec00704 	addi	sp,sp,28
    c950:	f800283a 	ret
    c954:	a0c00e36 	bltu	r20,r3,c990 <__b2d+0xec>
    c958:	293ffd44 	addi	r4,r5,-11
    c95c:	000d883a 	mov	r6,zero
    c960:	20000f26 	beq	r4,zero,c9a0 <__b2d+0xfc>
    c964:	00800804 	movi	r2,32
    c968:	110bc83a 	sub	r5,r2,r4
    c96c:	a0c01236 	bltu	r20,r3,c9b8 <__b2d+0x114>
    c970:	000f883a 	mov	r7,zero
    c974:	a904983a 	sll	r2,r21,r4
    c978:	3146d83a 	srl	r3,r6,r5
    c97c:	3108983a 	sll	r4,r6,r4
    c980:	108ffc34 	orhi	r2,r2,16368
    c984:	18a6b03a 	or	r19,r3,r2
    c988:	3924b03a 	or	r18,r7,r4
    c98c:	003fe606 	br	c928 <__b2d+0x84>
    c990:	293ffd44 	addi	r4,r5,-11
    c994:	81bffe17 	ldw	r6,-8(r16)
    c998:	80fffe04 	addi	r3,r16,-8
    c99c:	203ff11e 	bne	r4,zero,c964 <__b2d+0xc0>
    c9a0:	accffc34 	orhi	r19,r21,16368
    c9a4:	3025883a 	mov	r18,r6
    c9a8:	003fdf06 	br	c928 <__b2d+0x84>
    c9ac:	18bfff17 	ldw	r2,-4(r3)
    c9b0:	110cd83a 	srl	r6,r2,r4
    c9b4:	003fd706 	br	c914 <__b2d+0x70>
    c9b8:	18bfff17 	ldw	r2,-4(r3)
    c9bc:	114ed83a 	srl	r7,r2,r5
    c9c0:	003fec06 	br	c974 <__b2d+0xd0>

0000c9c4 <__ratio>:
    c9c4:	defff904 	addi	sp,sp,-28
    c9c8:	dc400215 	stw	r17,8(sp)
    c9cc:	2823883a 	mov	r17,r5
    c9d0:	d80b883a 	mov	r5,sp
    c9d4:	dfc00615 	stw	ra,24(sp)
    c9d8:	dd000515 	stw	r20,20(sp)
    c9dc:	dcc00415 	stw	r19,16(sp)
    c9e0:	dc800315 	stw	r18,12(sp)
    c9e4:	2025883a 	mov	r18,r4
    c9e8:	000c8a40 	call	c8a4 <__b2d>
    c9ec:	8809883a 	mov	r4,r17
    c9f0:	d9400104 	addi	r5,sp,4
    c9f4:	1027883a 	mov	r19,r2
    c9f8:	1829883a 	mov	r20,r3
    c9fc:	000c8a40 	call	c8a4 <__b2d>
    ca00:	89000417 	ldw	r4,16(r17)
    ca04:	91c00417 	ldw	r7,16(r18)
    ca08:	d9800117 	ldw	r6,4(sp)
    ca0c:	180b883a 	mov	r5,r3
    ca10:	390fc83a 	sub	r7,r7,r4
    ca14:	1009883a 	mov	r4,r2
    ca18:	d8800017 	ldw	r2,0(sp)
    ca1c:	380e917a 	slli	r7,r7,5
    ca20:	2011883a 	mov	r8,r4
    ca24:	1185c83a 	sub	r2,r2,r6
    ca28:	11c5883a 	add	r2,r2,r7
    ca2c:	1006953a 	slli	r3,r2,20
    ca30:	2813883a 	mov	r9,r5
    ca34:	00800d0e 	bge	zero,r2,ca6c <__ratio+0xa8>
    ca38:	1d29883a 	add	r20,r3,r20
    ca3c:	a00b883a 	mov	r5,r20
    ca40:	480f883a 	mov	r7,r9
    ca44:	9809883a 	mov	r4,r19
    ca48:	400d883a 	mov	r6,r8
    ca4c:	0012d8c0 	call	12d8c <__divdf3>
    ca50:	dfc00617 	ldw	ra,24(sp)
    ca54:	dd000517 	ldw	r20,20(sp)
    ca58:	dcc00417 	ldw	r19,16(sp)
    ca5c:	dc800317 	ldw	r18,12(sp)
    ca60:	dc400217 	ldw	r17,8(sp)
    ca64:	dec00704 	addi	sp,sp,28
    ca68:	f800283a 	ret
    ca6c:	28d3c83a 	sub	r9,r5,r3
    ca70:	003ff206 	br	ca3c <__ratio+0x78>

0000ca74 <_mprec_log10>:
    ca74:	defffe04 	addi	sp,sp,-8
    ca78:	008005c4 	movi	r2,23
    ca7c:	dc000015 	stw	r16,0(sp)
    ca80:	dfc00115 	stw	ra,4(sp)
    ca84:	2021883a 	mov	r16,r4
    ca88:	11000c16 	blt	r2,r4,cabc <_mprec_log10+0x48>
    ca8c:	200490fa 	slli	r2,r4,3
    ca90:	00c000b4 	movhi	r3,2
    ca94:	18e1c604 	addi	r3,r3,-30952
    ca98:	10c5883a 	add	r2,r2,r3
    ca9c:	12400117 	ldw	r9,4(r2)
    caa0:	12000017 	ldw	r8,0(r2)
    caa4:	4807883a 	mov	r3,r9
    caa8:	4005883a 	mov	r2,r8
    caac:	dfc00117 	ldw	ra,4(sp)
    cab0:	dc000017 	ldw	r16,0(sp)
    cab4:	dec00204 	addi	sp,sp,8
    cab8:	f800283a 	ret
    cabc:	0011883a 	mov	r8,zero
    cac0:	024ffc34 	movhi	r9,16368
    cac4:	0005883a 	mov	r2,zero
    cac8:	00d00934 	movhi	r3,16420
    cacc:	480b883a 	mov	r5,r9
    cad0:	4009883a 	mov	r4,r8
    cad4:	180f883a 	mov	r7,r3
    cad8:	100d883a 	mov	r6,r2
    cadc:	00129c80 	call	129c8 <__muldf3>
    cae0:	843fffc4 	addi	r16,r16,-1
    cae4:	1011883a 	mov	r8,r2
    cae8:	1813883a 	mov	r9,r3
    caec:	803ff51e 	bne	r16,zero,cac4 <_mprec_log10+0x50>
    caf0:	4005883a 	mov	r2,r8
    caf4:	4807883a 	mov	r3,r9
    caf8:	dfc00117 	ldw	ra,4(sp)
    cafc:	dc000017 	ldw	r16,0(sp)
    cb00:	dec00204 	addi	sp,sp,8
    cb04:	f800283a 	ret

0000cb08 <__copybits>:
    cb08:	297fffc4 	addi	r5,r5,-1
    cb0c:	30800417 	ldw	r2,16(r6)
    cb10:	280bd17a 	srai	r5,r5,5
    cb14:	31800504 	addi	r6,r6,20
    cb18:	1085883a 	add	r2,r2,r2
    cb1c:	294b883a 	add	r5,r5,r5
    cb20:	294b883a 	add	r5,r5,r5
    cb24:	1085883a 	add	r2,r2,r2
    cb28:	290b883a 	add	r5,r5,r4
    cb2c:	3087883a 	add	r3,r6,r2
    cb30:	29400104 	addi	r5,r5,4
    cb34:	30c0052e 	bgeu	r6,r3,cb4c <__copybits+0x44>
    cb38:	30800017 	ldw	r2,0(r6)
    cb3c:	31800104 	addi	r6,r6,4
    cb40:	20800015 	stw	r2,0(r4)
    cb44:	21000104 	addi	r4,r4,4
    cb48:	30fffb36 	bltu	r6,r3,cb38 <__copybits+0x30>
    cb4c:	2140032e 	bgeu	r4,r5,cb5c <__copybits+0x54>
    cb50:	20000015 	stw	zero,0(r4)
    cb54:	21000104 	addi	r4,r4,4
    cb58:	217ffd36 	bltu	r4,r5,cb50 <__copybits+0x48>
    cb5c:	f800283a 	ret

0000cb60 <__any_on>:
    cb60:	20800417 	ldw	r2,16(r4)
    cb64:	2807d17a 	srai	r3,r5,5
    cb68:	21000504 	addi	r4,r4,20
    cb6c:	10c00d0e 	bge	r2,r3,cba4 <__any_on+0x44>
    cb70:	1085883a 	add	r2,r2,r2
    cb74:	1085883a 	add	r2,r2,r2
    cb78:	208d883a 	add	r6,r4,r2
    cb7c:	2180182e 	bgeu	r4,r6,cbe0 <__any_on+0x80>
    cb80:	30bfff17 	ldw	r2,-4(r6)
    cb84:	30ffff04 	addi	r3,r6,-4
    cb88:	1000041e 	bne	r2,zero,cb9c <__any_on+0x3c>
    cb8c:	20c0142e 	bgeu	r4,r3,cbe0 <__any_on+0x80>
    cb90:	18ffff04 	addi	r3,r3,-4
    cb94:	18800017 	ldw	r2,0(r3)
    cb98:	103ffc26 	beq	r2,zero,cb8c <__any_on+0x2c>
    cb9c:	00800044 	movi	r2,1
    cba0:	f800283a 	ret
    cba4:	18800a0e 	bge	r3,r2,cbd0 <__any_on+0x70>
    cba8:	294007cc 	andi	r5,r5,31
    cbac:	28000826 	beq	r5,zero,cbd0 <__any_on+0x70>
    cbb0:	18c5883a 	add	r2,r3,r3
    cbb4:	1085883a 	add	r2,r2,r2
    cbb8:	208d883a 	add	r6,r4,r2
    cbbc:	30c00017 	ldw	r3,0(r6)
    cbc0:	1944d83a 	srl	r2,r3,r5
    cbc4:	1144983a 	sll	r2,r2,r5
    cbc8:	18bff41e 	bne	r3,r2,cb9c <__any_on+0x3c>
    cbcc:	003feb06 	br	cb7c <__any_on+0x1c>
    cbd0:	18c5883a 	add	r2,r3,r3
    cbd4:	1085883a 	add	r2,r2,r2
    cbd8:	208d883a 	add	r6,r4,r2
    cbdc:	003fe706 	br	cb7c <__any_on+0x1c>
    cbe0:	0005883a 	mov	r2,zero
    cbe4:	f800283a 	ret

0000cbe8 <_Balloc>:
    cbe8:	20c01317 	ldw	r3,76(r4)
    cbec:	defffb04 	addi	sp,sp,-20
    cbf0:	dcc00315 	stw	r19,12(sp)
    cbf4:	dc800215 	stw	r18,8(sp)
    cbf8:	dfc00415 	stw	ra,16(sp)
    cbfc:	2825883a 	mov	r18,r5
    cc00:	dc400115 	stw	r17,4(sp)
    cc04:	dc000015 	stw	r16,0(sp)
    cc08:	2027883a 	mov	r19,r4
    cc0c:	01800404 	movi	r6,16
    cc10:	01400104 	movi	r5,4
    cc14:	18001726 	beq	r3,zero,cc74 <_Balloc+0x8c>
    cc18:	01400044 	movi	r5,1
    cc1c:	9485883a 	add	r2,r18,r18
    cc20:	2ca2983a 	sll	r17,r5,r18
    cc24:	1085883a 	add	r2,r2,r2
    cc28:	10c7883a 	add	r3,r2,r3
    cc2c:	1c000017 	ldw	r16,0(r3)
    cc30:	8c4d883a 	add	r6,r17,r17
    cc34:	318d883a 	add	r6,r6,r6
    cc38:	9809883a 	mov	r4,r19
    cc3c:	31800504 	addi	r6,r6,20
    cc40:	80001226 	beq	r16,zero,cc8c <_Balloc+0xa4>
    cc44:	80800017 	ldw	r2,0(r16)
    cc48:	18800015 	stw	r2,0(r3)
    cc4c:	80000415 	stw	zero,16(r16)
    cc50:	80000315 	stw	zero,12(r16)
    cc54:	8005883a 	mov	r2,r16
    cc58:	dfc00417 	ldw	ra,16(sp)
    cc5c:	dcc00317 	ldw	r19,12(sp)
    cc60:	dc800217 	ldw	r18,8(sp)
    cc64:	dc400117 	ldw	r17,4(sp)
    cc68:	dc000017 	ldw	r16,0(sp)
    cc6c:	dec00504 	addi	sp,sp,20
    cc70:	f800283a 	ret
    cc74:	00106f00 	call	106f0 <_calloc_r>
    cc78:	1007883a 	mov	r3,r2
    cc7c:	0021883a 	mov	r16,zero
    cc80:	98801315 	stw	r2,76(r19)
    cc84:	103fe41e 	bne	r2,zero,cc18 <_Balloc+0x30>
    cc88:	003ff206 	br	cc54 <_Balloc+0x6c>
    cc8c:	00106f00 	call	106f0 <_calloc_r>
    cc90:	103ff026 	beq	r2,zero,cc54 <_Balloc+0x6c>
    cc94:	1021883a 	mov	r16,r2
    cc98:	14800115 	stw	r18,4(r2)
    cc9c:	14400215 	stw	r17,8(r2)
    cca0:	003fea06 	br	cc4c <_Balloc+0x64>

0000cca4 <__d2b>:
    cca4:	defff504 	addi	sp,sp,-44
    cca8:	dcc00515 	stw	r19,20(sp)
    ccac:	04c00044 	movi	r19,1
    ccb0:	dc000215 	stw	r16,8(sp)
    ccb4:	2821883a 	mov	r16,r5
    ccb8:	980b883a 	mov	r5,r19
    ccbc:	ddc00915 	stw	r23,36(sp)
    ccc0:	dd800815 	stw	r22,32(sp)
    ccc4:	dd400715 	stw	r21,28(sp)
    ccc8:	dd000615 	stw	r20,24(sp)
    cccc:	dc800415 	stw	r18,16(sp)
    ccd0:	dc400315 	stw	r17,12(sp)
    ccd4:	dfc00a15 	stw	ra,40(sp)
    ccd8:	3023883a 	mov	r17,r6
    ccdc:	382d883a 	mov	r22,r7
    cce0:	ddc00b17 	ldw	r23,44(sp)
    cce4:	000cbe80 	call	cbe8 <_Balloc>
    cce8:	1025883a 	mov	r18,r2
    ccec:	00a00034 	movhi	r2,32768
    ccf0:	10bfffc4 	addi	r2,r2,-1
    ccf4:	8888703a 	and	r4,r17,r2
    ccf8:	202ad53a 	srli	r21,r4,20
    ccfc:	00800434 	movhi	r2,16
    cd00:	10bfffc4 	addi	r2,r2,-1
    cd04:	8886703a 	and	r3,r17,r2
    cd08:	a829003a 	cmpeq	r20,r21,zero
    cd0c:	800b883a 	mov	r5,r16
    cd10:	d8c00115 	stw	r3,4(sp)
    cd14:	94000504 	addi	r16,r18,20
    cd18:	a000021e 	bne	r20,zero,cd24 <__d2b+0x80>
    cd1c:	18c00434 	orhi	r3,r3,16
    cd20:	d8c00115 	stw	r3,4(sp)
    cd24:	28002726 	beq	r5,zero,cdc4 <__d2b+0x120>
    cd28:	d809883a 	mov	r4,sp
    cd2c:	d9400015 	stw	r5,0(sp)
    cd30:	000c7000 	call	c700 <__lo0bits>
    cd34:	100d883a 	mov	r6,r2
    cd38:	10003526 	beq	r2,zero,ce10 <__d2b+0x16c>
    cd3c:	d8c00117 	ldw	r3,4(sp)
    cd40:	00800804 	movi	r2,32
    cd44:	1185c83a 	sub	r2,r2,r6
    cd48:	d9000017 	ldw	r4,0(sp)
    cd4c:	1886983a 	sll	r3,r3,r2
    cd50:	1906b03a 	or	r3,r3,r4
    cd54:	90c00515 	stw	r3,20(r18)
    cd58:	d8c00117 	ldw	r3,4(sp)
    cd5c:	1986d83a 	srl	r3,r3,r6
    cd60:	d8c00115 	stw	r3,4(sp)
    cd64:	180b003a 	cmpeq	r5,r3,zero
    cd68:	00800084 	movi	r2,2
    cd6c:	114bc83a 	sub	r5,r2,r5
    cd70:	80c00115 	stw	r3,4(r16)
    cd74:	91400415 	stw	r5,16(r18)
    cd78:	a0001a1e 	bne	r20,zero,cde4 <__d2b+0x140>
    cd7c:	3545883a 	add	r2,r6,r21
    cd80:	10bef344 	addi	r2,r2,-1075
    cd84:	00c00d44 	movi	r3,53
    cd88:	b0800015 	stw	r2,0(r22)
    cd8c:	1987c83a 	sub	r3,r3,r6
    cd90:	b8c00015 	stw	r3,0(r23)
    cd94:	9005883a 	mov	r2,r18
    cd98:	dfc00a17 	ldw	ra,40(sp)
    cd9c:	ddc00917 	ldw	r23,36(sp)
    cda0:	dd800817 	ldw	r22,32(sp)
    cda4:	dd400717 	ldw	r21,28(sp)
    cda8:	dd000617 	ldw	r20,24(sp)
    cdac:	dcc00517 	ldw	r19,20(sp)
    cdb0:	dc800417 	ldw	r18,16(sp)
    cdb4:	dc400317 	ldw	r17,12(sp)
    cdb8:	dc000217 	ldw	r16,8(sp)
    cdbc:	dec00b04 	addi	sp,sp,44
    cdc0:	f800283a 	ret
    cdc4:	d9000104 	addi	r4,sp,4
    cdc8:	000c7000 	call	c700 <__lo0bits>
    cdcc:	11800804 	addi	r6,r2,32
    cdd0:	d8800117 	ldw	r2,4(sp)
    cdd4:	94c00415 	stw	r19,16(r18)
    cdd8:	980b883a 	mov	r5,r19
    cddc:	90800515 	stw	r2,20(r18)
    cde0:	a03fe626 	beq	r20,zero,cd7c <__d2b+0xd8>
    cde4:	2945883a 	add	r2,r5,r5
    cde8:	1085883a 	add	r2,r2,r2
    cdec:	1405883a 	add	r2,r2,r16
    cdf0:	113fff17 	ldw	r4,-4(r2)
    cdf4:	30fef384 	addi	r3,r6,-1074
    cdf8:	2820917a 	slli	r16,r5,5
    cdfc:	b0c00015 	stw	r3,0(r22)
    ce00:	000c6900 	call	c690 <__hi0bits>
    ce04:	80a1c83a 	sub	r16,r16,r2
    ce08:	bc000015 	stw	r16,0(r23)
    ce0c:	003fe106 	br	cd94 <__d2b+0xf0>
    ce10:	d8800017 	ldw	r2,0(sp)
    ce14:	90800515 	stw	r2,20(r18)
    ce18:	d8c00117 	ldw	r3,4(sp)
    ce1c:	003fd106 	br	cd64 <__d2b+0xc0>

0000ce20 <__mdiff>:
    ce20:	defffb04 	addi	sp,sp,-20
    ce24:	dc000015 	stw	r16,0(sp)
    ce28:	2821883a 	mov	r16,r5
    ce2c:	dc800215 	stw	r18,8(sp)
    ce30:	300b883a 	mov	r5,r6
    ce34:	2025883a 	mov	r18,r4
    ce38:	8009883a 	mov	r4,r16
    ce3c:	dc400115 	stw	r17,4(sp)
    ce40:	dfc00415 	stw	ra,16(sp)
    ce44:	dcc00315 	stw	r19,12(sp)
    ce48:	3023883a 	mov	r17,r6
    ce4c:	000c7c40 	call	c7c4 <__mcmp>
    ce50:	10004226 	beq	r2,zero,cf5c <__mdiff+0x13c>
    ce54:	10005016 	blt	r2,zero,cf98 <__mdiff+0x178>
    ce58:	0027883a 	mov	r19,zero
    ce5c:	81400117 	ldw	r5,4(r16)
    ce60:	9009883a 	mov	r4,r18
    ce64:	000cbe80 	call	cbe8 <_Balloc>
    ce68:	1019883a 	mov	r12,r2
    ce6c:	82800417 	ldw	r10,16(r16)
    ce70:	88800417 	ldw	r2,16(r17)
    ce74:	81800504 	addi	r6,r16,20
    ce78:	5287883a 	add	r3,r10,r10
    ce7c:	1085883a 	add	r2,r2,r2
    ce80:	18c7883a 	add	r3,r3,r3
    ce84:	1085883a 	add	r2,r2,r2
    ce88:	8a000504 	addi	r8,r17,20
    ce8c:	64c00315 	stw	r19,12(r12)
    ce90:	30db883a 	add	r13,r6,r3
    ce94:	4097883a 	add	r11,r8,r2
    ce98:	61c00504 	addi	r7,r12,20
    ce9c:	0013883a 	mov	r9,zero
    cea0:	31000017 	ldw	r4,0(r6)
    cea4:	41400017 	ldw	r5,0(r8)
    cea8:	42000104 	addi	r8,r8,4
    ceac:	20bfffcc 	andi	r2,r4,65535
    ceb0:	28ffffcc 	andi	r3,r5,65535
    ceb4:	10c5c83a 	sub	r2,r2,r3
    ceb8:	1245883a 	add	r2,r2,r9
    cebc:	2008d43a 	srli	r4,r4,16
    cec0:	280ad43a 	srli	r5,r5,16
    cec4:	1007d43a 	srai	r3,r2,16
    cec8:	3880000d 	sth	r2,0(r7)
    cecc:	2149c83a 	sub	r4,r4,r5
    ced0:	20c9883a 	add	r4,r4,r3
    ced4:	3900008d 	sth	r4,2(r7)
    ced8:	31800104 	addi	r6,r6,4
    cedc:	39c00104 	addi	r7,r7,4
    cee0:	2013d43a 	srai	r9,r4,16
    cee4:	42ffee36 	bltu	r8,r11,cea0 <__mdiff+0x80>
    cee8:	33400c2e 	bgeu	r6,r13,cf1c <__mdiff+0xfc>
    ceec:	30800017 	ldw	r2,0(r6)
    cef0:	31800104 	addi	r6,r6,4
    cef4:	10ffffcc 	andi	r3,r2,65535
    cef8:	1a47883a 	add	r3,r3,r9
    cefc:	1004d43a 	srli	r2,r2,16
    cf00:	1809d43a 	srai	r4,r3,16
    cf04:	38c0000d 	sth	r3,0(r7)
    cf08:	1105883a 	add	r2,r2,r4
    cf0c:	3880008d 	sth	r2,2(r7)
    cf10:	1013d43a 	srai	r9,r2,16
    cf14:	39c00104 	addi	r7,r7,4
    cf18:	337ff436 	bltu	r6,r13,ceec <__mdiff+0xcc>
    cf1c:	38bfff17 	ldw	r2,-4(r7)
    cf20:	38ffff04 	addi	r3,r7,-4
    cf24:	1000041e 	bne	r2,zero,cf38 <__mdiff+0x118>
    cf28:	18ffff04 	addi	r3,r3,-4
    cf2c:	18800017 	ldw	r2,0(r3)
    cf30:	52bfffc4 	addi	r10,r10,-1
    cf34:	103ffc26 	beq	r2,zero,cf28 <__mdiff+0x108>
    cf38:	6005883a 	mov	r2,r12
    cf3c:	62800415 	stw	r10,16(r12)
    cf40:	dfc00417 	ldw	ra,16(sp)
    cf44:	dcc00317 	ldw	r19,12(sp)
    cf48:	dc800217 	ldw	r18,8(sp)
    cf4c:	dc400117 	ldw	r17,4(sp)
    cf50:	dc000017 	ldw	r16,0(sp)
    cf54:	dec00504 	addi	sp,sp,20
    cf58:	f800283a 	ret
    cf5c:	9009883a 	mov	r4,r18
    cf60:	000b883a 	mov	r5,zero
    cf64:	000cbe80 	call	cbe8 <_Balloc>
    cf68:	1019883a 	mov	r12,r2
    cf6c:	00800044 	movi	r2,1
    cf70:	60800415 	stw	r2,16(r12)
    cf74:	6005883a 	mov	r2,r12
    cf78:	60000515 	stw	zero,20(r12)
    cf7c:	dfc00417 	ldw	ra,16(sp)
    cf80:	dcc00317 	ldw	r19,12(sp)
    cf84:	dc800217 	ldw	r18,8(sp)
    cf88:	dc400117 	ldw	r17,4(sp)
    cf8c:	dc000017 	ldw	r16,0(sp)
    cf90:	dec00504 	addi	sp,sp,20
    cf94:	f800283a 	ret
    cf98:	880d883a 	mov	r6,r17
    cf9c:	04c00044 	movi	r19,1
    cfa0:	8023883a 	mov	r17,r16
    cfa4:	3021883a 	mov	r16,r6
    cfa8:	003fac06 	br	ce5c <__mdiff+0x3c>

0000cfac <__lshift>:
    cfac:	defff904 	addi	sp,sp,-28
    cfb0:	28800417 	ldw	r2,16(r5)
    cfb4:	dc000015 	stw	r16,0(sp)
    cfb8:	3021d17a 	srai	r16,r6,5
    cfbc:	28c00217 	ldw	r3,8(r5)
    cfc0:	10800044 	addi	r2,r2,1
    cfc4:	dc400115 	stw	r17,4(sp)
    cfc8:	80a3883a 	add	r17,r16,r2
    cfcc:	dd400515 	stw	r21,20(sp)
    cfd0:	dd000415 	stw	r20,16(sp)
    cfd4:	dc800215 	stw	r18,8(sp)
    cfd8:	dfc00615 	stw	ra,24(sp)
    cfdc:	2825883a 	mov	r18,r5
    cfe0:	dcc00315 	stw	r19,12(sp)
    cfe4:	3029883a 	mov	r20,r6
    cfe8:	202b883a 	mov	r21,r4
    cfec:	29400117 	ldw	r5,4(r5)
    cff0:	1c40030e 	bge	r3,r17,d000 <__lshift+0x54>
    cff4:	18c7883a 	add	r3,r3,r3
    cff8:	29400044 	addi	r5,r5,1
    cffc:	1c7ffd16 	blt	r3,r17,cff4 <__lshift+0x48>
    d000:	a809883a 	mov	r4,r21
    d004:	000cbe80 	call	cbe8 <_Balloc>
    d008:	1027883a 	mov	r19,r2
    d00c:	11400504 	addi	r5,r2,20
    d010:	0400090e 	bge	zero,r16,d038 <__lshift+0x8c>
    d014:	2805883a 	mov	r2,r5
    d018:	0007883a 	mov	r3,zero
    d01c:	18c00044 	addi	r3,r3,1
    d020:	10000015 	stw	zero,0(r2)
    d024:	10800104 	addi	r2,r2,4
    d028:	80fffc1e 	bne	r16,r3,d01c <__lshift+0x70>
    d02c:	8405883a 	add	r2,r16,r16
    d030:	1085883a 	add	r2,r2,r2
    d034:	288b883a 	add	r5,r5,r2
    d038:	90800417 	ldw	r2,16(r18)
    d03c:	91000504 	addi	r4,r18,20
    d040:	a18007cc 	andi	r6,r20,31
    d044:	1085883a 	add	r2,r2,r2
    d048:	1085883a 	add	r2,r2,r2
    d04c:	208f883a 	add	r7,r4,r2
    d050:	30001e26 	beq	r6,zero,d0cc <__lshift+0x120>
    d054:	00800804 	movi	r2,32
    d058:	1191c83a 	sub	r8,r2,r6
    d05c:	0007883a 	mov	r3,zero
    d060:	20800017 	ldw	r2,0(r4)
    d064:	1184983a 	sll	r2,r2,r6
    d068:	1884b03a 	or	r2,r3,r2
    d06c:	28800015 	stw	r2,0(r5)
    d070:	20c00017 	ldw	r3,0(r4)
    d074:	21000104 	addi	r4,r4,4
    d078:	29400104 	addi	r5,r5,4
    d07c:	1a06d83a 	srl	r3,r3,r8
    d080:	21fff736 	bltu	r4,r7,d060 <__lshift+0xb4>
    d084:	28c00015 	stw	r3,0(r5)
    d088:	18000126 	beq	r3,zero,d090 <__lshift+0xe4>
    d08c:	8c400044 	addi	r17,r17,1
    d090:	88bfffc4 	addi	r2,r17,-1
    d094:	98800415 	stw	r2,16(r19)
    d098:	a809883a 	mov	r4,r21
    d09c:	900b883a 	mov	r5,r18
    d0a0:	000c6680 	call	c668 <_Bfree>
    d0a4:	9805883a 	mov	r2,r19
    d0a8:	dfc00617 	ldw	ra,24(sp)
    d0ac:	dd400517 	ldw	r21,20(sp)
    d0b0:	dd000417 	ldw	r20,16(sp)
    d0b4:	dcc00317 	ldw	r19,12(sp)
    d0b8:	dc800217 	ldw	r18,8(sp)
    d0bc:	dc400117 	ldw	r17,4(sp)
    d0c0:	dc000017 	ldw	r16,0(sp)
    d0c4:	dec00704 	addi	sp,sp,28
    d0c8:	f800283a 	ret
    d0cc:	20800017 	ldw	r2,0(r4)
    d0d0:	21000104 	addi	r4,r4,4
    d0d4:	28800015 	stw	r2,0(r5)
    d0d8:	29400104 	addi	r5,r5,4
    d0dc:	21ffec2e 	bgeu	r4,r7,d090 <__lshift+0xe4>
    d0e0:	20800017 	ldw	r2,0(r4)
    d0e4:	21000104 	addi	r4,r4,4
    d0e8:	28800015 	stw	r2,0(r5)
    d0ec:	29400104 	addi	r5,r5,4
    d0f0:	21fff636 	bltu	r4,r7,d0cc <__lshift+0x120>
    d0f4:	003fe606 	br	d090 <__lshift+0xe4>

0000d0f8 <__multiply>:
    d0f8:	defff904 	addi	sp,sp,-28
    d0fc:	dcc00315 	stw	r19,12(sp)
    d100:	dc800215 	stw	r18,8(sp)
    d104:	2cc00417 	ldw	r19,16(r5)
    d108:	34800417 	ldw	r18,16(r6)
    d10c:	dd000415 	stw	r20,16(sp)
    d110:	dc400115 	stw	r17,4(sp)
    d114:	dfc00615 	stw	ra,24(sp)
    d118:	dd400515 	stw	r21,20(sp)
    d11c:	dc000015 	stw	r16,0(sp)
    d120:	2823883a 	mov	r17,r5
    d124:	3029883a 	mov	r20,r6
    d128:	9c80040e 	bge	r19,r18,d13c <__multiply+0x44>
    d12c:	9027883a 	mov	r19,r18
    d130:	2c800417 	ldw	r18,16(r5)
    d134:	2829883a 	mov	r20,r5
    d138:	3023883a 	mov	r17,r6
    d13c:	88800217 	ldw	r2,8(r17)
    d140:	9ca1883a 	add	r16,r19,r18
    d144:	89400117 	ldw	r5,4(r17)
    d148:	1400010e 	bge	r2,r16,d150 <__multiply+0x58>
    d14c:	29400044 	addi	r5,r5,1
    d150:	000cbe80 	call	cbe8 <_Balloc>
    d154:	102b883a 	mov	r21,r2
    d158:	8405883a 	add	r2,r16,r16
    d15c:	1085883a 	add	r2,r2,r2
    d160:	a9000504 	addi	r4,r21,20
    d164:	209d883a 	add	r14,r4,r2
    d168:	2380042e 	bgeu	r4,r14,d17c <__multiply+0x84>
    d16c:	2005883a 	mov	r2,r4
    d170:	10000015 	stw	zero,0(r2)
    d174:	10800104 	addi	r2,r2,4
    d178:	13bffd36 	bltu	r2,r14,d170 <__multiply+0x78>
    d17c:	9485883a 	add	r2,r18,r18
    d180:	9cc7883a 	add	r3,r19,r19
    d184:	a1800504 	addi	r6,r20,20
    d188:	1085883a 	add	r2,r2,r2
    d18c:	8b400504 	addi	r13,r17,20
    d190:	18c7883a 	add	r3,r3,r3
    d194:	309f883a 	add	r15,r6,r2
    d198:	68d7883a 	add	r11,r13,r3
    d19c:	33c03b2e 	bgeu	r6,r15,d28c <__multiply+0x194>
    d1a0:	2019883a 	mov	r12,r4
    d1a4:	30800017 	ldw	r2,0(r6)
    d1a8:	127fffcc 	andi	r9,r2,65535
    d1ac:	48001826 	beq	r9,zero,d210 <__multiply+0x118>
    d1b0:	6811883a 	mov	r8,r13
    d1b4:	600f883a 	mov	r7,r12
    d1b8:	0015883a 	mov	r10,zero
    d1bc:	40c00017 	ldw	r3,0(r8)
    d1c0:	39400017 	ldw	r5,0(r7)
    d1c4:	42000104 	addi	r8,r8,4
    d1c8:	193fffcc 	andi	r4,r3,65535
    d1cc:	4909383a 	mul	r4,r9,r4
    d1d0:	1806d43a 	srli	r3,r3,16
    d1d4:	28bfffcc 	andi	r2,r5,65535
    d1d8:	5085883a 	add	r2,r10,r2
    d1dc:	2089883a 	add	r4,r4,r2
    d1e0:	48c7383a 	mul	r3,r9,r3
    d1e4:	280ad43a 	srli	r5,r5,16
    d1e8:	2004d43a 	srli	r2,r4,16
    d1ec:	3900000d 	sth	r4,0(r7)
    d1f0:	1947883a 	add	r3,r3,r5
    d1f4:	10c5883a 	add	r2,r2,r3
    d1f8:	3880008d 	sth	r2,2(r7)
    d1fc:	1014d43a 	srli	r10,r2,16
    d200:	39c00104 	addi	r7,r7,4
    d204:	42ffed36 	bltu	r8,r11,d1bc <__multiply+0xc4>
    d208:	3a800015 	stw	r10,0(r7)
    d20c:	30800017 	ldw	r2,0(r6)
    d210:	1012d43a 	srli	r9,r2,16
    d214:	48001926 	beq	r9,zero,d27c <__multiply+0x184>
    d218:	60800017 	ldw	r2,0(r12)
    d21c:	6811883a 	mov	r8,r13
    d220:	600f883a 	mov	r7,r12
    d224:	0015883a 	mov	r10,zero
    d228:	100b883a 	mov	r5,r2
    d22c:	41000017 	ldw	r4,0(r8)
    d230:	2806d43a 	srli	r3,r5,16
    d234:	3880000d 	sth	r2,0(r7)
    d238:	20bfffcc 	andi	r2,r4,65535
    d23c:	4885383a 	mul	r2,r9,r2
    d240:	50c7883a 	add	r3,r10,r3
    d244:	2008d43a 	srli	r4,r4,16
    d248:	10c5883a 	add	r2,r2,r3
    d24c:	3880008d 	sth	r2,2(r7)
    d250:	39c00104 	addi	r7,r7,4
    d254:	39400017 	ldw	r5,0(r7)
    d258:	4909383a 	mul	r4,r9,r4
    d25c:	1004d43a 	srli	r2,r2,16
    d260:	28ffffcc 	andi	r3,r5,65535
    d264:	20c9883a 	add	r4,r4,r3
    d268:	1105883a 	add	r2,r2,r4
    d26c:	42000104 	addi	r8,r8,4
    d270:	1014d43a 	srli	r10,r2,16
    d274:	42ffed36 	bltu	r8,r11,d22c <__multiply+0x134>
    d278:	38800015 	stw	r2,0(r7)
    d27c:	31800104 	addi	r6,r6,4
    d280:	33c0022e 	bgeu	r6,r15,d28c <__multiply+0x194>
    d284:	63000104 	addi	r12,r12,4
    d288:	003fc606 	br	d1a4 <__multiply+0xac>
    d28c:	0400090e 	bge	zero,r16,d2b4 <__multiply+0x1bc>
    d290:	70bfff17 	ldw	r2,-4(r14)
    d294:	70ffff04 	addi	r3,r14,-4
    d298:	10000326 	beq	r2,zero,d2a8 <__multiply+0x1b0>
    d29c:	00000506 	br	d2b4 <__multiply+0x1bc>
    d2a0:	18800017 	ldw	r2,0(r3)
    d2a4:	1000031e 	bne	r2,zero,d2b4 <__multiply+0x1bc>
    d2a8:	843fffc4 	addi	r16,r16,-1
    d2ac:	18ffff04 	addi	r3,r3,-4
    d2b0:	803ffb1e 	bne	r16,zero,d2a0 <__multiply+0x1a8>
    d2b4:	a805883a 	mov	r2,r21
    d2b8:	ac000415 	stw	r16,16(r21)
    d2bc:	dfc00617 	ldw	ra,24(sp)
    d2c0:	dd400517 	ldw	r21,20(sp)
    d2c4:	dd000417 	ldw	r20,16(sp)
    d2c8:	dcc00317 	ldw	r19,12(sp)
    d2cc:	dc800217 	ldw	r18,8(sp)
    d2d0:	dc400117 	ldw	r17,4(sp)
    d2d4:	dc000017 	ldw	r16,0(sp)
    d2d8:	dec00704 	addi	sp,sp,28
    d2dc:	f800283a 	ret

0000d2e0 <__i2b>:
    d2e0:	defffd04 	addi	sp,sp,-12
    d2e4:	dc000015 	stw	r16,0(sp)
    d2e8:	04000044 	movi	r16,1
    d2ec:	dc800115 	stw	r18,4(sp)
    d2f0:	2825883a 	mov	r18,r5
    d2f4:	800b883a 	mov	r5,r16
    d2f8:	dfc00215 	stw	ra,8(sp)
    d2fc:	000cbe80 	call	cbe8 <_Balloc>
    d300:	14000415 	stw	r16,16(r2)
    d304:	14800515 	stw	r18,20(r2)
    d308:	dfc00217 	ldw	ra,8(sp)
    d30c:	dc800117 	ldw	r18,4(sp)
    d310:	dc000017 	ldw	r16,0(sp)
    d314:	dec00304 	addi	sp,sp,12
    d318:	f800283a 	ret

0000d31c <__multadd>:
    d31c:	defffa04 	addi	sp,sp,-24
    d320:	dc800215 	stw	r18,8(sp)
    d324:	2c800417 	ldw	r18,16(r5)
    d328:	dd000415 	stw	r20,16(sp)
    d32c:	dcc00315 	stw	r19,12(sp)
    d330:	dc000015 	stw	r16,0(sp)
    d334:	dfc00515 	stw	ra,20(sp)
    d338:	3821883a 	mov	r16,r7
    d33c:	dc400115 	stw	r17,4(sp)
    d340:	2827883a 	mov	r19,r5
    d344:	2029883a 	mov	r20,r4
    d348:	2a000504 	addi	r8,r5,20
    d34c:	000f883a 	mov	r7,zero
    d350:	40800017 	ldw	r2,0(r8)
    d354:	39c00044 	addi	r7,r7,1
    d358:	10ffffcc 	andi	r3,r2,65535
    d35c:	1987383a 	mul	r3,r3,r6
    d360:	1004d43a 	srli	r2,r2,16
    d364:	1c07883a 	add	r3,r3,r16
    d368:	180ad43a 	srli	r5,r3,16
    d36c:	1185383a 	mul	r2,r2,r6
    d370:	18ffffcc 	andi	r3,r3,65535
    d374:	1145883a 	add	r2,r2,r5
    d378:	1008943a 	slli	r4,r2,16
    d37c:	1020d43a 	srli	r16,r2,16
    d380:	20c9883a 	add	r4,r4,r3
    d384:	41000015 	stw	r4,0(r8)
    d388:	42000104 	addi	r8,r8,4
    d38c:	3cbff016 	blt	r7,r18,d350 <__multadd+0x34>
    d390:	80000826 	beq	r16,zero,d3b4 <__multadd+0x98>
    d394:	98800217 	ldw	r2,8(r19)
    d398:	90800f0e 	bge	r18,r2,d3d8 <__multadd+0xbc>
    d39c:	9485883a 	add	r2,r18,r18
    d3a0:	1085883a 	add	r2,r2,r2
    d3a4:	14c5883a 	add	r2,r2,r19
    d3a8:	90c00044 	addi	r3,r18,1
    d3ac:	14000515 	stw	r16,20(r2)
    d3b0:	98c00415 	stw	r3,16(r19)
    d3b4:	9805883a 	mov	r2,r19
    d3b8:	dfc00517 	ldw	ra,20(sp)
    d3bc:	dd000417 	ldw	r20,16(sp)
    d3c0:	dcc00317 	ldw	r19,12(sp)
    d3c4:	dc800217 	ldw	r18,8(sp)
    d3c8:	dc400117 	ldw	r17,4(sp)
    d3cc:	dc000017 	ldw	r16,0(sp)
    d3d0:	dec00604 	addi	sp,sp,24
    d3d4:	f800283a 	ret
    d3d8:	99400117 	ldw	r5,4(r19)
    d3dc:	a009883a 	mov	r4,r20
    d3e0:	29400044 	addi	r5,r5,1
    d3e4:	000cbe80 	call	cbe8 <_Balloc>
    d3e8:	99800417 	ldw	r6,16(r19)
    d3ec:	99400304 	addi	r5,r19,12
    d3f0:	11000304 	addi	r4,r2,12
    d3f4:	318d883a 	add	r6,r6,r6
    d3f8:	318d883a 	add	r6,r6,r6
    d3fc:	31800204 	addi	r6,r6,8
    d400:	1023883a 	mov	r17,r2
    d404:	000c4500 	call	c450 <memcpy>
    d408:	980b883a 	mov	r5,r19
    d40c:	a009883a 	mov	r4,r20
    d410:	000c6680 	call	c668 <_Bfree>
    d414:	8827883a 	mov	r19,r17
    d418:	003fe006 	br	d39c <__multadd+0x80>

0000d41c <__pow5mult>:
    d41c:	defffa04 	addi	sp,sp,-24
    d420:	308000cc 	andi	r2,r6,3
    d424:	dd000415 	stw	r20,16(sp)
    d428:	dcc00315 	stw	r19,12(sp)
    d42c:	dc000015 	stw	r16,0(sp)
    d430:	dfc00515 	stw	ra,20(sp)
    d434:	dc800215 	stw	r18,8(sp)
    d438:	dc400115 	stw	r17,4(sp)
    d43c:	3021883a 	mov	r16,r6
    d440:	2027883a 	mov	r19,r4
    d444:	2829883a 	mov	r20,r5
    d448:	10002b1e 	bne	r2,zero,d4f8 <__pow5mult+0xdc>
    d44c:	8025d0ba 	srai	r18,r16,2
    d450:	90001b26 	beq	r18,zero,d4c0 <__pow5mult+0xa4>
    d454:	9c001217 	ldw	r16,72(r19)
    d458:	8000081e 	bne	r16,zero,d47c <__pow5mult+0x60>
    d45c:	00003006 	br	d520 <__pow5mult+0x104>
    d460:	800b883a 	mov	r5,r16
    d464:	800d883a 	mov	r6,r16
    d468:	9809883a 	mov	r4,r19
    d46c:	90001426 	beq	r18,zero,d4c0 <__pow5mult+0xa4>
    d470:	80800017 	ldw	r2,0(r16)
    d474:	10001b26 	beq	r2,zero,d4e4 <__pow5mult+0xc8>
    d478:	1021883a 	mov	r16,r2
    d47c:	9080004c 	andi	r2,r18,1
    d480:	1005003a 	cmpeq	r2,r2,zero
    d484:	9025d07a 	srai	r18,r18,1
    d488:	800d883a 	mov	r6,r16
    d48c:	9809883a 	mov	r4,r19
    d490:	a00b883a 	mov	r5,r20
    d494:	103ff21e 	bne	r2,zero,d460 <__pow5mult+0x44>
    d498:	000d0f80 	call	d0f8 <__multiply>
    d49c:	a00b883a 	mov	r5,r20
    d4a0:	9809883a 	mov	r4,r19
    d4a4:	1023883a 	mov	r17,r2
    d4a8:	000c6680 	call	c668 <_Bfree>
    d4ac:	8829883a 	mov	r20,r17
    d4b0:	800b883a 	mov	r5,r16
    d4b4:	800d883a 	mov	r6,r16
    d4b8:	9809883a 	mov	r4,r19
    d4bc:	903fec1e 	bne	r18,zero,d470 <__pow5mult+0x54>
    d4c0:	a005883a 	mov	r2,r20
    d4c4:	dfc00517 	ldw	ra,20(sp)
    d4c8:	dd000417 	ldw	r20,16(sp)
    d4cc:	dcc00317 	ldw	r19,12(sp)
    d4d0:	dc800217 	ldw	r18,8(sp)
    d4d4:	dc400117 	ldw	r17,4(sp)
    d4d8:	dc000017 	ldw	r16,0(sp)
    d4dc:	dec00604 	addi	sp,sp,24
    d4e0:	f800283a 	ret
    d4e4:	000d0f80 	call	d0f8 <__multiply>
    d4e8:	80800015 	stw	r2,0(r16)
    d4ec:	1021883a 	mov	r16,r2
    d4f0:	10000015 	stw	zero,0(r2)
    d4f4:	003fe106 	br	d47c <__pow5mult+0x60>
    d4f8:	1085883a 	add	r2,r2,r2
    d4fc:	00c000b4 	movhi	r3,2
    d500:	18e20c04 	addi	r3,r3,-30672
    d504:	1085883a 	add	r2,r2,r2
    d508:	10c5883a 	add	r2,r2,r3
    d50c:	11bfff17 	ldw	r6,-4(r2)
    d510:	000f883a 	mov	r7,zero
    d514:	000d31c0 	call	d31c <__multadd>
    d518:	1029883a 	mov	r20,r2
    d51c:	003fcb06 	br	d44c <__pow5mult+0x30>
    d520:	9809883a 	mov	r4,r19
    d524:	01409c44 	movi	r5,625
    d528:	000d2e00 	call	d2e0 <__i2b>
    d52c:	98801215 	stw	r2,72(r19)
    d530:	1021883a 	mov	r16,r2
    d534:	10000015 	stw	zero,0(r2)
    d538:	003fd006 	br	d47c <__pow5mult+0x60>

0000d53c <__s2b>:
    d53c:	defff904 	addi	sp,sp,-28
    d540:	dcc00315 	stw	r19,12(sp)
    d544:	dc800215 	stw	r18,8(sp)
    d548:	2827883a 	mov	r19,r5
    d54c:	2025883a 	mov	r18,r4
    d550:	01400244 	movi	r5,9
    d554:	39000204 	addi	r4,r7,8
    d558:	dd000415 	stw	r20,16(sp)
    d55c:	dc400115 	stw	r17,4(sp)
    d560:	dfc00615 	stw	ra,24(sp)
    d564:	dd400515 	stw	r21,20(sp)
    d568:	dc000015 	stw	r16,0(sp)
    d56c:	3829883a 	mov	r20,r7
    d570:	3023883a 	mov	r17,r6
    d574:	00050f00 	call	50f0 <__divsi3>
    d578:	00c00044 	movi	r3,1
    d57c:	1880350e 	bge	r3,r2,d654 <__s2b+0x118>
    d580:	000b883a 	mov	r5,zero
    d584:	18c7883a 	add	r3,r3,r3
    d588:	29400044 	addi	r5,r5,1
    d58c:	18bffd16 	blt	r3,r2,d584 <__s2b+0x48>
    d590:	9009883a 	mov	r4,r18
    d594:	000cbe80 	call	cbe8 <_Balloc>
    d598:	1011883a 	mov	r8,r2
    d59c:	d8800717 	ldw	r2,28(sp)
    d5a0:	00c00044 	movi	r3,1
    d5a4:	01800244 	movi	r6,9
    d5a8:	40800515 	stw	r2,20(r8)
    d5ac:	40c00415 	stw	r3,16(r8)
    d5b0:	3440260e 	bge	r6,r17,d64c <__s2b+0x110>
    d5b4:	3021883a 	mov	r16,r6
    d5b8:	99ab883a 	add	r21,r19,r6
    d5bc:	9c05883a 	add	r2,r19,r16
    d5c0:	11c00007 	ldb	r7,0(r2)
    d5c4:	400b883a 	mov	r5,r8
    d5c8:	9009883a 	mov	r4,r18
    d5cc:	39fff404 	addi	r7,r7,-48
    d5d0:	01800284 	movi	r6,10
    d5d4:	000d31c0 	call	d31c <__multadd>
    d5d8:	84000044 	addi	r16,r16,1
    d5dc:	1011883a 	mov	r8,r2
    d5e0:	8c3ff61e 	bne	r17,r16,d5bc <__s2b+0x80>
    d5e4:	ac45883a 	add	r2,r21,r17
    d5e8:	117ffe04 	addi	r5,r2,-8
    d5ec:	880d883a 	mov	r6,r17
    d5f0:	35000c0e 	bge	r6,r20,d624 <__s2b+0xe8>
    d5f4:	a185c83a 	sub	r2,r20,r6
    d5f8:	2821883a 	mov	r16,r5
    d5fc:	28a3883a 	add	r17,r5,r2
    d600:	81c00007 	ldb	r7,0(r16)
    d604:	400b883a 	mov	r5,r8
    d608:	9009883a 	mov	r4,r18
    d60c:	39fff404 	addi	r7,r7,-48
    d610:	01800284 	movi	r6,10
    d614:	000d31c0 	call	d31c <__multadd>
    d618:	84000044 	addi	r16,r16,1
    d61c:	1011883a 	mov	r8,r2
    d620:	847ff71e 	bne	r16,r17,d600 <__s2b+0xc4>
    d624:	4005883a 	mov	r2,r8
    d628:	dfc00617 	ldw	ra,24(sp)
    d62c:	dd400517 	ldw	r21,20(sp)
    d630:	dd000417 	ldw	r20,16(sp)
    d634:	dcc00317 	ldw	r19,12(sp)
    d638:	dc800217 	ldw	r18,8(sp)
    d63c:	dc400117 	ldw	r17,4(sp)
    d640:	dc000017 	ldw	r16,0(sp)
    d644:	dec00704 	addi	sp,sp,28
    d648:	f800283a 	ret
    d64c:	99400284 	addi	r5,r19,10
    d650:	003fe706 	br	d5f0 <__s2b+0xb4>
    d654:	000b883a 	mov	r5,zero
    d658:	003fcd06 	br	d590 <__s2b+0x54>

0000d65c <_realloc_r>:
    d65c:	defff404 	addi	sp,sp,-48
    d660:	dd800815 	stw	r22,32(sp)
    d664:	dc800415 	stw	r18,16(sp)
    d668:	dc400315 	stw	r17,12(sp)
    d66c:	dfc00b15 	stw	ra,44(sp)
    d670:	df000a15 	stw	fp,40(sp)
    d674:	ddc00915 	stw	r23,36(sp)
    d678:	dd400715 	stw	r21,28(sp)
    d67c:	dd000615 	stw	r20,24(sp)
    d680:	dcc00515 	stw	r19,20(sp)
    d684:	dc000215 	stw	r16,8(sp)
    d688:	2825883a 	mov	r18,r5
    d68c:	3023883a 	mov	r17,r6
    d690:	202d883a 	mov	r22,r4
    d694:	2800c926 	beq	r5,zero,d9bc <_realloc_r+0x360>
    d698:	00143900 	call	14390 <__malloc_lock>
    d69c:	943ffe04 	addi	r16,r18,-8
    d6a0:	88c002c4 	addi	r3,r17,11
    d6a4:	00800584 	movi	r2,22
    d6a8:	82000117 	ldw	r8,4(r16)
    d6ac:	10c01b2e 	bgeu	r2,r3,d71c <_realloc_r+0xc0>
    d6b0:	00bffe04 	movi	r2,-8
    d6b4:	188e703a 	and	r7,r3,r2
    d6b8:	3839883a 	mov	fp,r7
    d6bc:	38001a16 	blt	r7,zero,d728 <_realloc_r+0xcc>
    d6c0:	e4401936 	bltu	fp,r17,d728 <_realloc_r+0xcc>
    d6c4:	013fff04 	movi	r4,-4
    d6c8:	4126703a 	and	r19,r8,r4
    d6cc:	99c02616 	blt	r19,r7,d768 <_realloc_r+0x10c>
    d6d0:	802b883a 	mov	r21,r16
    d6d4:	9829883a 	mov	r20,r19
    d6d8:	84000204 	addi	r16,r16,8
    d6dc:	a80f883a 	mov	r7,r21
    d6e0:	a70dc83a 	sub	r6,r20,fp
    d6e4:	008003c4 	movi	r2,15
    d6e8:	1180c136 	bltu	r2,r6,d9f0 <_realloc_r+0x394>
    d6ec:	38800117 	ldw	r2,4(r7)
    d6f0:	a549883a 	add	r4,r20,r21
    d6f4:	1080004c 	andi	r2,r2,1
    d6f8:	a084b03a 	or	r2,r20,r2
    d6fc:	38800115 	stw	r2,4(r7)
    d700:	20c00117 	ldw	r3,4(r4)
    d704:	18c00054 	ori	r3,r3,1
    d708:	20c00115 	stw	r3,4(r4)
    d70c:	b009883a 	mov	r4,r22
    d710:	00143b00 	call	143b0 <__malloc_unlock>
    d714:	8023883a 	mov	r17,r16
    d718:	00000606 	br	d734 <_realloc_r+0xd8>
    d71c:	01c00404 	movi	r7,16
    d720:	3839883a 	mov	fp,r7
    d724:	e47fe72e 	bgeu	fp,r17,d6c4 <_realloc_r+0x68>
    d728:	00800304 	movi	r2,12
    d72c:	0023883a 	mov	r17,zero
    d730:	b0800015 	stw	r2,0(r22)
    d734:	8805883a 	mov	r2,r17
    d738:	dfc00b17 	ldw	ra,44(sp)
    d73c:	df000a17 	ldw	fp,40(sp)
    d740:	ddc00917 	ldw	r23,36(sp)
    d744:	dd800817 	ldw	r22,32(sp)
    d748:	dd400717 	ldw	r21,28(sp)
    d74c:	dd000617 	ldw	r20,24(sp)
    d750:	dcc00517 	ldw	r19,20(sp)
    d754:	dc800417 	ldw	r18,16(sp)
    d758:	dc400317 	ldw	r17,12(sp)
    d75c:	dc000217 	ldw	r16,8(sp)
    d760:	dec00c04 	addi	sp,sp,48
    d764:	f800283a 	ret
    d768:	008000b4 	movhi	r2,2
    d76c:	10a33e04 	addi	r2,r2,-29448
    d770:	12400217 	ldw	r9,8(r2)
    d774:	84cd883a 	add	r6,r16,r19
    d778:	802b883a 	mov	r21,r16
    d77c:	3240b926 	beq	r6,r9,da64 <_realloc_r+0x408>
    d780:	31400117 	ldw	r5,4(r6)
    d784:	00bfff84 	movi	r2,-2
    d788:	2884703a 	and	r2,r5,r2
    d78c:	1185883a 	add	r2,r2,r6
    d790:	10c00117 	ldw	r3,4(r2)
    d794:	18c0004c 	andi	r3,r3,1
    d798:	1807003a 	cmpeq	r3,r3,zero
    d79c:	1800a326 	beq	r3,zero,da2c <_realloc_r+0x3d0>
    d7a0:	2908703a 	and	r4,r5,r4
    d7a4:	9929883a 	add	r20,r19,r4
    d7a8:	a1c0a30e 	bge	r20,r7,da38 <_realloc_r+0x3dc>
    d7ac:	4080004c 	andi	r2,r8,1
    d7b0:	1000551e 	bne	r2,zero,d908 <_realloc_r+0x2ac>
    d7b4:	80800017 	ldw	r2,0(r16)
    d7b8:	80afc83a 	sub	r23,r16,r2
    d7bc:	b8c00117 	ldw	r3,4(r23)
    d7c0:	00bfff04 	movi	r2,-4
    d7c4:	1884703a 	and	r2,r3,r2
    d7c8:	30002e26 	beq	r6,zero,d884 <_realloc_r+0x228>
    d7cc:	3240b926 	beq	r6,r9,dab4 <_realloc_r+0x458>
    d7d0:	98a9883a 	add	r20,r19,r2
    d7d4:	2509883a 	add	r4,r4,r20
    d7d8:	d9000015 	stw	r4,0(sp)
    d7dc:	21c02a16 	blt	r4,r7,d888 <_realloc_r+0x22c>
    d7e0:	30800317 	ldw	r2,12(r6)
    d7e4:	30c00217 	ldw	r3,8(r6)
    d7e8:	01400904 	movi	r5,36
    d7ec:	99bfff04 	addi	r6,r19,-4
    d7f0:	18800315 	stw	r2,12(r3)
    d7f4:	10c00215 	stw	r3,8(r2)
    d7f8:	b9000317 	ldw	r4,12(r23)
    d7fc:	b8800217 	ldw	r2,8(r23)
    d800:	b82b883a 	mov	r21,r23
    d804:	bc000204 	addi	r16,r23,8
    d808:	20800215 	stw	r2,8(r4)
    d80c:	11000315 	stw	r4,12(r2)
    d810:	2980e436 	bltu	r5,r6,dba4 <_realloc_r+0x548>
    d814:	008004c4 	movi	r2,19
    d818:	9009883a 	mov	r4,r18
    d81c:	8011883a 	mov	r8,r16
    d820:	11800f2e 	bgeu	r2,r6,d860 <_realloc_r+0x204>
    d824:	90800017 	ldw	r2,0(r18)
    d828:	ba000404 	addi	r8,r23,16
    d82c:	91000204 	addi	r4,r18,8
    d830:	b8800215 	stw	r2,8(r23)
    d834:	90c00117 	ldw	r3,4(r18)
    d838:	008006c4 	movi	r2,27
    d83c:	b8c00315 	stw	r3,12(r23)
    d840:	1180072e 	bgeu	r2,r6,d860 <_realloc_r+0x204>
    d844:	90c00217 	ldw	r3,8(r18)
    d848:	ba000604 	addi	r8,r23,24
    d84c:	91000404 	addi	r4,r18,16
    d850:	b8c00415 	stw	r3,16(r23)
    d854:	90800317 	ldw	r2,12(r18)
    d858:	b8800515 	stw	r2,20(r23)
    d85c:	3140e726 	beq	r6,r5,dbfc <_realloc_r+0x5a0>
    d860:	20800017 	ldw	r2,0(r4)
    d864:	dd000017 	ldw	r20,0(sp)
    d868:	b80f883a 	mov	r7,r23
    d86c:	40800015 	stw	r2,0(r8)
    d870:	20c00117 	ldw	r3,4(r4)
    d874:	40c00115 	stw	r3,4(r8)
    d878:	20800217 	ldw	r2,8(r4)
    d87c:	40800215 	stw	r2,8(r8)
    d880:	003f9706 	br	d6e0 <_realloc_r+0x84>
    d884:	98a9883a 	add	r20,r19,r2
    d888:	a1c01f16 	blt	r20,r7,d908 <_realloc_r+0x2ac>
    d88c:	b8c00317 	ldw	r3,12(r23)
    d890:	b8800217 	ldw	r2,8(r23)
    d894:	99bfff04 	addi	r6,r19,-4
    d898:	01400904 	movi	r5,36
    d89c:	b82b883a 	mov	r21,r23
    d8a0:	18800215 	stw	r2,8(r3)
    d8a4:	10c00315 	stw	r3,12(r2)
    d8a8:	bc000204 	addi	r16,r23,8
    d8ac:	2980c336 	bltu	r5,r6,dbbc <_realloc_r+0x560>
    d8b0:	008004c4 	movi	r2,19
    d8b4:	9009883a 	mov	r4,r18
    d8b8:	8011883a 	mov	r8,r16
    d8bc:	11800f2e 	bgeu	r2,r6,d8fc <_realloc_r+0x2a0>
    d8c0:	90800017 	ldw	r2,0(r18)
    d8c4:	ba000404 	addi	r8,r23,16
    d8c8:	91000204 	addi	r4,r18,8
    d8cc:	b8800215 	stw	r2,8(r23)
    d8d0:	90c00117 	ldw	r3,4(r18)
    d8d4:	008006c4 	movi	r2,27
    d8d8:	b8c00315 	stw	r3,12(r23)
    d8dc:	1180072e 	bgeu	r2,r6,d8fc <_realloc_r+0x2a0>
    d8e0:	90c00217 	ldw	r3,8(r18)
    d8e4:	ba000604 	addi	r8,r23,24
    d8e8:	91000404 	addi	r4,r18,16
    d8ec:	b8c00415 	stw	r3,16(r23)
    d8f0:	90800317 	ldw	r2,12(r18)
    d8f4:	b8800515 	stw	r2,20(r23)
    d8f8:	3140c726 	beq	r6,r5,dc18 <_realloc_r+0x5bc>
    d8fc:	20800017 	ldw	r2,0(r4)
    d900:	b80f883a 	mov	r7,r23
    d904:	003fd906 	br	d86c <_realloc_r+0x210>
    d908:	880b883a 	mov	r5,r17
    d90c:	b009883a 	mov	r4,r22
    d910:	000bb2c0 	call	bb2c <_malloc_r>
    d914:	1023883a 	mov	r17,r2
    d918:	10002526 	beq	r2,zero,d9b0 <_realloc_r+0x354>
    d91c:	80800117 	ldw	r2,4(r16)
    d920:	00ffff84 	movi	r3,-2
    d924:	893ffe04 	addi	r4,r17,-8
    d928:	10c4703a 	and	r2,r2,r3
    d92c:	8085883a 	add	r2,r16,r2
    d930:	20809526 	beq	r4,r2,db88 <_realloc_r+0x52c>
    d934:	99bfff04 	addi	r6,r19,-4
    d938:	01c00904 	movi	r7,36
    d93c:	39804536 	bltu	r7,r6,da54 <_realloc_r+0x3f8>
    d940:	008004c4 	movi	r2,19
    d944:	9009883a 	mov	r4,r18
    d948:	880b883a 	mov	r5,r17
    d94c:	11800f2e 	bgeu	r2,r6,d98c <_realloc_r+0x330>
    d950:	90800017 	ldw	r2,0(r18)
    d954:	89400204 	addi	r5,r17,8
    d958:	91000204 	addi	r4,r18,8
    d95c:	88800015 	stw	r2,0(r17)
    d960:	90c00117 	ldw	r3,4(r18)
    d964:	008006c4 	movi	r2,27
    d968:	88c00115 	stw	r3,4(r17)
    d96c:	1180072e 	bgeu	r2,r6,d98c <_realloc_r+0x330>
    d970:	90c00217 	ldw	r3,8(r18)
    d974:	89400404 	addi	r5,r17,16
    d978:	91000404 	addi	r4,r18,16
    d97c:	88c00215 	stw	r3,8(r17)
    d980:	90800317 	ldw	r2,12(r18)
    d984:	88800315 	stw	r2,12(r17)
    d988:	31c09126 	beq	r6,r7,dbd0 <_realloc_r+0x574>
    d98c:	20800017 	ldw	r2,0(r4)
    d990:	28800015 	stw	r2,0(r5)
    d994:	20c00117 	ldw	r3,4(r4)
    d998:	28c00115 	stw	r3,4(r5)
    d99c:	20800217 	ldw	r2,8(r4)
    d9a0:	28800215 	stw	r2,8(r5)
    d9a4:	900b883a 	mov	r5,r18
    d9a8:	b009883a 	mov	r4,r22
    d9ac:	000af780 	call	af78 <_free_r>
    d9b0:	b009883a 	mov	r4,r22
    d9b4:	00143b00 	call	143b0 <__malloc_unlock>
    d9b8:	003f5e06 	br	d734 <_realloc_r+0xd8>
    d9bc:	300b883a 	mov	r5,r6
    d9c0:	dfc00b17 	ldw	ra,44(sp)
    d9c4:	df000a17 	ldw	fp,40(sp)
    d9c8:	ddc00917 	ldw	r23,36(sp)
    d9cc:	dd800817 	ldw	r22,32(sp)
    d9d0:	dd400717 	ldw	r21,28(sp)
    d9d4:	dd000617 	ldw	r20,24(sp)
    d9d8:	dcc00517 	ldw	r19,20(sp)
    d9dc:	dc800417 	ldw	r18,16(sp)
    d9e0:	dc400317 	ldw	r17,12(sp)
    d9e4:	dc000217 	ldw	r16,8(sp)
    d9e8:	dec00c04 	addi	sp,sp,48
    d9ec:	000bb2c1 	jmpi	bb2c <_malloc_r>
    d9f0:	38800117 	ldw	r2,4(r7)
    d9f4:	e54b883a 	add	r5,fp,r21
    d9f8:	31000054 	ori	r4,r6,1
    d9fc:	1080004c 	andi	r2,r2,1
    da00:	1704b03a 	or	r2,r2,fp
    da04:	38800115 	stw	r2,4(r7)
    da08:	29000115 	stw	r4,4(r5)
    da0c:	2987883a 	add	r3,r5,r6
    da10:	18800117 	ldw	r2,4(r3)
    da14:	29400204 	addi	r5,r5,8
    da18:	b009883a 	mov	r4,r22
    da1c:	10800054 	ori	r2,r2,1
    da20:	18800115 	stw	r2,4(r3)
    da24:	000af780 	call	af78 <_free_r>
    da28:	003f3806 	br	d70c <_realloc_r+0xb0>
    da2c:	000d883a 	mov	r6,zero
    da30:	0009883a 	mov	r4,zero
    da34:	003f5d06 	br	d7ac <_realloc_r+0x150>
    da38:	30c00217 	ldw	r3,8(r6)
    da3c:	30800317 	ldw	r2,12(r6)
    da40:	800f883a 	mov	r7,r16
    da44:	84000204 	addi	r16,r16,8
    da48:	10c00215 	stw	r3,8(r2)
    da4c:	18800315 	stw	r2,12(r3)
    da50:	003f2306 	br	d6e0 <_realloc_r+0x84>
    da54:	8809883a 	mov	r4,r17
    da58:	900b883a 	mov	r5,r18
    da5c:	000c4f00 	call	c4f0 <memmove>
    da60:	003fd006 	br	d9a4 <_realloc_r+0x348>
    da64:	30800117 	ldw	r2,4(r6)
    da68:	e0c00404 	addi	r3,fp,16
    da6c:	1108703a 	and	r4,r2,r4
    da70:	9905883a 	add	r2,r19,r4
    da74:	10ff4d16 	blt	r2,r3,d7ac <_realloc_r+0x150>
    da78:	1705c83a 	sub	r2,r2,fp
    da7c:	870b883a 	add	r5,r16,fp
    da80:	10800054 	ori	r2,r2,1
    da84:	28800115 	stw	r2,4(r5)
    da88:	80c00117 	ldw	r3,4(r16)
    da8c:	008000b4 	movhi	r2,2
    da90:	10a33e04 	addi	r2,r2,-29448
    da94:	b009883a 	mov	r4,r22
    da98:	18c0004c 	andi	r3,r3,1
    da9c:	e0c6b03a 	or	r3,fp,r3
    daa0:	11400215 	stw	r5,8(r2)
    daa4:	80c00115 	stw	r3,4(r16)
    daa8:	00143b00 	call	143b0 <__malloc_unlock>
    daac:	84400204 	addi	r17,r16,8
    dab0:	003f2006 	br	d734 <_realloc_r+0xd8>
    dab4:	98a9883a 	add	r20,r19,r2
    dab8:	2509883a 	add	r4,r4,r20
    dabc:	e0800404 	addi	r2,fp,16
    dac0:	d9000115 	stw	r4,4(sp)
    dac4:	20bf7016 	blt	r4,r2,d888 <_realloc_r+0x22c>
    dac8:	b8c00317 	ldw	r3,12(r23)
    dacc:	b8800217 	ldw	r2,8(r23)
    dad0:	99bfff04 	addi	r6,r19,-4
    dad4:	01400904 	movi	r5,36
    dad8:	18800215 	stw	r2,8(r3)
    dadc:	10c00315 	stw	r3,12(r2)
    dae0:	bc400204 	addi	r17,r23,8
    dae4:	29804136 	bltu	r5,r6,dbec <_realloc_r+0x590>
    dae8:	008004c4 	movi	r2,19
    daec:	9009883a 	mov	r4,r18
    daf0:	880f883a 	mov	r7,r17
    daf4:	11800f2e 	bgeu	r2,r6,db34 <_realloc_r+0x4d8>
    daf8:	90800017 	ldw	r2,0(r18)
    dafc:	b9c00404 	addi	r7,r23,16
    db00:	91000204 	addi	r4,r18,8
    db04:	b8800215 	stw	r2,8(r23)
    db08:	90c00117 	ldw	r3,4(r18)
    db0c:	008006c4 	movi	r2,27
    db10:	b8c00315 	stw	r3,12(r23)
    db14:	1180072e 	bgeu	r2,r6,db34 <_realloc_r+0x4d8>
    db18:	90c00217 	ldw	r3,8(r18)
    db1c:	b9c00604 	addi	r7,r23,24
    db20:	91000404 	addi	r4,r18,16
    db24:	b8c00415 	stw	r3,16(r23)
    db28:	90800317 	ldw	r2,12(r18)
    db2c:	b8800515 	stw	r2,20(r23)
    db30:	31404026 	beq	r6,r5,dc34 <_realloc_r+0x5d8>
    db34:	20800017 	ldw	r2,0(r4)
    db38:	38800015 	stw	r2,0(r7)
    db3c:	20c00117 	ldw	r3,4(r4)
    db40:	38c00115 	stw	r3,4(r7)
    db44:	20800217 	ldw	r2,8(r4)
    db48:	38800215 	stw	r2,8(r7)
    db4c:	d8c00117 	ldw	r3,4(sp)
    db50:	bf0b883a 	add	r5,r23,fp
    db54:	b009883a 	mov	r4,r22
    db58:	1f05c83a 	sub	r2,r3,fp
    db5c:	10800054 	ori	r2,r2,1
    db60:	28800115 	stw	r2,4(r5)
    db64:	b8c00117 	ldw	r3,4(r23)
    db68:	008000b4 	movhi	r2,2
    db6c:	10a33e04 	addi	r2,r2,-29448
    db70:	11400215 	stw	r5,8(r2)
    db74:	18c0004c 	andi	r3,r3,1
    db78:	e0c6b03a 	or	r3,fp,r3
    db7c:	b8c00115 	stw	r3,4(r23)
    db80:	00143b00 	call	143b0 <__malloc_unlock>
    db84:	003eeb06 	br	d734 <_realloc_r+0xd8>
    db88:	20800117 	ldw	r2,4(r4)
    db8c:	00ffff04 	movi	r3,-4
    db90:	800f883a 	mov	r7,r16
    db94:	10c4703a 	and	r2,r2,r3
    db98:	98a9883a 	add	r20,r19,r2
    db9c:	84000204 	addi	r16,r16,8
    dba0:	003ecf06 	br	d6e0 <_realloc_r+0x84>
    dba4:	900b883a 	mov	r5,r18
    dba8:	8009883a 	mov	r4,r16
    dbac:	000c4f00 	call	c4f0 <memmove>
    dbb0:	dd000017 	ldw	r20,0(sp)
    dbb4:	b80f883a 	mov	r7,r23
    dbb8:	003ec906 	br	d6e0 <_realloc_r+0x84>
    dbbc:	900b883a 	mov	r5,r18
    dbc0:	8009883a 	mov	r4,r16
    dbc4:	000c4f00 	call	c4f0 <memmove>
    dbc8:	b80f883a 	mov	r7,r23
    dbcc:	003ec406 	br	d6e0 <_realloc_r+0x84>
    dbd0:	90c00417 	ldw	r3,16(r18)
    dbd4:	89400604 	addi	r5,r17,24
    dbd8:	91000604 	addi	r4,r18,24
    dbdc:	88c00415 	stw	r3,16(r17)
    dbe0:	90800517 	ldw	r2,20(r18)
    dbe4:	88800515 	stw	r2,20(r17)
    dbe8:	003f6806 	br	d98c <_realloc_r+0x330>
    dbec:	900b883a 	mov	r5,r18
    dbf0:	8809883a 	mov	r4,r17
    dbf4:	000c4f00 	call	c4f0 <memmove>
    dbf8:	003fd406 	br	db4c <_realloc_r+0x4f0>
    dbfc:	90c00417 	ldw	r3,16(r18)
    dc00:	91000604 	addi	r4,r18,24
    dc04:	ba000804 	addi	r8,r23,32
    dc08:	b8c00615 	stw	r3,24(r23)
    dc0c:	90800517 	ldw	r2,20(r18)
    dc10:	b8800715 	stw	r2,28(r23)
    dc14:	003f1206 	br	d860 <_realloc_r+0x204>
    dc18:	90c00417 	ldw	r3,16(r18)
    dc1c:	91000604 	addi	r4,r18,24
    dc20:	ba000804 	addi	r8,r23,32
    dc24:	b8c00615 	stw	r3,24(r23)
    dc28:	90800517 	ldw	r2,20(r18)
    dc2c:	b8800715 	stw	r2,28(r23)
    dc30:	003f3206 	br	d8fc <_realloc_r+0x2a0>
    dc34:	90c00417 	ldw	r3,16(r18)
    dc38:	91000604 	addi	r4,r18,24
    dc3c:	b9c00804 	addi	r7,r23,32
    dc40:	b8c00615 	stw	r3,24(r23)
    dc44:	90800517 	ldw	r2,20(r18)
    dc48:	b8800715 	stw	r2,28(r23)
    dc4c:	003fb906 	br	db34 <_realloc_r+0x4d8>

0000dc50 <__srefill_r>:
    dc50:	defffd04 	addi	sp,sp,-12
    dc54:	dc400115 	stw	r17,4(sp)
    dc58:	dc000015 	stw	r16,0(sp)
    dc5c:	dfc00215 	stw	ra,8(sp)
    dc60:	2023883a 	mov	r17,r4
    dc64:	2821883a 	mov	r16,r5
    dc68:	20000226 	beq	r4,zero,dc74 <__srefill_r+0x24>
    dc6c:	20800e17 	ldw	r2,56(r4)
    dc70:	10004126 	beq	r2,zero,dd78 <__srefill_r+0x128>
    dc74:	80c0030b 	ldhu	r3,12(r16)
    dc78:	80000115 	stw	zero,4(r16)
    dc7c:	1880080c 	andi	r2,r3,32
    dc80:	1000361e 	bne	r2,zero,dd5c <__srefill_r+0x10c>
    dc84:	1880010c 	andi	r2,r3,4
    dc88:	1000211e 	bne	r2,zero,dd10 <__srefill_r+0xc0>
    dc8c:	1880040c 	andi	r2,r3,16
    dc90:	10005026 	beq	r2,zero,ddd4 <__srefill_r+0x184>
    dc94:	1880020c 	andi	r2,r3,8
    dc98:	1000541e 	bne	r2,zero,ddec <__srefill_r+0x19c>
    dc9c:	8080030b 	ldhu	r2,12(r16)
    dca0:	10800114 	ori	r2,r2,4
    dca4:	8080030d 	sth	r2,12(r16)
    dca8:	80800417 	ldw	r2,16(r16)
    dcac:	10004526 	beq	r2,zero,ddc4 <__srefill_r+0x174>
    dcb0:	8080030b 	ldhu	r2,12(r16)
    dcb4:	108000cc 	andi	r2,r2,3
    dcb8:	1000361e 	bne	r2,zero,dd94 <__srefill_r+0x144>
    dcbc:	81800417 	ldw	r6,16(r16)
    dcc0:	80c00817 	ldw	r3,32(r16)
    dcc4:	81400717 	ldw	r5,28(r16)
    dcc8:	81c00517 	ldw	r7,20(r16)
    dccc:	8809883a 	mov	r4,r17
    dcd0:	81800015 	stw	r6,0(r16)
    dcd4:	183ee83a 	callr	r3
    dcd8:	80c0030b 	ldhu	r3,12(r16)
    dcdc:	1009883a 	mov	r4,r2
    dce0:	80800115 	stw	r2,4(r16)
    dce4:	00b7ffc4 	movi	r2,-8193
    dce8:	1884703a 	and	r2,r3,r2
    dcec:	8080030d 	sth	r2,12(r16)
    dcf0:	0100230e 	bge	zero,r4,dd80 <__srefill_r+0x130>
    dcf4:	0009883a 	mov	r4,zero
    dcf8:	2005883a 	mov	r2,r4
    dcfc:	dfc00217 	ldw	ra,8(sp)
    dd00:	dc400117 	ldw	r17,4(sp)
    dd04:	dc000017 	ldw	r16,0(sp)
    dd08:	dec00304 	addi	sp,sp,12
    dd0c:	f800283a 	ret
    dd10:	81400c17 	ldw	r5,48(r16)
    dd14:	283fe426 	beq	r5,zero,dca8 <__srefill_r+0x58>
    dd18:	80801004 	addi	r2,r16,64
    dd1c:	28800226 	beq	r5,r2,dd28 <__srefill_r+0xd8>
    dd20:	8809883a 	mov	r4,r17
    dd24:	000af780 	call	af78 <_free_r>
    dd28:	80800f17 	ldw	r2,60(r16)
    dd2c:	80000c15 	stw	zero,48(r16)
    dd30:	80800115 	stw	r2,4(r16)
    dd34:	103fdc26 	beq	r2,zero,dca8 <__srefill_r+0x58>
    dd38:	80800e17 	ldw	r2,56(r16)
    dd3c:	0009883a 	mov	r4,zero
    dd40:	80800015 	stw	r2,0(r16)
    dd44:	2005883a 	mov	r2,r4
    dd48:	dfc00217 	ldw	ra,8(sp)
    dd4c:	dc400117 	ldw	r17,4(sp)
    dd50:	dc000017 	ldw	r16,0(sp)
    dd54:	dec00304 	addi	sp,sp,12
    dd58:	f800283a 	ret
    dd5c:	013fffc4 	movi	r4,-1
    dd60:	2005883a 	mov	r2,r4
    dd64:	dfc00217 	ldw	ra,8(sp)
    dd68:	dc400117 	ldw	r17,4(sp)
    dd6c:	dc000017 	ldw	r16,0(sp)
    dd70:	dec00304 	addi	sp,sp,12
    dd74:	f800283a 	ret
    dd78:	000a9b80 	call	a9b8 <__sinit>
    dd7c:	003fbd06 	br	dc74 <__srefill_r+0x24>
    dd80:	20000b1e 	bne	r4,zero,ddb0 <__srefill_r+0x160>
    dd84:	10800814 	ori	r2,r2,32
    dd88:	013fffc4 	movi	r4,-1
    dd8c:	8080030d 	sth	r2,12(r16)
    dd90:	003fd906 	br	dcf8 <__srefill_r+0xa8>
    dd94:	008000b4 	movhi	r2,2
    dd98:	10a91604 	addi	r2,r2,-23464
    dd9c:	11000017 	ldw	r4,0(r2)
    dda0:	01400074 	movhi	r5,1
    dda4:	29778504 	addi	r5,r5,-8684
    dda8:	000b7f00 	call	b7f0 <_fwalk>
    ddac:	003fc306 	br	dcbc <__srefill_r+0x6c>
    ddb0:	10801014 	ori	r2,r2,64
    ddb4:	013fffc4 	movi	r4,-1
    ddb8:	8080030d 	sth	r2,12(r16)
    ddbc:	80000115 	stw	zero,4(r16)
    ddc0:	003fcd06 	br	dcf8 <__srefill_r+0xa8>
    ddc4:	8809883a 	mov	r4,r17
    ddc8:	800b883a 	mov	r5,r16
    ddcc:	000b9980 	call	b998 <__smakebuf_r>
    ddd0:	003fb706 	br	dcb0 <__srefill_r+0x60>
    ddd4:	18c01014 	ori	r3,r3,64
    ddd8:	00800244 	movi	r2,9
    dddc:	013fffc4 	movi	r4,-1
    dde0:	88800015 	stw	r2,0(r17)
    dde4:	80c0030d 	sth	r3,12(r16)
    dde8:	003fc306 	br	dcf8 <__srefill_r+0xa8>
    ddec:	8809883a 	mov	r4,r17
    ddf0:	800b883a 	mov	r5,r16
    ddf4:	000a7200 	call	a720 <_fflush_r>
    ddf8:	103fd81e 	bne	r2,zero,dd5c <__srefill_r+0x10c>
    ddfc:	8080030b 	ldhu	r2,12(r16)
    de00:	80000215 	stw	zero,8(r16)
    de04:	80000615 	stw	zero,24(r16)
    de08:	10bffdcc 	andi	r2,r2,65527
    de0c:	8080030d 	sth	r2,12(r16)
    de10:	003fa206 	br	dc9c <__srefill_r+0x4c>

0000de14 <lflush>:
    de14:	20c0030b 	ldhu	r3,12(r4)
    de18:	01400244 	movi	r5,9
    de1c:	0005883a 	mov	r2,zero
    de20:	18c0024c 	andi	r3,r3,9
    de24:	19400126 	beq	r3,r5,de2c <lflush+0x18>
    de28:	f800283a 	ret
    de2c:	000a91c1 	jmpi	a91c <fflush>

0000de30 <__isinfd>:
    de30:	200d883a 	mov	r6,r4
    de34:	0109c83a 	sub	r4,zero,r4
    de38:	2188b03a 	or	r4,r4,r6
    de3c:	2008d7fa 	srli	r4,r4,31
    de40:	00a00034 	movhi	r2,32768
    de44:	10bfffc4 	addi	r2,r2,-1
    de48:	1144703a 	and	r2,r2,r5
    de4c:	2088b03a 	or	r4,r4,r2
    de50:	009ffc34 	movhi	r2,32752
    de54:	1105c83a 	sub	r2,r2,r4
    de58:	0087c83a 	sub	r3,zero,r2
    de5c:	10c4b03a 	or	r2,r2,r3
    de60:	1004d7fa 	srli	r2,r2,31
    de64:	00c00044 	movi	r3,1
    de68:	1885c83a 	sub	r2,r3,r2
    de6c:	f800283a 	ret

0000de70 <__isnand>:
    de70:	200d883a 	mov	r6,r4
    de74:	0109c83a 	sub	r4,zero,r4
    de78:	2188b03a 	or	r4,r4,r6
    de7c:	2008d7fa 	srli	r4,r4,31
    de80:	00a00034 	movhi	r2,32768
    de84:	10bfffc4 	addi	r2,r2,-1
    de88:	1144703a 	and	r2,r2,r5
    de8c:	2088b03a 	or	r4,r4,r2
    de90:	009ffc34 	movhi	r2,32752
    de94:	1105c83a 	sub	r2,r2,r4
    de98:	1004d7fa 	srli	r2,r2,31
    de9c:	f800283a 	ret

0000dea0 <_sbrk_r>:
    dea0:	defffd04 	addi	sp,sp,-12
    dea4:	dc000015 	stw	r16,0(sp)
    dea8:	040000b4 	movhi	r16,2
    deac:	84302004 	addi	r16,r16,-16256
    deb0:	dc400115 	stw	r17,4(sp)
    deb4:	80000015 	stw	zero,0(r16)
    deb8:	2023883a 	mov	r17,r4
    debc:	2809883a 	mov	r4,r5
    dec0:	dfc00215 	stw	ra,8(sp)
    dec4:	00145b00 	call	145b0 <sbrk>
    dec8:	1007883a 	mov	r3,r2
    decc:	00bfffc4 	movi	r2,-1
    ded0:	18800626 	beq	r3,r2,deec <_sbrk_r+0x4c>
    ded4:	1805883a 	mov	r2,r3
    ded8:	dfc00217 	ldw	ra,8(sp)
    dedc:	dc400117 	ldw	r17,4(sp)
    dee0:	dc000017 	ldw	r16,0(sp)
    dee4:	dec00304 	addi	sp,sp,12
    dee8:	f800283a 	ret
    deec:	80800017 	ldw	r2,0(r16)
    def0:	103ff826 	beq	r2,zero,ded4 <_sbrk_r+0x34>
    def4:	88800015 	stw	r2,0(r17)
    def8:	1805883a 	mov	r2,r3
    defc:	dfc00217 	ldw	ra,8(sp)
    df00:	dc400117 	ldw	r17,4(sp)
    df04:	dc000017 	ldw	r16,0(sp)
    df08:	dec00304 	addi	sp,sp,12
    df0c:	f800283a 	ret

0000df10 <__sccl>:
    df10:	28c00003 	ldbu	r3,0(r5)
    df14:	00801784 	movi	r2,94
    df18:	2a000044 	addi	r8,r5,1
    df1c:	18802526 	beq	r3,r2,dfb4 <__sccl+0xa4>
    df20:	180f883a 	mov	r7,r3
    df24:	0013883a 	mov	r9,zero
    df28:	000d883a 	mov	r6,zero
    df2c:	0007883a 	mov	r3,zero
    df30:	01404004 	movi	r5,256
    df34:	1905883a 	add	r2,r3,r4
    df38:	18c00044 	addi	r3,r3,1
    df3c:	11800005 	stb	r6,0(r2)
    df40:	197ffc1e 	bne	r3,r5,df34 <__sccl+0x24>
    df44:	38000c26 	beq	r7,zero,df78 <__sccl+0x68>
    df48:	00800044 	movi	r2,1
    df4c:	124dc83a 	sub	r6,r2,r9
    df50:	3905883a 	add	r2,r7,r4
    df54:	11800005 	stb	r6,0(r2)
    df58:	41400044 	addi	r5,r8,1
    df5c:	02400b44 	movi	r9,45
    df60:	02801744 	movi	r10,93
    df64:	28bfffc3 	ldbu	r2,-1(r5)
    df68:	2811883a 	mov	r8,r5
    df6c:	12400726 	beq	r2,r9,df8c <__sccl+0x7c>
    df70:	12800226 	beq	r2,r10,df7c <__sccl+0x6c>
    df74:	1000031e 	bne	r2,zero,df84 <__sccl+0x74>
    df78:	423fffc4 	addi	r8,r8,-1
    df7c:	4005883a 	mov	r2,r8
    df80:	f800283a 	ret
    df84:	100f883a 	mov	r7,r2
    df88:	003ff106 	br	df50 <__sccl+0x40>
    df8c:	28c00003 	ldbu	r3,0(r5)
    df90:	1a800d26 	beq	r3,r10,dfc8 <__sccl+0xb8>
    df94:	19c00c16 	blt	r3,r7,dfc8 <__sccl+0xb8>
    df98:	21c5883a 	add	r2,r4,r7
    df9c:	39c00044 	addi	r7,r7,1
    dfa0:	11800045 	stb	r6,1(r2)
    dfa4:	10800044 	addi	r2,r2,1
    dfa8:	38fffc16 	blt	r7,r3,df9c <__sccl+0x8c>
    dfac:	29400084 	addi	r5,r5,2
    dfb0:	003fec06 	br	df64 <__sccl+0x54>
    dfb4:	29c00043 	ldbu	r7,1(r5)
    dfb8:	02400044 	movi	r9,1
    dfbc:	2a000084 	addi	r8,r5,2
    dfc0:	480d883a 	mov	r6,r9
    dfc4:	003fd906 	br	df2c <__sccl+0x1c>
    dfc8:	01c00b44 	movi	r7,45
    dfcc:	003fe006 	br	df50 <__sccl+0x40>

0000dfd0 <nanf>:
    dfd0:	009ff034 	movhi	r2,32704
    dfd4:	f800283a 	ret

0000dfd8 <sprintf>:
    dfd8:	deffe504 	addi	sp,sp,-108
    dfdc:	2013883a 	mov	r9,r4
    dfe0:	dfc01815 	stw	ra,96(sp)
    dfe4:	d9801915 	stw	r6,100(sp)
    dfe8:	d9c01a15 	stw	r7,104(sp)
    dfec:	d8801904 	addi	r2,sp,100
    dff0:	d8800015 	stw	r2,0(sp)
    dff4:	008000b4 	movhi	r2,2
    dff8:	10a91504 	addi	r2,r2,-23468
    dffc:	11000017 	ldw	r4,0(r2)
    e000:	d9c00017 	ldw	r7,0(sp)
    e004:	00808204 	movi	r2,520
    e008:	00e00034 	movhi	r3,32768
    e00c:	18ffffc4 	addi	r3,r3,-1
    e010:	280d883a 	mov	r6,r5
    e014:	d880040d 	sth	r2,16(sp)
    e018:	d9400104 	addi	r5,sp,4
    e01c:	00bfffc4 	movi	r2,-1
    e020:	d8c00615 	stw	r3,24(sp)
    e024:	d8c00315 	stw	r3,12(sp)
    e028:	da400515 	stw	r9,20(sp)
    e02c:	d880048d 	sth	r2,18(sp)
    e030:	da400115 	stw	r9,4(sp)
    e034:	00057c80 	call	57c8 <___vfprintf_internal_r>
    e038:	d8c00117 	ldw	r3,4(sp)
    e03c:	18000005 	stb	zero,0(r3)
    e040:	dfc01817 	ldw	ra,96(sp)
    e044:	dec01b04 	addi	sp,sp,108
    e048:	f800283a 	ret

0000e04c <_sprintf_r>:
    e04c:	deffe604 	addi	sp,sp,-104
    e050:	2813883a 	mov	r9,r5
    e054:	dfc01815 	stw	ra,96(sp)
    e058:	d9c01915 	stw	r7,100(sp)
    e05c:	d8801904 	addi	r2,sp,100
    e060:	d8800015 	stw	r2,0(sp)
    e064:	100f883a 	mov	r7,r2
    e068:	00808204 	movi	r2,520
    e06c:	00e00034 	movhi	r3,32768
    e070:	18ffffc4 	addi	r3,r3,-1
    e074:	d880040d 	sth	r2,16(sp)
    e078:	d9400104 	addi	r5,sp,4
    e07c:	00bfffc4 	movi	r2,-1
    e080:	d8c00615 	stw	r3,24(sp)
    e084:	d8c00315 	stw	r3,12(sp)
    e088:	da400515 	stw	r9,20(sp)
    e08c:	d880048d 	sth	r2,18(sp)
    e090:	da400115 	stw	r9,4(sp)
    e094:	00057c80 	call	57c8 <___vfprintf_internal_r>
    e098:	d8c00117 	ldw	r3,4(sp)
    e09c:	18000005 	stb	zero,0(r3)
    e0a0:	dfc01817 	ldw	ra,96(sp)
    e0a4:	dec01a04 	addi	sp,sp,104
    e0a8:	f800283a 	ret

0000e0ac <__sclose>:
    e0ac:	2940038f 	ldh	r5,14(r5)
    e0b0:	00107a41 	jmpi	107a4 <_close_r>

0000e0b4 <__sseek>:
    e0b4:	defffe04 	addi	sp,sp,-8
    e0b8:	dc000015 	stw	r16,0(sp)
    e0bc:	2821883a 	mov	r16,r5
    e0c0:	2940038f 	ldh	r5,14(r5)
    e0c4:	dfc00115 	stw	ra,4(sp)
    e0c8:	00115a40 	call	115a4 <_lseek_r>
    e0cc:	1007883a 	mov	r3,r2
    e0d0:	00bfffc4 	movi	r2,-1
    e0d4:	18800926 	beq	r3,r2,e0fc <__sseek+0x48>
    e0d8:	8080030b 	ldhu	r2,12(r16)
    e0dc:	80c01415 	stw	r3,80(r16)
    e0e0:	10840014 	ori	r2,r2,4096
    e0e4:	8080030d 	sth	r2,12(r16)
    e0e8:	1805883a 	mov	r2,r3
    e0ec:	dfc00117 	ldw	ra,4(sp)
    e0f0:	dc000017 	ldw	r16,0(sp)
    e0f4:	dec00204 	addi	sp,sp,8
    e0f8:	f800283a 	ret
    e0fc:	8080030b 	ldhu	r2,12(r16)
    e100:	10bbffcc 	andi	r2,r2,61439
    e104:	8080030d 	sth	r2,12(r16)
    e108:	1805883a 	mov	r2,r3
    e10c:	dfc00117 	ldw	ra,4(sp)
    e110:	dc000017 	ldw	r16,0(sp)
    e114:	dec00204 	addi	sp,sp,8
    e118:	f800283a 	ret

0000e11c <__swrite>:
    e11c:	2880030b 	ldhu	r2,12(r5)
    e120:	defffb04 	addi	sp,sp,-20
    e124:	dcc00315 	stw	r19,12(sp)
    e128:	1080400c 	andi	r2,r2,256
    e12c:	dc800215 	stw	r18,8(sp)
    e130:	dc400115 	stw	r17,4(sp)
    e134:	dc000015 	stw	r16,0(sp)
    e138:	3027883a 	mov	r19,r6
    e13c:	3825883a 	mov	r18,r7
    e140:	dfc00415 	stw	ra,16(sp)
    e144:	2821883a 	mov	r16,r5
    e148:	000d883a 	mov	r6,zero
    e14c:	01c00084 	movi	r7,2
    e150:	2023883a 	mov	r17,r4
    e154:	10000226 	beq	r2,zero,e160 <__swrite+0x44>
    e158:	2940038f 	ldh	r5,14(r5)
    e15c:	00115a40 	call	115a4 <_lseek_r>
    e160:	8080030b 	ldhu	r2,12(r16)
    e164:	8140038f 	ldh	r5,14(r16)
    e168:	8809883a 	mov	r4,r17
    e16c:	10bbffcc 	andi	r2,r2,61439
    e170:	980d883a 	mov	r6,r19
    e174:	900f883a 	mov	r7,r18
    e178:	8080030d 	sth	r2,12(r16)
    e17c:	dfc00417 	ldw	ra,16(sp)
    e180:	dcc00317 	ldw	r19,12(sp)
    e184:	dc800217 	ldw	r18,8(sp)
    e188:	dc400117 	ldw	r17,4(sp)
    e18c:	dc000017 	ldw	r16,0(sp)
    e190:	dec00504 	addi	sp,sp,20
    e194:	00106781 	jmpi	10678 <_write_r>

0000e198 <__sread>:
    e198:	defffe04 	addi	sp,sp,-8
    e19c:	dc000015 	stw	r16,0(sp)
    e1a0:	2821883a 	mov	r16,r5
    e1a4:	2940038f 	ldh	r5,14(r5)
    e1a8:	dfc00115 	stw	ra,4(sp)
    e1ac:	001161c0 	call	1161c <_read_r>
    e1b0:	1007883a 	mov	r3,r2
    e1b4:	10000816 	blt	r2,zero,e1d8 <__sread+0x40>
    e1b8:	80801417 	ldw	r2,80(r16)
    e1bc:	10c5883a 	add	r2,r2,r3
    e1c0:	80801415 	stw	r2,80(r16)
    e1c4:	1805883a 	mov	r2,r3
    e1c8:	dfc00117 	ldw	ra,4(sp)
    e1cc:	dc000017 	ldw	r16,0(sp)
    e1d0:	dec00204 	addi	sp,sp,8
    e1d4:	f800283a 	ret
    e1d8:	8080030b 	ldhu	r2,12(r16)
    e1dc:	10bbffcc 	andi	r2,r2,61439
    e1e0:	8080030d 	sth	r2,12(r16)
    e1e4:	1805883a 	mov	r2,r3
    e1e8:	dfc00117 	ldw	ra,4(sp)
    e1ec:	dc000017 	ldw	r16,0(sp)
    e1f0:	dec00204 	addi	sp,sp,8
    e1f4:	f800283a 	ret

0000e1f8 <strcmp>:
    e1f8:	2144b03a 	or	r2,r4,r5
    e1fc:	108000cc 	andi	r2,r2,3
    e200:	10001d1e 	bne	r2,zero,e278 <strcmp+0x80>
    e204:	200f883a 	mov	r7,r4
    e208:	28800017 	ldw	r2,0(r5)
    e20c:	21000017 	ldw	r4,0(r4)
    e210:	280d883a 	mov	r6,r5
    e214:	2080161e 	bne	r4,r2,e270 <strcmp+0x78>
    e218:	023fbff4 	movhi	r8,65279
    e21c:	423fbfc4 	addi	r8,r8,-257
    e220:	2207883a 	add	r3,r4,r8
    e224:	01602074 	movhi	r5,32897
    e228:	29602004 	addi	r5,r5,-32640
    e22c:	1946703a 	and	r3,r3,r5
    e230:	0104303a 	nor	r2,zero,r4
    e234:	10c4703a 	and	r2,r2,r3
    e238:	10001c1e 	bne	r2,zero,e2ac <strcmp+0xb4>
    e23c:	4013883a 	mov	r9,r8
    e240:	2811883a 	mov	r8,r5
    e244:	00000106 	br	e24c <strcmp+0x54>
    e248:	1800181e 	bne	r3,zero,e2ac <strcmp+0xb4>
    e24c:	39c00104 	addi	r7,r7,4
    e250:	39000017 	ldw	r4,0(r7)
    e254:	31800104 	addi	r6,r6,4
    e258:	31400017 	ldw	r5,0(r6)
    e25c:	2245883a 	add	r2,r4,r9
    e260:	1204703a 	and	r2,r2,r8
    e264:	0106303a 	nor	r3,zero,r4
    e268:	1886703a 	and	r3,r3,r2
    e26c:	217ff626 	beq	r4,r5,e248 <strcmp+0x50>
    e270:	3809883a 	mov	r4,r7
    e274:	300b883a 	mov	r5,r6
    e278:	20c00007 	ldb	r3,0(r4)
    e27c:	1800051e 	bne	r3,zero,e294 <strcmp+0x9c>
    e280:	00000606 	br	e29c <strcmp+0xa4>
    e284:	21000044 	addi	r4,r4,1
    e288:	20c00007 	ldb	r3,0(r4)
    e28c:	29400044 	addi	r5,r5,1
    e290:	18000226 	beq	r3,zero,e29c <strcmp+0xa4>
    e294:	28800007 	ldb	r2,0(r5)
    e298:	18bffa26 	beq	r3,r2,e284 <strcmp+0x8c>
    e29c:	20c00003 	ldbu	r3,0(r4)
    e2a0:	28800003 	ldbu	r2,0(r5)
    e2a4:	1885c83a 	sub	r2,r3,r2
    e2a8:	f800283a 	ret
    e2ac:	0005883a 	mov	r2,zero
    e2b0:	f800283a 	ret

0000e2b4 <match>:
    e2b4:	21800017 	ldw	r6,0(r4)
    e2b8:	01c01004 	movi	r7,64
    e2bc:	02001684 	movi	r8,90
    e2c0:	28800007 	ldb	r2,0(r5)
    e2c4:	29400044 	addi	r5,r5,1
    e2c8:	10000826 	beq	r2,zero,e2ec <match+0x38>
    e2cc:	31800044 	addi	r6,r6,1
    e2d0:	30c00007 	ldb	r3,0(r6)
    e2d4:	38c0020e 	bge	r7,r3,e2e0 <match+0x2c>
    e2d8:	40c00116 	blt	r8,r3,e2e0 <match+0x2c>
    e2dc:	18c00804 	addi	r3,r3,32
    e2e0:	18bff726 	beq	r3,r2,e2c0 <match+0xc>
    e2e4:	0005883a 	mov	r2,zero
    e2e8:	f800283a 	ret
    e2ec:	30800044 	addi	r2,r6,1
    e2f0:	20800015 	stw	r2,0(r4)
    e2f4:	00800044 	movi	r2,1
    e2f8:	f800283a 	ret

0000e2fc <_strtod_r>:
    e2fc:	deffde04 	addi	sp,sp,-136
    e300:	df002015 	stw	fp,128(sp)
    e304:	dd401d15 	stw	r21,116(sp)
    e308:	dc401915 	stw	r17,100(sp)
    e30c:	dfc02115 	stw	ra,132(sp)
    e310:	ddc01f15 	stw	r23,124(sp)
    e314:	dd801e15 	stw	r22,120(sp)
    e318:	dd001c15 	stw	r20,112(sp)
    e31c:	dcc01b15 	stw	r19,108(sp)
    e320:	dc801a15 	stw	r18,104(sp)
    e324:	dc001815 	stw	r16,96(sp)
    e328:	2823883a 	mov	r17,r5
    e32c:	202b883a 	mov	r21,r4
    e330:	d9801515 	stw	r6,84(sp)
    e334:	d8000915 	stw	zero,36(sp)
    e338:	d8000a15 	stw	zero,40(sp)
    e33c:	d9400415 	stw	r5,16(sp)
    e340:	df000904 	addi	fp,sp,36
    e344:	da000417 	ldw	r8,16(sp)
    e348:	00800b44 	movi	r2,45
    e34c:	40c00003 	ldbu	r3,0(r8)
    e350:	10c03536 	bltu	r2,r3,e428 <_strtod_r+0x12c>
    e354:	18c5883a 	add	r2,r3,r3
    e358:	1085883a 	add	r2,r2,r2
    e35c:	00c00074 	movhi	r3,1
    e360:	18f8dc04 	addi	r3,r3,-7312
    e364:	10c5883a 	add	r2,r2,r3
    e368:	11000017 	ldw	r4,0(r2)
    e36c:	2000683a 	jmp	r4
    e370:	0000e564 	muli	zero,zero,917
    e374:	0000e428 	cmpgeui	zero,zero,912
    e378:	0000e428 	cmpgeui	zero,zero,912
    e37c:	0000e428 	cmpgeui	zero,zero,912
    e380:	0000e428 	cmpgeui	zero,zero,912
    e384:	0000e428 	cmpgeui	zero,zero,912
    e388:	0000e428 	cmpgeui	zero,zero,912
    e38c:	0000e428 	cmpgeui	zero,zero,912
    e390:	0000e428 	cmpgeui	zero,zero,912
    e394:	0000e87c 	xorhi	zero,zero,929
    e398:	0000e87c 	xorhi	zero,zero,929
    e39c:	0000e87c 	xorhi	zero,zero,929
    e3a0:	0000e87c 	xorhi	zero,zero,929
    e3a4:	0000e87c 	xorhi	zero,zero,929
    e3a8:	0000e428 	cmpgeui	zero,zero,912
    e3ac:	0000e428 	cmpgeui	zero,zero,912
    e3b0:	0000e428 	cmpgeui	zero,zero,912
    e3b4:	0000e428 	cmpgeui	zero,zero,912
    e3b8:	0000e428 	cmpgeui	zero,zero,912
    e3bc:	0000e428 	cmpgeui	zero,zero,912
    e3c0:	0000e428 	cmpgeui	zero,zero,912
    e3c4:	0000e428 	cmpgeui	zero,zero,912
    e3c8:	0000e428 	cmpgeui	zero,zero,912
    e3cc:	0000e428 	cmpgeui	zero,zero,912
    e3d0:	0000e428 	cmpgeui	zero,zero,912
    e3d4:	0000e428 	cmpgeui	zero,zero,912
    e3d8:	0000e428 	cmpgeui	zero,zero,912
    e3dc:	0000e428 	cmpgeui	zero,zero,912
    e3e0:	0000e428 	cmpgeui	zero,zero,912
    e3e4:	0000e428 	cmpgeui	zero,zero,912
    e3e8:	0000e428 	cmpgeui	zero,zero,912
    e3ec:	0000e428 	cmpgeui	zero,zero,912
    e3f0:	0000e87c 	xorhi	zero,zero,929
    e3f4:	0000e428 	cmpgeui	zero,zero,912
    e3f8:	0000e428 	cmpgeui	zero,zero,912
    e3fc:	0000e428 	cmpgeui	zero,zero,912
    e400:	0000e428 	cmpgeui	zero,zero,912
    e404:	0000e428 	cmpgeui	zero,zero,912
    e408:	0000e428 	cmpgeui	zero,zero,912
    e40c:	0000e428 	cmpgeui	zero,zero,912
    e410:	0000e428 	cmpgeui	zero,zero,912
    e414:	0000e428 	cmpgeui	zero,zero,912
    e418:	0000e428 	cmpgeui	zero,zero,912
    e41c:	0000e85c 	xori	zero,zero,929
    e420:	0000e428 	cmpgeui	zero,zero,912
    e424:	0000e888 	cmpgei	zero,zero,930
    e428:	d8001115 	stw	zero,68(sp)
    e42c:	40c00007 	ldb	r3,0(r8)
    e430:	00800c04 	movi	r2,48
    e434:	1880d026 	beq	r3,r2,e778 <_strtod_r+0x47c>
    e438:	001f883a 	mov	r15,zero
    e43c:	41000007 	ldb	r4,0(r8)
    e440:	00c00bc4 	movi	r3,47
    e444:	402d883a 	mov	r22,r8
    e448:	1903470e 	bge	r3,r4,f168 <_strtod_r+0xe6c>
    e44c:	00800e44 	movi	r2,57
    e450:	11034516 	blt	r2,r4,f168 <_strtod_r+0xe6c>
    e454:	180f883a 	mov	r7,r3
    e458:	1013883a 	mov	r9,r2
    e45c:	4007883a 	mov	r3,r8
    e460:	000d883a 	mov	r6,zero
    e464:	0029883a 	mov	r20,zero
    e468:	0021883a 	mov	r16,zero
    e46c:	01400204 	movi	r5,8
    e470:	028003c4 	movi	r10,15
    e474:	29803116 	blt	r5,r6,e53c <_strtod_r+0x240>
    e478:	a08002a4 	muli	r2,r20,10
    e47c:	1105883a 	add	r2,r2,r4
    e480:	153ff404 	addi	r20,r2,-48
    e484:	1a000044 	addi	r8,r3,1
    e488:	da000415 	stw	r8,16(sp)
    e48c:	41000007 	ldb	r4,0(r8)
    e490:	31800044 	addi	r6,r6,1
    e494:	4007883a 	mov	r3,r8
    e498:	3900010e 	bge	r7,r4,e4a0 <_strtod_r+0x1a4>
    e49c:	493ff50e 	bge	r9,r4,e474 <_strtod_r+0x178>
    e4a0:	00800b84 	movi	r2,46
    e4a4:	2080c126 	beq	r4,r2,e7ac <_strtod_r+0x4b0>
    e4a8:	3027883a 	mov	r19,r6
    e4ac:	0025883a 	mov	r18,zero
    e4b0:	0015883a 	mov	r10,zero
    e4b4:	000f883a 	mov	r7,zero
    e4b8:	00801944 	movi	r2,101
    e4bc:	20802426 	beq	r4,r2,e550 <_strtod_r+0x254>
    e4c0:	00801144 	movi	r2,69
    e4c4:	20802226 	beq	r4,r2,e550 <_strtod_r+0x254>
    e4c8:	9816c03a 	cmpne	r11,r19,zero
    e4cc:	000b883a 	mov	r5,zero
    e4d0:	5800631e 	bne	r11,zero,e660 <_strtod_r+0x364>
    e4d4:	3800c126 	beq	r7,zero,e7dc <_strtod_r+0x4e0>
    e4d8:	d8c01517 	ldw	r3,84(sp)
    e4dc:	18000226 	beq	r3,zero,e4e8 <_strtod_r+0x1ec>
    e4e0:	d8800417 	ldw	r2,16(sp)
    e4e4:	18800015 	stw	r2,0(r3)
    e4e8:	d9001117 	ldw	r4,68(sp)
    e4ec:	2005003a 	cmpeq	r2,r4,zero
    e4f0:	10001f1e 	bne	r2,zero,e570 <_strtod_r+0x274>
    e4f4:	e0800017 	ldw	r2,0(fp)
    e4f8:	e0c00117 	ldw	r3,4(fp)
    e4fc:	1009883a 	mov	r4,r2
    e500:	1960003c 	xorhi	r5,r3,32768
    e504:	2005883a 	mov	r2,r4
    e508:	2807883a 	mov	r3,r5
    e50c:	dfc02117 	ldw	ra,132(sp)
    e510:	df002017 	ldw	fp,128(sp)
    e514:	ddc01f17 	ldw	r23,124(sp)
    e518:	dd801e17 	ldw	r22,120(sp)
    e51c:	dd401d17 	ldw	r21,116(sp)
    e520:	dd001c17 	ldw	r20,112(sp)
    e524:	dcc01b17 	ldw	r19,108(sp)
    e528:	dc801a17 	ldw	r18,104(sp)
    e52c:	dc401917 	ldw	r17,100(sp)
    e530:	dc001817 	ldw	r16,96(sp)
    e534:	dec02204 	addi	sp,sp,136
    e538:	f800283a 	ret
    e53c:	51bfd116 	blt	r10,r6,e484 <_strtod_r+0x188>
    e540:	808002a4 	muli	r2,r16,10
    e544:	1105883a 	add	r2,r2,r4
    e548:	143ff404 	addi	r16,r2,-48
    e54c:	003fcd06 	br	e484 <_strtod_r+0x188>
    e550:	9816c03a 	cmpne	r11,r19,zero
    e554:	5800091e 	bne	r11,zero,e57c <_strtod_r+0x280>
    e558:	3800081e 	bne	r7,zero,e57c <_strtod_r+0x280>
    e55c:	7805003a 	cmpeq	r2,r15,zero
    e560:	10000626 	beq	r2,zero,e57c <_strtod_r+0x280>
    e564:	d8001115 	stw	zero,68(sp)
    e568:	dc400415 	stw	r17,16(sp)
    e56c:	003fda06 	br	e4d8 <_strtod_r+0x1dc>
    e570:	e1000017 	ldw	r4,0(fp)
    e574:	e1400117 	ldw	r5,4(fp)
    e578:	003fe206 	br	e504 <_strtod_r+0x208>
    e57c:	dc400417 	ldw	r17,16(sp)
    e580:	00800ac4 	movi	r2,43
    e584:	8a000044 	addi	r8,r17,1
    e588:	da000415 	stw	r8,16(sp)
    e58c:	88c00047 	ldb	r3,1(r17)
    e590:	4009883a 	mov	r4,r8
    e594:	1880bf26 	beq	r3,r2,e894 <_strtod_r+0x598>
    e598:	00800b44 	movi	r2,45
    e59c:	18834526 	beq	r3,r2,f2b4 <_strtod_r+0xfb8>
    e5a0:	1809883a 	mov	r4,r3
    e5a4:	20fff404 	addi	r3,r4,-48
    e5a8:	00800244 	movi	r2,9
    e5ac:	001d883a 	mov	r14,zero
    e5b0:	10c0bf36 	bltu	r2,r3,e8b0 <_strtod_r+0x5b4>
    e5b4:	00800c04 	movi	r2,48
    e5b8:	2080061e 	bne	r4,r2,e5d4 <_strtod_r+0x2d8>
    e5bc:	da000417 	ldw	r8,16(sp)
    e5c0:	2005883a 	mov	r2,r4
    e5c4:	42000044 	addi	r8,r8,1
    e5c8:	da000415 	stw	r8,16(sp)
    e5cc:	41000007 	ldb	r4,0(r8)
    e5d0:	20bffc26 	beq	r4,r2,e5c4 <_strtod_r+0x2c8>
    e5d4:	20fff3c4 	addi	r3,r4,-49
    e5d8:	00800204 	movi	r2,8
    e5dc:	10ffbb36 	bltu	r2,r3,e4cc <_strtod_r+0x1d0>
    e5e0:	da000417 	ldw	r8,16(sp)
    e5e4:	227ff404 	addi	r9,r4,-48
    e5e8:	03000bc4 	movi	r12,47
    e5ec:	4007883a 	mov	r3,r8
    e5f0:	42000044 	addi	r8,r8,1
    e5f4:	da000415 	stw	r8,16(sp)
    e5f8:	41000007 	ldb	r4,0(r8)
    e5fc:	61000d0e 	bge	r12,r4,e634 <_strtod_r+0x338>
    e600:	00800e44 	movi	r2,57
    e604:	11000b16 	blt	r2,r4,e634 <_strtod_r+0x338>
    e608:	601b883a 	mov	r13,r12
    e60c:	1019883a 	mov	r12,r2
    e610:	00000106 	br	e618 <_strtod_r+0x31c>
    e614:	61000716 	blt	r12,r4,e634 <_strtod_r+0x338>
    e618:	488002a4 	muli	r2,r9,10
    e61c:	42000044 	addi	r8,r8,1
    e620:	da000415 	stw	r8,16(sp)
    e624:	2085883a 	add	r2,r4,r2
    e628:	41000007 	ldb	r4,0(r8)
    e62c:	127ff404 	addi	r9,r2,-48
    e630:	693ff816 	blt	r13,r4,e614 <_strtod_r+0x318>
    e634:	40c7c83a 	sub	r3,r8,r3
    e638:	00800204 	movi	r2,8
    e63c:	10c2e416 	blt	r2,r3,f1d0 <_strtod_r+0xed4>
    e640:	009387c4 	movi	r2,19999
    e644:	480b883a 	mov	r5,r9
    e648:	1240010e 	bge	r2,r9,e650 <_strtod_r+0x354>
    e64c:	100b883a 	mov	r5,r2
    e650:	7005003a 	cmpeq	r2,r14,zero
    e654:	103f9e1e 	bne	r2,zero,e4d0 <_strtod_r+0x1d4>
    e658:	014bc83a 	sub	r5,zero,r5
    e65c:	583f9d26 	beq	r11,zero,e4d4 <_strtod_r+0x1d8>
    e660:	2a8bc83a 	sub	r5,r5,r10
    e664:	d9400f15 	stw	r5,60(sp)
    e668:	30007a1e 	bne	r6,zero,e854 <_strtod_r+0x558>
    e66c:	dcc01215 	stw	r19,72(sp)
    e670:	00800404 	movi	r2,16
    e674:	9825883a 	mov	r18,r19
    e678:	14c0010e 	bge	r2,r19,e680 <_strtod_r+0x384>
    e67c:	1025883a 	mov	r18,r2
    e680:	a009883a 	mov	r4,r20
    e684:	00134600 	call	13460 <__floatunsidf>
    e688:	100f883a 	mov	r7,r2
    e68c:	e0800015 	stw	r2,0(fp)
    e690:	00800244 	movi	r2,9
    e694:	e0c00115 	stw	r3,4(fp)
    e698:	1480160e 	bge	r2,r18,e6f4 <_strtod_r+0x3f8>
    e69c:	900c90fa 	slli	r6,r18,3
    e6a0:	010000b4 	movhi	r4,2
    e6a4:	2121c604 	addi	r4,r4,-30952
    e6a8:	180b883a 	mov	r5,r3
    e6ac:	310d883a 	add	r6,r6,r4
    e6b0:	30ffef17 	ldw	r3,-68(r6)
    e6b4:	30bfee17 	ldw	r2,-72(r6)
    e6b8:	3809883a 	mov	r4,r7
    e6bc:	180f883a 	mov	r7,r3
    e6c0:	100d883a 	mov	r6,r2
    e6c4:	00129c80 	call	129c8 <__muldf3>
    e6c8:	8009883a 	mov	r4,r16
    e6cc:	1823883a 	mov	r17,r3
    e6d0:	1021883a 	mov	r16,r2
    e6d4:	00134600 	call	13460 <__floatunsidf>
    e6d8:	880b883a 	mov	r5,r17
    e6dc:	180f883a 	mov	r7,r3
    e6e0:	8009883a 	mov	r4,r16
    e6e4:	100d883a 	mov	r6,r2
    e6e8:	00129540 	call	12954 <__adddf3>
    e6ec:	e0c00115 	stw	r3,4(fp)
    e6f0:	e0800015 	stw	r2,0(fp)
    e6f4:	010003c4 	movi	r4,15
    e6f8:	24c09816 	blt	r4,r19,e95c <_strtod_r+0x660>
    e6fc:	d9800f17 	ldw	r6,60(sp)
    e700:	303f7526 	beq	r6,zero,e4d8 <_strtod_r+0x1dc>
    e704:	0183be0e 	bge	zero,r6,f600 <_strtod_r+0x1304>
    e708:	00800584 	movi	r2,22
    e70c:	1182b20e 	bge	r2,r6,f1d8 <_strtod_r+0xedc>
    e710:	d8c00f17 	ldw	r3,60(sp)
    e714:	24e3c83a 	sub	r17,r4,r19
    e718:	88800584 	addi	r2,r17,22
    e71c:	10c08f16 	blt	r2,r3,e95c <_strtod_r+0x660>
    e720:	880890fa 	slli	r4,r17,3
    e724:	040000b4 	movhi	r16,2
    e728:	8421c604 	addi	r16,r16,-30952
    e72c:	e0800017 	ldw	r2,0(fp)
    e730:	2409883a 	add	r4,r4,r16
    e734:	22000017 	ldw	r8,0(r4)
    e738:	22400117 	ldw	r9,4(r4)
    e73c:	e0c00117 	ldw	r3,4(fp)
    e740:	1009883a 	mov	r4,r2
    e744:	480f883a 	mov	r7,r9
    e748:	180b883a 	mov	r5,r3
    e74c:	400d883a 	mov	r6,r8
    e750:	00129c80 	call	129c8 <__muldf3>
    e754:	d9000f17 	ldw	r4,60(sp)
    e758:	180b883a 	mov	r5,r3
    e75c:	2455c83a 	sub	r10,r4,r17
    e760:	501490fa 	slli	r10,r10,3
    e764:	1009883a 	mov	r4,r2
    e768:	5415883a 	add	r10,r10,r16
    e76c:	52000017 	ldw	r8,0(r10)
    e770:	52400117 	ldw	r9,4(r10)
    e774:	0002a206 	br	f200 <_strtod_r+0xf04>
    e778:	40c00047 	ldb	r3,1(r8)
    e77c:	00801604 	movi	r2,88
    e780:	18804e26 	beq	r3,r2,e8bc <_strtod_r+0x5c0>
    e784:	00801e04 	movi	r2,120
    e788:	18804c26 	beq	r3,r2,e8bc <_strtod_r+0x5c0>
    e78c:	42000044 	addi	r8,r8,1
    e790:	da000415 	stw	r8,16(sp)
    e794:	40c00007 	ldb	r3,0(r8)
    e798:	00800c04 	movi	r2,48
    e79c:	18bffb26 	beq	r3,r2,e78c <_strtod_r+0x490>
    e7a0:	183f4d26 	beq	r3,zero,e4d8 <_strtod_r+0x1dc>
    e7a4:	03c00044 	movi	r15,1
    e7a8:	003f2406 	br	e43c <_strtod_r+0x140>
    e7ac:	42000044 	addi	r8,r8,1
    e7b0:	da000415 	stw	r8,16(sp)
    e7b4:	19000047 	ldb	r4,1(r3)
    e7b8:	3000b726 	beq	r6,zero,ea98 <_strtod_r+0x79c>
    e7bc:	3027883a 	mov	r19,r6
    e7c0:	0015883a 	mov	r10,zero
    e7c4:	000f883a 	mov	r7,zero
    e7c8:	227ff404 	addi	r9,r4,-48
    e7cc:	00800244 	movi	r2,9
    e7d0:	1242592e 	bgeu	r2,r9,f138 <_strtod_r+0xe3c>
    e7d4:	04800044 	movi	r18,1
    e7d8:	003f3706 	br	e4b8 <_strtod_r+0x1bc>
    e7dc:	7804c03a 	cmpne	r2,r15,zero
    e7e0:	103f3d1e 	bne	r2,zero,e4d8 <_strtod_r+0x1dc>
    e7e4:	9004c03a 	cmpne	r2,r18,zero
    e7e8:	103f5e1e 	bne	r2,zero,e564 <_strtod_r+0x268>
    e7ec:	00801384 	movi	r2,78
    e7f0:	2083a226 	beq	r4,r2,f67c <_strtod_r+0x1380>
    e7f4:	11039d16 	blt	r2,r4,f66c <_strtod_r+0x1370>
    e7f8:	00801244 	movi	r2,73
    e7fc:	20bf591e 	bne	r4,r2,e564 <_strtod_r+0x268>
    e800:	dc000404 	addi	r16,sp,16
    e804:	8009883a 	mov	r4,r16
    e808:	014000b4 	movhi	r5,2
    e80c:	29620f04 	addi	r5,r5,-30660
    e810:	000e2b40 	call	e2b4 <match>
    e814:	103f5326 	beq	r2,zero,e564 <_strtod_r+0x268>
    e818:	d8800417 	ldw	r2,16(sp)
    e81c:	8009883a 	mov	r4,r16
    e820:	014000b4 	movhi	r5,2
    e824:	29621004 	addi	r5,r5,-30656
    e828:	123fffc4 	addi	r8,r2,-1
    e82c:	da000415 	stw	r8,16(sp)
    e830:	000e2b40 	call	e2b4 <match>
    e834:	1000031e 	bne	r2,zero,e844 <_strtod_r+0x548>
    e838:	d8800417 	ldw	r2,16(sp)
    e83c:	12000044 	addi	r8,r2,1
    e840:	da000415 	stw	r8,16(sp)
    e844:	019ffc34 	movhi	r6,32752
    e848:	e1800115 	stw	r6,4(fp)
    e84c:	e0000015 	stw	zero,0(fp)
    e850:	003f2106 	br	e4d8 <_strtod_r+0x1dc>
    e854:	d9801215 	stw	r6,72(sp)
    e858:	003f8506 	br	e670 <_strtod_r+0x374>
    e85c:	d8001115 	stw	zero,68(sp)
    e860:	42000044 	addi	r8,r8,1
    e864:	da000415 	stw	r8,16(sp)
    e868:	40800007 	ldb	r2,0(r8)
    e86c:	103eef1e 	bne	r2,zero,e42c <_strtod_r+0x130>
    e870:	d8001115 	stw	zero,68(sp)
    e874:	dc400415 	stw	r17,16(sp)
    e878:	003f1706 	br	e4d8 <_strtod_r+0x1dc>
    e87c:	42000044 	addi	r8,r8,1
    e880:	da000415 	stw	r8,16(sp)
    e884:	003eaf06 	br	e344 <_strtod_r+0x48>
    e888:	00800044 	movi	r2,1
    e88c:	d8801115 	stw	r2,68(sp)
    e890:	003ff306 	br	e860 <_strtod_r+0x564>
    e894:	001d883a 	mov	r14,zero
    e898:	42000044 	addi	r8,r8,1
    e89c:	da000415 	stw	r8,16(sp)
    e8a0:	21000047 	ldb	r4,1(r4)
    e8a4:	00800244 	movi	r2,9
    e8a8:	20fff404 	addi	r3,r4,-48
    e8ac:	10ff412e 	bgeu	r2,r3,e5b4 <_strtod_r+0x2b8>
    e8b0:	000b883a 	mov	r5,zero
    e8b4:	dc400415 	stw	r17,16(sp)
    e8b8:	003f0506 	br	e4d0 <_strtod_r+0x1d4>
    e8bc:	d8c01117 	ldw	r3,68(sp)
    e8c0:	048000b4 	movhi	r18,2
    e8c4:	94a44504 	addi	r18,r18,-28396
    e8c8:	d8800504 	addi	r2,sp,20
    e8cc:	a809883a 	mov	r4,r21
    e8d0:	d9400404 	addi	r5,sp,16
    e8d4:	900d883a 	mov	r6,r18
    e8d8:	d9c00604 	addi	r7,sp,24
    e8dc:	d8800015 	stw	r2,0(sp)
    e8e0:	d8c00115 	stw	r3,4(sp)
    e8e4:	0010ae80 	call	10ae8 <__gethex>
    e8e8:	140001cc 	andi	r16,r2,7
    e8ec:	1027883a 	mov	r19,r2
    e8f0:	803ef926 	beq	r16,zero,e4d8 <_strtod_r+0x1dc>
    e8f4:	05000184 	movi	r20,6
    e8f8:	853f1a26 	beq	r16,r20,e564 <_strtod_r+0x268>
    e8fc:	d9800517 	ldw	r6,20(sp)
    e900:	30000626 	beq	r6,zero,e91c <_strtod_r+0x620>
    e904:	91400017 	ldw	r5,0(r18)
    e908:	d9000d04 	addi	r4,sp,52
    e90c:	000cb080 	call	cb08 <__copybits>
    e910:	d9400517 	ldw	r5,20(sp)
    e914:	a809883a 	mov	r4,r21
    e918:	000c6680 	call	c668 <_Bfree>
    e91c:	d9400617 	ldw	r5,24(sp)
    e920:	a4024136 	bltu	r20,r16,f228 <_strtod_r+0xf2c>
    e924:	8405883a 	add	r2,r16,r16
    e928:	1085883a 	add	r2,r2,r2
    e92c:	00c00074 	movhi	r3,1
    e930:	18fa5004 	addi	r3,r3,-5824
    e934:	10c5883a 	add	r2,r2,r3
    e938:	11000017 	ldw	r4,0(r2)
    e93c:	2000683a 	jmp	r4
    e940:	0000f268 	cmpgeui	zero,zero,969
    e944:	0000f274 	movhi	zero,969
    e948:	0000f218 	cmpnei	zero,zero,968
    e94c:	0000f240 	call	f24 <main+0x7c>
    e950:	0000f250 	cmplti	zero,zero,969
    e954:	0000f274 	movhi	zero,969
    e958:	0000f268 	cmpgeui	zero,zero,969
    e95c:	d8c00f17 	ldw	r3,60(sp)
    e960:	9c85c83a 	sub	r2,r19,r18
    e964:	18a1883a 	add	r16,r3,r2
    e968:	0402d00e 	bge	zero,r16,f4ac <_strtod_r+0x11b0>
    e96c:	814003cc 	andi	r5,r16,15
    e970:	28000f26 	beq	r5,zero,e9b0 <_strtod_r+0x6b4>
    e974:	280a90fa 	slli	r5,r5,3
    e978:	010000b4 	movhi	r4,2
    e97c:	2121c604 	addi	r4,r4,-30952
    e980:	e0800017 	ldw	r2,0(fp)
    e984:	290b883a 	add	r5,r5,r4
    e988:	2a000017 	ldw	r8,0(r5)
    e98c:	e0c00117 	ldw	r3,4(fp)
    e990:	2a400117 	ldw	r9,4(r5)
    e994:	1009883a 	mov	r4,r2
    e998:	180b883a 	mov	r5,r3
    e99c:	480f883a 	mov	r7,r9
    e9a0:	400d883a 	mov	r6,r8
    e9a4:	00129c80 	call	129c8 <__muldf3>
    e9a8:	e0c00115 	stw	r3,4(fp)
    e9ac:	e0800015 	stw	r2,0(fp)
    e9b0:	00bffc04 	movi	r2,-16
    e9b4:	808c703a 	and	r6,r16,r2
    e9b8:	30005b26 	beq	r6,zero,eb28 <_strtod_r+0x82c>
    e9bc:	00804d04 	movi	r2,308
    e9c0:	1181fd16 	blt	r2,r6,f1b8 <_strtod_r+0xebc>
    e9c4:	3021d13a 	srai	r16,r6,4
    e9c8:	00800044 	movi	r2,1
    e9cc:	1403610e 	bge	r2,r16,f754 <_strtod_r+0x1458>
    e9d0:	102f883a 	mov	r23,r2
    e9d4:	0025883a 	mov	r18,zero
    e9d8:	044000b4 	movhi	r17,2
    e9dc:	8c61f804 	addi	r17,r17,-30752
    e9e0:	8080004c 	andi	r2,r16,1
    e9e4:	1005003a 	cmpeq	r2,r2,zero
    e9e8:	1000091e 	bne	r2,zero,ea10 <_strtod_r+0x714>
    e9ec:	e0800017 	ldw	r2,0(fp)
    e9f0:	e0c00117 	ldw	r3,4(fp)
    e9f4:	89800017 	ldw	r6,0(r17)
    e9f8:	89c00117 	ldw	r7,4(r17)
    e9fc:	180b883a 	mov	r5,r3
    ea00:	1009883a 	mov	r4,r2
    ea04:	00129c80 	call	129c8 <__muldf3>
    ea08:	e0c00115 	stw	r3,4(fp)
    ea0c:	e0800015 	stw	r2,0(fp)
    ea10:	8021d07a 	srai	r16,r16,1
    ea14:	94800044 	addi	r18,r18,1
    ea18:	8c400204 	addi	r17,r17,8
    ea1c:	bc3ff016 	blt	r23,r16,e9e0 <_strtod_r+0x6e4>
    ea20:	900e90fa 	slli	r7,r18,3
    ea24:	018000b4 	movhi	r6,2
    ea28:	31a1f804 	addi	r6,r6,-30752
    ea2c:	e2000117 	ldw	r8,4(fp)
    ea30:	398f883a 	add	r7,r7,r6
    ea34:	38800017 	ldw	r2,0(r7)
    ea38:	38c00117 	ldw	r3,4(r7)
    ea3c:	e1000017 	ldw	r4,0(fp)
    ea40:	01bf2c34 	movhi	r6,64688
    ea44:	418d883a 	add	r6,r8,r6
    ea48:	300b883a 	mov	r5,r6
    ea4c:	180f883a 	mov	r7,r3
    ea50:	100d883a 	mov	r6,r2
    ea54:	00129c80 	call	129c8 <__muldf3>
    ea58:	1009883a 	mov	r4,r2
    ea5c:	180b883a 	mov	r5,r3
    ea60:	199ffc2c 	andhi	r6,r3,32752
    ea64:	009f2834 	movhi	r2,31904
    ea68:	e1000015 	stw	r4,0(fp)
    ea6c:	e1400115 	stw	r5,4(fp)
    ea70:	1181d136 	bltu	r2,r6,f1b8 <_strtod_r+0xebc>
    ea74:	009f2434 	movhi	r2,31888
    ea78:	1183202e 	bgeu	r2,r6,f6fc <_strtod_r+0x1400>
    ea7c:	d8001415 	stw	zero,80(sp)
    ea80:	019ffc34 	movhi	r6,32752
    ea84:	31bfffc4 	addi	r6,r6,-1
    ea88:	01ffffc4 	movi	r7,-1
    ea8c:	e1800115 	stw	r6,4(fp)
    ea90:	e1c00015 	stw	r7,0(fp)
    ea94:	00002506 	br	eb2c <_strtod_r+0x830>
    ea98:	00800c04 	movi	r2,48
    ea9c:	2083151e 	bne	r4,r2,f6f4 <_strtod_r+0x13f8>
    eaa0:	2005883a 	mov	r2,r4
    eaa4:	000f883a 	mov	r7,zero
    eaa8:	42000044 	addi	r8,r8,1
    eaac:	da000415 	stw	r8,16(sp)
    eab0:	41000007 	ldb	r4,0(r8)
    eab4:	39c00044 	addi	r7,r7,1
    eab8:	20bffb26 	beq	r4,r2,eaa8 <_strtod_r+0x7ac>
    eabc:	20fff3c4 	addi	r3,r4,-49
    eac0:	00800204 	movi	r2,8
    eac4:	10c1b836 	bltu	r2,r3,f1a8 <_strtod_r+0xeac>
    eac8:	dd800417 	ldw	r22,16(sp)
    eacc:	3815883a 	mov	r10,r7
    ead0:	227ff404 	addi	r9,r4,-48
    ead4:	b011883a 	mov	r8,r22
    ead8:	0027883a 	mov	r19,zero
    eadc:	01c00044 	movi	r7,1
    eae0:	4801fe26 	beq	r9,zero,f2dc <_strtod_r+0xfe0>
    eae4:	00800044 	movi	r2,1
    eae8:	51d5883a 	add	r10,r10,r7
    eaec:	11c31f0e 	bge	r2,r7,f76c <_strtod_r+0x1470>
    eaf0:	1009883a 	mov	r4,r2
    eaf4:	9807883a 	mov	r3,r19
    eaf8:	02c00204 	movi	r11,8
    eafc:	03000404 	movi	r12,16
    eb00:	00000306 	br	eb10 <_strtod_r+0x814>
    eb04:	a50002a4 	muli	r20,r20,10
    eb08:	21000044 	addi	r4,r4,1
    eb0c:	21c1eb26 	beq	r4,r7,f2bc <_strtod_r+0xfc0>
    eb10:	18c00044 	addi	r3,r3,1
    eb14:	18bfffc4 	addi	r2,r3,-1
    eb18:	58bffa0e 	bge	r11,r2,eb04 <_strtod_r+0x808>
    eb1c:	60fffa16 	blt	r12,r3,eb08 <_strtod_r+0x80c>
    eb20:	840002a4 	muli	r16,r16,10
    eb24:	003ff806 	br	eb08 <_strtod_r+0x80c>
    eb28:	d8001415 	stw	zero,80(sp)
    eb2c:	d9801217 	ldw	r6,72(sp)
    eb30:	a809883a 	mov	r4,r21
    eb34:	b00b883a 	mov	r5,r22
    eb38:	980f883a 	mov	r7,r19
    eb3c:	dd000015 	stw	r20,0(sp)
    eb40:	000d53c0 	call	d53c <__s2b>
    eb44:	d9800f17 	ldw	r6,60(sp)
    eb48:	11000304 	addi	r4,r2,12
    eb4c:	d8801015 	stw	r2,64(sp)
    eb50:	300c803a 	cmplt	r6,r6,zero
    eb54:	d9001715 	stw	r4,92(sp)
    eb58:	d9801615 	stw	r6,88(sp)
    eb5c:	d8801017 	ldw	r2,64(sp)
    eb60:	a809883a 	mov	r4,r21
    eb64:	11400117 	ldw	r5,4(r2)
    eb68:	000cbe80 	call	cbe8 <_Balloc>
    eb6c:	d8c01017 	ldw	r3,64(sp)
    eb70:	d9401717 	ldw	r5,92(sp)
    eb74:	11000304 	addi	r4,r2,12
    eb78:	19800417 	ldw	r6,16(r3)
    eb7c:	102f883a 	mov	r23,r2
    eb80:	318d883a 	add	r6,r6,r6
    eb84:	318d883a 	add	r6,r6,r6
    eb88:	31800204 	addi	r6,r6,8
    eb8c:	000c4500 	call	c450 <memcpy>
    eb90:	e2000017 	ldw	r8,0(fp)
    eb94:	e2400117 	ldw	r9,4(fp)
    eb98:	d9800304 	addi	r6,sp,12
    eb9c:	400b883a 	mov	r5,r8
    eba0:	a809883a 	mov	r4,r21
    eba4:	d9c00204 	addi	r7,sp,8
    eba8:	d9800015 	stw	r6,0(sp)
    ebac:	480d883a 	mov	r6,r9
    ebb0:	000cca40 	call	cca4 <__d2b>
    ebb4:	a809883a 	mov	r4,r21
    ebb8:	01400044 	movi	r5,1
    ebbc:	d8800515 	stw	r2,20(sp)
    ebc0:	000d2e00 	call	d2e0 <__i2b>
    ebc4:	102d883a 	mov	r22,r2
    ebc8:	d8801617 	ldw	r2,88(sp)
    ebcc:	1001051e 	bne	r2,zero,efe4 <_strtod_r+0xce8>
    ebd0:	dd000f17 	ldw	r20,60(sp)
    ebd4:	000f883a 	mov	r7,zero
    ebd8:	0013883a 	mov	r9,zero
    ebdc:	a011883a 	mov	r8,r20
    ebe0:	d8800217 	ldw	r2,8(sp)
    ebe4:	1000fd16 	blt	r2,zero,efdc <_strtod_r+0xce0>
    ebe8:	388f883a 	add	r7,r7,r2
    ebec:	d9801417 	ldw	r6,80(sp)
    ebf0:	d9400317 	ldw	r5,12(sp)
    ebf4:	00ff0084 	movi	r3,-1022
    ebf8:	1189c83a 	sub	r4,r2,r6
    ebfc:	2145883a 	add	r2,r4,r5
    ec00:	10bfffc4 	addi	r2,r2,-1
    ec04:	10c09f0e 	bge	r2,r3,ee84 <_strtod_r+0xb88>
    ec08:	21810cc4 	addi	r6,r4,1075
    ec0c:	d8c01417 	ldw	r3,80(sp)
    ec10:	4185883a 	add	r2,r8,r6
    ec14:	39a1883a 	add	r16,r7,r6
    ec18:	18a5883a 	add	r18,r3,r2
    ec1c:	3807883a 	mov	r3,r7
    ec20:	81c0010e 	bge	r16,r7,ec28 <_strtod_r+0x92c>
    ec24:	8007883a 	mov	r3,r16
    ec28:	9005883a 	mov	r2,r18
    ec2c:	1c80010e 	bge	r3,r18,ec34 <_strtod_r+0x938>
    ec30:	1805883a 	mov	r2,r3
    ec34:	0080e70e 	bge	zero,r2,efd4 <_strtod_r+0xcd8>
    ec38:	38a7c83a 	sub	r19,r7,r2
    ec3c:	80a1c83a 	sub	r16,r16,r2
    ec40:	90a5c83a 	sub	r18,r18,r2
    ec44:	02400e0e 	bge	zero,r9,ec80 <_strtod_r+0x984>
    ec48:	480d883a 	mov	r6,r9
    ec4c:	b00b883a 	mov	r5,r22
    ec50:	a809883a 	mov	r4,r21
    ec54:	000d41c0 	call	d41c <__pow5mult>
    ec58:	d9800517 	ldw	r6,20(sp)
    ec5c:	a809883a 	mov	r4,r21
    ec60:	100b883a 	mov	r5,r2
    ec64:	102d883a 	mov	r22,r2
    ec68:	000d0f80 	call	d0f8 <__multiply>
    ec6c:	d9400517 	ldw	r5,20(sp)
    ec70:	1023883a 	mov	r17,r2
    ec74:	a809883a 	mov	r4,r21
    ec78:	000c6680 	call	c668 <_Bfree>
    ec7c:	dc400515 	stw	r17,20(sp)
    ec80:	0400050e 	bge	zero,r16,ec98 <_strtod_r+0x99c>
    ec84:	d9400517 	ldw	r5,20(sp)
    ec88:	800d883a 	mov	r6,r16
    ec8c:	a809883a 	mov	r4,r21
    ec90:	000cfac0 	call	cfac <__lshift>
    ec94:	d8800515 	stw	r2,20(sp)
    ec98:	a000741e 	bne	r20,zero,ee6c <_strtod_r+0xb70>
    ec9c:	0480050e 	bge	zero,r18,ecb4 <_strtod_r+0x9b8>
    eca0:	b80b883a 	mov	r5,r23
    eca4:	900d883a 	mov	r6,r18
    eca8:	a809883a 	mov	r4,r21
    ecac:	000cfac0 	call	cfac <__lshift>
    ecb0:	102f883a 	mov	r23,r2
    ecb4:	04c0050e 	bge	zero,r19,eccc <_strtod_r+0x9d0>
    ecb8:	b00b883a 	mov	r5,r22
    ecbc:	980d883a 	mov	r6,r19
    ecc0:	a809883a 	mov	r4,r21
    ecc4:	000cfac0 	call	cfac <__lshift>
    ecc8:	102d883a 	mov	r22,r2
    eccc:	d9400517 	ldw	r5,20(sp)
    ecd0:	a809883a 	mov	r4,r21
    ecd4:	b80d883a 	mov	r6,r23
    ecd8:	000ce200 	call	ce20 <__mdiff>
    ecdc:	11000317 	ldw	r4,12(r2)
    ece0:	b00b883a 	mov	r5,r22
    ece4:	10000315 	stw	zero,12(r2)
    ece8:	d9001315 	stw	r4,76(sp)
    ecec:	1009883a 	mov	r4,r2
    ecf0:	1029883a 	mov	r20,r2
    ecf4:	000c7c40 	call	c7c4 <__mcmp>
    ecf8:	10017c16 	blt	r2,zero,f2ec <_strtod_r+0xff0>
    ecfc:	1001af26 	beq	r2,zero,f3bc <_strtod_r+0x10c0>
    ed00:	a009883a 	mov	r4,r20
    ed04:	b00b883a 	mov	r5,r22
    ed08:	000c9c40 	call	c9c4 <__ratio>
    ed0c:	0011883a 	mov	r8,zero
    ed10:	02500034 	movhi	r9,16384
    ed14:	480f883a 	mov	r7,r9
    ed18:	1009883a 	mov	r4,r2
    ed1c:	180b883a 	mov	r5,r3
    ed20:	400d883a 	mov	r6,r8
    ed24:	1021883a 	mov	r16,r2
    ed28:	1823883a 	mov	r17,r3
    ed2c:	001328c0 	call	1328c <__ledf2>
    ed30:	00805716 	blt	zero,r2,ee90 <_strtod_r+0xb94>
    ed34:	d9801317 	ldw	r6,76(sp)
    ed38:	3025003a 	cmpeq	r18,r6,zero
    ed3c:	90008b1e 	bne	r18,zero,ef6c <_strtod_r+0xc70>
    ed40:	008ffc34 	movhi	r2,16368
    ed44:	0021883a 	mov	r16,zero
    ed48:	1023883a 	mov	r17,r2
    ed4c:	d8000715 	stw	zero,28(sp)
    ed50:	d8800815 	stw	r2,32(sp)
    ed54:	e1c00117 	ldw	r7,4(fp)
    ed58:	009ff834 	movhi	r2,32736
    ed5c:	3cdffc2c 	andhi	r19,r7,32752
    ed60:	98805e26 	beq	r19,r2,eedc <_strtod_r+0xbe0>
    ed64:	d8801417 	ldw	r2,80(sp)
    ed68:	10001b26 	beq	r2,zero,edd8 <_strtod_r+0xadc>
    ed6c:	0081a834 	movhi	r2,1696
    ed70:	14c01936 	bltu	r2,r19,edd8 <_strtod_r+0xadc>
    ed74:	00bff034 	movhi	r2,65472
    ed78:	00d07834 	movhi	r3,16864
    ed7c:	18ffffc4 	addi	r3,r3,-1
    ed80:	180f883a 	mov	r7,r3
    ed84:	8009883a 	mov	r4,r16
    ed88:	880b883a 	mov	r5,r17
    ed8c:	100d883a 	mov	r6,r2
    ed90:	001328c0 	call	1328c <__ledf2>
    ed94:	00800b16 	blt	zero,r2,edc4 <_strtod_r+0xac8>
    ed98:	880b883a 	mov	r5,r17
    ed9c:	8009883a 	mov	r4,r16
    eda0:	001172c0 	call	1172c <__fixunsdfsi>
    eda4:	1000df1e 	bne	r2,zero,f124 <_strtod_r+0xe28>
    eda8:	0021883a 	mov	r16,zero
    edac:	044ffc34 	movhi	r17,16368
    edb0:	9000d91e 	bne	r18,zero,f118 <_strtod_r+0xe1c>
    edb4:	8005883a 	mov	r2,r16
    edb8:	8807883a 	mov	r3,r17
    edbc:	d8c00815 	stw	r3,32(sp)
    edc0:	d8800715 	stw	r2,28(sp)
    edc4:	d8800817 	ldw	r2,32(sp)
    edc8:	00c1ac34 	movhi	r3,1712
    edcc:	14c5c83a 	sub	r2,r2,r19
    edd0:	10c5883a 	add	r2,r2,r3
    edd4:	d8800815 	stw	r2,32(sp)
    edd8:	e0800017 	ldw	r2,0(fp)
    eddc:	e0c00117 	ldw	r3,4(fp)
    ede0:	1009883a 	mov	r4,r2
    ede4:	180b883a 	mov	r5,r3
    ede8:	000c8240 	call	c824 <__ulp>
    edec:	d9800717 	ldw	r6,28(sp)
    edf0:	d9c00817 	ldw	r7,32(sp)
    edf4:	180b883a 	mov	r5,r3
    edf8:	1009883a 	mov	r4,r2
    edfc:	00129c80 	call	129c8 <__muldf3>
    ee00:	e2000017 	ldw	r8,0(fp)
    ee04:	e2400117 	ldw	r9,4(fp)
    ee08:	180b883a 	mov	r5,r3
    ee0c:	1009883a 	mov	r4,r2
    ee10:	480f883a 	mov	r7,r9
    ee14:	400d883a 	mov	r6,r8
    ee18:	00129540 	call	12954 <__adddf3>
    ee1c:	e0c00115 	stw	r3,4(fp)
    ee20:	e0800015 	stw	r2,0(fp)
    ee24:	d8c01417 	ldw	r3,80(sp)
    ee28:	e4800117 	ldw	r18,4(fp)
    ee2c:	1800021e 	bne	r3,zero,ee38 <_strtod_r+0xb3c>
    ee30:	909ffc2c 	andhi	r2,r18,32752
    ee34:	98807b26 	beq	r19,r2,f024 <_strtod_r+0xd28>
    ee38:	d9400517 	ldw	r5,20(sp)
    ee3c:	a809883a 	mov	r4,r21
    ee40:	000c6680 	call	c668 <_Bfree>
    ee44:	a809883a 	mov	r4,r21
    ee48:	b80b883a 	mov	r5,r23
    ee4c:	000c6680 	call	c668 <_Bfree>
    ee50:	a809883a 	mov	r4,r21
    ee54:	b00b883a 	mov	r5,r22
    ee58:	000c6680 	call	c668 <_Bfree>
    ee5c:	a809883a 	mov	r4,r21
    ee60:	a00b883a 	mov	r5,r20
    ee64:	000c6680 	call	c668 <_Bfree>
    ee68:	003f3c06 	br	eb5c <_strtod_r+0x860>
    ee6c:	b80b883a 	mov	r5,r23
    ee70:	a00d883a 	mov	r6,r20
    ee74:	a809883a 	mov	r4,r21
    ee78:	000d41c0 	call	d41c <__pow5mult>
    ee7c:	102f883a 	mov	r23,r2
    ee80:	003f8606 	br	ec9c <_strtod_r+0x9a0>
    ee84:	00800d84 	movi	r2,54
    ee88:	114dc83a 	sub	r6,r2,r5
    ee8c:	003f5f06 	br	ec0c <_strtod_r+0x910>
    ee90:	0005883a 	mov	r2,zero
    ee94:	00cff834 	movhi	r3,16352
    ee98:	880b883a 	mov	r5,r17
    ee9c:	8009883a 	mov	r4,r16
    eea0:	100d883a 	mov	r6,r2
    eea4:	180f883a 	mov	r7,r3
    eea8:	00129c80 	call	129c8 <__muldf3>
    eeac:	d9801317 	ldw	r6,76(sp)
    eeb0:	1021883a 	mov	r16,r2
    eeb4:	1823883a 	mov	r17,r3
    eeb8:	3025003a 	cmpeq	r18,r6,zero
    eebc:	90000126 	beq	r18,zero,eec4 <_strtod_r+0xbc8>
    eec0:	18e0003c 	xorhi	r3,r3,32768
    eec4:	d8800715 	stw	r2,28(sp)
    eec8:	d8c00815 	stw	r3,32(sp)
    eecc:	e1c00117 	ldw	r7,4(fp)
    eed0:	009ff834 	movhi	r2,32736
    eed4:	3cdffc2c 	andhi	r19,r7,32752
    eed8:	98bfa21e 	bne	r19,r2,ed64 <_strtod_r+0xa68>
    eedc:	e1000017 	ldw	r4,0(fp)
    eee0:	01bf2c34 	movhi	r6,64688
    eee4:	398d883a 	add	r6,r7,r6
    eee8:	d9000b15 	stw	r4,44(sp)
    eeec:	d9c00c15 	stw	r7,48(sp)
    eef0:	300b883a 	mov	r5,r6
    eef4:	e1800115 	stw	r6,4(fp)
    eef8:	000c8240 	call	c824 <__ulp>
    eefc:	d9800717 	ldw	r6,28(sp)
    ef00:	d9c00817 	ldw	r7,32(sp)
    ef04:	180b883a 	mov	r5,r3
    ef08:	1009883a 	mov	r4,r2
    ef0c:	00129c80 	call	129c8 <__muldf3>
    ef10:	e2000017 	ldw	r8,0(fp)
    ef14:	e2400117 	ldw	r9,4(fp)
    ef18:	180b883a 	mov	r5,r3
    ef1c:	1009883a 	mov	r4,r2
    ef20:	480f883a 	mov	r7,r9
    ef24:	400d883a 	mov	r6,r8
    ef28:	00129540 	call	12954 <__adddf3>
    ef2c:	1009883a 	mov	r4,r2
    ef30:	180b883a 	mov	r5,r3
    ef34:	009f2834 	movhi	r2,31904
    ef38:	10bfffc4 	addi	r2,r2,-1
    ef3c:	18dffc2c 	andhi	r3,r3,32752
    ef40:	e1000015 	stw	r4,0(fp)
    ef44:	e1400115 	stw	r5,4(fp)
    ef48:	10c06f2e 	bgeu	r2,r3,f108 <_strtod_r+0xe0c>
    ef4c:	d8800c17 	ldw	r2,48(sp)
    ef50:	011ffc34 	movhi	r4,32752
    ef54:	213fffc4 	addi	r4,r4,-1
    ef58:	11007a26 	beq	r2,r4,f144 <_strtod_r+0xe48>
    ef5c:	01ffffc4 	movi	r7,-1
    ef60:	e1000115 	stw	r4,4(fp)
    ef64:	e1c00015 	stw	r7,0(fp)
    ef68:	003fb306 	br	ee38 <_strtod_r+0xb3c>
    ef6c:	e0c00017 	ldw	r3,0(fp)
    ef70:	1800221e 	bne	r3,zero,effc <_strtod_r+0xd00>
    ef74:	e0800117 	ldw	r2,4(fp)
    ef78:	00c00434 	movhi	r3,16
    ef7c:	18ffffc4 	addi	r3,r3,-1
    ef80:	10c4703a 	and	r2,r2,r3
    ef84:	1000211e 	bne	r2,zero,f00c <_strtod_r+0xd10>
    ef88:	0005883a 	mov	r2,zero
    ef8c:	00cffc34 	movhi	r3,16368
    ef90:	180f883a 	mov	r7,r3
    ef94:	8009883a 	mov	r4,r16
    ef98:	880b883a 	mov	r5,r17
    ef9c:	100d883a 	mov	r6,r2
    efa0:	00132040 	call	13204 <__ltdf2>
    efa4:	10013c16 	blt	r2,zero,f498 <_strtod_r+0x119c>
    efa8:	0005883a 	mov	r2,zero
    efac:	00cff834 	movhi	r3,16352
    efb0:	880b883a 	mov	r5,r17
    efb4:	8009883a 	mov	r4,r16
    efb8:	180f883a 	mov	r7,r3
    efbc:	100d883a 	mov	r6,r2
    efc0:	00129c80 	call	129c8 <__muldf3>
    efc4:	1823883a 	mov	r17,r3
    efc8:	1021883a 	mov	r16,r2
    efcc:	18e0003c 	xorhi	r3,r3,32768
    efd0:	003fbc06 	br	eec4 <_strtod_r+0xbc8>
    efd4:	3827883a 	mov	r19,r7
    efd8:	003f1a06 	br	ec44 <_strtod_r+0x948>
    efdc:	4091c83a 	sub	r8,r8,r2
    efe0:	003f0206 	br	ebec <_strtod_r+0x8f0>
    efe4:	d8c00f17 	ldw	r3,60(sp)
    efe8:	0011883a 	mov	r8,zero
    efec:	0029883a 	mov	r20,zero
    eff0:	00d3c83a 	sub	r9,zero,r3
    eff4:	480f883a 	mov	r7,r9
    eff8:	003ef906 	br	ebe0 <_strtod_r+0x8e4>
    effc:	00800044 	movi	r2,1
    f000:	1880021e 	bne	r3,r2,f00c <_strtod_r+0xd10>
    f004:	e0800117 	ldw	r2,4(fp)
    f008:	1000a526 	beq	r2,zero,f2a0 <_strtod_r+0xfa4>
    f00c:	00affc34 	movhi	r2,49136
    f010:	0021883a 	mov	r16,zero
    f014:	044ffc34 	movhi	r17,16368
    f018:	d8800815 	stw	r2,32(sp)
    f01c:	d8000715 	stw	zero,28(sp)
    f020:	003f4c06 	br	ed54 <_strtod_r+0xa58>
    f024:	880b883a 	mov	r5,r17
    f028:	8009883a 	mov	r4,r16
    f02c:	00133140 	call	13314 <__fixdfsi>
    f030:	1009883a 	mov	r4,r2
    f034:	0004f7c0 	call	4f7c <__floatsidf>
    f038:	880b883a 	mov	r5,r17
    f03c:	8009883a 	mov	r4,r16
    f040:	100d883a 	mov	r6,r2
    f044:	180f883a 	mov	r7,r3
    f048:	00128d40 	call	128d4 <__subdf3>
    f04c:	d9001317 	ldw	r4,76(sp)
    f050:	100b883a 	mov	r5,r2
    f054:	180d883a 	mov	r6,r3
    f058:	1021883a 	mov	r16,r2
    f05c:	1823883a 	mov	r17,r3
    f060:	2000061e 	bne	r4,zero,f07c <_strtod_r+0xd80>
    f064:	e0800017 	ldw	r2,0(fp)
    f068:	1000041e 	bne	r2,zero,f07c <_strtod_r+0xd80>
    f06c:	00c00434 	movhi	r3,16
    f070:	18ffffc4 	addi	r3,r3,-1
    f074:	90c4703a 	and	r2,r18,r3
    f078:	10004026 	beq	r2,zero,f17c <_strtod_r+0xe80>
    f07c:	00a52834 	movhi	r2,38048
    f080:	108d6544 	addi	r2,r2,13717
    f084:	00cff834 	movhi	r3,16352
    f088:	18ffffc4 	addi	r3,r3,-1
    f08c:	180f883a 	mov	r7,r3
    f090:	8009883a 	mov	r4,r16
    f094:	880b883a 	mov	r5,r17
    f098:	100d883a 	mov	r6,r2
    f09c:	00132040 	call	13204 <__ltdf2>
    f0a0:	10000916 	blt	r2,zero,f0c8 <_strtod_r+0xdcc>
    f0a4:	008d6c34 	movhi	r2,13744
    f0a8:	10b94d44 	addi	r2,r2,-6859
    f0ac:	00cff834 	movhi	r3,16352
    f0b0:	880b883a 	mov	r5,r17
    f0b4:	180f883a 	mov	r7,r3
    f0b8:	8009883a 	mov	r4,r16
    f0bc:	100d883a 	mov	r6,r2
    f0c0:	00130f40 	call	130f4 <__gtdf2>
    f0c4:	00bf5c0e 	bge	zero,r2,ee38 <_strtod_r+0xb3c>
    f0c8:	d9400517 	ldw	r5,20(sp)
    f0cc:	a809883a 	mov	r4,r21
    f0d0:	000c6680 	call	c668 <_Bfree>
    f0d4:	a809883a 	mov	r4,r21
    f0d8:	b80b883a 	mov	r5,r23
    f0dc:	000c6680 	call	c668 <_Bfree>
    f0e0:	a809883a 	mov	r4,r21
    f0e4:	b00b883a 	mov	r5,r22
    f0e8:	000c6680 	call	c668 <_Bfree>
    f0ec:	d9401017 	ldw	r5,64(sp)
    f0f0:	a809883a 	mov	r4,r21
    f0f4:	000c6680 	call	c668 <_Bfree>
    f0f8:	a809883a 	mov	r4,r21
    f0fc:	a00b883a 	mov	r5,r20
    f100:	000c6680 	call	c668 <_Bfree>
    f104:	003cf406 	br	e4d8 <_strtod_r+0x1dc>
    f108:	0080d434 	movhi	r2,848
    f10c:	288d883a 	add	r6,r5,r2
    f110:	e1800115 	stw	r6,4(fp)
    f114:	003f4306 	br	ee24 <_strtod_r+0xb28>
    f118:	8005883a 	mov	r2,r16
    f11c:	88e0003c 	xorhi	r3,r17,32768
    f120:	003f2606 	br	edbc <_strtod_r+0xac0>
    f124:	1009883a 	mov	r4,r2
    f128:	00134600 	call	13460 <__floatunsidf>
    f12c:	1021883a 	mov	r16,r2
    f130:	1823883a 	mov	r17,r3
    f134:	003f1e06 	br	edb0 <_strtod_r+0xab4>
    f138:	da000417 	ldw	r8,16(sp)
    f13c:	39c00044 	addi	r7,r7,1
    f140:	003e6706 	br	eae0 <_strtod_r+0x7e4>
    f144:	d8c00b17 	ldw	r3,44(sp)
    f148:	00bfffc4 	movi	r2,-1
    f14c:	18bf831e 	bne	r3,r2,ef5c <_strtod_r+0xc60>
    f150:	00c00884 	movi	r3,34
    f154:	a8c00015 	stw	r3,0(r21)
    f158:	009ffc34 	movhi	r2,32752
    f15c:	e0800115 	stw	r2,4(fp)
    f160:	e0000015 	stw	zero,0(fp)
    f164:	003fd806 	br	f0c8 <_strtod_r+0xdcc>
    f168:	4007883a 	mov	r3,r8
    f16c:	000d883a 	mov	r6,zero
    f170:	0029883a 	mov	r20,zero
    f174:	0021883a 	mov	r16,zero
    f178:	003cc906 	br	e4a0 <_strtod_r+0x1a4>
    f17c:	00a52834 	movhi	r2,38048
    f180:	108d6544 	addi	r2,r2,13717
    f184:	00cff434 	movhi	r3,16336
    f188:	18ffffc4 	addi	r3,r3,-1
    f18c:	2809883a 	mov	r4,r5
    f190:	180f883a 	mov	r7,r3
    f194:	300b883a 	mov	r5,r6
    f198:	100d883a 	mov	r6,r2
    f19c:	00132040 	call	13204 <__ltdf2>
    f1a0:	103f250e 	bge	r2,zero,ee38 <_strtod_r+0xb3c>
    f1a4:	003fc806 	br	f0c8 <_strtod_r+0xdcc>
    f1a8:	0027883a 	mov	r19,zero
    f1ac:	04800044 	movi	r18,1
    f1b0:	0015883a 	mov	r10,zero
    f1b4:	003cc006 	br	e4b8 <_strtod_r+0x1bc>
    f1b8:	00800884 	movi	r2,34
    f1bc:	a8800015 	stw	r2,0(r21)
    f1c0:	019ffc34 	movhi	r6,32752
    f1c4:	e1800115 	stw	r6,4(fp)
    f1c8:	e0000015 	stw	zero,0(fp)
    f1cc:	003cc206 	br	e4d8 <_strtod_r+0x1dc>
    f1d0:	015387c4 	movi	r5,19999
    f1d4:	003d1e06 	br	e650 <_strtod_r+0x354>
    f1d8:	300a90fa 	slli	r5,r6,3
    f1dc:	e0800017 	ldw	r2,0(fp)
    f1e0:	e0c00117 	ldw	r3,4(fp)
    f1e4:	010000b4 	movhi	r4,2
    f1e8:	2121c604 	addi	r4,r4,-30952
    f1ec:	290b883a 	add	r5,r5,r4
    f1f0:	2a000017 	ldw	r8,0(r5)
    f1f4:	2a400117 	ldw	r9,4(r5)
    f1f8:	1009883a 	mov	r4,r2
    f1fc:	180b883a 	mov	r5,r3
    f200:	480f883a 	mov	r7,r9
    f204:	400d883a 	mov	r6,r8
    f208:	00129c80 	call	129c8 <__muldf3>
    f20c:	e0c00115 	stw	r3,4(fp)
    f210:	e0800015 	stw	r2,0(fp)
    f214:	003cb006 	br	e4d8 <_strtod_r+0x1dc>
    f218:	d8800d17 	ldw	r2,52(sp)
    f21c:	e0800015 	stw	r2,0(fp)
    f220:	d8c00e17 	ldw	r3,56(sp)
    f224:	e0c00115 	stw	r3,4(fp)
    f228:	9880020c 	andi	r2,r19,8
    f22c:	103caa26 	beq	r2,zero,e4d8 <_strtod_r+0x1dc>
    f230:	e0800117 	ldw	r2,4(fp)
    f234:	10a00034 	orhi	r2,r2,32768
    f238:	e0800115 	stw	r2,4(fp)
    f23c:	003ca606 	br	e4d8 <_strtod_r+0x1dc>
    f240:	009ffc34 	movhi	r2,32752
    f244:	e0800115 	stw	r2,4(fp)
    f248:	e0000015 	stw	zero,0(fp)
    f24c:	003ff606 	br	f228 <_strtod_r+0xf2c>
    f250:	00a00034 	movhi	r2,32768
    f254:	10bfffc4 	addi	r2,r2,-1
    f258:	00ffffc4 	movi	r3,-1
    f25c:	e0800115 	stw	r2,4(fp)
    f260:	e0c00015 	stw	r3,0(fp)
    f264:	003ff006 	br	f228 <_strtod_r+0xf2c>
    f268:	e0000115 	stw	zero,4(fp)
    f26c:	e0000015 	stw	zero,0(fp)
    f270:	003fed06 	br	f228 <_strtod_r+0xf2c>
    f274:	d8800e17 	ldw	r2,56(sp)
    f278:	29010cc4 	addi	r4,r5,1075
    f27c:	00fffc34 	movhi	r3,65520
    f280:	18ffffc4 	addi	r3,r3,-1
    f284:	2008953a 	slli	r4,r4,20
    f288:	10c4703a 	and	r2,r2,r3
    f28c:	d8c00d17 	ldw	r3,52(sp)
    f290:	1104b03a 	or	r2,r2,r4
    f294:	e0800115 	stw	r2,4(fp)
    f298:	e0c00015 	stw	r3,0(fp)
    f29c:	003fe206 	br	f228 <_strtod_r+0xf2c>
    f2a0:	00800884 	movi	r2,34
    f2a4:	a8800015 	stw	r2,0(r21)
    f2a8:	e0000015 	stw	zero,0(fp)
    f2ac:	e0000115 	stw	zero,4(fp)
    f2b0:	003f8506 	br	f0c8 <_strtod_r+0xdcc>
    f2b4:	03800044 	movi	r14,1
    f2b8:	003d7706 	br	e898 <_strtod_r+0x59c>
    f2bc:	99c5883a 	add	r2,r19,r7
    f2c0:	11ffffc4 	addi	r7,r2,-1
    f2c4:	00800204 	movi	r2,8
    f2c8:	3cc00044 	addi	r19,r7,1
    f2cc:	11c0df16 	blt	r2,r7,f64c <_strtod_r+0x1350>
    f2d0:	a08002a4 	muli	r2,r20,10
    f2d4:	000f883a 	mov	r7,zero
    f2d8:	1269883a 	add	r20,r2,r9
    f2dc:	42000044 	addi	r8,r8,1
    f2e0:	da000415 	stw	r8,16(sp)
    f2e4:	41000007 	ldb	r4,0(r8)
    f2e8:	003d3706 	br	e7c8 <_strtod_r+0x4cc>
    f2ec:	d9801317 	ldw	r6,76(sp)
    f2f0:	3000511e 	bne	r6,zero,f438 <_strtod_r+0x113c>
    f2f4:	e0800017 	ldw	r2,0(fp)
    f2f8:	1000d81e 	bne	r2,zero,f65c <_strtod_r+0x1360>
    f2fc:	e0c00117 	ldw	r3,4(fp)
    f300:	01000434 	movhi	r4,16
    f304:	213fffc4 	addi	r4,r4,-1
    f308:	1904703a 	and	r2,r3,r4
    f30c:	1000b01e 	bne	r2,zero,f5d0 <_strtod_r+0x12d4>
    f310:	18dffc2c 	andhi	r3,r3,32752
    f314:	0081ac34 	movhi	r2,1712
    f318:	10c1102e 	bgeu	r2,r3,f75c <_strtod_r+0x1460>
    f31c:	a0800517 	ldw	r2,20(r20)
    f320:	1000031e 	bne	r2,zero,f330 <_strtod_r+0x1034>
    f324:	a0c00417 	ldw	r3,16(r20)
    f328:	00800044 	movi	r2,1
    f32c:	10c0420e 	bge	r2,r3,f438 <_strtod_r+0x113c>
    f330:	a00b883a 	mov	r5,r20
    f334:	a809883a 	mov	r4,r21
    f338:	01800044 	movi	r6,1
    f33c:	000cfac0 	call	cfac <__lshift>
    f340:	1009883a 	mov	r4,r2
    f344:	b00b883a 	mov	r5,r22
    f348:	1029883a 	mov	r20,r2
    f34c:	000c7c40 	call	c7c4 <__mcmp>
    f350:	0080c20e 	bge	zero,r2,f65c <_strtod_r+0x1360>
    f354:	e1800117 	ldw	r6,4(fp)
    f358:	d9001417 	ldw	r4,80(sp)
    f35c:	2013003a 	cmpeq	r9,r4,zero
    f360:	4800ef1e 	bne	r9,zero,f720 <_strtod_r+0x1424>
    f364:	30dffc2c 	andhi	r3,r6,32752
    f368:	0081ac34 	movhi	r2,1712
    f36c:	10c0ec36 	bltu	r2,r3,f720 <_strtod_r+0x1424>
    f370:	0080dc34 	movhi	r2,880
    f374:	10ffca2e 	bgeu	r2,r3,f2a0 <_strtod_r+0xfa4>
    f378:	e0800017 	ldw	r2,0(fp)
    f37c:	e0c00117 	ldw	r3,4(fp)
    f380:	020e5434 	movhi	r8,14672
    f384:	000d883a 	mov	r6,zero
    f388:	400f883a 	mov	r7,r8
    f38c:	180b883a 	mov	r5,r3
    f390:	1009883a 	mov	r4,r2
    f394:	da000c15 	stw	r8,48(sp)
    f398:	d8000b15 	stw	zero,44(sp)
    f39c:	00129c80 	call	129c8 <__muldf3>
    f3a0:	e0800015 	stw	r2,0(fp)
    f3a4:	e0c00115 	stw	r3,4(fp)
    f3a8:	183f471e 	bne	r3,zero,f0c8 <_strtod_r+0xdcc>
    f3ac:	103f461e 	bne	r2,zero,f0c8 <_strtod_r+0xdcc>
    f3b0:	00800884 	movi	r2,34
    f3b4:	a8800015 	stw	r2,0(r21)
    f3b8:	003f4306 	br	f0c8 <_strtod_r+0xdcc>
    f3bc:	d8801317 	ldw	r2,76(sp)
    f3c0:	1025003a 	cmpeq	r18,r2,zero
    f3c4:	9000861e 	bne	r18,zero,f5e0 <_strtod_r+0x12e4>
    f3c8:	e1400117 	ldw	r5,4(fp)
    f3cc:	00c00434 	movhi	r3,16
    f3d0:	18ffffc4 	addi	r3,r3,-1
    f3d4:	28c4703a 	and	r2,r5,r3
    f3d8:	10c01b26 	beq	r2,r3,f448 <_strtod_r+0x114c>
    f3dc:	e1c00017 	ldw	r7,0(fp)
    f3e0:	3880004c 	andi	r2,r7,1
    f3e4:	1005003a 	cmpeq	r2,r2,zero
    f3e8:	1000791e 	bne	r2,zero,f5d0 <_strtod_r+0x12d4>
    f3ec:	9000b126 	beq	r18,zero,f6b4 <_strtod_r+0x13b8>
    f3f0:	e4400117 	ldw	r17,4(fp)
    f3f4:	3809883a 	mov	r4,r7
    f3f8:	3821883a 	mov	r16,r7
    f3fc:	880b883a 	mov	r5,r17
    f400:	000c8240 	call	c824 <__ulp>
    f404:	180f883a 	mov	r7,r3
    f408:	880b883a 	mov	r5,r17
    f40c:	8009883a 	mov	r4,r16
    f410:	100d883a 	mov	r6,r2
    f414:	00128d40 	call	128d4 <__subdf3>
    f418:	1009883a 	mov	r4,r2
    f41c:	000d883a 	mov	r6,zero
    f420:	000f883a 	mov	r7,zero
    f424:	180b883a 	mov	r5,r3
    f428:	e0800015 	stw	r2,0(fp)
    f42c:	e0c00115 	stw	r3,4(fp)
    f430:	001306c0 	call	1306c <__nedf2>
    f434:	103f9a26 	beq	r2,zero,f2a0 <_strtod_r+0xfa4>
    f438:	d9001417 	ldw	r4,80(sp)
    f43c:	2013003a 	cmpeq	r9,r4,zero
    f440:	483f211e 	bne	r9,zero,f0c8 <_strtod_r+0xdcc>
    f444:	003fcc06 	br	f378 <_strtod_r+0x107c>
    f448:	d9001417 	ldw	r4,80(sp)
    f44c:	e1c00017 	ldw	r7,0(fp)
    f450:	2013003a 	cmpeq	r9,r4,zero
    f454:	4800bd1e 	bne	r9,zero,f74c <_strtod_r+0x1450>
    f458:	28dffc2c 	andhi	r3,r5,32752
    f45c:	0081a834 	movhi	r2,1696
    f460:	10c0ba36 	bltu	r2,r3,f74c <_strtod_r+0x1450>
    f464:	1804d53a 	srli	r2,r3,20
    f468:	00c01ac4 	movi	r3,107
    f46c:	013fffc4 	movi	r4,-1
    f470:	1887c83a 	sub	r3,r3,r2
    f474:	20c4983a 	sll	r2,r4,r3
    f478:	11ffd91e 	bne	r2,r7,f3e0 <_strtod_r+0x10e4>
    f47c:	28dffc2c 	andhi	r3,r5,32752
    f480:	00800434 	movhi	r2,16
    f484:	188d883a 	add	r6,r3,r2
    f488:	e1800115 	stw	r6,4(fp)
    f48c:	e0000015 	stw	zero,0(fp)
    f490:	483f0d1e 	bne	r9,zero,f0c8 <_strtod_r+0xdcc>
    f494:	003fb806 	br	f378 <_strtod_r+0x107c>
    f498:	0021883a 	mov	r16,zero
    f49c:	0005883a 	mov	r2,zero
    f4a0:	044ff834 	movhi	r17,16352
    f4a4:	00eff834 	movhi	r3,49120
    f4a8:	003e8606 	br	eec4 <_strtod_r+0xbc8>
    f4ac:	803d9e26 	beq	r16,zero,eb28 <_strtod_r+0x82c>
    f4b0:	0421c83a 	sub	r16,zero,r16
    f4b4:	814003cc 	andi	r5,r16,15
    f4b8:	28000f26 	beq	r5,zero,f4f8 <_strtod_r+0x11fc>
    f4bc:	280a90fa 	slli	r5,r5,3
    f4c0:	010000b4 	movhi	r4,2
    f4c4:	2121c604 	addi	r4,r4,-30952
    f4c8:	e0800017 	ldw	r2,0(fp)
    f4cc:	290b883a 	add	r5,r5,r4
    f4d0:	2a000017 	ldw	r8,0(r5)
    f4d4:	e0c00117 	ldw	r3,4(fp)
    f4d8:	2a400117 	ldw	r9,4(r5)
    f4dc:	1009883a 	mov	r4,r2
    f4e0:	180b883a 	mov	r5,r3
    f4e4:	480f883a 	mov	r7,r9
    f4e8:	400d883a 	mov	r6,r8
    f4ec:	0012d8c0 	call	12d8c <__divdf3>
    f4f0:	e0c00115 	stw	r3,4(fp)
    f4f4:	e0800015 	stw	r2,0(fp)
    f4f8:	8021d13a 	srai	r16,r16,4
    f4fc:	803d8a26 	beq	r16,zero,eb28 <_strtod_r+0x82c>
    f500:	008007c4 	movi	r2,31
    f504:	14002d16 	blt	r2,r16,f5bc <_strtod_r+0x12c0>
    f508:	8080040c 	andi	r2,r16,16
    f50c:	10009926 	beq	r2,zero,f774 <_strtod_r+0x1478>
    f510:	00801a84 	movi	r2,106
    f514:	d8801415 	stw	r2,80(sp)
    f518:	0400110e 	bge	zero,r16,f560 <_strtod_r+0x1264>
    f51c:	044000b4 	movhi	r17,2
    f520:	8c621304 	addi	r17,r17,-30644
    f524:	8080004c 	andi	r2,r16,1
    f528:	1005003a 	cmpeq	r2,r2,zero
    f52c:	1000091e 	bne	r2,zero,f554 <_strtod_r+0x1258>
    f530:	e0800017 	ldw	r2,0(fp)
    f534:	e0c00117 	ldw	r3,4(fp)
    f538:	89800017 	ldw	r6,0(r17)
    f53c:	89c00117 	ldw	r7,4(r17)
    f540:	180b883a 	mov	r5,r3
    f544:	1009883a 	mov	r4,r2
    f548:	00129c80 	call	129c8 <__muldf3>
    f54c:	e0c00115 	stw	r3,4(fp)
    f550:	e0800015 	stw	r2,0(fp)
    f554:	8021d07a 	srai	r16,r16,1
    f558:	8c400204 	addi	r17,r17,8
    f55c:	043ff116 	blt	zero,r16,f524 <_strtod_r+0x1228>
    f560:	d8c01417 	ldw	r3,80(sp)
    f564:	18000d26 	beq	r3,zero,f59c <_strtod_r+0x12a0>
    f568:	e1000117 	ldw	r4,4(fp)
    f56c:	00c01ac4 	movi	r3,107
    f570:	209ffc2c 	andhi	r2,r4,32752
    f574:	1004d53a 	srli	r2,r2,20
    f578:	1887c83a 	sub	r3,r3,r2
    f57c:	00c0070e 	bge	zero,r3,f59c <_strtod_r+0x12a0>
    f580:	008007c4 	movi	r2,31
    f584:	10c0900e 	bge	r2,r3,f7c8 <_strtod_r+0x14cc>
    f588:	00800d04 	movi	r2,52
    f58c:	e0000015 	stw	zero,0(fp)
    f590:	10c0870e 	bge	r2,r3,f7b0 <_strtod_r+0x14b4>
    f594:	0180dc34 	movhi	r6,880
    f598:	e1800115 	stw	r6,4(fp)
    f59c:	e0800017 	ldw	r2,0(fp)
    f5a0:	e0c00117 	ldw	r3,4(fp)
    f5a4:	000d883a 	mov	r6,zero
    f5a8:	000f883a 	mov	r7,zero
    f5ac:	180b883a 	mov	r5,r3
    f5b0:	1009883a 	mov	r4,r2
    f5b4:	001306c0 	call	1306c <__nedf2>
    f5b8:	103d5c1e 	bne	r2,zero,eb2c <_strtod_r+0x830>
    f5bc:	00800884 	movi	r2,34
    f5c0:	a8800015 	stw	r2,0(r21)
    f5c4:	e0000015 	stw	zero,0(fp)
    f5c8:	e0000115 	stw	zero,4(fp)
    f5cc:	003bc206 	br	e4d8 <_strtod_r+0x1dc>
    f5d0:	d8801417 	ldw	r2,80(sp)
    f5d4:	1013003a 	cmpeq	r9,r2,zero
    f5d8:	483ebb1e 	bne	r9,zero,f0c8 <_strtod_r+0xdcc>
    f5dc:	003f6606 	br	f378 <_strtod_r+0x107c>
    f5e0:	e1800117 	ldw	r6,4(fp)
    f5e4:	00c00434 	movhi	r3,16
    f5e8:	18ffffc4 	addi	r3,r3,-1
    f5ec:	30c4703a 	and	r2,r6,r3
    f5f0:	103f7a1e 	bne	r2,zero,f3dc <_strtod_r+0x10e0>
    f5f4:	e1c00017 	ldw	r7,0(fp)
    f5f8:	383f791e 	bne	r7,zero,f3e0 <_strtod_r+0x10e4>
    f5fc:	003f5606 	br	f358 <_strtod_r+0x105c>
    f600:	d9800f17 	ldw	r6,60(sp)
    f604:	00bffa84 	movi	r2,-22
    f608:	30bcd416 	blt	r6,r2,e95c <_strtod_r+0x660>
    f60c:	317ffe24 	muli	r5,r6,-8
    f610:	010000b4 	movhi	r4,2
    f614:	2121c604 	addi	r4,r4,-30952
    f618:	e0800017 	ldw	r2,0(fp)
    f61c:	290b883a 	add	r5,r5,r4
    f620:	2a000017 	ldw	r8,0(r5)
    f624:	e0c00117 	ldw	r3,4(fp)
    f628:	2a400117 	ldw	r9,4(r5)
    f62c:	1009883a 	mov	r4,r2
    f630:	180b883a 	mov	r5,r3
    f634:	480f883a 	mov	r7,r9
    f638:	400d883a 	mov	r6,r8
    f63c:	0012d8c0 	call	12d8c <__divdf3>
    f640:	e0c00115 	stw	r3,4(fp)
    f644:	e0800015 	stw	r2,0(fp)
    f648:	003ba306 	br	e4d8 <_strtod_r+0x1dc>
    f64c:	00800404 	movi	r2,16
    f650:	14c02f0e 	bge	r2,r19,f710 <_strtod_r+0x1414>
    f654:	000f883a 	mov	r7,zero
    f658:	003f2006 	br	f2dc <_strtod_r+0xfe0>
    f65c:	d9801417 	ldw	r6,80(sp)
    f660:	3013003a 	cmpeq	r9,r6,zero
    f664:	483e981e 	bne	r9,zero,f0c8 <_strtod_r+0xdcc>
    f668:	003f4306 	br	f378 <_strtod_r+0x107c>
    f66c:	00801a44 	movi	r2,105
    f670:	20bc6326 	beq	r4,r2,e800 <_strtod_r+0x504>
    f674:	00801b84 	movi	r2,110
    f678:	20bbba1e 	bne	r4,r2,e564 <_strtod_r+0x268>
    f67c:	dc000404 	addi	r16,sp,16
    f680:	8009883a 	mov	r4,r16
    f684:	014000b4 	movhi	r5,2
    f688:	29621204 	addi	r5,r5,-30648
    f68c:	000e2b40 	call	e2b4 <match>
    f690:	103bb426 	beq	r2,zero,e564 <_strtod_r+0x268>
    f694:	d8800417 	ldw	r2,16(sp)
    f698:	00c00a04 	movi	r3,40
    f69c:	11000007 	ldb	r4,0(r2)
    f6a0:	20c03626 	beq	r4,r3,f77c <_strtod_r+0x1480>
    f6a4:	01bffe34 	movhi	r6,65528
    f6a8:	e1800115 	stw	r6,4(fp)
    f6ac:	e0000015 	stw	zero,0(fp)
    f6b0:	003b8906 	br	e4d8 <_strtod_r+0x1dc>
    f6b4:	e4400117 	ldw	r17,4(fp)
    f6b8:	3809883a 	mov	r4,r7
    f6bc:	3821883a 	mov	r16,r7
    f6c0:	880b883a 	mov	r5,r17
    f6c4:	000c8240 	call	c824 <__ulp>
    f6c8:	100d883a 	mov	r6,r2
    f6cc:	880b883a 	mov	r5,r17
    f6d0:	180f883a 	mov	r7,r3
    f6d4:	8009883a 	mov	r4,r16
    f6d8:	00129540 	call	12954 <__adddf3>
    f6dc:	d9801417 	ldw	r6,80(sp)
    f6e0:	e0c00115 	stw	r3,4(fp)
    f6e4:	e0800015 	stw	r2,0(fp)
    f6e8:	3013003a 	cmpeq	r9,r6,zero
    f6ec:	483e761e 	bne	r9,zero,f0c8 <_strtod_r+0xdcc>
    f6f0:	003f2106 	br	f378 <_strtod_r+0x107c>
    f6f4:	000f883a 	mov	r7,zero
    f6f8:	003cf006 	br	eabc <_strtod_r+0x7c0>
    f6fc:	0080d434 	movhi	r2,848
    f700:	188d883a 	add	r6,r3,r2
    f704:	d8001415 	stw	zero,80(sp)
    f708:	e1800115 	stw	r6,4(fp)
    f70c:	003d0706 	br	eb2c <_strtod_r+0x830>
    f710:	808002a4 	muli	r2,r16,10
    f714:	000f883a 	mov	r7,zero
    f718:	1261883a 	add	r16,r2,r9
    f71c:	003eef06 	br	f2dc <_strtod_r+0xfe0>
    f720:	309ffc2c 	andhi	r2,r6,32752
    f724:	00fffc34 	movhi	r3,65520
    f728:	10c5883a 	add	r2,r2,r3
    f72c:	00c00434 	movhi	r3,16
    f730:	18ffffc4 	addi	r3,r3,-1
    f734:	10ccb03a 	or	r6,r2,r3
    f738:	01ffffc4 	movi	r7,-1
    f73c:	e1800115 	stw	r6,4(fp)
    f740:	e1c00015 	stw	r7,0(fp)
    f744:	483e601e 	bne	r9,zero,f0c8 <_strtod_r+0xdcc>
    f748:	003f0b06 	br	f378 <_strtod_r+0x107c>
    f74c:	00bfffc4 	movi	r2,-1
    f750:	003f4906 	br	f478 <_strtod_r+0x117c>
    f754:	0025883a 	mov	r18,zero
    f758:	003cb106 	br	ea20 <_strtod_r+0x724>
    f75c:	d8c01417 	ldw	r3,80(sp)
    f760:	1813003a 	cmpeq	r9,r3,zero
    f764:	483e581e 	bne	r9,zero,f0c8 <_strtod_r+0xdcc>
    f768:	003f0306 	br	f378 <_strtod_r+0x107c>
    f76c:	980f883a 	mov	r7,r19
    f770:	003ed406 	br	f2c4 <_strtod_r+0xfc8>
    f774:	d8001415 	stw	zero,80(sp)
    f778:	003f6706 	br	f518 <_strtod_r+0x121c>
    f77c:	8009883a 	mov	r4,r16
    f780:	014000b4 	movhi	r5,2
    f784:	29644004 	addi	r5,r5,-28416
    f788:	d9800d04 	addi	r6,sp,52
    f78c:	00112ec0 	call	112ec <__hexnan>
    f790:	00c00144 	movi	r3,5
    f794:	10ffc31e 	bne	r2,r3,f6a4 <_strtod_r+0x13a8>
    f798:	d8800e17 	ldw	r2,56(sp)
    f79c:	d9c00d17 	ldw	r7,52(sp)
    f7a0:	119ffc34 	orhi	r6,r2,32752
    f7a4:	e1800115 	stw	r6,4(fp)
    f7a8:	e1c00015 	stw	r7,0(fp)
    f7ac:	003b4a06 	br	e4d8 <_strtod_r+0x1dc>
    f7b0:	18fff804 	addi	r3,r3,-32
    f7b4:	00bfffc4 	movi	r2,-1
    f7b8:	10c4983a 	sll	r2,r2,r3
    f7bc:	208c703a 	and	r6,r4,r2
    f7c0:	e1800115 	stw	r6,4(fp)
    f7c4:	003f7506 	br	f59c <_strtod_r+0x12a0>
    f7c8:	00bfffc4 	movi	r2,-1
    f7cc:	10c4983a 	sll	r2,r2,r3
    f7d0:	e0c00017 	ldw	r3,0(fp)
    f7d4:	188e703a 	and	r7,r3,r2
    f7d8:	e1c00015 	stw	r7,0(fp)
    f7dc:	003f6f06 	br	f59c <_strtod_r+0x12a0>

0000f7e0 <strtof>:
    f7e0:	defffa04 	addi	sp,sp,-24
    f7e4:	dd000415 	stw	r20,16(sp)
    f7e8:	050000b4 	movhi	r20,2
    f7ec:	a5291504 	addi	r20,r20,-23468
    f7f0:	2007883a 	mov	r3,r4
    f7f4:	a1000017 	ldw	r4,0(r20)
    f7f8:	280d883a 	mov	r6,r5
    f7fc:	180b883a 	mov	r5,r3
    f800:	dfc00515 	stw	ra,20(sp)
    f804:	dcc00315 	stw	r19,12(sp)
    f808:	dc800215 	stw	r18,8(sp)
    f80c:	dc400115 	stw	r17,4(sp)
    f810:	dc000015 	stw	r16,0(sp)
    f814:	000e2fc0 	call	e2fc <_strtod_r>
    f818:	180b883a 	mov	r5,r3
    f81c:	1009883a 	mov	r4,r2
    f820:	1823883a 	mov	r17,r3
    f824:	1021883a 	mov	r16,r2
    f828:	00133ec0 	call	133ec <__truncdfsf2>
    f82c:	1009883a 	mov	r4,r2
    f830:	000b883a 	mov	r5,zero
    f834:	1025883a 	mov	r18,r2
    f838:	1027883a 	mov	r19,r2
    f83c:	001235c0 	call	1235c <__nesf2>
    f840:	000d883a 	mov	r6,zero
    f844:	000f883a 	mov	r7,zero
    f848:	8009883a 	mov	r4,r16
    f84c:	880b883a 	mov	r5,r17
    f850:	10000e1e 	bne	r2,zero,f88c <strtof+0xac>
    f854:	001306c0 	call	1306c <__nedf2>
    f858:	10000c26 	beq	r2,zero,f88c <strtof+0xac>
    f85c:	a0c00017 	ldw	r3,0(r20)
    f860:	00800884 	movi	r2,34
    f864:	18800015 	stw	r2,0(r3)
    f868:	9805883a 	mov	r2,r19
    f86c:	dfc00517 	ldw	ra,20(sp)
    f870:	dd000417 	ldw	r20,16(sp)
    f874:	dcc00317 	ldw	r19,12(sp)
    f878:	dc800217 	ldw	r18,8(sp)
    f87c:	dc400117 	ldw	r17,4(sp)
    f880:	dc000017 	ldw	r16,0(sp)
    f884:	dec00604 	addi	sp,sp,24
    f888:	f800283a 	ret
    f88c:	9009883a 	mov	r4,r18
    f890:	015fe034 	movhi	r5,32640
    f894:	297fffc4 	addi	r5,r5,-1
    f898:	00123d40 	call	123d4 <__gtsf2>
    f89c:	00ffffc4 	movi	r3,-1
    f8a0:	011ffc34 	movhi	r4,32752
    f8a4:	213fffc4 	addi	r4,r4,-1
    f8a8:	200f883a 	mov	r7,r4
    f8ac:	180d883a 	mov	r6,r3
    f8b0:	8009883a 	mov	r4,r16
    f8b4:	880b883a 	mov	r5,r17
    f8b8:	00800f16 	blt	zero,r2,f8f8 <strtof+0x118>
    f8bc:	9009883a 	mov	r4,r18
    f8c0:	017fe034 	movhi	r5,65408
    f8c4:	297fffc4 	addi	r5,r5,-1
    f8c8:	001244c0 	call	1244c <__ltsf2>
    f8cc:	023fffc4 	movi	r8,-1
    f8d0:	027ffc34 	movhi	r9,65520
    f8d4:	4a7fffc4 	addi	r9,r9,-1
    f8d8:	880b883a 	mov	r5,r17
    f8dc:	480f883a 	mov	r7,r9
    f8e0:	8009883a 	mov	r4,r16
    f8e4:	400d883a 	mov	r6,r8
    f8e8:	103fdf0e 	bge	r2,zero,f868 <strtof+0x88>
    f8ec:	00132040 	call	13204 <__ltdf2>
    f8f0:	103fda0e 	bge	r2,zero,f85c <strtof+0x7c>
    f8f4:	003fdc06 	br	f868 <strtof+0x88>
    f8f8:	00130f40 	call	130f4 <__gtdf2>
    f8fc:	00bfd70e 	bge	zero,r2,f85c <strtof+0x7c>
    f900:	003fee06 	br	f8bc <strtof+0xdc>

0000f904 <strtod>:
    f904:	018000b4 	movhi	r6,2
    f908:	31a91504 	addi	r6,r6,-23468
    f90c:	2007883a 	mov	r3,r4
    f910:	31000017 	ldw	r4,0(r6)
    f914:	280d883a 	mov	r6,r5
    f918:	180b883a 	mov	r5,r3
    f91c:	000e2fc1 	jmpi	e2fc <_strtod_r>

0000f920 <_strtol_r>:
    f920:	defff304 	addi	sp,sp,-52
    f924:	008000b4 	movhi	r2,2
    f928:	10a91404 	addi	r2,r2,-23472
    f92c:	dcc00615 	stw	r19,24(sp)
    f930:	14c00017 	ldw	r19,0(r2)
    f934:	ddc00a15 	stw	r23,40(sp)
    f938:	dc000315 	stw	r16,12(sp)
    f93c:	dfc00c15 	stw	ra,48(sp)
    f940:	df000b15 	stw	fp,44(sp)
    f944:	dd800915 	stw	r22,36(sp)
    f948:	dd400815 	stw	r21,32(sp)
    f94c:	dd000715 	stw	r20,28(sp)
    f950:	dc800515 	stw	r18,20(sp)
    f954:	dc400415 	stw	r17,16(sp)
    f958:	282f883a 	mov	r23,r5
    f95c:	d9000015 	stw	r4,0(sp)
    f960:	d9800115 	stw	r6,4(sp)
    f964:	2821883a 	mov	r16,r5
    f968:	84400007 	ldb	r17,0(r16)
    f96c:	84000044 	addi	r16,r16,1
    f970:	9c47883a 	add	r3,r19,r17
    f974:	18800003 	ldbu	r2,0(r3)
    f978:	1080020c 	andi	r2,r2,8
    f97c:	103ffa1e 	bne	r2,zero,f968 <_strtol_r+0x48>
    f980:	00800b44 	movi	r2,45
    f984:	88805c26 	beq	r17,r2,faf8 <_strtol_r+0x1d8>
    f988:	00800ac4 	movi	r2,43
    f98c:	88805726 	beq	r17,r2,faec <_strtol_r+0x1cc>
    f990:	0039883a 	mov	fp,zero
    f994:	3807003a 	cmpeq	r3,r7,zero
    f998:	1800431e 	bne	r3,zero,faa8 <_strtol_r+0x188>
    f99c:	00800404 	movi	r2,16
    f9a0:	38804126 	beq	r7,r2,faa8 <_strtol_r+0x188>
    f9a4:	3829883a 	mov	r20,r7
    f9a8:	e02cc03a 	cmpne	r22,fp,zero
    f9ac:	b0004b1e 	bne	r22,zero,fadc <_strtol_r+0x1bc>
    f9b0:	04a00034 	movhi	r18,32768
    f9b4:	94bfffc4 	addi	r18,r18,-1
    f9b8:	9009883a 	mov	r4,r18
    f9bc:	a00b883a 	mov	r5,r20
    f9c0:	d9c00215 	stw	r7,8(sp)
    f9c4:	00051b80 	call	51b8 <__umodsi3>
    f9c8:	9009883a 	mov	r4,r18
    f9cc:	a00b883a 	mov	r5,r20
    f9d0:	102b883a 	mov	r21,r2
    f9d4:	00051b00 	call	51b0 <__udivsi3>
    f9d8:	1011883a 	mov	r8,r2
    f9dc:	9c45883a 	add	r2,r19,r17
    f9e0:	11000003 	ldbu	r4,0(r2)
    f9e4:	000b883a 	mov	r5,zero
    f9e8:	000d883a 	mov	r6,zero
    f9ec:	20c0010c 	andi	r3,r4,4
    f9f0:	d9c00217 	ldw	r7,8(sp)
    f9f4:	18000e26 	beq	r3,zero,fa30 <_strtol_r+0x110>
    f9f8:	88fff404 	addi	r3,r17,-48
    f9fc:	19c0140e 	bge	r3,r7,fa50 <_strtol_r+0x130>
    fa00:	30003116 	blt	r6,zero,fac8 <_strtol_r+0x1a8>
    fa04:	41403036 	bltu	r8,r5,fac8 <_strtol_r+0x1a8>
    fa08:	2a002e26 	beq	r5,r8,fac4 <_strtol_r+0x1a4>
    fa0c:	2d05383a 	mul	r2,r5,r20
    fa10:	01800044 	movi	r6,1
    fa14:	10cb883a 	add	r5,r2,r3
    fa18:	84400007 	ldb	r17,0(r16)
    fa1c:	84000044 	addi	r16,r16,1
    fa20:	9c45883a 	add	r2,r19,r17
    fa24:	11000003 	ldbu	r4,0(r2)
    fa28:	20c0010c 	andi	r3,r4,4
    fa2c:	183ff21e 	bne	r3,zero,f9f8 <_strtol_r+0xd8>
    fa30:	208000cc 	andi	r2,r4,3
    fa34:	10000626 	beq	r2,zero,fa50 <_strtol_r+0x130>
    fa38:	2080004c 	andi	r2,r4,1
    fa3c:	1005003a 	cmpeq	r2,r2,zero
    fa40:	1000231e 	bne	r2,zero,fad0 <_strtol_r+0x1b0>
    fa44:	00800dc4 	movi	r2,55
    fa48:	8887c83a 	sub	r3,r17,r2
    fa4c:	19ffec16 	blt	r3,r7,fa00 <_strtol_r+0xe0>
    fa50:	30002d16 	blt	r6,zero,fb08 <_strtol_r+0x1e8>
    fa54:	b000231e 	bne	r22,zero,fae4 <_strtol_r+0x1c4>
    fa58:	2807883a 	mov	r3,r5
    fa5c:	d8800117 	ldw	r2,4(sp)
    fa60:	10000426 	beq	r2,zero,fa74 <_strtol_r+0x154>
    fa64:	30000126 	beq	r6,zero,fa6c <_strtol_r+0x14c>
    fa68:	85ffffc4 	addi	r23,r16,-1
    fa6c:	d9000117 	ldw	r4,4(sp)
    fa70:	25c00015 	stw	r23,0(r4)
    fa74:	1805883a 	mov	r2,r3
    fa78:	dfc00c17 	ldw	ra,48(sp)
    fa7c:	df000b17 	ldw	fp,44(sp)
    fa80:	ddc00a17 	ldw	r23,40(sp)
    fa84:	dd800917 	ldw	r22,36(sp)
    fa88:	dd400817 	ldw	r21,32(sp)
    fa8c:	dd000717 	ldw	r20,28(sp)
    fa90:	dcc00617 	ldw	r19,24(sp)
    fa94:	dc800517 	ldw	r18,20(sp)
    fa98:	dc400417 	ldw	r17,16(sp)
    fa9c:	dc000317 	ldw	r16,12(sp)
    faa0:	dec00d04 	addi	sp,sp,52
    faa4:	f800283a 	ret
    faa8:	00800c04 	movi	r2,48
    faac:	88801d26 	beq	r17,r2,fb24 <_strtol_r+0x204>
    fab0:	183fbc26 	beq	r3,zero,f9a4 <_strtol_r+0x84>
    fab4:	00800c04 	movi	r2,48
    fab8:	88802726 	beq	r17,r2,fb58 <_strtol_r+0x238>
    fabc:	01c00284 	movi	r7,10
    fac0:	003fb806 	br	f9a4 <_strtol_r+0x84>
    fac4:	a8ffd10e 	bge	r21,r3,fa0c <_strtol_r+0xec>
    fac8:	01bfffc4 	movi	r6,-1
    facc:	003fd206 	br	fa18 <_strtol_r+0xf8>
    fad0:	008015c4 	movi	r2,87
    fad4:	8887c83a 	sub	r3,r17,r2
    fad8:	003fdc06 	br	fa4c <_strtol_r+0x12c>
    fadc:	04a00034 	movhi	r18,32768
    fae0:	003fb506 	br	f9b8 <_strtol_r+0x98>
    fae4:	0147c83a 	sub	r3,zero,r5
    fae8:	003fdc06 	br	fa5c <_strtol_r+0x13c>
    faec:	84400007 	ldb	r17,0(r16)
    faf0:	84000044 	addi	r16,r16,1
    faf4:	003fa606 	br	f990 <_strtol_r+0x70>
    faf8:	84400007 	ldb	r17,0(r16)
    fafc:	07000044 	movi	fp,1
    fb00:	84000044 	addi	r16,r16,1
    fb04:	003fa306 	br	f994 <_strtol_r+0x74>
    fb08:	e005003a 	cmpeq	r2,fp,zero
    fb0c:	10000f1e 	bne	r2,zero,fb4c <_strtol_r+0x22c>
    fb10:	00e00034 	movhi	r3,32768
    fb14:	d9000017 	ldw	r4,0(sp)
    fb18:	00800884 	movi	r2,34
    fb1c:	20800015 	stw	r2,0(r4)
    fb20:	003fce06 	br	fa5c <_strtol_r+0x13c>
    fb24:	81000007 	ldb	r4,0(r16)
    fb28:	00801e04 	movi	r2,120
    fb2c:	20800226 	beq	r4,r2,fb38 <_strtol_r+0x218>
    fb30:	00801604 	movi	r2,88
    fb34:	20bfde1e 	bne	r4,r2,fab0 <_strtol_r+0x190>
    fb38:	84400047 	ldb	r17,1(r16)
    fb3c:	01c00404 	movi	r7,16
    fb40:	84000084 	addi	r16,r16,2
    fb44:	3829883a 	mov	r20,r7
    fb48:	003f9706 	br	f9a8 <_strtol_r+0x88>
    fb4c:	00e00034 	movhi	r3,32768
    fb50:	18ffffc4 	addi	r3,r3,-1
    fb54:	003fef06 	br	fb14 <_strtol_r+0x1f4>
    fb58:	01c00204 	movi	r7,8
    fb5c:	3829883a 	mov	r20,r7
    fb60:	003f9106 	br	f9a8 <_strtol_r+0x88>

0000fb64 <strtol>:
    fb64:	008000b4 	movhi	r2,2
    fb68:	10a91504 	addi	r2,r2,-23468
    fb6c:	2013883a 	mov	r9,r4
    fb70:	11000017 	ldw	r4,0(r2)
    fb74:	2805883a 	mov	r2,r5
    fb78:	300f883a 	mov	r7,r6
    fb7c:	480b883a 	mov	r5,r9
    fb80:	100d883a 	mov	r6,r2
    fb84:	000f9201 	jmpi	f920 <_strtol_r>

0000fb88 <_strtoll_r>:
    fb88:	defff004 	addi	sp,sp,-64
    fb8c:	008000b4 	movhi	r2,2
    fb90:	10a91404 	addi	r2,r2,-23472
    fb94:	df000e15 	stw	fp,56(sp)
    fb98:	17000017 	ldw	fp,0(r2)
    fb9c:	ddc00d15 	stw	r23,52(sp)
    fba0:	dd000a15 	stw	r20,40(sp)
    fba4:	dfc00f15 	stw	ra,60(sp)
    fba8:	dd800c15 	stw	r22,48(sp)
    fbac:	dd400b15 	stw	r21,44(sp)
    fbb0:	dcc00915 	stw	r19,36(sp)
    fbb4:	dc800815 	stw	r18,32(sp)
    fbb8:	dc400715 	stw	r17,28(sp)
    fbbc:	dc000615 	stw	r16,24(sp)
    fbc0:	d9400315 	stw	r5,12(sp)
    fbc4:	d9000215 	stw	r4,8(sp)
    fbc8:	d9800415 	stw	r6,16(sp)
    fbcc:	382f883a 	mov	r23,r7
    fbd0:	2829883a 	mov	r20,r5
    fbd4:	a4c00007 	ldb	r19,0(r20)
    fbd8:	a5000044 	addi	r20,r20,1
    fbdc:	e4c7883a 	add	r3,fp,r19
    fbe0:	18800003 	ldbu	r2,0(r3)
    fbe4:	1080020c 	andi	r2,r2,8
    fbe8:	103ffa1e 	bne	r2,zero,fbd4 <_strtoll_r+0x4c>
    fbec:	00800b44 	movi	r2,45
    fbf0:	98808826 	beq	r19,r2,fe14 <_strtoll_r+0x28c>
    fbf4:	00800ac4 	movi	r2,43
    fbf8:	98808326 	beq	r19,r2,fe08 <_strtoll_r+0x280>
    fbfc:	d8000115 	stw	zero,4(sp)
    fc00:	b807003a 	cmpeq	r3,r23,zero
    fc04:	18005f1e 	bne	r3,zero,fd84 <_strtoll_r+0x1fc>
    fc08:	00800404 	movi	r2,16
    fc0c:	b8805d26 	beq	r23,r2,fd84 <_strtoll_r+0x1fc>
    fc10:	b82dd7fa 	srai	r22,r23,31
    fc14:	b82b883a 	mov	r21,r23
    fc18:	d8c00117 	ldw	r3,4(sp)
    fc1c:	1806c03a 	cmpne	r3,r3,zero
    fc20:	d8c00515 	stw	r3,20(sp)
    fc24:	1800631e 	bne	r3,zero,fdb4 <_strtoll_r+0x22c>
    fc28:	043fffc4 	movi	r16,-1
    fc2c:	04600034 	movhi	r17,32768
    fc30:	8c7fffc4 	addi	r17,r17,-1
    fc34:	880b883a 	mov	r5,r17
    fc38:	8009883a 	mov	r4,r16
    fc3c:	a80d883a 	mov	r6,r21
    fc40:	b00f883a 	mov	r7,r22
    fc44:	0011dac0 	call	11dac <__umoddi3>
    fc48:	880b883a 	mov	r5,r17
    fc4c:	8009883a 	mov	r4,r16
    fc50:	b00f883a 	mov	r7,r22
    fc54:	a80d883a 	mov	r6,r21
    fc58:	d8800015 	stw	r2,0(sp)
    fc5c:	00117d00 	call	117d0 <__udivdi3>
    fc60:	1023883a 	mov	r17,r2
    fc64:	e4c5883a 	add	r2,fp,r19
    fc68:	11000003 	ldbu	r4,0(r2)
    fc6c:	1825883a 	mov	r18,r3
    fc70:	0015883a 	mov	r10,zero
    fc74:	20c0010c 	andi	r3,r4,4
    fc78:	0017883a 	mov	r11,zero
    fc7c:	000f883a 	mov	r7,zero
    fc80:	18001a26 	beq	r3,zero,fcec <_strtoll_r+0x164>
    fc84:	9c3ff404 	addi	r16,r19,-48
    fc88:	85c0200e 	bge	r16,r23,fd0c <_strtoll_r+0x184>
    fc8c:	38003b16 	blt	r7,zero,fd7c <_strtoll_r+0x1f4>
    fc90:	92c03a36 	bltu	r18,r11,fd7c <_strtoll_r+0x1f4>
    fc94:	5c803826 	beq	r11,r18,fd78 <_strtoll_r+0x1f0>
    fc98:	54404c26 	beq	r10,r17,fdcc <_strtoll_r+0x244>
    fc9c:	580b883a 	mov	r5,r11
    fca0:	5009883a 	mov	r4,r10
    fca4:	a80d883a 	mov	r6,r21
    fca8:	b00f883a 	mov	r7,r22
    fcac:	00116940 	call	11694 <__muldi3>
    fcb0:	8013d7fa 	srai	r9,r16,31
    fcb4:	100d883a 	mov	r6,r2
    fcb8:	1405883a 	add	r2,r2,r16
    fcbc:	118d803a 	cmpltu	r6,r2,r6
    fcc0:	1a47883a 	add	r3,r3,r9
    fcc4:	30cd883a 	add	r6,r6,r3
    fcc8:	1015883a 	mov	r10,r2
    fccc:	3017883a 	mov	r11,r6
    fcd0:	01c00044 	movi	r7,1
    fcd4:	a4c00007 	ldb	r19,0(r20)
    fcd8:	a5000044 	addi	r20,r20,1
    fcdc:	e4c5883a 	add	r2,fp,r19
    fce0:	11000003 	ldbu	r4,0(r2)
    fce4:	20c0010c 	andi	r3,r4,4
    fce8:	183fe61e 	bne	r3,zero,fc84 <_strtoll_r+0xfc>
    fcec:	208000cc 	andi	r2,r4,3
    fcf0:	10000626 	beq	r2,zero,fd0c <_strtoll_r+0x184>
    fcf4:	2080004c 	andi	r2,r4,1
    fcf8:	1005003a 	cmpeq	r2,r2,zero
    fcfc:	1000301e 	bne	r2,zero,fdc0 <_strtoll_r+0x238>
    fd00:	02000dc4 	movi	r8,55
    fd04:	9a21c83a 	sub	r16,r19,r8
    fd08:	85ffe016 	blt	r16,r23,fc8c <_strtoll_r+0x104>
    fd0c:	38004616 	blt	r7,zero,fe28 <_strtoll_r+0x2a0>
    fd10:	d8800517 	ldw	r2,20(sp)
    fd14:	1000341e 	bne	r2,zero,fde8 <_strtoll_r+0x260>
    fd18:	500b883a 	mov	r5,r10
    fd1c:	580d883a 	mov	r6,r11
    fd20:	d8c00417 	ldw	r3,16(sp)
    fd24:	18000626 	beq	r3,zero,fd40 <_strtoll_r+0x1b8>
    fd28:	38000226 	beq	r7,zero,fd34 <_strtoll_r+0x1ac>
    fd2c:	a53fffc4 	addi	r20,r20,-1
    fd30:	dd000315 	stw	r20,12(sp)
    fd34:	d8c00317 	ldw	r3,12(sp)
    fd38:	d8800417 	ldw	r2,16(sp)
    fd3c:	10c00015 	stw	r3,0(r2)
    fd40:	2805883a 	mov	r2,r5
    fd44:	3007883a 	mov	r3,r6
    fd48:	dfc00f17 	ldw	ra,60(sp)
    fd4c:	df000e17 	ldw	fp,56(sp)
    fd50:	ddc00d17 	ldw	r23,52(sp)
    fd54:	dd800c17 	ldw	r22,48(sp)
    fd58:	dd400b17 	ldw	r21,44(sp)
    fd5c:	dd000a17 	ldw	r20,40(sp)
    fd60:	dcc00917 	ldw	r19,36(sp)
    fd64:	dc800817 	ldw	r18,32(sp)
    fd68:	dc400717 	ldw	r17,28(sp)
    fd6c:	dc000617 	ldw	r16,24(sp)
    fd70:	dec01004 	addi	sp,sp,64
    fd74:	f800283a 	ret
    fd78:	8abfc72e 	bgeu	r17,r10,fc98 <_strtoll_r+0x110>
    fd7c:	01ffffc4 	movi	r7,-1
    fd80:	003fd406 	br	fcd4 <_strtoll_r+0x14c>
    fd84:	00800c04 	movi	r2,48
    fd88:	98803226 	beq	r19,r2,fe54 <_strtoll_r+0x2cc>
    fd8c:	183fa026 	beq	r3,zero,fc10 <_strtoll_r+0x88>
    fd90:	00800c04 	movi	r2,48
    fd94:	98803e26 	beq	r19,r2,fe90 <_strtoll_r+0x308>
    fd98:	d8c00117 	ldw	r3,4(sp)
    fd9c:	05c00284 	movi	r23,10
    fda0:	b82b883a 	mov	r21,r23
    fda4:	1806c03a 	cmpne	r3,r3,zero
    fda8:	002d883a 	mov	r22,zero
    fdac:	d8c00515 	stw	r3,20(sp)
    fdb0:	183f9d26 	beq	r3,zero,fc28 <_strtoll_r+0xa0>
    fdb4:	0021883a 	mov	r16,zero
    fdb8:	04600034 	movhi	r17,32768
    fdbc:	003f9d06 	br	fc34 <_strtoll_r+0xac>
    fdc0:	020015c4 	movi	r8,87
    fdc4:	9a21c83a 	sub	r16,r19,r8
    fdc8:	003fcf06 	br	fd08 <_strtoll_r+0x180>
    fdcc:	5cbfb31e 	bne	r11,r18,fc9c <_strtoll_r+0x114>
    fdd0:	d8800017 	ldw	r2,0(sp)
    fdd4:	143fb10e 	bge	r2,r16,fc9c <_strtoll_r+0x114>
    fdd8:	8815883a 	mov	r10,r17
    fddc:	9017883a 	mov	r11,r18
    fde0:	01ffffc4 	movi	r7,-1
    fde4:	003fbb06 	br	fcd4 <_strtoll_r+0x14c>
    fde8:	0009883a 	mov	r4,zero
    fdec:	2285c83a 	sub	r2,r4,r10
    fdf0:	2089803a 	cmpltu	r4,r4,r2
    fdf4:	02c7c83a 	sub	r3,zero,r11
    fdf8:	1909c83a 	sub	r4,r3,r4
    fdfc:	100b883a 	mov	r5,r2
    fe00:	200d883a 	mov	r6,r4
    fe04:	003fc606 	br	fd20 <_strtoll_r+0x198>
    fe08:	a4c00007 	ldb	r19,0(r20)
    fe0c:	a5000044 	addi	r20,r20,1
    fe10:	003f7a06 	br	fbfc <_strtoll_r+0x74>
    fe14:	a4c00007 	ldb	r19,0(r20)
    fe18:	00800044 	movi	r2,1
    fe1c:	a5000044 	addi	r20,r20,1
    fe20:	d8800115 	stw	r2,4(sp)
    fe24:	003f7606 	br	fc00 <_strtoll_r+0x78>
    fe28:	d8c00117 	ldw	r3,4(sp)
    fe2c:	1805003a 	cmpeq	r2,r3,zero
    fe30:	1000131e 	bne	r2,zero,fe80 <_strtoll_r+0x2f8>
    fe34:	0005883a 	mov	r2,zero
    fe38:	00e00034 	movhi	r3,32768
    fe3c:	100b883a 	mov	r5,r2
    fe40:	180d883a 	mov	r6,r3
    fe44:	d8c00217 	ldw	r3,8(sp)
    fe48:	00800884 	movi	r2,34
    fe4c:	18800015 	stw	r2,0(r3)
    fe50:	003fb306 	br	fd20 <_strtoll_r+0x198>
    fe54:	a1000007 	ldb	r4,0(r20)
    fe58:	00801e04 	movi	r2,120
    fe5c:	20800226 	beq	r4,r2,fe68 <_strtoll_r+0x2e0>
    fe60:	00801604 	movi	r2,88
    fe64:	20bfc91e 	bne	r4,r2,fd8c <_strtoll_r+0x204>
    fe68:	a4c00047 	ldb	r19,1(r20)
    fe6c:	05c00404 	movi	r23,16
    fe70:	b82b883a 	mov	r21,r23
    fe74:	a5000084 	addi	r20,r20,2
    fe78:	002d883a 	mov	r22,zero
    fe7c:	003f6606 	br	fc18 <_strtoll_r+0x90>
    fe80:	017fffc4 	movi	r5,-1
    fe84:	01a00034 	movhi	r6,32768
    fe88:	31bfffc4 	addi	r6,r6,-1
    fe8c:	003fed06 	br	fe44 <_strtoll_r+0x2bc>
    fe90:	05c00204 	movi	r23,8
    fe94:	b82b883a 	mov	r21,r23
    fe98:	002d883a 	mov	r22,zero
    fe9c:	003f5e06 	br	fc18 <_strtoll_r+0x90>

0000fea0 <_strtoul_r>:
    fea0:	defff604 	addi	sp,sp,-40
    fea4:	008000b4 	movhi	r2,2
    fea8:	10a91404 	addi	r2,r2,-23472
    feac:	dd000415 	stw	r20,16(sp)
    feb0:	15000017 	ldw	r20,0(r2)
    feb4:	ddc00715 	stw	r23,28(sp)
    feb8:	dd800615 	stw	r22,24(sp)
    febc:	dd400515 	stw	r21,20(sp)
    fec0:	dc800215 	stw	r18,8(sp)
    fec4:	dc000015 	stw	r16,0(sp)
    fec8:	dfc00915 	stw	ra,36(sp)
    fecc:	df000815 	stw	fp,32(sp)
    fed0:	dcc00315 	stw	r19,12(sp)
    fed4:	dc400115 	stw	r17,4(sp)
    fed8:	282b883a 	mov	r21,r5
    fedc:	202f883a 	mov	r23,r4
    fee0:	302d883a 	mov	r22,r6
    fee4:	3825883a 	mov	r18,r7
    fee8:	2821883a 	mov	r16,r5
    feec:	84400007 	ldb	r17,0(r16)
    fef0:	84000044 	addi	r16,r16,1
    fef4:	a447883a 	add	r3,r20,r17
    fef8:	18800003 	ldbu	r2,0(r3)
    fefc:	1080020c 	andi	r2,r2,8
    ff00:	103ffa1e 	bne	r2,zero,feec <_strtoul_r+0x4c>
    ff04:	00800b44 	movi	r2,45
    ff08:	88805626 	beq	r17,r2,10064 <_strtoul_r+0x1c4>
    ff0c:	00800ac4 	movi	r2,43
    ff10:	88805126 	beq	r17,r2,10058 <_strtoul_r+0x1b8>
    ff14:	0039883a 	mov	fp,zero
    ff18:	9007003a 	cmpeq	r3,r18,zero
    ff1c:	18003b1e 	bne	r3,zero,1000c <_strtoul_r+0x16c>
    ff20:	00800404 	movi	r2,16
    ff24:	90803926 	beq	r18,r2,1000c <_strtoul_r+0x16c>
    ff28:	013fffc4 	movi	r4,-1
    ff2c:	900b883a 	mov	r5,r18
    ff30:	00051b00 	call	51b0 <__udivsi3>
    ff34:	013fffc4 	movi	r4,-1
    ff38:	900b883a 	mov	r5,r18
    ff3c:	1027883a 	mov	r19,r2
    ff40:	00051b80 	call	51b8 <__umodsi3>
    ff44:	1011883a 	mov	r8,r2
    ff48:	900f883a 	mov	r7,r18
    ff4c:	a445883a 	add	r2,r20,r17
    ff50:	11000003 	ldbu	r4,0(r2)
    ff54:	000b883a 	mov	r5,zero
    ff58:	000d883a 	mov	r6,zero
    ff5c:	20c0010c 	andi	r3,r4,4
    ff60:	18000e26 	beq	r3,zero,ff9c <_strtoul_r+0xfc>
    ff64:	88fff404 	addi	r3,r17,-48
    ff68:	1c80140e 	bge	r3,r18,ffbc <_strtoul_r+0x11c>
    ff6c:	30003316 	blt	r6,zero,1003c <_strtoul_r+0x19c>
    ff70:	99403236 	bltu	r19,r5,1003c <_strtoul_r+0x19c>
    ff74:	2cc03026 	beq	r5,r19,10038 <_strtoul_r+0x198>
    ff78:	29c5383a 	mul	r2,r5,r7
    ff7c:	01800044 	movi	r6,1
    ff80:	10cb883a 	add	r5,r2,r3
    ff84:	84400007 	ldb	r17,0(r16)
    ff88:	84000044 	addi	r16,r16,1
    ff8c:	a445883a 	add	r2,r20,r17
    ff90:	11000003 	ldbu	r4,0(r2)
    ff94:	20c0010c 	andi	r3,r4,4
    ff98:	183ff21e 	bne	r3,zero,ff64 <_strtoul_r+0xc4>
    ff9c:	208000cc 	andi	r2,r4,3
    ffa0:	10000626 	beq	r2,zero,ffbc <_strtoul_r+0x11c>
    ffa4:	2080004c 	andi	r2,r4,1
    ffa8:	1005003a 	cmpeq	r2,r2,zero
    ffac:	1000251e 	bne	r2,zero,10044 <_strtoul_r+0x1a4>
    ffb0:	00800dc4 	movi	r2,55
    ffb4:	8887c83a 	sub	r3,r17,r2
    ffb8:	1cbfec16 	blt	r3,r18,ff6c <_strtoul_r+0xcc>
    ffbc:	3000400e 	bge	r6,zero,100c0 <_strtoul_r+0x220>
    ffc0:	00800884 	movi	r2,34
    ffc4:	017fffc4 	movi	r5,-1
    ffc8:	b8800015 	stw	r2,0(r23)
    ffcc:	b0000226 	beq	r22,zero,ffd8 <_strtoul_r+0x138>
    ffd0:	30001f1e 	bne	r6,zero,10050 <_strtoul_r+0x1b0>
    ffd4:	b5400015 	stw	r21,0(r22)
    ffd8:	2805883a 	mov	r2,r5
    ffdc:	dfc00917 	ldw	ra,36(sp)
    ffe0:	df000817 	ldw	fp,32(sp)
    ffe4:	ddc00717 	ldw	r23,28(sp)
    ffe8:	dd800617 	ldw	r22,24(sp)
    ffec:	dd400517 	ldw	r21,20(sp)
    fff0:	dd000417 	ldw	r20,16(sp)
    fff4:	dcc00317 	ldw	r19,12(sp)
    fff8:	dc800217 	ldw	r18,8(sp)
    fffc:	dc400117 	ldw	r17,4(sp)
   10000:	dc000017 	ldw	r16,0(sp)
   10004:	dec00a04 	addi	sp,sp,40
   10008:	f800283a 	ret
   1000c:	00800c04 	movi	r2,48
   10010:	88801826 	beq	r17,r2,10074 <_strtoul_r+0x1d4>
   10014:	183fc426 	beq	r3,zero,ff28 <_strtoul_r+0x88>
   10018:	00800c04 	movi	r2,48
   1001c:	88802226 	beq	r17,r2,100a8 <_strtoul_r+0x208>
   10020:	04800284 	movi	r18,10
   10024:	900f883a 	mov	r7,r18
   10028:	04c666b4 	movhi	r19,6554
   1002c:	9ce66644 	addi	r19,r19,-26215
   10030:	02000144 	movi	r8,5
   10034:	003fc506 	br	ff4c <_strtoul_r+0xac>
   10038:	40ffcf0e 	bge	r8,r3,ff78 <_strtoul_r+0xd8>
   1003c:	01bfffc4 	movi	r6,-1
   10040:	003fd006 	br	ff84 <_strtoul_r+0xe4>
   10044:	008015c4 	movi	r2,87
   10048:	8887c83a 	sub	r3,r17,r2
   1004c:	003fda06 	br	ffb8 <_strtoul_r+0x118>
   10050:	857fffc4 	addi	r21,r16,-1
   10054:	003fdf06 	br	ffd4 <_strtoul_r+0x134>
   10058:	84400007 	ldb	r17,0(r16)
   1005c:	84000044 	addi	r16,r16,1
   10060:	003fac06 	br	ff14 <_strtoul_r+0x74>
   10064:	84400007 	ldb	r17,0(r16)
   10068:	07000044 	movi	fp,1
   1006c:	84000044 	addi	r16,r16,1
   10070:	003fa906 	br	ff18 <_strtoul_r+0x78>
   10074:	81000007 	ldb	r4,0(r16)
   10078:	00801e04 	movi	r2,120
   1007c:	20800226 	beq	r4,r2,10088 <_strtoul_r+0x1e8>
   10080:	00801604 	movi	r2,88
   10084:	20bfe31e 	bne	r4,r2,10014 <_strtoul_r+0x174>
   10088:	84400047 	ldb	r17,1(r16)
   1008c:	04800404 	movi	r18,16
   10090:	84000084 	addi	r16,r16,2
   10094:	900f883a 	mov	r7,r18
   10098:	04c40034 	movhi	r19,4096
   1009c:	9cffffc4 	addi	r19,r19,-1
   100a0:	020003c4 	movi	r8,15
   100a4:	003fa906 	br	ff4c <_strtoul_r+0xac>
   100a8:	04800204 	movi	r18,8
   100ac:	900f883a 	mov	r7,r18
   100b0:	04c80034 	movhi	r19,8192
   100b4:	9cffffc4 	addi	r19,r19,-1
   100b8:	020001c4 	movi	r8,7
   100bc:	003fa306 	br	ff4c <_strtoul_r+0xac>
   100c0:	e005003a 	cmpeq	r2,fp,zero
   100c4:	103fc11e 	bne	r2,zero,ffcc <_strtoul_r+0x12c>
   100c8:	014bc83a 	sub	r5,zero,r5
   100cc:	003fbf06 	br	ffcc <_strtoul_r+0x12c>

000100d0 <strtoul>:
   100d0:	008000b4 	movhi	r2,2
   100d4:	10a91504 	addi	r2,r2,-23468
   100d8:	2013883a 	mov	r9,r4
   100dc:	11000017 	ldw	r4,0(r2)
   100e0:	2805883a 	mov	r2,r5
   100e4:	300f883a 	mov	r7,r6
   100e8:	480b883a 	mov	r5,r9
   100ec:	100d883a 	mov	r6,r2
   100f0:	000fea01 	jmpi	fea0 <_strtoul_r>

000100f4 <_strtoull_r>:
   100f4:	defff104 	addi	sp,sp,-60
   100f8:	008000b4 	movhi	r2,2
   100fc:	10a91404 	addi	r2,r2,-23472
   10100:	df000d15 	stw	fp,52(sp)
   10104:	17000017 	ldw	fp,0(r2)
   10108:	ddc00c15 	stw	r23,48(sp)
   1010c:	dcc00815 	stw	r19,32(sp)
   10110:	dfc00e15 	stw	ra,56(sp)
   10114:	dd800b15 	stw	r22,44(sp)
   10118:	dd400a15 	stw	r21,40(sp)
   1011c:	dd000915 	stw	r20,36(sp)
   10120:	dc800715 	stw	r18,28(sp)
   10124:	dc400615 	stw	r17,24(sp)
   10128:	dc000515 	stw	r16,20(sp)
   1012c:	d9400215 	stw	r5,8(sp)
   10130:	d9000115 	stw	r4,4(sp)
   10134:	d9800315 	stw	r6,12(sp)
   10138:	382f883a 	mov	r23,r7
   1013c:	2827883a 	mov	r19,r5
   10140:	9d000007 	ldb	r20,0(r19)
   10144:	9cc00044 	addi	r19,r19,1
   10148:	e507883a 	add	r3,fp,r20
   1014c:	18800003 	ldbu	r2,0(r3)
   10150:	1080020c 	andi	r2,r2,8
   10154:	103ffa1e 	bne	r2,zero,10140 <_strtoull_r+0x4c>
   10158:	00800b44 	movi	r2,45
   1015c:	a0807a26 	beq	r20,r2,10348 <_strtoull_r+0x254>
   10160:	00800ac4 	movi	r2,43
   10164:	a0807526 	beq	r20,r2,1033c <_strtoull_r+0x248>
   10168:	d8000015 	stw	zero,0(sp)
   1016c:	b807003a 	cmpeq	r3,r23,zero
   10170:	18005a1e 	bne	r3,zero,102dc <_strtoull_r+0x1e8>
   10174:	00800404 	movi	r2,16
   10178:	b8805826 	beq	r23,r2,102dc <_strtoull_r+0x1e8>
   1017c:	b82dd7fa 	srai	r22,r23,31
   10180:	043fffc4 	movi	r16,-1
   10184:	8009883a 	mov	r4,r16
   10188:	800b883a 	mov	r5,r16
   1018c:	b80d883a 	mov	r6,r23
   10190:	b00f883a 	mov	r7,r22
   10194:	00117d00 	call	117d0 <__udivdi3>
   10198:	8009883a 	mov	r4,r16
   1019c:	800b883a 	mov	r5,r16
   101a0:	b80d883a 	mov	r6,r23
   101a4:	b00f883a 	mov	r7,r22
   101a8:	1023883a 	mov	r17,r2
   101ac:	1825883a 	mov	r18,r3
   101b0:	0011dac0 	call	11dac <__umoddi3>
   101b4:	b82b883a 	mov	r21,r23
   101b8:	1019883a 	mov	r12,r2
   101bc:	e505883a 	add	r2,fp,r20
   101c0:	11000003 	ldbu	r4,0(r2)
   101c4:	0015883a 	mov	r10,zero
   101c8:	0017883a 	mov	r11,zero
   101cc:	20c0010c 	andi	r3,r4,4
   101d0:	000d883a 	mov	r6,zero
   101d4:	18001c26 	beq	r3,zero,10248 <_strtoull_r+0x154>
   101d8:	a43ff404 	addi	r16,r20,-48
   101dc:	85c0220e 	bge	r16,r23,10268 <_strtoull_r+0x174>
   101e0:	30003c16 	blt	r6,zero,102d4 <_strtoull_r+0x1e0>
   101e4:	92c03b36 	bltu	r18,r11,102d4 <_strtoull_r+0x1e0>
   101e8:	5c803926 	beq	r11,r18,102d0 <_strtoull_r+0x1dc>
   101ec:	54404c26 	beq	r10,r17,10320 <_strtoull_r+0x22c>
   101f0:	580b883a 	mov	r5,r11
   101f4:	5009883a 	mov	r4,r10
   101f8:	a80d883a 	mov	r6,r21
   101fc:	b00f883a 	mov	r7,r22
   10200:	db000415 	stw	r12,16(sp)
   10204:	00116940 	call	11694 <__muldi3>
   10208:	8013d7fa 	srai	r9,r16,31
   1020c:	100d883a 	mov	r6,r2
   10210:	1405883a 	add	r2,r2,r16
   10214:	118d803a 	cmpltu	r6,r2,r6
   10218:	1a47883a 	add	r3,r3,r9
   1021c:	db000417 	ldw	r12,16(sp)
   10220:	30cd883a 	add	r6,r6,r3
   10224:	3017883a 	mov	r11,r6
   10228:	1015883a 	mov	r10,r2
   1022c:	01800044 	movi	r6,1
   10230:	9d000007 	ldb	r20,0(r19)
   10234:	9cc00044 	addi	r19,r19,1
   10238:	e505883a 	add	r2,fp,r20
   1023c:	11000003 	ldbu	r4,0(r2)
   10240:	20c0010c 	andi	r3,r4,4
   10244:	183fe41e 	bne	r3,zero,101d8 <_strtoull_r+0xe4>
   10248:	208000cc 	andi	r2,r4,3
   1024c:	10000626 	beq	r2,zero,10268 <_strtoull_r+0x174>
   10250:	2080004c 	andi	r2,r4,1
   10254:	1005003a 	cmpeq	r2,r2,zero
   10258:	10002e1e 	bne	r2,zero,10314 <_strtoull_r+0x220>
   1025c:	02000dc4 	movi	r8,55
   10260:	a221c83a 	sub	r16,r20,r8
   10264:	85ffde16 	blt	r16,r23,101e0 <_strtoull_r+0xec>
   10268:	3000530e 	bge	r6,zero,103b8 <_strtoull_r+0x2c4>
   1026c:	d8c00117 	ldw	r3,4(sp)
   10270:	02bfffc4 	movi	r10,-1
   10274:	00800884 	movi	r2,34
   10278:	5017883a 	mov	r11,r10
   1027c:	18800015 	stw	r2,0(r3)
   10280:	d8800317 	ldw	r2,12(sp)
   10284:	10000426 	beq	r2,zero,10298 <_strtoull_r+0x1a4>
   10288:	3000291e 	bne	r6,zero,10330 <_strtoull_r+0x23c>
   1028c:	d8800217 	ldw	r2,8(sp)
   10290:	d8c00317 	ldw	r3,12(sp)
   10294:	18800015 	stw	r2,0(r3)
   10298:	5005883a 	mov	r2,r10
   1029c:	5807883a 	mov	r3,r11
   102a0:	dfc00e17 	ldw	ra,56(sp)
   102a4:	df000d17 	ldw	fp,52(sp)
   102a8:	ddc00c17 	ldw	r23,48(sp)
   102ac:	dd800b17 	ldw	r22,44(sp)
   102b0:	dd400a17 	ldw	r21,40(sp)
   102b4:	dd000917 	ldw	r20,36(sp)
   102b8:	dcc00817 	ldw	r19,32(sp)
   102bc:	dc800717 	ldw	r18,28(sp)
   102c0:	dc400617 	ldw	r17,24(sp)
   102c4:	dc000517 	ldw	r16,20(sp)
   102c8:	dec00f04 	addi	sp,sp,60
   102cc:	f800283a 	ret
   102d0:	8abfc62e 	bgeu	r17,r10,101ec <_strtoull_r+0xf8>
   102d4:	01bfffc4 	movi	r6,-1
   102d8:	003fd506 	br	10230 <_strtoull_r+0x13c>
   102dc:	00800c04 	movi	r2,48
   102e0:	a0801e26 	beq	r20,r2,1035c <_strtoull_r+0x268>
   102e4:	183fa526 	beq	r3,zero,1017c <_strtoull_r+0x88>
   102e8:	00800c04 	movi	r2,48
   102ec:	a0802a26 	beq	r20,r2,10398 <_strtoull_r+0x2a4>
   102f0:	05c00284 	movi	r23,10
   102f4:	b82b883a 	mov	r21,r23
   102f8:	046666b4 	movhi	r17,39322
   102fc:	8c666644 	addi	r17,r17,-26215
   10300:	002d883a 	mov	r22,zero
   10304:	048666b4 	movhi	r18,6554
   10308:	94a66644 	addi	r18,r18,-26215
   1030c:	03000144 	movi	r12,5
   10310:	003faa06 	br	101bc <_strtoull_r+0xc8>
   10314:	020015c4 	movi	r8,87
   10318:	a221c83a 	sub	r16,r20,r8
   1031c:	003fd106 	br	10264 <_strtoull_r+0x170>
   10320:	5cbfb31e 	bne	r11,r18,101f0 <_strtoull_r+0xfc>
   10324:	643fb20e 	bge	r12,r16,101f0 <_strtoull_r+0xfc>
   10328:	01bfffc4 	movi	r6,-1
   1032c:	003fc006 	br	10230 <_strtoull_r+0x13c>
   10330:	9cffffc4 	addi	r19,r19,-1
   10334:	dcc00215 	stw	r19,8(sp)
   10338:	003fd406 	br	1028c <_strtoull_r+0x198>
   1033c:	9d000007 	ldb	r20,0(r19)
   10340:	9cc00044 	addi	r19,r19,1
   10344:	003f8806 	br	10168 <_strtoull_r+0x74>
   10348:	9d000007 	ldb	r20,0(r19)
   1034c:	00800044 	movi	r2,1
   10350:	9cc00044 	addi	r19,r19,1
   10354:	d8800015 	stw	r2,0(sp)
   10358:	003f8406 	br	1016c <_strtoull_r+0x78>
   1035c:	99000007 	ldb	r4,0(r19)
   10360:	00801e04 	movi	r2,120
   10364:	20800226 	beq	r4,r2,10370 <_strtoull_r+0x27c>
   10368:	00801604 	movi	r2,88
   1036c:	20bfdd1e 	bne	r4,r2,102e4 <_strtoull_r+0x1f0>
   10370:	9d000047 	ldb	r20,1(r19)
   10374:	05c00404 	movi	r23,16
   10378:	b82b883a 	mov	r21,r23
   1037c:	047fffc4 	movi	r17,-1
   10380:	9cc00084 	addi	r19,r19,2
   10384:	002d883a 	mov	r22,zero
   10388:	04840034 	movhi	r18,4096
   1038c:	94bfffc4 	addi	r18,r18,-1
   10390:	030003c4 	movi	r12,15
   10394:	003f8906 	br	101bc <_strtoull_r+0xc8>
   10398:	05c00204 	movi	r23,8
   1039c:	b82b883a 	mov	r21,r23
   103a0:	047fffc4 	movi	r17,-1
   103a4:	002d883a 	mov	r22,zero
   103a8:	04880034 	movhi	r18,8192
   103ac:	94bfffc4 	addi	r18,r18,-1
   103b0:	030001c4 	movi	r12,7
   103b4:	003f8106 	br	101bc <_strtoull_r+0xc8>
   103b8:	d8c00017 	ldw	r3,0(sp)
   103bc:	1805003a 	cmpeq	r2,r3,zero
   103c0:	103faf1e 	bne	r2,zero,10280 <_strtoull_r+0x18c>
   103c4:	0009883a 	mov	r4,zero
   103c8:	2285c83a 	sub	r2,r4,r10
   103cc:	02c7c83a 	sub	r3,zero,r11
   103d0:	2089803a 	cmpltu	r4,r4,r2
   103d4:	1909c83a 	sub	r4,r3,r4
   103d8:	1015883a 	mov	r10,r2
   103dc:	2017883a 	mov	r11,r4
   103e0:	003fa706 	br	10280 <_strtoull_r+0x18c>

000103e4 <__submore>:
   103e4:	defffa04 	addi	sp,sp,-24
   103e8:	28c00c17 	ldw	r3,48(r5)
   103ec:	dc800215 	stw	r18,8(sp)
   103f0:	2825883a 	mov	r18,r5
   103f4:	dc000015 	stw	r16,0(sp)
   103f8:	90801004 	addi	r2,r18,64
   103fc:	04010004 	movi	r16,1024
   10400:	dfc00515 	stw	ra,20(sp)
   10404:	dd000415 	stw	r20,16(sp)
   10408:	dcc00315 	stw	r19,12(sp)
   1040c:	dc400115 	stw	r17,4(sp)
   10410:	800b883a 	mov	r5,r16
   10414:	18801b26 	beq	r3,r2,10484 <__submore+0xa0>
   10418:	94400d17 	ldw	r17,52(r18)
   1041c:	180b883a 	mov	r5,r3
   10420:	8c69883a 	add	r20,r17,r17
   10424:	a00d883a 	mov	r6,r20
   10428:	000d65c0 	call	d65c <_realloc_r>
   1042c:	1467883a 	add	r19,r2,r17
   10430:	1021883a 	mov	r16,r2
   10434:	880d883a 	mov	r6,r17
   10438:	9809883a 	mov	r4,r19
   1043c:	100b883a 	mov	r5,r2
   10440:	10000e26 	beq	r2,zero,1047c <__submore+0x98>
   10444:	000c4500 	call	c450 <memcpy>
   10448:	000d883a 	mov	r6,zero
   1044c:	95000d15 	stw	r20,52(r18)
   10450:	94c00015 	stw	r19,0(r18)
   10454:	94000c15 	stw	r16,48(r18)
   10458:	3005883a 	mov	r2,r6
   1045c:	dfc00517 	ldw	ra,20(sp)
   10460:	dd000417 	ldw	r20,16(sp)
   10464:	dcc00317 	ldw	r19,12(sp)
   10468:	dc800217 	ldw	r18,8(sp)
   1046c:	dc400117 	ldw	r17,4(sp)
   10470:	dc000017 	ldw	r16,0(sp)
   10474:	dec00604 	addi	sp,sp,24
   10478:	f800283a 	ret
   1047c:	01bfffc4 	movi	r6,-1
   10480:	003ff506 	br	10458 <__submore+0x74>
   10484:	000bb2c0 	call	bb2c <_malloc_r>
   10488:	1009883a 	mov	r4,r2
   1048c:	1140ff44 	addi	r5,r2,1021
   10490:	000d883a 	mov	r6,zero
   10494:	103ff926 	beq	r2,zero,1047c <__submore+0x98>
   10498:	90801083 	ldbu	r2,66(r18)
   1049c:	94000d15 	stw	r16,52(r18)
   104a0:	91000c15 	stw	r4,48(r18)
   104a4:	28800085 	stb	r2,2(r5)
   104a8:	90c01043 	ldbu	r3,65(r18)
   104ac:	28c00045 	stb	r3,1(r5)
   104b0:	90801003 	ldbu	r2,64(r18)
   104b4:	2080ff45 	stb	r2,1021(r4)
   104b8:	91400015 	stw	r5,0(r18)
   104bc:	003fe606 	br	10458 <__submore+0x74>

000104c0 <_ungetc_r>:
   104c0:	defffc04 	addi	sp,sp,-16
   104c4:	00bfffc4 	movi	r2,-1
   104c8:	dc400215 	stw	r17,8(sp)
   104cc:	dc000115 	stw	r16,4(sp)
   104d0:	dfc00315 	stw	ra,12(sp)
   104d4:	2821883a 	mov	r16,r5
   104d8:	2023883a 	mov	r17,r4
   104dc:	28801826 	beq	r5,r2,10540 <_ungetc_r+0x80>
   104e0:	20000226 	beq	r4,zero,104ec <_ungetc_r+0x2c>
   104e4:	20800e17 	ldw	r2,56(r4)
   104e8:	10001b26 	beq	r2,zero,10558 <_ungetc_r+0x98>
   104ec:	3100030b 	ldhu	r4,12(r6)
   104f0:	00bff7c4 	movi	r2,-33
   104f4:	2084703a 	and	r2,r4,r2
   104f8:	117fffcc 	andi	r5,r2,65535
   104fc:	28c0010c 	andi	r3,r5,4
   10500:	1009883a 	mov	r4,r2
   10504:	3080030d 	sth	r2,12(r6)
   10508:	18003526 	beq	r3,zero,105e0 <_ungetc_r+0x120>
   1050c:	30800c17 	ldw	r2,48(r6)
   10510:	84003fcc 	andi	r16,r16,255
   10514:	10001426 	beq	r2,zero,10568 <_ungetc_r+0xa8>
   10518:	30c00117 	ldw	r3,4(r6)
   1051c:	30800d17 	ldw	r2,52(r6)
   10520:	1880380e 	bge	r3,r2,10604 <_ungetc_r+0x144>
   10524:	30c00017 	ldw	r3,0(r6)
   10528:	19ffffc4 	addi	r7,r3,-1
   1052c:	31c00015 	stw	r7,0(r6)
   10530:	1c3fffc5 	stb	r16,-1(r3)
   10534:	30800117 	ldw	r2,4(r6)
   10538:	10800044 	addi	r2,r2,1
   1053c:	30800115 	stw	r2,4(r6)
   10540:	8005883a 	mov	r2,r16
   10544:	dfc00317 	ldw	ra,12(sp)
   10548:	dc400217 	ldw	r17,8(sp)
   1054c:	dc000117 	ldw	r16,4(sp)
   10550:	dec00404 	addi	sp,sp,16
   10554:	f800283a 	ret
   10558:	d9800015 	stw	r6,0(sp)
   1055c:	000a9b80 	call	a9b8 <__sinit>
   10560:	d9800017 	ldw	r6,0(sp)
   10564:	003fe106 	br	104ec <_ungetc_r+0x2c>
   10568:	30800417 	ldw	r2,16(r6)
   1056c:	10002326 	beq	r2,zero,105fc <_ungetc_r+0x13c>
   10570:	31c00017 	ldw	r7,0(r6)
   10574:	11c0022e 	bgeu	r2,r7,10580 <_ungetc_r+0xc0>
   10578:	38bfffc3 	ldbu	r2,-1(r7)
   1057c:	80801226 	beq	r16,r2,105c8 <_ungetc_r+0x108>
   10580:	30c00117 	ldw	r3,4(r6)
   10584:	00800044 	movi	r2,1
   10588:	30800115 	stw	r2,4(r6)
   1058c:	008000c4 	movi	r2,3
   10590:	31001004 	addi	r4,r6,64
   10594:	31401084 	addi	r5,r6,66
   10598:	30800d15 	stw	r2,52(r6)
   1059c:	8005883a 	mov	r2,r16
   105a0:	30c00f15 	stw	r3,60(r6)
   105a4:	31c00e15 	stw	r7,56(r6)
   105a8:	31000c15 	stw	r4,48(r6)
   105ac:	31400015 	stw	r5,0(r6)
   105b0:	34001085 	stb	r16,66(r6)
   105b4:	dfc00317 	ldw	ra,12(sp)
   105b8:	dc400217 	ldw	r17,8(sp)
   105bc:	dc000117 	ldw	r16,4(sp)
   105c0:	dec00404 	addi	sp,sp,16
   105c4:	f800283a 	ret
   105c8:	30800117 	ldw	r2,4(r6)
   105cc:	39ffffc4 	addi	r7,r7,-1
   105d0:	31c00015 	stw	r7,0(r6)
   105d4:	10800044 	addi	r2,r2,1
   105d8:	30800115 	stw	r2,4(r6)
   105dc:	003fd806 	br	10540 <_ungetc_r+0x80>
   105e0:	2880040c 	andi	r2,r5,16
   105e4:	10000d26 	beq	r2,zero,1061c <_ungetc_r+0x15c>
   105e8:	2880020c 	andi	r2,r5,8
   105ec:	10000d1e 	bne	r2,zero,10624 <_ungetc_r+0x164>
   105f0:	20800114 	ori	r2,r4,4
   105f4:	3080030d 	sth	r2,12(r6)
   105f8:	003fc406 	br	1050c <_ungetc_r+0x4c>
   105fc:	31c00017 	ldw	r7,0(r6)
   10600:	003fdf06 	br	10580 <_ungetc_r+0xc0>
   10604:	300b883a 	mov	r5,r6
   10608:	8809883a 	mov	r4,r17
   1060c:	d9800015 	stw	r6,0(sp)
   10610:	00103e40 	call	103e4 <__submore>
   10614:	d9800017 	ldw	r6,0(sp)
   10618:	103fc226 	beq	r2,zero,10524 <_ungetc_r+0x64>
   1061c:	043fffc4 	movi	r16,-1
   10620:	003fc706 	br	10540 <_ungetc_r+0x80>
   10624:	300b883a 	mov	r5,r6
   10628:	8809883a 	mov	r4,r17
   1062c:	d9800015 	stw	r6,0(sp)
   10630:	000a7200 	call	a720 <_fflush_r>
   10634:	d9800017 	ldw	r6,0(sp)
   10638:	103ff81e 	bne	r2,zero,1061c <_ungetc_r+0x15c>
   1063c:	3100030b 	ldhu	r4,12(r6)
   10640:	00bffdc4 	movi	r2,-9
   10644:	30000215 	stw	zero,8(r6)
   10648:	2084703a 	and	r2,r4,r2
   1064c:	1009883a 	mov	r4,r2
   10650:	3080030d 	sth	r2,12(r6)
   10654:	30000615 	stw	zero,24(r6)
   10658:	003fe506 	br	105f0 <_ungetc_r+0x130>

0001065c <ungetc>:
   1065c:	018000b4 	movhi	r6,2
   10660:	31a91504 	addi	r6,r6,-23468
   10664:	2007883a 	mov	r3,r4
   10668:	31000017 	ldw	r4,0(r6)
   1066c:	280d883a 	mov	r6,r5
   10670:	180b883a 	mov	r5,r3
   10674:	00104c01 	jmpi	104c0 <_ungetc_r>

00010678 <_write_r>:
   10678:	defffd04 	addi	sp,sp,-12
   1067c:	dc000015 	stw	r16,0(sp)
   10680:	040000b4 	movhi	r16,2
   10684:	84302004 	addi	r16,r16,-16256
   10688:	dc400115 	stw	r17,4(sp)
   1068c:	80000015 	stw	zero,0(r16)
   10690:	2023883a 	mov	r17,r4
   10694:	2809883a 	mov	r4,r5
   10698:	300b883a 	mov	r5,r6
   1069c:	380d883a 	mov	r6,r7
   106a0:	dfc00215 	stw	ra,8(sp)
   106a4:	00148400 	call	14840 <write>
   106a8:	1007883a 	mov	r3,r2
   106ac:	00bfffc4 	movi	r2,-1
   106b0:	18800626 	beq	r3,r2,106cc <_write_r+0x54>
   106b4:	1805883a 	mov	r2,r3
   106b8:	dfc00217 	ldw	ra,8(sp)
   106bc:	dc400117 	ldw	r17,4(sp)
   106c0:	dc000017 	ldw	r16,0(sp)
   106c4:	dec00304 	addi	sp,sp,12
   106c8:	f800283a 	ret
   106cc:	80800017 	ldw	r2,0(r16)
   106d0:	103ff826 	beq	r2,zero,106b4 <_write_r+0x3c>
   106d4:	88800015 	stw	r2,0(r17)
   106d8:	1805883a 	mov	r2,r3
   106dc:	dfc00217 	ldw	ra,8(sp)
   106e0:	dc400117 	ldw	r17,4(sp)
   106e4:	dc000017 	ldw	r16,0(sp)
   106e8:	dec00304 	addi	sp,sp,12
   106ec:	f800283a 	ret

000106f0 <_calloc_r>:
   106f0:	298b383a 	mul	r5,r5,r6
   106f4:	defffe04 	addi	sp,sp,-8
   106f8:	dc000015 	stw	r16,0(sp)
   106fc:	dfc00115 	stw	ra,4(sp)
   10700:	000bb2c0 	call	bb2c <_malloc_r>
   10704:	1021883a 	mov	r16,r2
   10708:	01c00904 	movi	r7,36
   1070c:	10000d26 	beq	r2,zero,10744 <_calloc_r+0x54>
   10710:	10ffff17 	ldw	r3,-4(r2)
   10714:	1009883a 	mov	r4,r2
   10718:	00bfff04 	movi	r2,-4
   1071c:	1886703a 	and	r3,r3,r2
   10720:	1887883a 	add	r3,r3,r2
   10724:	180d883a 	mov	r6,r3
   10728:	000b883a 	mov	r5,zero
   1072c:	38c01736 	bltu	r7,r3,1078c <_calloc_r+0x9c>
   10730:	008004c4 	movi	r2,19
   10734:	10c00836 	bltu	r2,r3,10758 <_calloc_r+0x68>
   10738:	20000215 	stw	zero,8(r4)
   1073c:	20000015 	stw	zero,0(r4)
   10740:	20000115 	stw	zero,4(r4)
   10744:	8005883a 	mov	r2,r16
   10748:	dfc00117 	ldw	ra,4(sp)
   1074c:	dc000017 	ldw	r16,0(sp)
   10750:	dec00204 	addi	sp,sp,8
   10754:	f800283a 	ret
   10758:	008006c4 	movi	r2,27
   1075c:	80000015 	stw	zero,0(r16)
   10760:	80000115 	stw	zero,4(r16)
   10764:	81000204 	addi	r4,r16,8
   10768:	10fff32e 	bgeu	r2,r3,10738 <_calloc_r+0x48>
   1076c:	80000215 	stw	zero,8(r16)
   10770:	80000315 	stw	zero,12(r16)
   10774:	81000404 	addi	r4,r16,16
   10778:	19ffef1e 	bne	r3,r7,10738 <_calloc_r+0x48>
   1077c:	81000604 	addi	r4,r16,24
   10780:	80000415 	stw	zero,16(r16)
   10784:	80000515 	stw	zero,20(r16)
   10788:	003feb06 	br	10738 <_calloc_r+0x48>
   1078c:	000c5d00 	call	c5d0 <memset>
   10790:	8005883a 	mov	r2,r16
   10794:	dfc00117 	ldw	ra,4(sp)
   10798:	dc000017 	ldw	r16,0(sp)
   1079c:	dec00204 	addi	sp,sp,8
   107a0:	f800283a 	ret

000107a4 <_close_r>:
   107a4:	defffd04 	addi	sp,sp,-12
   107a8:	dc000015 	stw	r16,0(sp)
   107ac:	040000b4 	movhi	r16,2
   107b0:	84302004 	addi	r16,r16,-16256
   107b4:	dc400115 	stw	r17,4(sp)
   107b8:	80000015 	stw	zero,0(r16)
   107bc:	2023883a 	mov	r17,r4
   107c0:	2809883a 	mov	r4,r5
   107c4:	dfc00215 	stw	ra,8(sp)
   107c8:	0013af00 	call	13af0 <close>
   107cc:	1007883a 	mov	r3,r2
   107d0:	00bfffc4 	movi	r2,-1
   107d4:	18800626 	beq	r3,r2,107f0 <_close_r+0x4c>
   107d8:	1805883a 	mov	r2,r3
   107dc:	dfc00217 	ldw	ra,8(sp)
   107e0:	dc400117 	ldw	r17,4(sp)
   107e4:	dc000017 	ldw	r16,0(sp)
   107e8:	dec00304 	addi	sp,sp,12
   107ec:	f800283a 	ret
   107f0:	80800017 	ldw	r2,0(r16)
   107f4:	103ff826 	beq	r2,zero,107d8 <_close_r+0x34>
   107f8:	88800015 	stw	r2,0(r17)
   107fc:	1805883a 	mov	r2,r3
   10800:	dfc00217 	ldw	ra,8(sp)
   10804:	dc400117 	ldw	r17,4(sp)
   10808:	dc000017 	ldw	r16,0(sp)
   1080c:	dec00304 	addi	sp,sp,12
   10810:	f800283a 	ret

00010814 <_fclose_r>:
   10814:	defffc04 	addi	sp,sp,-16
   10818:	dc400115 	stw	r17,4(sp)
   1081c:	dc000015 	stw	r16,0(sp)
   10820:	dfc00315 	stw	ra,12(sp)
   10824:	dc800215 	stw	r18,8(sp)
   10828:	2821883a 	mov	r16,r5
   1082c:	2023883a 	mov	r17,r4
   10830:	28002926 	beq	r5,zero,108d8 <_fclose_r+0xc4>
   10834:	000a9a80 	call	a9a8 <__sfp_lock_acquire>
   10838:	88000226 	beq	r17,zero,10844 <_fclose_r+0x30>
   1083c:	88800e17 	ldw	r2,56(r17)
   10840:	10002d26 	beq	r2,zero,108f8 <_fclose_r+0xe4>
   10844:	8080030f 	ldh	r2,12(r16)
   10848:	10002226 	beq	r2,zero,108d4 <_fclose_r+0xc0>
   1084c:	8809883a 	mov	r4,r17
   10850:	800b883a 	mov	r5,r16
   10854:	000a7200 	call	a720 <_fflush_r>
   10858:	1025883a 	mov	r18,r2
   1085c:	80800b17 	ldw	r2,44(r16)
   10860:	10000426 	beq	r2,zero,10874 <_fclose_r+0x60>
   10864:	81400717 	ldw	r5,28(r16)
   10868:	8809883a 	mov	r4,r17
   1086c:	103ee83a 	callr	r2
   10870:	10002a16 	blt	r2,zero,1091c <_fclose_r+0x108>
   10874:	8080030b 	ldhu	r2,12(r16)
   10878:	1080200c 	andi	r2,r2,128
   1087c:	1000231e 	bne	r2,zero,1090c <_fclose_r+0xf8>
   10880:	81400c17 	ldw	r5,48(r16)
   10884:	28000526 	beq	r5,zero,1089c <_fclose_r+0x88>
   10888:	80801004 	addi	r2,r16,64
   1088c:	28800226 	beq	r5,r2,10898 <_fclose_r+0x84>
   10890:	8809883a 	mov	r4,r17
   10894:	000af780 	call	af78 <_free_r>
   10898:	80000c15 	stw	zero,48(r16)
   1089c:	81401117 	ldw	r5,68(r16)
   108a0:	28000326 	beq	r5,zero,108b0 <_fclose_r+0x9c>
   108a4:	8809883a 	mov	r4,r17
   108a8:	000af780 	call	af78 <_free_r>
   108ac:	80001115 	stw	zero,68(r16)
   108b0:	8000030d 	sth	zero,12(r16)
   108b4:	000a9ac0 	call	a9ac <__sfp_lock_release>
   108b8:	9005883a 	mov	r2,r18
   108bc:	dfc00317 	ldw	ra,12(sp)
   108c0:	dc800217 	ldw	r18,8(sp)
   108c4:	dc400117 	ldw	r17,4(sp)
   108c8:	dc000017 	ldw	r16,0(sp)
   108cc:	dec00404 	addi	sp,sp,16
   108d0:	f800283a 	ret
   108d4:	000a9ac0 	call	a9ac <__sfp_lock_release>
   108d8:	0025883a 	mov	r18,zero
   108dc:	9005883a 	mov	r2,r18
   108e0:	dfc00317 	ldw	ra,12(sp)
   108e4:	dc800217 	ldw	r18,8(sp)
   108e8:	dc400117 	ldw	r17,4(sp)
   108ec:	dc000017 	ldw	r16,0(sp)
   108f0:	dec00404 	addi	sp,sp,16
   108f4:	f800283a 	ret
   108f8:	8809883a 	mov	r4,r17
   108fc:	000a9b80 	call	a9b8 <__sinit>
   10900:	8080030f 	ldh	r2,12(r16)
   10904:	103fd11e 	bne	r2,zero,1084c <_fclose_r+0x38>
   10908:	003ff206 	br	108d4 <_fclose_r+0xc0>
   1090c:	81400417 	ldw	r5,16(r16)
   10910:	8809883a 	mov	r4,r17
   10914:	000af780 	call	af78 <_free_r>
   10918:	003fd906 	br	10880 <_fclose_r+0x6c>
   1091c:	04bfffc4 	movi	r18,-1
   10920:	003fd406 	br	10874 <_fclose_r+0x60>

00010924 <fclose>:
   10924:	008000b4 	movhi	r2,2
   10928:	10a91504 	addi	r2,r2,-23468
   1092c:	200b883a 	mov	r5,r4
   10930:	11000017 	ldw	r4,0(r2)
   10934:	00108141 	jmpi	10814 <_fclose_r>

00010938 <_fstat_r>:
   10938:	defffd04 	addi	sp,sp,-12
   1093c:	dc000015 	stw	r16,0(sp)
   10940:	040000b4 	movhi	r16,2
   10944:	84302004 	addi	r16,r16,-16256
   10948:	dc400115 	stw	r17,4(sp)
   1094c:	80000015 	stw	zero,0(r16)
   10950:	2023883a 	mov	r17,r4
   10954:	2809883a 	mov	r4,r5
   10958:	300b883a 	mov	r5,r6
   1095c:	dfc00215 	stw	ra,8(sp)
   10960:	0013c780 	call	13c78 <fstat>
   10964:	1007883a 	mov	r3,r2
   10968:	00bfffc4 	movi	r2,-1
   1096c:	18800626 	beq	r3,r2,10988 <_fstat_r+0x50>
   10970:	1805883a 	mov	r2,r3
   10974:	dfc00217 	ldw	ra,8(sp)
   10978:	dc400117 	ldw	r17,4(sp)
   1097c:	dc000017 	ldw	r16,0(sp)
   10980:	dec00304 	addi	sp,sp,12
   10984:	f800283a 	ret
   10988:	80800017 	ldw	r2,0(r16)
   1098c:	103ff826 	beq	r2,zero,10970 <_fstat_r+0x38>
   10990:	88800015 	stw	r2,0(r17)
   10994:	1805883a 	mov	r2,r3
   10998:	dfc00217 	ldw	ra,8(sp)
   1099c:	dc400117 	ldw	r17,4(sp)
   109a0:	dc000017 	ldw	r16,0(sp)
   109a4:	dec00304 	addi	sp,sp,12
   109a8:	f800283a 	ret

000109ac <htinit>:
   109ac:	28800003 	ldbu	r2,0(r5)
   109b0:	10000626 	beq	r2,zero,109cc <htinit+0x20>
   109b4:	1105883a 	add	r2,r2,r4
   109b8:	11800005 	stb	r6,0(r2)
   109bc:	28800043 	ldbu	r2,1(r5)
   109c0:	31800044 	addi	r6,r6,1
   109c4:	29400044 	addi	r5,r5,1
   109c8:	103ffa1e 	bne	r2,zero,109b4 <htinit+0x8>
   109cc:	f800283a 	ret

000109d0 <__hexdig_init>:
   109d0:	defffd04 	addi	sp,sp,-12
   109d4:	dc400015 	stw	r17,0(sp)
   109d8:	044000b4 	movhi	r17,2
   109dc:	8c70dd04 	addi	r17,r17,-15500
   109e0:	dcc00115 	stw	r19,4(sp)
   109e4:	8809883a 	mov	r4,r17
   109e8:	04c00684 	movi	r19,26
   109ec:	014000b4 	movhi	r5,2
   109f0:	29621d04 	addi	r5,r5,-30604
   109f4:	01800404 	movi	r6,16
   109f8:	dfc00215 	stw	ra,8(sp)
   109fc:	00109ac0 	call	109ac <htinit>
   10a00:	980d883a 	mov	r6,r19
   10a04:	8809883a 	mov	r4,r17
   10a08:	014000b4 	movhi	r5,2
   10a0c:	29622004 	addi	r5,r5,-30592
   10a10:	00109ac0 	call	109ac <htinit>
   10a14:	8809883a 	mov	r4,r17
   10a18:	980d883a 	mov	r6,r19
   10a1c:	014000b4 	movhi	r5,2
   10a20:	29622204 	addi	r5,r5,-30584
   10a24:	dfc00217 	ldw	ra,8(sp)
   10a28:	dcc00117 	ldw	r19,4(sp)
   10a2c:	dc400017 	ldw	r17,0(sp)
   10a30:	dec00304 	addi	sp,sp,12
   10a34:	00109ac1 	jmpi	109ac <htinit>

00010a38 <rshift>:
   10a38:	2807d17a 	srai	r3,r5,5
   10a3c:	20800417 	ldw	r2,16(r4)
   10a40:	22400504 	addi	r9,r4,20
   10a44:	480f883a 	mov	r7,r9
   10a48:	1880190e 	bge	r3,r2,10ab0 <rshift+0x78>
   10a4c:	1085883a 	add	r2,r2,r2
   10a50:	18c7883a 	add	r3,r3,r3
   10a54:	1085883a 	add	r2,r2,r2
   10a58:	18c7883a 	add	r3,r3,r3
   10a5c:	294007cc 	andi	r5,r5,31
   10a60:	4891883a 	add	r8,r9,r2
   10a64:	48cd883a 	add	r6,r9,r3
   10a68:	28001726 	beq	r5,zero,10ac8 <rshift+0x90>
   10a6c:	30c00017 	ldw	r3,0(r6)
   10a70:	00800804 	movi	r2,32
   10a74:	31800104 	addi	r6,r6,4
   10a78:	1155c83a 	sub	r10,r2,r5
   10a7c:	1946d83a 	srl	r3,r3,r5
   10a80:	3200092e 	bgeu	r6,r8,10aa8 <rshift+0x70>
   10a84:	30800017 	ldw	r2,0(r6)
   10a88:	1284983a 	sll	r2,r2,r10
   10a8c:	10c4b03a 	or	r2,r2,r3
   10a90:	38800015 	stw	r2,0(r7)
   10a94:	30c00017 	ldw	r3,0(r6)
   10a98:	31800104 	addi	r6,r6,4
   10a9c:	39c00104 	addi	r7,r7,4
   10aa0:	1946d83a 	srl	r3,r3,r5
   10aa4:	323ff736 	bltu	r6,r8,10a84 <rshift+0x4c>
   10aa8:	38c00015 	stw	r3,0(r7)
   10aac:	18000c1e 	bne	r3,zero,10ae0 <rshift+0xa8>
   10ab0:	3a45c83a 	sub	r2,r7,r9
   10ab4:	1005d0ba 	srai	r2,r2,2
   10ab8:	20800415 	stw	r2,16(r4)
   10abc:	1000011e 	bne	r2,zero,10ac4 <rshift+0x8c>
   10ac0:	20000515 	stw	zero,20(r4)
   10ac4:	f800283a 	ret
   10ac8:	323ff92e 	bgeu	r6,r8,10ab0 <rshift+0x78>
   10acc:	30800017 	ldw	r2,0(r6)
   10ad0:	31800104 	addi	r6,r6,4
   10ad4:	38800015 	stw	r2,0(r7)
   10ad8:	39c00104 	addi	r7,r7,4
   10adc:	003ffa06 	br	10ac8 <rshift+0x90>
   10ae0:	39c00104 	addi	r7,r7,4
   10ae4:	003ff206 	br	10ab0 <rshift+0x78>

00010ae8 <__gethex>:
   10ae8:	defff304 	addi	sp,sp,-52
   10aec:	dd400815 	stw	r21,32(sp)
   10af0:	dd000715 	stw	r20,28(sp)
   10af4:	dcc00615 	stw	r19,24(sp)
   10af8:	dc400415 	stw	r17,16(sp)
   10afc:	dfc00c15 	stw	ra,48(sp)
   10b00:	df000b15 	stw	fp,44(sp)
   10b04:	ddc00a15 	stw	r23,40(sp)
   10b08:	dd800915 	stw	r22,36(sp)
   10b0c:	dc800515 	stw	r18,20(sp)
   10b10:	dc000315 	stw	r16,12(sp)
   10b14:	044000b4 	movhi	r17,2
   10b18:	8c70dd04 	addi	r17,r17,-15500
   10b1c:	88800c03 	ldbu	r2,48(r17)
   10b20:	202b883a 	mov	r21,r4
   10b24:	2827883a 	mov	r19,r5
   10b28:	3029883a 	mov	r20,r6
   10b2c:	d9c00115 	stw	r7,4(sp)
   10b30:	10006e26 	beq	r2,zero,10cec <__gethex+0x204>
   10b34:	99800017 	ldw	r6,0(r19)
   10b38:	00800c04 	movi	r2,48
   10b3c:	31000083 	ldbu	r4,2(r6)
   10b40:	30c00084 	addi	r3,r6,2
   10b44:	20806f1e 	bne	r4,r2,10d04 <__gethex+0x21c>
   10b48:	200b883a 	mov	r5,r4
   10b4c:	3007883a 	mov	r3,r6
   10b50:	188000c3 	ldbu	r2,3(r3)
   10b54:	18c00044 	addi	r3,r3,1
   10b58:	1009883a 	mov	r4,r2
   10b5c:	117ffc26 	beq	r2,r5,10b50 <__gethex+0x68>
   10b60:	1997c83a 	sub	r11,r3,r6
   10b64:	19400084 	addi	r5,r3,2
   10b68:	2445883a 	add	r2,r4,r17
   10b6c:	10c00003 	ldbu	r3,0(r2)
   10b70:	18002d26 	beq	r3,zero,10c28 <__gethex+0x140>
   10b74:	29000003 	ldbu	r4,0(r5)
   10b78:	2825883a 	mov	r18,r5
   10b7c:	000d883a 	mov	r6,zero
   10b80:	0013883a 	mov	r9,zero
   10b84:	21003fcc 	andi	r4,r4,255
   10b88:	2445883a 	add	r2,r4,r17
   10b8c:	10c00003 	ldbu	r3,0(r2)
   10b90:	18000526 	beq	r3,zero,10ba8 <__gethex+0xc0>
   10b94:	29400044 	addi	r5,r5,1
   10b98:	29000003 	ldbu	r4,0(r5)
   10b9c:	2445883a 	add	r2,r4,r17
   10ba0:	10c00003 	ldbu	r3,0(r2)
   10ba4:	183ffb1e 	bne	r3,zero,10b94 <__gethex+0xac>
   10ba8:	00800b84 	movi	r2,46
   10bac:	20805826 	beq	r4,r2,10d10 <__gethex+0x228>
   10bb0:	30007a26 	beq	r6,zero,10d9c <__gethex+0x2b4>
   10bb4:	2985c83a 	sub	r2,r5,r6
   10bb8:	1085883a 	add	r2,r2,r2
   10bbc:	1085883a 	add	r2,r2,r2
   10bc0:	00adc83a 	sub	r22,zero,r2
   10bc4:	2821883a 	mov	r16,r5
   10bc8:	80c00003 	ldbu	r3,0(r16)
   10bcc:	00801404 	movi	r2,80
   10bd0:	18801e26 	beq	r3,r2,10c4c <__gethex+0x164>
   10bd4:	00801c04 	movi	r2,112
   10bd8:	18801c26 	beq	r3,r2,10c4c <__gethex+0x164>
   10bdc:	800d883a 	mov	r6,r16
   10be0:	4805003a 	cmpeq	r2,r9,zero
   10be4:	99800015 	stw	r6,0(r19)
   10be8:	1000861e 	bne	r2,zero,10e04 <__gethex+0x31c>
   10bec:	58003d26 	beq	r11,zero,10ce4 <__gethex+0x1fc>
   10bf0:	0025883a 	mov	r18,zero
   10bf4:	9005883a 	mov	r2,r18
   10bf8:	dfc00c17 	ldw	ra,48(sp)
   10bfc:	df000b17 	ldw	fp,44(sp)
   10c00:	ddc00a17 	ldw	r23,40(sp)
   10c04:	dd800917 	ldw	r22,36(sp)
   10c08:	dd400817 	ldw	r21,32(sp)
   10c0c:	dd000717 	ldw	r20,28(sp)
   10c10:	dcc00617 	ldw	r19,24(sp)
   10c14:	dc800517 	ldw	r18,20(sp)
   10c18:	dc400417 	ldw	r17,16(sp)
   10c1c:	dc000317 	ldw	r16,12(sp)
   10c20:	dec00d04 	addi	sp,sp,52
   10c24:	f800283a 	ret
   10c28:	00800b84 	movi	r2,46
   10c2c:	20804a26 	beq	r4,r2,10d58 <__gethex+0x270>
   10c30:	2821883a 	mov	r16,r5
   10c34:	80c00003 	ldbu	r3,0(r16)
   10c38:	00801404 	movi	r2,80
   10c3c:	2825883a 	mov	r18,r5
   10c40:	02400044 	movi	r9,1
   10c44:	002d883a 	mov	r22,zero
   10c48:	18bfe21e 	bne	r3,r2,10bd4 <__gethex+0xec>
   10c4c:	80c00043 	ldbu	r3,1(r16)
   10c50:	00800ac4 	movi	r2,43
   10c54:	81000044 	addi	r4,r16,1
   10c58:	18804a26 	beq	r3,r2,10d84 <__gethex+0x29c>
   10c5c:	00800b44 	movi	r2,45
   10c60:	18804c26 	beq	r3,r2,10d94 <__gethex+0x2ac>
   10c64:	0015883a 	mov	r10,zero
   10c68:	1c45883a 	add	r2,r3,r17
   10c6c:	10800003 	ldbu	r2,0(r2)
   10c70:	103fda26 	beq	r2,zero,10bdc <__gethex+0xf4>
   10c74:	02000644 	movi	r8,25
   10c78:	40bfd816 	blt	r8,r2,10bdc <__gethex+0xf4>
   10c7c:	20c00043 	ldbu	r3,1(r4)
   10c80:	11fffc04 	addi	r7,r2,-16
   10c84:	008000b4 	movhi	r2,2
   10c88:	10b0dd04 	addi	r2,r2,-15500
   10c8c:	1887883a 	add	r3,r3,r2
   10c90:	18800003 	ldbu	r2,0(r3)
   10c94:	21800044 	addi	r6,r4,1
   10c98:	10000d26 	beq	r2,zero,10cd0 <__gethex+0x1e8>
   10c9c:	100b883a 	mov	r5,r2
   10ca0:	4080020e 	bge	r8,r2,10cac <__gethex+0x1c4>
   10ca4:	00000a06 	br	10cd0 <__gethex+0x1e8>
   10ca8:	41000916 	blt	r8,r4,10cd0 <__gethex+0x1e8>
   10cac:	31800044 	addi	r6,r6,1
   10cb0:	30800003 	ldbu	r2,0(r6)
   10cb4:	38c002a4 	muli	r3,r7,10
   10cb8:	1445883a 	add	r2,r2,r17
   10cbc:	11000003 	ldbu	r4,0(r2)
   10cc0:	1947883a 	add	r3,r3,r5
   10cc4:	19fffc04 	addi	r7,r3,-16
   10cc8:	200b883a 	mov	r5,r4
   10ccc:	203ff61e 	bne	r4,zero,10ca8 <__gethex+0x1c0>
   10cd0:	5005003a 	cmpeq	r2,r10,zero
   10cd4:	1000011e 	bne	r2,zero,10cdc <__gethex+0x1f4>
   10cd8:	01cfc83a 	sub	r7,zero,r7
   10cdc:	b1ed883a 	add	r22,r22,r7
   10ce0:	003fbf06 	br	10be0 <__gethex+0xf8>
   10ce4:	04800184 	movi	r18,6
   10ce8:	003fc206 	br	10bf4 <__gethex+0x10c>
   10cec:	00109d00 	call	109d0 <__hexdig_init>
   10cf0:	99800017 	ldw	r6,0(r19)
   10cf4:	00800c04 	movi	r2,48
   10cf8:	31000083 	ldbu	r4,2(r6)
   10cfc:	30c00084 	addi	r3,r6,2
   10d00:	20bf9126 	beq	r4,r2,10b48 <__gethex+0x60>
   10d04:	180b883a 	mov	r5,r3
   10d08:	0017883a 	mov	r11,zero
   10d0c:	003f9606 	br	10b68 <__gethex+0x80>
   10d10:	303fa81e 	bne	r6,zero,10bb4 <__gethex+0xcc>
   10d14:	29400044 	addi	r5,r5,1
   10d18:	28800003 	ldbu	r2,0(r5)
   10d1c:	1445883a 	add	r2,r2,r17
   10d20:	10c00003 	ldbu	r3,0(r2)
   10d24:	1800ad26 	beq	r3,zero,10fdc <__gethex+0x4f4>
   10d28:	2809883a 	mov	r4,r5
   10d2c:	21000044 	addi	r4,r4,1
   10d30:	20800003 	ldbu	r2,0(r4)
   10d34:	1445883a 	add	r2,r2,r17
   10d38:	10c00003 	ldbu	r3,0(r2)
   10d3c:	183ffb1e 	bne	r3,zero,10d2c <__gethex+0x244>
   10d40:	2145c83a 	sub	r2,r4,r5
   10d44:	1085883a 	add	r2,r2,r2
   10d48:	1085883a 	add	r2,r2,r2
   10d4c:	00adc83a 	sub	r22,zero,r2
   10d50:	200b883a 	mov	r5,r4
   10d54:	003f9b06 	br	10bc4 <__gethex+0xdc>
   10d58:	29000043 	ldbu	r4,1(r5)
   10d5c:	008000b4 	movhi	r2,2
   10d60:	10b0dd04 	addi	r2,r2,-15500
   10d64:	2c000044 	addi	r16,r5,1
   10d68:	2085883a 	add	r2,r4,r2
   10d6c:	10c00003 	ldbu	r3,0(r2)
   10d70:	18000d1e 	bne	r3,zero,10da8 <__gethex+0x2c0>
   10d74:	2825883a 	mov	r18,r5
   10d78:	02400044 	movi	r9,1
   10d7c:	002d883a 	mov	r22,zero
   10d80:	003f9106 	br	10bc8 <__gethex+0xe0>
   10d84:	0015883a 	mov	r10,zero
   10d88:	21000044 	addi	r4,r4,1
   10d8c:	20c00003 	ldbu	r3,0(r4)
   10d90:	003fb506 	br	10c68 <__gethex+0x180>
   10d94:	02800044 	movi	r10,1
   10d98:	003ffb06 	br	10d88 <__gethex+0x2a0>
   10d9c:	2821883a 	mov	r16,r5
   10da0:	002d883a 	mov	r22,zero
   10da4:	003f8806 	br	10bc8 <__gethex+0xe0>
   10da8:	00800c04 	movi	r2,48
   10dac:	20800e1e 	bne	r4,r2,10de8 <__gethex+0x300>
   10db0:	2007883a 	mov	r3,r4
   10db4:	800b883a 	mov	r5,r16
   10db8:	29400044 	addi	r5,r5,1
   10dbc:	29000003 	ldbu	r4,0(r5)
   10dc0:	20803fcc 	andi	r2,r4,255
   10dc4:	10fffc26 	beq	r2,r3,10db8 <__gethex+0x2d0>
   10dc8:	1445883a 	add	r2,r2,r17
   10dcc:	10c00003 	ldbu	r3,0(r2)
   10dd0:	1800071e 	bne	r3,zero,10df0 <__gethex+0x308>
   10dd4:	02c00044 	movi	r11,1
   10dd8:	800d883a 	mov	r6,r16
   10ddc:	2825883a 	mov	r18,r5
   10de0:	5813883a 	mov	r9,r11
   10de4:	003f6706 	br	10b84 <__gethex+0x9c>
   10de8:	81000003 	ldbu	r4,0(r16)
   10dec:	800b883a 	mov	r5,r16
   10df0:	800d883a 	mov	r6,r16
   10df4:	2825883a 	mov	r18,r5
   10df8:	02c00044 	movi	r11,1
   10dfc:	0013883a 	mov	r9,zero
   10e00:	003f6006 	br	10b84 <__gethex+0x9c>
   10e04:	8485c83a 	sub	r2,r16,r18
   10e08:	10bfffc4 	addi	r2,r2,-1
   10e0c:	00c001c4 	movi	r3,7
   10e10:	1880700e 	bge	r3,r2,10fd4 <__gethex+0x4ec>
   10e14:	000b883a 	mov	r5,zero
   10e18:	1005d07a 	srai	r2,r2,1
   10e1c:	29400044 	addi	r5,r5,1
   10e20:	18bffd16 	blt	r3,r2,10e18 <__gethex+0x330>
   10e24:	a809883a 	mov	r4,r21
   10e28:	000cbe80 	call	cbe8 <_Balloc>
   10e2c:	1027883a 	mov	r19,r2
   10e30:	10800504 	addi	r2,r2,20
   10e34:	d8800215 	stw	r2,8(sp)
   10e38:	9400522e 	bgeu	r18,r16,10f84 <__gethex+0x49c>
   10e3c:	da000217 	ldw	r8,8(sp)
   10e40:	800b883a 	mov	r5,r16
   10e44:	000f883a 	mov	r7,zero
   10e48:	0009883a 	mov	r4,zero
   10e4c:	02400b84 	movi	r9,46
   10e50:	02800804 	movi	r10,32
   10e54:	297fffc4 	addi	r5,r5,-1
   10e58:	28c00003 	ldbu	r3,0(r5)
   10e5c:	1a400826 	beq	r3,r9,10e80 <__gethex+0x398>
   10e60:	380d883a 	mov	r6,r7
   10e64:	3a802726 	beq	r7,r10,10f04 <__gethex+0x41c>
   10e68:	39c00104 	addi	r7,r7,4
   10e6c:	1c47883a 	add	r3,r3,r17
   10e70:	18800003 	ldbu	r2,0(r3)
   10e74:	108003cc 	andi	r2,r2,15
   10e78:	1184983a 	sll	r2,r2,r6
   10e7c:	2088b03a 	or	r4,r4,r2
   10e80:	917ff436 	bltu	r18,r5,10e54 <__gethex+0x36c>
   10e84:	d8c00217 	ldw	r3,8(sp)
   10e88:	40800104 	addi	r2,r8,4
   10e8c:	41000015 	stw	r4,0(r8)
   10e90:	10c5c83a 	sub	r2,r2,r3
   10e94:	1021d0ba 	srai	r16,r2,2
   10e98:	9c000415 	stw	r16,16(r19)
   10e9c:	000c6900 	call	c690 <__hi0bits>
   10ea0:	8006917a 	slli	r3,r16,5
   10ea4:	a5c00017 	ldw	r23,0(r20)
   10ea8:	1885c83a 	sub	r2,r3,r2
   10eac:	b8801c16 	blt	r23,r2,10f20 <__gethex+0x438>
   10eb0:	15c00a16 	blt	r2,r23,10edc <__gethex+0x3f4>
   10eb4:	0039883a 	mov	fp,zero
   10eb8:	a0800217 	ldw	r2,8(r20)
   10ebc:	1580340e 	bge	r2,r22,10f90 <__gethex+0x4a8>
   10ec0:	a809883a 	mov	r4,r21
   10ec4:	980b883a 	mov	r5,r19
   10ec8:	000c6680 	call	c668 <_Bfree>
   10ecc:	d8c00d17 	ldw	r3,52(sp)
   10ed0:	048028c4 	movi	r18,163
   10ed4:	18000015 	stw	zero,0(r3)
   10ed8:	003f4606 	br	10bf4 <__gethex+0x10c>
   10edc:	b8a1c83a 	sub	r16,r23,r2
   10ee0:	980b883a 	mov	r5,r19
   10ee4:	a809883a 	mov	r4,r21
   10ee8:	800d883a 	mov	r6,r16
   10eec:	000cfac0 	call	cfac <__lshift>
   10ef0:	1027883a 	mov	r19,r2
   10ef4:	b42dc83a 	sub	r22,r22,r16
   10ef8:	10800504 	addi	r2,r2,20
   10efc:	d8800215 	stw	r2,8(sp)
   10f00:	003fec06 	br	10eb4 <__gethex+0x3cc>
   10f04:	41000015 	stw	r4,0(r8)
   10f08:	28c00003 	ldbu	r3,0(r5)
   10f0c:	01c00104 	movi	r7,4
   10f10:	000d883a 	mov	r6,zero
   10f14:	41d1883a 	add	r8,r8,r7
   10f18:	0009883a 	mov	r4,zero
   10f1c:	003fd306 	br	10e6c <__gethex+0x384>
   10f20:	15e1c83a 	sub	r16,r2,r23
   10f24:	9809883a 	mov	r4,r19
   10f28:	800b883a 	mov	r5,r16
   10f2c:	000cb600 	call	cb60 <__any_on>
   10f30:	1000061e 	bne	r2,zero,10f4c <__gethex+0x464>
   10f34:	0039883a 	mov	fp,zero
   10f38:	9809883a 	mov	r4,r19
   10f3c:	800b883a 	mov	r5,r16
   10f40:	0010a380 	call	10a38 <rshift>
   10f44:	b42d883a 	add	r22,r22,r16
   10f48:	003fdb06 	br	10eb8 <__gethex+0x3d0>
   10f4c:	817fffc4 	addi	r5,r16,-1
   10f50:	2805d17a 	srai	r2,r5,5
   10f54:	d8c00217 	ldw	r3,8(sp)
   10f58:	290007cc 	andi	r4,r5,31
   10f5c:	1085883a 	add	r2,r2,r2
   10f60:	1085883a 	add	r2,r2,r2
   10f64:	01800044 	movi	r6,1
   10f68:	10c5883a 	add	r2,r2,r3
   10f6c:	3108983a 	sll	r4,r6,r4
   10f70:	10c00017 	ldw	r3,0(r2)
   10f74:	20c8703a 	and	r4,r4,r3
   10f78:	20001a1e 	bne	r4,zero,10fe4 <__gethex+0x4fc>
   10f7c:	3039883a 	mov	fp,r6
   10f80:	003fed06 	br	10f38 <__gethex+0x450>
   10f84:	1011883a 	mov	r8,r2
   10f88:	0009883a 	mov	r4,zero
   10f8c:	003fbd06 	br	10e84 <__gethex+0x39c>
   10f90:	a1000117 	ldw	r4,4(r20)
   10f94:	b1001a16 	blt	r22,r4,11000 <__gethex+0x518>
   10f98:	04800044 	movi	r18,1
   10f9c:	e0000826 	beq	fp,zero,10fc0 <__gethex+0x4d8>
   10fa0:	a1000317 	ldw	r4,12(r20)
   10fa4:	00800084 	movi	r2,2
   10fa8:	20809426 	beq	r4,r2,111fc <__gethex+0x714>
   10fac:	008000c4 	movi	r2,3
   10fb0:	20805826 	beq	r4,r2,11114 <__gethex+0x62c>
   10fb4:	00800044 	movi	r2,1
   10fb8:	20803f26 	beq	r4,r2,110b8 <__gethex+0x5d0>
   10fbc:	94800414 	ori	r18,r18,16
   10fc0:	d8800d17 	ldw	r2,52(sp)
   10fc4:	d8c00117 	ldw	r3,4(sp)
   10fc8:	14c00015 	stw	r19,0(r2)
   10fcc:	1d800015 	stw	r22,0(r3)
   10fd0:	003f0806 	br	10bf4 <__gethex+0x10c>
   10fd4:	000b883a 	mov	r5,zero
   10fd8:	003f9206 	br	10e24 <__gethex+0x33c>
   10fdc:	002d883a 	mov	r22,zero
   10fe0:	003ef806 	br	10bc4 <__gethex+0xdc>
   10fe4:	3140160e 	bge	r6,r5,11040 <__gethex+0x558>
   10fe8:	9809883a 	mov	r4,r19
   10fec:	817fff84 	addi	r5,r16,-2
   10ff0:	000cb600 	call	cb60 <__any_on>
   10ff4:	10001226 	beq	r2,zero,11040 <__gethex+0x558>
   10ff8:	070000c4 	movi	fp,3
   10ffc:	003fce06 	br	10f38 <__gethex+0x450>
   11000:	25a3c83a 	sub	r17,r4,r22
   11004:	8dc01016 	blt	r17,r23,11048 <__gethex+0x560>
   11008:	a0c00317 	ldw	r3,12(r20)
   1100c:	00800084 	movi	r2,2
   11010:	18809326 	beq	r3,r2,11260 <__gethex+0x778>
   11014:	008000c4 	movi	r2,3
   11018:	18808e26 	beq	r3,r2,11254 <__gethex+0x76c>
   1101c:	00800044 	movi	r2,1
   11020:	18807b26 	beq	r3,r2,11210 <__gethex+0x728>
   11024:	a809883a 	mov	r4,r21
   11028:	980b883a 	mov	r5,r19
   1102c:	000c6680 	call	c668 <_Bfree>
   11030:	d8c00d17 	ldw	r3,52(sp)
   11034:	04801404 	movi	r18,80
   11038:	18000015 	stw	zero,0(r3)
   1103c:	003eed06 	br	10bf4 <__gethex+0x10c>
   11040:	07000084 	movi	fp,2
   11044:	003fbc06 	br	10f38 <__gethex+0x450>
   11048:	8c3fffc4 	addi	r16,r17,-1
   1104c:	e0001426 	beq	fp,zero,110a0 <__gethex+0x5b8>
   11050:	07000044 	movi	fp,1
   11054:	8005d17a 	srai	r2,r16,5
   11058:	d8c00217 	ldw	r3,8(sp)
   1105c:	814007cc 	andi	r5,r16,31
   11060:	1085883a 	add	r2,r2,r2
   11064:	1085883a 	add	r2,r2,r2
   11068:	10c5883a 	add	r2,r2,r3
   1106c:	00c00044 	movi	r3,1
   11070:	1946983a 	sll	r3,r3,r5
   11074:	11000017 	ldw	r4,0(r2)
   11078:	1906703a 	and	r3,r3,r4
   1107c:	18000126 	beq	r3,zero,11084 <__gethex+0x59c>
   11080:	e7000094 	ori	fp,fp,2
   11084:	880b883a 	mov	r5,r17
   11088:	9809883a 	mov	r4,r19
   1108c:	0010a380 	call	10a38 <rshift>
   11090:	a5800117 	ldw	r22,4(r20)
   11094:	bc6fc83a 	sub	r23,r23,r17
   11098:	04800084 	movi	r18,2
   1109c:	003fbf06 	br	10f9c <__gethex+0x4b4>
   110a0:	043fec0e 	bge	zero,r16,11054 <__gethex+0x56c>
   110a4:	9809883a 	mov	r4,r19
   110a8:	800b883a 	mov	r5,r16
   110ac:	000cb600 	call	cb60 <__any_on>
   110b0:	1039883a 	mov	fp,r2
   110b4:	003fe706 	br	11054 <__gethex+0x56c>
   110b8:	e080008c 	andi	r2,fp,2
   110bc:	103fbf26 	beq	r2,zero,10fbc <__gethex+0x4d4>
   110c0:	d8c00217 	ldw	r3,8(sp)
   110c4:	18800017 	ldw	r2,0(r3)
   110c8:	e084b03a 	or	r2,fp,r2
   110cc:	1104703a 	and	r2,r2,r4
   110d0:	103fba26 	beq	r2,zero,10fbc <__gethex+0x4d4>
   110d4:	9c000417 	ldw	r16,16(r19)
   110d8:	d8c00217 	ldw	r3,8(sp)
   110dc:	017fffc4 	movi	r5,-1
   110e0:	8405883a 	add	r2,r16,r16
   110e4:	10b9883a 	add	fp,r2,r2
   110e8:	1f09883a 	add	r4,r3,fp
   110ec:	dc000015 	stw	r16,0(sp)
   110f0:	00000306 	br	11100 <__gethex+0x618>
   110f4:	18000015 	stw	zero,0(r3)
   110f8:	18c00104 	addi	r3,r3,4
   110fc:	1900082e 	bgeu	r3,r4,11120 <__gethex+0x638>
   11100:	18800017 	ldw	r2,0(r3)
   11104:	117ffb26 	beq	r2,r5,110f4 <__gethex+0x60c>
   11108:	10800044 	addi	r2,r2,1
   1110c:	18800015 	stw	r2,0(r3)
   11110:	00001f06 	br	11190 <__gethex+0x6a8>
   11114:	d8800e17 	ldw	r2,56(sp)
   11118:	103fa826 	beq	r2,zero,10fbc <__gethex+0x4d4>
   1111c:	003fed06 	br	110d4 <__gethex+0x5ec>
   11120:	98800217 	ldw	r2,8(r19)
   11124:	80801316 	blt	r16,r2,11174 <__gethex+0x68c>
   11128:	99400117 	ldw	r5,4(r19)
   1112c:	a809883a 	mov	r4,r21
   11130:	29400044 	addi	r5,r5,1
   11134:	000cbe80 	call	cbe8 <_Balloc>
   11138:	99800417 	ldw	r6,16(r19)
   1113c:	99400304 	addi	r5,r19,12
   11140:	11000304 	addi	r4,r2,12
   11144:	318d883a 	add	r6,r6,r6
   11148:	318d883a 	add	r6,r6,r6
   1114c:	31800204 	addi	r6,r6,8
   11150:	1023883a 	mov	r17,r2
   11154:	000c4500 	call	c450 <memcpy>
   11158:	980b883a 	mov	r5,r19
   1115c:	a809883a 	mov	r4,r21
   11160:	000c6680 	call	c668 <_Bfree>
   11164:	8c000417 	ldw	r16,16(r17)
   11168:	88800504 	addi	r2,r17,20
   1116c:	8827883a 	mov	r19,r17
   11170:	d8800215 	stw	r2,8(sp)
   11174:	8405883a 	add	r2,r16,r16
   11178:	1085883a 	add	r2,r2,r2
   1117c:	14c5883a 	add	r2,r2,r19
   11180:	84000044 	addi	r16,r16,1
   11184:	00c00044 	movi	r3,1
   11188:	10c00515 	stw	r3,20(r2)
   1118c:	9c000415 	stw	r16,16(r19)
   11190:	00800084 	movi	r2,2
   11194:	90801426 	beq	r18,r2,111e8 <__gethex+0x700>
   11198:	d8800017 	ldw	r2,0(sp)
   1119c:	14000b16 	blt	r2,r16,111cc <__gethex+0x6e4>
   111a0:	bc0007cc 	andi	r16,r23,31
   111a4:	8000021e 	bne	r16,zero,111b0 <__gethex+0x6c8>
   111a8:	94800814 	ori	r18,r18,32
   111ac:	003f8406 	br	10fc0 <__gethex+0x4d8>
   111b0:	d8c00217 	ldw	r3,8(sp)
   111b4:	1f05883a 	add	r2,r3,fp
   111b8:	113fff17 	ldw	r4,-4(r2)
   111bc:	000c6900 	call	c690 <__hi0bits>
   111c0:	00c00804 	movi	r3,32
   111c4:	1c07c83a 	sub	r3,r3,r16
   111c8:	10fff70e 	bge	r2,r3,111a8 <__gethex+0x6c0>
   111cc:	9809883a 	mov	r4,r19
   111d0:	01400044 	movi	r5,1
   111d4:	0010a380 	call	10a38 <rshift>
   111d8:	a0800217 	ldw	r2,8(r20)
   111dc:	b5800044 	addi	r22,r22,1
   111e0:	15bf3716 	blt	r2,r22,10ec0 <__gethex+0x3d8>
   111e4:	003ff006 	br	111a8 <__gethex+0x6c0>
   111e8:	a0800017 	ldw	r2,0(r20)
   111ec:	10bfffc4 	addi	r2,r2,-1
   111f0:	b8801e26 	beq	r23,r2,1126c <__gethex+0x784>
   111f4:	04800884 	movi	r18,34
   111f8:	003f7106 	br	10fc0 <__gethex+0x4d8>
   111fc:	d8c00e17 	ldw	r3,56(sp)
   11200:	00800044 	movi	r2,1
   11204:	10c5c83a 	sub	r2,r2,r3
   11208:	103f6c26 	beq	r2,zero,10fbc <__gethex+0x4d4>
   1120c:	003fb106 	br	110d4 <__gethex+0x5ec>
   11210:	bc7f841e 	bne	r23,r17,11024 <__gethex+0x53c>
   11214:	1dc0050e 	bge	r3,r23,1122c <__gethex+0x744>
   11218:	b8cbc83a 	sub	r5,r23,r3
   1121c:	9809883a 	mov	r4,r19
   11220:	000cb600 	call	cb60 <__any_on>
   11224:	103f7f26 	beq	r2,zero,11024 <__gethex+0x53c>
   11228:	a1000117 	ldw	r4,4(r20)
   1122c:	d8800117 	ldw	r2,4(sp)
   11230:	d8c00217 	ldw	r3,8(sp)
   11234:	04000044 	movi	r16,1
   11238:	11000015 	stw	r4,0(r2)
   1123c:	d8800d17 	ldw	r2,52(sp)
   11240:	04801884 	movi	r18,98
   11244:	1c000015 	stw	r16,0(r3)
   11248:	14c00015 	stw	r19,0(r2)
   1124c:	9c000415 	stw	r16,16(r19)
   11250:	003e6806 	br	10bf4 <__gethex+0x10c>
   11254:	d8c00e17 	ldw	r3,56(sp)
   11258:	183f7226 	beq	r3,zero,11024 <__gethex+0x53c>
   1125c:	003ff306 	br	1122c <__gethex+0x744>
   11260:	d8800e17 	ldw	r2,56(sp)
   11264:	103ff126 	beq	r2,zero,1122c <__gethex+0x744>
   11268:	003f6e06 	br	11024 <__gethex+0x53c>
   1126c:	b805d17a 	srai	r2,r23,5
   11270:	d8c00217 	ldw	r3,8(sp)
   11274:	b94007cc 	andi	r5,r23,31
   11278:	1085883a 	add	r2,r2,r2
   1127c:	1085883a 	add	r2,r2,r2
   11280:	10c5883a 	add	r2,r2,r3
   11284:	00c00044 	movi	r3,1
   11288:	1946983a 	sll	r3,r3,r5
   1128c:	11000017 	ldw	r4,0(r2)
   11290:	1906703a 	and	r3,r3,r4
   11294:	183fd726 	beq	r3,zero,111f4 <__gethex+0x70c>
   11298:	04800844 	movi	r18,33
   1129c:	003f4806 	br	10fc0 <__gethex+0x4d8>

000112a0 <L_shift>:
   112a0:	00800204 	movi	r2,8
   112a4:	1185c83a 	sub	r2,r2,r6
   112a8:	1085883a 	add	r2,r2,r2
   112ac:	21c00017 	ldw	r7,0(r4)
   112b0:	1093883a 	add	r9,r2,r2
   112b4:	00800804 	movi	r2,32
   112b8:	200d883a 	mov	r6,r4
   112bc:	1251c83a 	sub	r8,r2,r9
   112c0:	31800104 	addi	r6,r6,4
   112c4:	3805883a 	mov	r2,r7
   112c8:	31c00017 	ldw	r7,0(r6)
   112cc:	3a08983a 	sll	r4,r7,r8
   112d0:	3a46d83a 	srl	r3,r7,r9
   112d4:	1104b03a 	or	r2,r2,r4
   112d8:	180f883a 	mov	r7,r3
   112dc:	30bfff15 	stw	r2,-4(r6)
   112e0:	30c00015 	stw	r3,0(r6)
   112e4:	317ff636 	bltu	r6,r5,112c0 <L_shift+0x20>
   112e8:	f800283a 	ret

000112ec <__hexnan>:
   112ec:	defff404 	addi	sp,sp,-48
   112f0:	dd800815 	stw	r22,32(sp)
   112f4:	058000b4 	movhi	r22,2
   112f8:	b5b0dd04 	addi	r22,r22,-15500
   112fc:	b0800c03 	ldbu	r2,48(r22)
   11300:	dcc00515 	stw	r19,20(sp)
   11304:	dc000215 	stw	r16,8(sp)
   11308:	dfc00b15 	stw	ra,44(sp)
   1130c:	df000a15 	stw	fp,40(sp)
   11310:	ddc00915 	stw	r23,36(sp)
   11314:	dd400715 	stw	r21,28(sp)
   11318:	dd000615 	stw	r20,24(sp)
   1131c:	dc800415 	stw	r18,16(sp)
   11320:	dc400315 	stw	r17,12(sp)
   11324:	d9000115 	stw	r4,4(sp)
   11328:	2821883a 	mov	r16,r5
   1132c:	3027883a 	mov	r19,r6
   11330:	10007426 	beq	r2,zero,11504 <__hexnan+0x218>
   11334:	80c00017 	ldw	r3,0(r16)
   11338:	1805d17a 	srai	r2,r3,5
   1133c:	18c007cc 	andi	r3,r3,31
   11340:	1839003a 	cmpeq	fp,r3,zero
   11344:	1085883a 	add	r2,r2,r2
   11348:	1085883a 	add	r2,r2,r2
   1134c:	d8c00015 	stw	r3,0(sp)
   11350:	14c5883a 	add	r2,r2,r19
   11354:	e000011e 	bne	fp,zero,1135c <__hexnan+0x70>
   11358:	10800104 	addi	r2,r2,4
   1135c:	d8c00117 	ldw	r3,4(sp)
   11360:	153fff04 	addi	r20,r2,-4
   11364:	a021883a 	mov	r16,r20
   11368:	1c400017 	ldw	r17,0(r3)
   1136c:	a02b883a 	mov	r21,r20
   11370:	0025883a 	mov	r18,zero
   11374:	002f883a 	mov	r23,zero
   11378:	000d883a 	mov	r6,zero
   1137c:	103fff15 	stw	zero,-4(r2)
   11380:	8c400044 	addi	r17,r17,1
   11384:	89000003 	ldbu	r4,0(r17)
   11388:	20000e26 	beq	r4,zero,113c4 <__hexnan+0xd8>
   1138c:	2585883a 	add	r2,r4,r22
   11390:	10c00003 	ldbu	r3,0(r2)
   11394:	18002e1e 	bne	r3,zero,11450 <__hexnan+0x164>
   11398:	00800804 	movi	r2,32
   1139c:	11005536 	bltu	r2,r4,114f4 <__hexnan+0x208>
   113a0:	bcbff70e 	bge	r23,r18,11380 <__hexnan+0x94>
   113a4:	8540022e 	bgeu	r16,r21,113b0 <__hexnan+0xc4>
   113a8:	008001c4 	movi	r2,7
   113ac:	11803c0e 	bge	r2,r6,114a0 <__hexnan+0x1b4>
   113b0:	9c003536 	bltu	r19,r16,11488 <__hexnan+0x19c>
   113b4:	8c400044 	addi	r17,r17,1
   113b8:	89000003 	ldbu	r4,0(r17)
   113bc:	01800204 	movi	r6,8
   113c0:	203ff21e 	bne	r4,zero,1138c <__hexnan+0xa0>
   113c4:	90004d26 	beq	r18,zero,114fc <__hexnan+0x210>
   113c8:	85404336 	bltu	r16,r21,114d8 <__hexnan+0x1ec>
   113cc:	9c00382e 	bgeu	r19,r16,114b0 <__hexnan+0x1c4>
   113d0:	9807883a 	mov	r3,r19
   113d4:	80800017 	ldw	r2,0(r16)
   113d8:	84000104 	addi	r16,r16,4
   113dc:	18800015 	stw	r2,0(r3)
   113e0:	18c00104 	addi	r3,r3,4
   113e4:	a43ffb2e 	bgeu	r20,r16,113d4 <__hexnan+0xe8>
   113e8:	18000015 	stw	zero,0(r3)
   113ec:	18c00104 	addi	r3,r3,4
   113f0:	a0fffd2e 	bgeu	r20,r3,113e8 <__hexnan+0xfc>
   113f4:	a0800017 	ldw	r2,0(r20)
   113f8:	1000071e 	bne	r2,zero,11418 <__hexnan+0x12c>
   113fc:	9d004326 	beq	r19,r20,1150c <__hexnan+0x220>
   11400:	a007883a 	mov	r3,r20
   11404:	00000106 	br	1140c <__hexnan+0x120>
   11408:	98c04026 	beq	r19,r3,1150c <__hexnan+0x220>
   1140c:	18ffff04 	addi	r3,r3,-4
   11410:	18800017 	ldw	r2,0(r3)
   11414:	103ffc26 	beq	r2,zero,11408 <__hexnan+0x11c>
   11418:	00c00144 	movi	r3,5
   1141c:	1805883a 	mov	r2,r3
   11420:	dfc00b17 	ldw	ra,44(sp)
   11424:	df000a17 	ldw	fp,40(sp)
   11428:	ddc00917 	ldw	r23,36(sp)
   1142c:	dd800817 	ldw	r22,32(sp)
   11430:	dd400717 	ldw	r21,28(sp)
   11434:	dd000617 	ldw	r20,24(sp)
   11438:	dcc00517 	ldw	r19,20(sp)
   1143c:	dc800417 	ldw	r18,16(sp)
   11440:	dc400317 	ldw	r17,12(sp)
   11444:	dc000217 	ldw	r16,8(sp)
   11448:	dec00c04 	addi	sp,sp,48
   1144c:	f800283a 	ret
   11450:	31800044 	addi	r6,r6,1
   11454:	00800204 	movi	r2,8
   11458:	94800044 	addi	r18,r18,1
   1145c:	1180040e 	bge	r2,r6,11470 <__hexnan+0x184>
   11460:	9c3fc72e 	bgeu	r19,r16,11380 <__hexnan+0x94>
   11464:	843fff04 	addi	r16,r16,-4
   11468:	80000015 	stw	zero,0(r16)
   1146c:	01800044 	movi	r6,1
   11470:	80800017 	ldw	r2,0(r16)
   11474:	18c003cc 	andi	r3,r3,15
   11478:	1004913a 	slli	r2,r2,4
   1147c:	10c4b03a 	or	r2,r2,r3
   11480:	80800015 	stw	r2,0(r16)
   11484:	003fbe06 	br	11380 <__hexnan+0x94>
   11488:	843fff04 	addi	r16,r16,-4
   1148c:	802b883a 	mov	r21,r16
   11490:	902f883a 	mov	r23,r18
   11494:	000d883a 	mov	r6,zero
   11498:	80000015 	stw	zero,0(r16)
   1149c:	003fb806 	br	11380 <__hexnan+0x94>
   114a0:	8009883a 	mov	r4,r16
   114a4:	a80b883a 	mov	r5,r21
   114a8:	00112a00 	call	112a0 <L_shift>
   114ac:	003fc006 	br	113b0 <__hexnan+0xc4>
   114b0:	e03fd01e 	bne	fp,zero,113f4 <__hexnan+0x108>
   114b4:	d8c00017 	ldw	r3,0(sp)
   114b8:	00800804 	movi	r2,32
   114bc:	10c5c83a 	sub	r2,r2,r3
   114c0:	00ffffc4 	movi	r3,-1
   114c4:	1886d83a 	srl	r3,r3,r2
   114c8:	a0800017 	ldw	r2,0(r20)
   114cc:	10c4703a 	and	r2,r2,r3
   114d0:	a0800015 	stw	r2,0(r20)
   114d4:	003fc806 	br	113f8 <__hexnan+0x10c>
   114d8:	008001c4 	movi	r2,7
   114dc:	11bfbb16 	blt	r2,r6,113cc <__hexnan+0xe0>
   114e0:	a80b883a 	mov	r5,r21
   114e4:	8009883a 	mov	r4,r16
   114e8:	00112a00 	call	112a0 <L_shift>
   114ec:	9c3ff02e 	bgeu	r19,r16,114b0 <__hexnan+0x1c4>
   114f0:	003fb706 	br	113d0 <__hexnan+0xe4>
   114f4:	00800a44 	movi	r2,41
   114f8:	20800826 	beq	r4,r2,1151c <__hexnan+0x230>
   114fc:	00c00104 	movi	r3,4
   11500:	003fc606 	br	1141c <__hexnan+0x130>
   11504:	00109d00 	call	109d0 <__hexdig_init>
   11508:	003f8a06 	br	11334 <__hexnan+0x48>
   1150c:	00800044 	movi	r2,1
   11510:	00c00144 	movi	r3,5
   11514:	98800015 	stw	r2,0(r19)
   11518:	003fc006 	br	1141c <__hexnan+0x130>
   1151c:	903ff726 	beq	r18,zero,114fc <__hexnan+0x210>
   11520:	d8c00117 	ldw	r3,4(sp)
   11524:	88800044 	addi	r2,r17,1
   11528:	18800015 	stw	r2,0(r3)
   1152c:	857fa72e 	bgeu	r16,r21,113cc <__hexnan+0xe0>
   11530:	003fe906 	br	114d8 <__hexnan+0x1ec>

00011534 <_isatty_r>:
   11534:	defffd04 	addi	sp,sp,-12
   11538:	dc000015 	stw	r16,0(sp)
   1153c:	040000b4 	movhi	r16,2
   11540:	84302004 	addi	r16,r16,-16256
   11544:	dc400115 	stw	r17,4(sp)
   11548:	80000015 	stw	zero,0(r16)
   1154c:	2023883a 	mov	r17,r4
   11550:	2809883a 	mov	r4,r5
   11554:	dfc00215 	stw	ra,8(sp)
   11558:	0013fc80 	call	13fc8 <isatty>
   1155c:	1007883a 	mov	r3,r2
   11560:	00bfffc4 	movi	r2,-1
   11564:	18800626 	beq	r3,r2,11580 <_isatty_r+0x4c>
   11568:	1805883a 	mov	r2,r3
   1156c:	dfc00217 	ldw	ra,8(sp)
   11570:	dc400117 	ldw	r17,4(sp)
   11574:	dc000017 	ldw	r16,0(sp)
   11578:	dec00304 	addi	sp,sp,12
   1157c:	f800283a 	ret
   11580:	80800017 	ldw	r2,0(r16)
   11584:	103ff826 	beq	r2,zero,11568 <_isatty_r+0x34>
   11588:	88800015 	stw	r2,0(r17)
   1158c:	1805883a 	mov	r2,r3
   11590:	dfc00217 	ldw	ra,8(sp)
   11594:	dc400117 	ldw	r17,4(sp)
   11598:	dc000017 	ldw	r16,0(sp)
   1159c:	dec00304 	addi	sp,sp,12
   115a0:	f800283a 	ret

000115a4 <_lseek_r>:
   115a4:	defffd04 	addi	sp,sp,-12
   115a8:	dc000015 	stw	r16,0(sp)
   115ac:	040000b4 	movhi	r16,2
   115b0:	84302004 	addi	r16,r16,-16256
   115b4:	dc400115 	stw	r17,4(sp)
   115b8:	80000015 	stw	zero,0(r16)
   115bc:	2023883a 	mov	r17,r4
   115c0:	2809883a 	mov	r4,r5
   115c4:	300b883a 	mov	r5,r6
   115c8:	380d883a 	mov	r6,r7
   115cc:	dfc00215 	stw	ra,8(sp)
   115d0:	00141d40 	call	141d4 <lseek>
   115d4:	1007883a 	mov	r3,r2
   115d8:	00bfffc4 	movi	r2,-1
   115dc:	18800626 	beq	r3,r2,115f8 <_lseek_r+0x54>
   115e0:	1805883a 	mov	r2,r3
   115e4:	dfc00217 	ldw	ra,8(sp)
   115e8:	dc400117 	ldw	r17,4(sp)
   115ec:	dc000017 	ldw	r16,0(sp)
   115f0:	dec00304 	addi	sp,sp,12
   115f4:	f800283a 	ret
   115f8:	80800017 	ldw	r2,0(r16)
   115fc:	103ff826 	beq	r2,zero,115e0 <_lseek_r+0x3c>
   11600:	88800015 	stw	r2,0(r17)
   11604:	1805883a 	mov	r2,r3
   11608:	dfc00217 	ldw	ra,8(sp)
   1160c:	dc400117 	ldw	r17,4(sp)
   11610:	dc000017 	ldw	r16,0(sp)
   11614:	dec00304 	addi	sp,sp,12
   11618:	f800283a 	ret

0001161c <_read_r>:
   1161c:	defffd04 	addi	sp,sp,-12
   11620:	dc000015 	stw	r16,0(sp)
   11624:	040000b4 	movhi	r16,2
   11628:	84302004 	addi	r16,r16,-16256
   1162c:	dc400115 	stw	r17,4(sp)
   11630:	80000015 	stw	zero,0(r16)
   11634:	2023883a 	mov	r17,r4
   11638:	2809883a 	mov	r4,r5
   1163c:	300b883a 	mov	r5,r6
   11640:	380d883a 	mov	r6,r7
   11644:	dfc00215 	stw	ra,8(sp)
   11648:	00143d00 	call	143d0 <read>
   1164c:	1007883a 	mov	r3,r2
   11650:	00bfffc4 	movi	r2,-1
   11654:	18800626 	beq	r3,r2,11670 <_read_r+0x54>
   11658:	1805883a 	mov	r2,r3
   1165c:	dfc00217 	ldw	ra,8(sp)
   11660:	dc400117 	ldw	r17,4(sp)
   11664:	dc000017 	ldw	r16,0(sp)
   11668:	dec00304 	addi	sp,sp,12
   1166c:	f800283a 	ret
   11670:	80800017 	ldw	r2,0(r16)
   11674:	103ff826 	beq	r2,zero,11658 <_read_r+0x3c>
   11678:	88800015 	stw	r2,0(r17)
   1167c:	1805883a 	mov	r2,r3
   11680:	dfc00217 	ldw	ra,8(sp)
   11684:	dc400117 	ldw	r17,4(sp)
   11688:	dc000017 	ldw	r16,0(sp)
   1168c:	dec00304 	addi	sp,sp,12
   11690:	f800283a 	ret

00011694 <__muldi3>:
   11694:	2011883a 	mov	r8,r4
   11698:	427fffcc 	andi	r9,r8,65535
   1169c:	4018d43a 	srli	r12,r8,16
   116a0:	32bfffcc 	andi	r10,r6,65535
   116a4:	3016d43a 	srli	r11,r6,16
   116a8:	4a85383a 	mul	r2,r9,r10
   116ac:	6295383a 	mul	r10,r12,r10
   116b0:	4ad3383a 	mul	r9,r9,r11
   116b4:	113fffcc 	andi	r4,r2,65535
   116b8:	1004d43a 	srli	r2,r2,16
   116bc:	4a93883a 	add	r9,r9,r10
   116c0:	3807883a 	mov	r3,r7
   116c4:	1245883a 	add	r2,r2,r9
   116c8:	280f883a 	mov	r7,r5
   116cc:	180b883a 	mov	r5,r3
   116d0:	1006943a 	slli	r3,r2,16
   116d4:	defffd04 	addi	sp,sp,-12
   116d8:	dc800215 	stw	r18,8(sp)
   116dc:	1907883a 	add	r3,r3,r4
   116e0:	dc400115 	stw	r17,4(sp)
   116e4:	dc000015 	stw	r16,0(sp)
   116e8:	4165383a 	mul	r18,r8,r5
   116ec:	31e3383a 	mul	r17,r6,r7
   116f0:	1012d43a 	srli	r9,r2,16
   116f4:	62d9383a 	mul	r12,r12,r11
   116f8:	181f883a 	mov	r15,r3
   116fc:	1280022e 	bgeu	r2,r10,11708 <__muldi3+0x74>
   11700:	00800074 	movhi	r2,1
   11704:	6099883a 	add	r12,r12,r2
   11708:	624d883a 	add	r6,r12,r9
   1170c:	9187883a 	add	r3,r18,r6
   11710:	88c7883a 	add	r3,r17,r3
   11714:	7805883a 	mov	r2,r15
   11718:	dc800217 	ldw	r18,8(sp)
   1171c:	dc400117 	ldw	r17,4(sp)
   11720:	dc000017 	ldw	r16,0(sp)
   11724:	dec00304 	addi	sp,sp,12
   11728:	f800283a 	ret

0001172c <__fixunsdfsi>:
   1172c:	defffb04 	addi	sp,sp,-20
   11730:	dc400115 	stw	r17,4(sp)
   11734:	dc000015 	stw	r16,0(sp)
   11738:	04507834 	movhi	r17,16864
   1173c:	0021883a 	mov	r16,zero
   11740:	800d883a 	mov	r6,r16
   11744:	880f883a 	mov	r7,r17
   11748:	dcc00315 	stw	r19,12(sp)
   1174c:	dc800215 	stw	r18,8(sp)
   11750:	2827883a 	mov	r19,r5
   11754:	2025883a 	mov	r18,r4
   11758:	dfc00415 	stw	ra,16(sp)
   1175c:	001317c0 	call	1317c <__gedf2>
   11760:	000d883a 	mov	r6,zero
   11764:	880f883a 	mov	r7,r17
   11768:	980b883a 	mov	r5,r19
   1176c:	9009883a 	mov	r4,r18
   11770:	10000d16 	blt	r2,zero,117a8 <__fixunsdfsi+0x7c>
   11774:	00128d40 	call	128d4 <__subdf3>
   11778:	180b883a 	mov	r5,r3
   1177c:	1009883a 	mov	r4,r2
   11780:	00133140 	call	13314 <__fixdfsi>
   11784:	00e00034 	movhi	r3,32768
   11788:	10c5883a 	add	r2,r2,r3
   1178c:	dfc00417 	ldw	ra,16(sp)
   11790:	dcc00317 	ldw	r19,12(sp)
   11794:	dc800217 	ldw	r18,8(sp)
   11798:	dc400117 	ldw	r17,4(sp)
   1179c:	dc000017 	ldw	r16,0(sp)
   117a0:	dec00504 	addi	sp,sp,20
   117a4:	f800283a 	ret
   117a8:	980b883a 	mov	r5,r19
   117ac:	9009883a 	mov	r4,r18
   117b0:	00133140 	call	13314 <__fixdfsi>
   117b4:	dfc00417 	ldw	ra,16(sp)
   117b8:	dcc00317 	ldw	r19,12(sp)
   117bc:	dc800217 	ldw	r18,8(sp)
   117c0:	dc400117 	ldw	r17,4(sp)
   117c4:	dc000017 	ldw	r16,0(sp)
   117c8:	dec00504 	addi	sp,sp,20
   117cc:	f800283a 	ret

000117d0 <__udivdi3>:
   117d0:	defff004 	addi	sp,sp,-64
   117d4:	2005883a 	mov	r2,r4
   117d8:	3011883a 	mov	r8,r6
   117dc:	df000e15 	stw	fp,56(sp)
   117e0:	dd000a15 	stw	r20,40(sp)
   117e4:	dc000615 	stw	r16,24(sp)
   117e8:	dfc00f15 	stw	ra,60(sp)
   117ec:	ddc00d15 	stw	r23,52(sp)
   117f0:	dd800c15 	stw	r22,48(sp)
   117f4:	dd400b15 	stw	r21,44(sp)
   117f8:	dcc00915 	stw	r19,36(sp)
   117fc:	dc800815 	stw	r18,32(sp)
   11800:	dc400715 	stw	r17,28(sp)
   11804:	4021883a 	mov	r16,r8
   11808:	1039883a 	mov	fp,r2
   1180c:	2829883a 	mov	r20,r5
   11810:	38003b1e 	bne	r7,zero,11900 <__udivdi3+0x130>
   11814:	2a005c36 	bltu	r5,r8,11988 <__udivdi3+0x1b8>
   11818:	4000a626 	beq	r8,zero,11ab4 <__udivdi3+0x2e4>
   1181c:	00bfffd4 	movui	r2,65535
   11820:	14009e36 	bltu	r2,r16,11a9c <__udivdi3+0x2cc>
   11824:	00803fc4 	movi	r2,255
   11828:	14013d36 	bltu	r2,r16,11d20 <__udivdi3+0x550>
   1182c:	000b883a 	mov	r5,zero
   11830:	0005883a 	mov	r2,zero
   11834:	8084d83a 	srl	r2,r16,r2
   11838:	010000b4 	movhi	r4,2
   1183c:	2120a504 	addi	r4,r4,-32108
   11840:	01800804 	movi	r6,32
   11844:	1105883a 	add	r2,r2,r4
   11848:	10c00003 	ldbu	r3,0(r2)
   1184c:	28c7883a 	add	r3,r5,r3
   11850:	30edc83a 	sub	r22,r6,r3
   11854:	b000ee1e 	bne	r22,zero,11c10 <__udivdi3+0x440>
   11858:	802ad43a 	srli	r21,r16,16
   1185c:	00800044 	movi	r2,1
   11860:	a423c83a 	sub	r17,r20,r16
   11864:	85ffffcc 	andi	r23,r16,65535
   11868:	d8800315 	stw	r2,12(sp)
   1186c:	8809883a 	mov	r4,r17
   11870:	a80b883a 	mov	r5,r21
   11874:	00051b00 	call	51b0 <__udivsi3>
   11878:	8809883a 	mov	r4,r17
   1187c:	a80b883a 	mov	r5,r21
   11880:	102d883a 	mov	r22,r2
   11884:	00051b80 	call	51b8 <__umodsi3>
   11888:	1004943a 	slli	r2,r2,16
   1188c:	e006d43a 	srli	r3,fp,16
   11890:	bda3383a 	mul	r17,r23,r22
   11894:	10c4b03a 	or	r2,r2,r3
   11898:	1440042e 	bgeu	r2,r17,118ac <__udivdi3+0xdc>
   1189c:	1405883a 	add	r2,r2,r16
   118a0:	b5bfffc4 	addi	r22,r22,-1
   118a4:	14000136 	bltu	r2,r16,118ac <__udivdi3+0xdc>
   118a8:	14413d36 	bltu	r2,r17,11da0 <__udivdi3+0x5d0>
   118ac:	1463c83a 	sub	r17,r2,r17
   118b0:	8809883a 	mov	r4,r17
   118b4:	a80b883a 	mov	r5,r21
   118b8:	00051b00 	call	51b0 <__udivsi3>
   118bc:	8809883a 	mov	r4,r17
   118c0:	a80b883a 	mov	r5,r21
   118c4:	1029883a 	mov	r20,r2
   118c8:	00051b80 	call	51b8 <__umodsi3>
   118cc:	1004943a 	slli	r2,r2,16
   118d0:	bd09383a 	mul	r4,r23,r20
   118d4:	e0ffffcc 	andi	r3,fp,65535
   118d8:	10c4b03a 	or	r2,r2,r3
   118dc:	1100042e 	bgeu	r2,r4,118f0 <__udivdi3+0x120>
   118e0:	8085883a 	add	r2,r16,r2
   118e4:	a53fffc4 	addi	r20,r20,-1
   118e8:	14000136 	bltu	r2,r16,118f0 <__udivdi3+0x120>
   118ec:	11012036 	bltu	r2,r4,11d70 <__udivdi3+0x5a0>
   118f0:	b004943a 	slli	r2,r22,16
   118f4:	d9000317 	ldw	r4,12(sp)
   118f8:	a084b03a 	or	r2,r20,r2
   118fc:	00001506 	br	11954 <__udivdi3+0x184>
   11900:	380d883a 	mov	r6,r7
   11904:	29c06236 	bltu	r5,r7,11a90 <__udivdi3+0x2c0>
   11908:	00bfffd4 	movui	r2,65535
   1190c:	11c05a36 	bltu	r2,r7,11a78 <__udivdi3+0x2a8>
   11910:	00803fc4 	movi	r2,255
   11914:	11c0fc36 	bltu	r2,r7,11d08 <__udivdi3+0x538>
   11918:	000b883a 	mov	r5,zero
   1191c:	0005883a 	mov	r2,zero
   11920:	3084d83a 	srl	r2,r6,r2
   11924:	010000b4 	movhi	r4,2
   11928:	2120a504 	addi	r4,r4,-32108
   1192c:	01c00804 	movi	r7,32
   11930:	1105883a 	add	r2,r2,r4
   11934:	10c00003 	ldbu	r3,0(r2)
   11938:	28c7883a 	add	r3,r5,r3
   1193c:	38efc83a 	sub	r23,r7,r3
   11940:	b800691e 	bne	r23,zero,11ae8 <__udivdi3+0x318>
   11944:	35000136 	bltu	r6,r20,1194c <__udivdi3+0x17c>
   11948:	e4005136 	bltu	fp,r16,11a90 <__udivdi3+0x2c0>
   1194c:	00800044 	movi	r2,1
   11950:	0009883a 	mov	r4,zero
   11954:	2007883a 	mov	r3,r4
   11958:	dfc00f17 	ldw	ra,60(sp)
   1195c:	df000e17 	ldw	fp,56(sp)
   11960:	ddc00d17 	ldw	r23,52(sp)
   11964:	dd800c17 	ldw	r22,48(sp)
   11968:	dd400b17 	ldw	r21,44(sp)
   1196c:	dd000a17 	ldw	r20,40(sp)
   11970:	dcc00917 	ldw	r19,36(sp)
   11974:	dc800817 	ldw	r18,32(sp)
   11978:	dc400717 	ldw	r17,28(sp)
   1197c:	dc000617 	ldw	r16,24(sp)
   11980:	dec01004 	addi	sp,sp,64
   11984:	f800283a 	ret
   11988:	00bfffd4 	movui	r2,65535
   1198c:	12005036 	bltu	r2,r8,11ad0 <__udivdi3+0x300>
   11990:	00803fc4 	movi	r2,255
   11994:	1200e836 	bltu	r2,r8,11d38 <__udivdi3+0x568>
   11998:	000b883a 	mov	r5,zero
   1199c:	0005883a 	mov	r2,zero
   119a0:	8084d83a 	srl	r2,r16,r2
   119a4:	010000b4 	movhi	r4,2
   119a8:	2120a504 	addi	r4,r4,-32108
   119ac:	01800804 	movi	r6,32
   119b0:	1105883a 	add	r2,r2,r4
   119b4:	10c00003 	ldbu	r3,0(r2)
   119b8:	28c7883a 	add	r3,r5,r3
   119bc:	30cbc83a 	sub	r5,r6,r3
   119c0:	28000626 	beq	r5,zero,119dc <__udivdi3+0x20c>
   119c4:	3145c83a 	sub	r2,r6,r5
   119c8:	e084d83a 	srl	r2,fp,r2
   119cc:	a146983a 	sll	r3,r20,r5
   119d0:	e178983a 	sll	fp,fp,r5
   119d4:	8160983a 	sll	r16,r16,r5
   119d8:	18a8b03a 	or	r20,r3,r2
   119dc:	802ad43a 	srli	r21,r16,16
   119e0:	a009883a 	mov	r4,r20
   119e4:	85ffffcc 	andi	r23,r16,65535
   119e8:	a80b883a 	mov	r5,r21
   119ec:	00051b00 	call	51b0 <__udivsi3>
   119f0:	a009883a 	mov	r4,r20
   119f4:	a80b883a 	mov	r5,r21
   119f8:	102d883a 	mov	r22,r2
   119fc:	00051b80 	call	51b8 <__umodsi3>
   11a00:	1004943a 	slli	r2,r2,16
   11a04:	e006d43a 	srli	r3,fp,16
   11a08:	bda3383a 	mul	r17,r23,r22
   11a0c:	10c4b03a 	or	r2,r2,r3
   11a10:	1440042e 	bgeu	r2,r17,11a24 <__udivdi3+0x254>
   11a14:	1405883a 	add	r2,r2,r16
   11a18:	b5bfffc4 	addi	r22,r22,-1
   11a1c:	14000136 	bltu	r2,r16,11a24 <__udivdi3+0x254>
   11a20:	1440d536 	bltu	r2,r17,11d78 <__udivdi3+0x5a8>
   11a24:	1463c83a 	sub	r17,r2,r17
   11a28:	8809883a 	mov	r4,r17
   11a2c:	a80b883a 	mov	r5,r21
   11a30:	00051b00 	call	51b0 <__udivsi3>
   11a34:	8809883a 	mov	r4,r17
   11a38:	a80b883a 	mov	r5,r21
   11a3c:	1029883a 	mov	r20,r2
   11a40:	00051b80 	call	51b8 <__umodsi3>
   11a44:	1004943a 	slli	r2,r2,16
   11a48:	bd09383a 	mul	r4,r23,r20
   11a4c:	e0ffffcc 	andi	r3,fp,65535
   11a50:	10c4b03a 	or	r2,r2,r3
   11a54:	1100042e 	bgeu	r2,r4,11a68 <__udivdi3+0x298>
   11a58:	8085883a 	add	r2,r16,r2
   11a5c:	a53fffc4 	addi	r20,r20,-1
   11a60:	14000136 	bltu	r2,r16,11a68 <__udivdi3+0x298>
   11a64:	1100c736 	bltu	r2,r4,11d84 <__udivdi3+0x5b4>
   11a68:	b004943a 	slli	r2,r22,16
   11a6c:	0009883a 	mov	r4,zero
   11a70:	a084b03a 	or	r2,r20,r2
   11a74:	003fb706 	br	11954 <__udivdi3+0x184>
   11a78:	00804034 	movhi	r2,256
   11a7c:	10bfffc4 	addi	r2,r2,-1
   11a80:	11c0a436 	bltu	r2,r7,11d14 <__udivdi3+0x544>
   11a84:	01400404 	movi	r5,16
   11a88:	2805883a 	mov	r2,r5
   11a8c:	003fa406 	br	11920 <__udivdi3+0x150>
   11a90:	0005883a 	mov	r2,zero
   11a94:	0009883a 	mov	r4,zero
   11a98:	003fae06 	br	11954 <__udivdi3+0x184>
   11a9c:	00804034 	movhi	r2,256
   11aa0:	10bfffc4 	addi	r2,r2,-1
   11aa4:	1400a136 	bltu	r2,r16,11d2c <__udivdi3+0x55c>
   11aa8:	01400404 	movi	r5,16
   11aac:	2805883a 	mov	r2,r5
   11ab0:	003f6006 	br	11834 <__udivdi3+0x64>
   11ab4:	01000044 	movi	r4,1
   11ab8:	000b883a 	mov	r5,zero
   11abc:	00051b00 	call	51b0 <__udivsi3>
   11ac0:	1021883a 	mov	r16,r2
   11ac4:	00bfffd4 	movui	r2,65535
   11ac8:	143ff436 	bltu	r2,r16,11a9c <__udivdi3+0x2cc>
   11acc:	003f5506 	br	11824 <__udivdi3+0x54>
   11ad0:	00804034 	movhi	r2,256
   11ad4:	10bfffc4 	addi	r2,r2,-1
   11ad8:	12009a36 	bltu	r2,r8,11d44 <__udivdi3+0x574>
   11adc:	01400404 	movi	r5,16
   11ae0:	2805883a 	mov	r2,r5
   11ae4:	003fae06 	br	119a0 <__udivdi3+0x1d0>
   11ae8:	3dc5c83a 	sub	r2,r7,r23
   11aec:	35c8983a 	sll	r4,r6,r23
   11af0:	8086d83a 	srl	r3,r16,r2
   11af4:	a0a2d83a 	srl	r17,r20,r2
   11af8:	e084d83a 	srl	r2,fp,r2
   11afc:	20eab03a 	or	r21,r4,r3
   11b00:	a82cd43a 	srli	r22,r21,16
   11b04:	a5c6983a 	sll	r3,r20,r23
   11b08:	8809883a 	mov	r4,r17
   11b0c:	b00b883a 	mov	r5,r22
   11b10:	1886b03a 	or	r3,r3,r2
   11b14:	d8c00215 	stw	r3,8(sp)
   11b18:	00051b00 	call	51b0 <__udivsi3>
   11b1c:	8809883a 	mov	r4,r17
   11b20:	b00b883a 	mov	r5,r22
   11b24:	1029883a 	mov	r20,r2
   11b28:	00051b80 	call	51b8 <__umodsi3>
   11b2c:	a8ffffcc 	andi	r3,r21,65535
   11b30:	d8c00515 	stw	r3,20(sp)
   11b34:	d9000217 	ldw	r4,8(sp)
   11b38:	d9400517 	ldw	r5,20(sp)
   11b3c:	1004943a 	slli	r2,r2,16
   11b40:	2006d43a 	srli	r3,r4,16
   11b44:	85e0983a 	sll	r16,r16,r23
   11b48:	2d23383a 	mul	r17,r5,r20
   11b4c:	10c4b03a 	or	r2,r2,r3
   11b50:	dc000015 	stw	r16,0(sp)
   11b54:	1440032e 	bgeu	r2,r17,11b64 <__udivdi3+0x394>
   11b58:	1545883a 	add	r2,r2,r21
   11b5c:	a53fffc4 	addi	r20,r20,-1
   11b60:	15407f2e 	bgeu	r2,r21,11d60 <__udivdi3+0x590>
   11b64:	1463c83a 	sub	r17,r2,r17
   11b68:	8809883a 	mov	r4,r17
   11b6c:	b00b883a 	mov	r5,r22
   11b70:	00051b00 	call	51b0 <__udivsi3>
   11b74:	8809883a 	mov	r4,r17
   11b78:	b00b883a 	mov	r5,r22
   11b7c:	1021883a 	mov	r16,r2
   11b80:	00051b80 	call	51b8 <__umodsi3>
   11b84:	d8c00517 	ldw	r3,20(sp)
   11b88:	d9000217 	ldw	r4,8(sp)
   11b8c:	1004943a 	slli	r2,r2,16
   11b90:	1c0f383a 	mul	r7,r3,r16
   11b94:	20ffffcc 	andi	r3,r4,65535
   11b98:	10e2b03a 	or	r17,r2,r3
   11b9c:	89c0032e 	bgeu	r17,r7,11bac <__udivdi3+0x3dc>
   11ba0:	8d63883a 	add	r17,r17,r21
   11ba4:	843fffc4 	addi	r16,r16,-1
   11ba8:	8d40692e 	bgeu	r17,r21,11d50 <__udivdi3+0x580>
   11bac:	a008943a 	slli	r4,r20,16
   11bb0:	d9400017 	ldw	r5,0(sp)
   11bb4:	89e3c83a 	sub	r17,r17,r7
   11bb8:	8110b03a 	or	r8,r16,r4
   11bbc:	280cd43a 	srli	r6,r5,16
   11bc0:	28ffffcc 	andi	r3,r5,65535
   11bc4:	40bfffcc 	andi	r2,r8,65535
   11bc8:	400ad43a 	srli	r5,r8,16
   11bcc:	10d3383a 	mul	r9,r2,r3
   11bd0:	1185383a 	mul	r2,r2,r6
   11bd4:	28c7383a 	mul	r3,r5,r3
   11bd8:	4808d43a 	srli	r4,r9,16
   11bdc:	298b383a 	mul	r5,r5,r6
   11be0:	10c5883a 	add	r2,r2,r3
   11be4:	2089883a 	add	r4,r4,r2
   11be8:	20c0022e 	bgeu	r4,r3,11bf4 <__udivdi3+0x424>
   11bec:	00800074 	movhi	r2,1
   11bf0:	288b883a 	add	r5,r5,r2
   11bf4:	2004d43a 	srli	r2,r4,16
   11bf8:	288b883a 	add	r5,r5,r2
   11bfc:	89403f36 	bltu	r17,r5,11cfc <__udivdi3+0x52c>
   11c00:	89403926 	beq	r17,r5,11ce8 <__udivdi3+0x518>
   11c04:	4005883a 	mov	r2,r8
   11c08:	0009883a 	mov	r4,zero
   11c0c:	003f5106 	br	11954 <__udivdi3+0x184>
   11c10:	85a0983a 	sll	r16,r16,r22
   11c14:	3585c83a 	sub	r2,r6,r22
   11c18:	a0a2d83a 	srl	r17,r20,r2
   11c1c:	802ad43a 	srli	r21,r16,16
   11c20:	e084d83a 	srl	r2,fp,r2
   11c24:	a586983a 	sll	r3,r20,r22
   11c28:	8809883a 	mov	r4,r17
   11c2c:	a80b883a 	mov	r5,r21
   11c30:	1886b03a 	or	r3,r3,r2
   11c34:	d8c00115 	stw	r3,4(sp)
   11c38:	00051b00 	call	51b0 <__udivsi3>
   11c3c:	8809883a 	mov	r4,r17
   11c40:	a80b883a 	mov	r5,r21
   11c44:	d8800415 	stw	r2,16(sp)
   11c48:	00051b80 	call	51b8 <__umodsi3>
   11c4c:	d9000117 	ldw	r4,4(sp)
   11c50:	d9400417 	ldw	r5,16(sp)
   11c54:	1004943a 	slli	r2,r2,16
   11c58:	85ffffcc 	andi	r23,r16,65535
   11c5c:	2006d43a 	srli	r3,r4,16
   11c60:	b963383a 	mul	r17,r23,r5
   11c64:	10c4b03a 	or	r2,r2,r3
   11c68:	1440042e 	bgeu	r2,r17,11c7c <__udivdi3+0x4ac>
   11c6c:	297fffc4 	addi	r5,r5,-1
   11c70:	1405883a 	add	r2,r2,r16
   11c74:	d9400415 	stw	r5,16(sp)
   11c78:	1400442e 	bgeu	r2,r16,11d8c <__udivdi3+0x5bc>
   11c7c:	1463c83a 	sub	r17,r2,r17
   11c80:	8809883a 	mov	r4,r17
   11c84:	a80b883a 	mov	r5,r21
   11c88:	00051b00 	call	51b0 <__udivsi3>
   11c8c:	8809883a 	mov	r4,r17
   11c90:	a80b883a 	mov	r5,r21
   11c94:	1029883a 	mov	r20,r2
   11c98:	00051b80 	call	51b8 <__umodsi3>
   11c9c:	d9400117 	ldw	r5,4(sp)
   11ca0:	1004943a 	slli	r2,r2,16
   11ca4:	bd09383a 	mul	r4,r23,r20
   11ca8:	28ffffcc 	andi	r3,r5,65535
   11cac:	10c6b03a 	or	r3,r2,r3
   11cb0:	1900062e 	bgeu	r3,r4,11ccc <__udivdi3+0x4fc>
   11cb4:	1c07883a 	add	r3,r3,r16
   11cb8:	a53fffc4 	addi	r20,r20,-1
   11cbc:	1c000336 	bltu	r3,r16,11ccc <__udivdi3+0x4fc>
   11cc0:	1900022e 	bgeu	r3,r4,11ccc <__udivdi3+0x4fc>
   11cc4:	a53fffc4 	addi	r20,r20,-1
   11cc8:	1c07883a 	add	r3,r3,r16
   11ccc:	d9400417 	ldw	r5,16(sp)
   11cd0:	e5b8983a 	sll	fp,fp,r22
   11cd4:	1923c83a 	sub	r17,r3,r4
   11cd8:	2804943a 	slli	r2,r5,16
   11cdc:	a0a8b03a 	or	r20,r20,r2
   11ce0:	dd000315 	stw	r20,12(sp)
   11ce4:	003ee106 	br	1186c <__udivdi3+0x9c>
   11ce8:	2004943a 	slli	r2,r4,16
   11cec:	e5c8983a 	sll	r4,fp,r23
   11cf0:	48ffffcc 	andi	r3,r9,65535
   11cf4:	10c5883a 	add	r2,r2,r3
   11cf8:	20bfc22e 	bgeu	r4,r2,11c04 <__udivdi3+0x434>
   11cfc:	40bfffc4 	addi	r2,r8,-1
   11d00:	0009883a 	mov	r4,zero
   11d04:	003f1306 	br	11954 <__udivdi3+0x184>
   11d08:	01400204 	movi	r5,8
   11d0c:	2805883a 	mov	r2,r5
   11d10:	003f0306 	br	11920 <__udivdi3+0x150>
   11d14:	01400604 	movi	r5,24
   11d18:	2805883a 	mov	r2,r5
   11d1c:	003f0006 	br	11920 <__udivdi3+0x150>
   11d20:	01400204 	movi	r5,8
   11d24:	2805883a 	mov	r2,r5
   11d28:	003ec206 	br	11834 <__udivdi3+0x64>
   11d2c:	01400604 	movi	r5,24
   11d30:	2805883a 	mov	r2,r5
   11d34:	003ebf06 	br	11834 <__udivdi3+0x64>
   11d38:	01400204 	movi	r5,8
   11d3c:	2805883a 	mov	r2,r5
   11d40:	003f1706 	br	119a0 <__udivdi3+0x1d0>
   11d44:	01400604 	movi	r5,24
   11d48:	2805883a 	mov	r2,r5
   11d4c:	003f1406 	br	119a0 <__udivdi3+0x1d0>
   11d50:	89ff962e 	bgeu	r17,r7,11bac <__udivdi3+0x3dc>
   11d54:	8d63883a 	add	r17,r17,r21
   11d58:	843fffc4 	addi	r16,r16,-1
   11d5c:	003f9306 	br	11bac <__udivdi3+0x3dc>
   11d60:	147f802e 	bgeu	r2,r17,11b64 <__udivdi3+0x394>
   11d64:	a53fffc4 	addi	r20,r20,-1
   11d68:	1545883a 	add	r2,r2,r21
   11d6c:	003f7d06 	br	11b64 <__udivdi3+0x394>
   11d70:	a53fffc4 	addi	r20,r20,-1
   11d74:	003ede06 	br	118f0 <__udivdi3+0x120>
   11d78:	b5bfffc4 	addi	r22,r22,-1
   11d7c:	1405883a 	add	r2,r2,r16
   11d80:	003f2806 	br	11a24 <__udivdi3+0x254>
   11d84:	a53fffc4 	addi	r20,r20,-1
   11d88:	003f3706 	br	11a68 <__udivdi3+0x298>
   11d8c:	147fbb2e 	bgeu	r2,r17,11c7c <__udivdi3+0x4ac>
   11d90:	297fffc4 	addi	r5,r5,-1
   11d94:	1405883a 	add	r2,r2,r16
   11d98:	d9400415 	stw	r5,16(sp)
   11d9c:	003fb706 	br	11c7c <__udivdi3+0x4ac>
   11da0:	b5bfffc4 	addi	r22,r22,-1
   11da4:	1405883a 	add	r2,r2,r16
   11da8:	003ec006 	br	118ac <__udivdi3+0xdc>

00011dac <__umoddi3>:
   11dac:	defff104 	addi	sp,sp,-60
   11db0:	dd800b15 	stw	r22,44(sp)
   11db4:	dd000915 	stw	r20,36(sp)
   11db8:	dc000515 	stw	r16,20(sp)
   11dbc:	dfc00e15 	stw	ra,56(sp)
   11dc0:	df000d15 	stw	fp,52(sp)
   11dc4:	ddc00c15 	stw	r23,48(sp)
   11dc8:	dd400a15 	stw	r21,40(sp)
   11dcc:	dcc00815 	stw	r19,32(sp)
   11dd0:	dc800715 	stw	r18,28(sp)
   11dd4:	dc400615 	stw	r17,24(sp)
   11dd8:	3021883a 	mov	r16,r6
   11ddc:	202d883a 	mov	r22,r4
   11de0:	2829883a 	mov	r20,r5
   11de4:	38002b1e 	bne	r7,zero,11e94 <__umoddi3+0xe8>
   11de8:	29805036 	bltu	r5,r6,11f2c <__umoddi3+0x180>
   11dec:	30008a26 	beq	r6,zero,12018 <__umoddi3+0x26c>
   11df0:	00bfffd4 	movui	r2,65535
   11df4:	14008236 	bltu	r2,r16,12000 <__umoddi3+0x254>
   11df8:	00803fc4 	movi	r2,255
   11dfc:	14013636 	bltu	r2,r16,122d8 <__umoddi3+0x52c>
   11e00:	000b883a 	mov	r5,zero
   11e04:	0005883a 	mov	r2,zero
   11e08:	8084d83a 	srl	r2,r16,r2
   11e0c:	010000b4 	movhi	r4,2
   11e10:	2120a504 	addi	r4,r4,-32108
   11e14:	01800804 	movi	r6,32
   11e18:	1105883a 	add	r2,r2,r4
   11e1c:	10c00003 	ldbu	r3,0(r2)
   11e20:	28c7883a 	add	r3,r5,r3
   11e24:	30efc83a 	sub	r23,r6,r3
   11e28:	b800941e 	bne	r23,zero,1207c <__umoddi3+0x2d0>
   11e2c:	802ad43a 	srli	r21,r16,16
   11e30:	a423c83a 	sub	r17,r20,r16
   11e34:	0039883a 	mov	fp,zero
   11e38:	853fffcc 	andi	r20,r16,65535
   11e3c:	8809883a 	mov	r4,r17
   11e40:	a80b883a 	mov	r5,r21
   11e44:	00051b00 	call	51b0 <__udivsi3>
   11e48:	8809883a 	mov	r4,r17
   11e4c:	a80b883a 	mov	r5,r21
   11e50:	a0a3383a 	mul	r17,r20,r2
   11e54:	00051b80 	call	51b8 <__umodsi3>
   11e58:	1004943a 	slli	r2,r2,16
   11e5c:	b006d43a 	srli	r3,r22,16
   11e60:	10c4b03a 	or	r2,r2,r3
   11e64:	1440032e 	bgeu	r2,r17,11e74 <__umoddi3+0xc8>
   11e68:	1405883a 	add	r2,r2,r16
   11e6c:	14000136 	bltu	r2,r16,11e74 <__umoddi3+0xc8>
   11e70:	14413536 	bltu	r2,r17,12348 <__umoddi3+0x59c>
   11e74:	1463c83a 	sub	r17,r2,r17
   11e78:	8809883a 	mov	r4,r17
   11e7c:	a80b883a 	mov	r5,r21
   11e80:	00051b00 	call	51b0 <__udivsi3>
   11e84:	8809883a 	mov	r4,r17
   11e88:	a0a3383a 	mul	r17,r20,r2
   11e8c:	a80b883a 	mov	r5,r21
   11e90:	00004d06 	br	11fc8 <__umoddi3+0x21c>
   11e94:	380d883a 	mov	r6,r7
   11e98:	29c0102e 	bgeu	r5,r7,11edc <__umoddi3+0x130>
   11e9c:	2011883a 	mov	r8,r4
   11ea0:	2813883a 	mov	r9,r5
   11ea4:	4005883a 	mov	r2,r8
   11ea8:	4807883a 	mov	r3,r9
   11eac:	dfc00e17 	ldw	ra,56(sp)
   11eb0:	df000d17 	ldw	fp,52(sp)
   11eb4:	ddc00c17 	ldw	r23,48(sp)
   11eb8:	dd800b17 	ldw	r22,44(sp)
   11ebc:	dd400a17 	ldw	r21,40(sp)
   11ec0:	dd000917 	ldw	r20,36(sp)
   11ec4:	dcc00817 	ldw	r19,32(sp)
   11ec8:	dc800717 	ldw	r18,28(sp)
   11ecc:	dc400617 	ldw	r17,24(sp)
   11ed0:	dc000517 	ldw	r16,20(sp)
   11ed4:	dec00f04 	addi	sp,sp,60
   11ed8:	f800283a 	ret
   11edc:	00bfffd4 	movui	r2,65535
   11ee0:	11c05a36 	bltu	r2,r7,1204c <__umoddi3+0x2a0>
   11ee4:	00803fc4 	movi	r2,255
   11ee8:	11c0fe36 	bltu	r2,r7,122e4 <__umoddi3+0x538>
   11eec:	000b883a 	mov	r5,zero
   11ef0:	0005883a 	mov	r2,zero
   11ef4:	3084d83a 	srl	r2,r6,r2
   11ef8:	010000b4 	movhi	r4,2
   11efc:	2120a504 	addi	r4,r4,-32108
   11f00:	01c00804 	movi	r7,32
   11f04:	1105883a 	add	r2,r2,r4
   11f08:	10c00003 	ldbu	r3,0(r2)
   11f0c:	28c7883a 	add	r3,r5,r3
   11f10:	38ebc83a 	sub	r21,r7,r3
   11f14:	a800851e 	bne	r21,zero,1212c <__umoddi3+0x380>
   11f18:	35005236 	bltu	r6,r20,12064 <__umoddi3+0x2b8>
   11f1c:	b400512e 	bgeu	r22,r16,12064 <__umoddi3+0x2b8>
   11f20:	b011883a 	mov	r8,r22
   11f24:	a013883a 	mov	r9,r20
   11f28:	003fde06 	br	11ea4 <__umoddi3+0xf8>
   11f2c:	00bfffd4 	movui	r2,65535
   11f30:	11804036 	bltu	r2,r6,12034 <__umoddi3+0x288>
   11f34:	00803fc4 	movi	r2,255
   11f38:	1180ed36 	bltu	r2,r6,122f0 <__umoddi3+0x544>
   11f3c:	000b883a 	mov	r5,zero
   11f40:	0005883a 	mov	r2,zero
   11f44:	8084d83a 	srl	r2,r16,r2
   11f48:	010000b4 	movhi	r4,2
   11f4c:	2120a504 	addi	r4,r4,-32108
   11f50:	01800804 	movi	r6,32
   11f54:	1105883a 	add	r2,r2,r4
   11f58:	10c00003 	ldbu	r3,0(r2)
   11f5c:	28c7883a 	add	r3,r5,r3
   11f60:	30c7c83a 	sub	r3,r6,r3
   11f64:	1800bf1e 	bne	r3,zero,12264 <__umoddi3+0x4b8>
   11f68:	0039883a 	mov	fp,zero
   11f6c:	802ad43a 	srli	r21,r16,16
   11f70:	a009883a 	mov	r4,r20
   11f74:	85ffffcc 	andi	r23,r16,65535
   11f78:	a80b883a 	mov	r5,r21
   11f7c:	00051b00 	call	51b0 <__udivsi3>
   11f80:	a009883a 	mov	r4,r20
   11f84:	a80b883a 	mov	r5,r21
   11f88:	b8a3383a 	mul	r17,r23,r2
   11f8c:	00051b80 	call	51b8 <__umodsi3>
   11f90:	1004943a 	slli	r2,r2,16
   11f94:	b006d43a 	srli	r3,r22,16
   11f98:	10c4b03a 	or	r2,r2,r3
   11f9c:	1440032e 	bgeu	r2,r17,11fac <__umoddi3+0x200>
   11fa0:	1405883a 	add	r2,r2,r16
   11fa4:	14000136 	bltu	r2,r16,11fac <__umoddi3+0x200>
   11fa8:	1440e536 	bltu	r2,r17,12340 <__umoddi3+0x594>
   11fac:	1463c83a 	sub	r17,r2,r17
   11fb0:	8809883a 	mov	r4,r17
   11fb4:	a80b883a 	mov	r5,r21
   11fb8:	00051b00 	call	51b0 <__udivsi3>
   11fbc:	8809883a 	mov	r4,r17
   11fc0:	b8a3383a 	mul	r17,r23,r2
   11fc4:	a80b883a 	mov	r5,r21
   11fc8:	00051b80 	call	51b8 <__umodsi3>
   11fcc:	1004943a 	slli	r2,r2,16
   11fd0:	b0ffffcc 	andi	r3,r22,65535
   11fd4:	10c4b03a 	or	r2,r2,r3
   11fd8:	1440042e 	bgeu	r2,r17,11fec <__umoddi3+0x240>
   11fdc:	1405883a 	add	r2,r2,r16
   11fe0:	14000236 	bltu	r2,r16,11fec <__umoddi3+0x240>
   11fe4:	1440012e 	bgeu	r2,r17,11fec <__umoddi3+0x240>
   11fe8:	1405883a 	add	r2,r2,r16
   11fec:	1445c83a 	sub	r2,r2,r17
   11ff0:	1724d83a 	srl	r18,r2,fp
   11ff4:	0013883a 	mov	r9,zero
   11ff8:	9011883a 	mov	r8,r18
   11ffc:	003fa906 	br	11ea4 <__umoddi3+0xf8>
   12000:	00804034 	movhi	r2,256
   12004:	10bfffc4 	addi	r2,r2,-1
   12008:	1400b036 	bltu	r2,r16,122cc <__umoddi3+0x520>
   1200c:	01400404 	movi	r5,16
   12010:	2805883a 	mov	r2,r5
   12014:	003f7c06 	br	11e08 <__umoddi3+0x5c>
   12018:	01000044 	movi	r4,1
   1201c:	000b883a 	mov	r5,zero
   12020:	00051b00 	call	51b0 <__udivsi3>
   12024:	1021883a 	mov	r16,r2
   12028:	00bfffd4 	movui	r2,65535
   1202c:	143ff436 	bltu	r2,r16,12000 <__umoddi3+0x254>
   12030:	003f7106 	br	11df8 <__umoddi3+0x4c>
   12034:	00804034 	movhi	r2,256
   12038:	10bfffc4 	addi	r2,r2,-1
   1203c:	1180af36 	bltu	r2,r6,122fc <__umoddi3+0x550>
   12040:	01400404 	movi	r5,16
   12044:	2805883a 	mov	r2,r5
   12048:	003fbe06 	br	11f44 <__umoddi3+0x198>
   1204c:	00804034 	movhi	r2,256
   12050:	10bfffc4 	addi	r2,r2,-1
   12054:	11c0ac36 	bltu	r2,r7,12308 <__umoddi3+0x55c>
   12058:	01400404 	movi	r5,16
   1205c:	2805883a 	mov	r2,r5
   12060:	003fa406 	br	11ef4 <__umoddi3+0x148>
   12064:	b409c83a 	sub	r4,r22,r16
   12068:	b105803a 	cmpltu	r2,r22,r4
   1206c:	a187c83a 	sub	r3,r20,r6
   12070:	18a9c83a 	sub	r20,r3,r2
   12074:	202d883a 	mov	r22,r4
   12078:	003fa906 	br	11f20 <__umoddi3+0x174>
   1207c:	85e0983a 	sll	r16,r16,r23
   12080:	35c5c83a 	sub	r2,r6,r23
   12084:	a0a2d83a 	srl	r17,r20,r2
   12088:	802ad43a 	srli	r21,r16,16
   1208c:	b084d83a 	srl	r2,r22,r2
   12090:	a5c6983a 	sll	r3,r20,r23
   12094:	8809883a 	mov	r4,r17
   12098:	a80b883a 	mov	r5,r21
   1209c:	1886b03a 	or	r3,r3,r2
   120a0:	d8c00115 	stw	r3,4(sp)
   120a4:	853fffcc 	andi	r20,r16,65535
   120a8:	00051b00 	call	51b0 <__udivsi3>
   120ac:	8809883a 	mov	r4,r17
   120b0:	a80b883a 	mov	r5,r21
   120b4:	a0a3383a 	mul	r17,r20,r2
   120b8:	00051b80 	call	51b8 <__umodsi3>
   120bc:	d9000117 	ldw	r4,4(sp)
   120c0:	1004943a 	slli	r2,r2,16
   120c4:	b839883a 	mov	fp,r23
   120c8:	2006d43a 	srli	r3,r4,16
   120cc:	10c4b03a 	or	r2,r2,r3
   120d0:	1440022e 	bgeu	r2,r17,120dc <__umoddi3+0x330>
   120d4:	1405883a 	add	r2,r2,r16
   120d8:	1400962e 	bgeu	r2,r16,12334 <__umoddi3+0x588>
   120dc:	1463c83a 	sub	r17,r2,r17
   120e0:	8809883a 	mov	r4,r17
   120e4:	a80b883a 	mov	r5,r21
   120e8:	00051b00 	call	51b0 <__udivsi3>
   120ec:	8809883a 	mov	r4,r17
   120f0:	a80b883a 	mov	r5,r21
   120f4:	a0a3383a 	mul	r17,r20,r2
   120f8:	00051b80 	call	51b8 <__umodsi3>
   120fc:	d9400117 	ldw	r5,4(sp)
   12100:	1004943a 	slli	r2,r2,16
   12104:	28ffffcc 	andi	r3,r5,65535
   12108:	10c4b03a 	or	r2,r2,r3
   1210c:	1440042e 	bgeu	r2,r17,12120 <__umoddi3+0x374>
   12110:	1405883a 	add	r2,r2,r16
   12114:	14000236 	bltu	r2,r16,12120 <__umoddi3+0x374>
   12118:	1440012e 	bgeu	r2,r17,12120 <__umoddi3+0x374>
   1211c:	1405883a 	add	r2,r2,r16
   12120:	b5ec983a 	sll	r22,r22,r23
   12124:	1463c83a 	sub	r17,r2,r17
   12128:	003f4406 	br	11e3c <__umoddi3+0x90>
   1212c:	3d4fc83a 	sub	r7,r7,r21
   12130:	3546983a 	sll	r3,r6,r21
   12134:	81c4d83a 	srl	r2,r16,r7
   12138:	a1e2d83a 	srl	r17,r20,r7
   1213c:	a54c983a 	sll	r6,r20,r21
   12140:	18aeb03a 	or	r23,r3,r2
   12144:	b828d43a 	srli	r20,r23,16
   12148:	b1c4d83a 	srl	r2,r22,r7
   1214c:	8809883a 	mov	r4,r17
   12150:	a00b883a 	mov	r5,r20
   12154:	308cb03a 	or	r6,r6,r2
   12158:	d9c00315 	stw	r7,12(sp)
   1215c:	d9800215 	stw	r6,8(sp)
   12160:	00051b00 	call	51b0 <__udivsi3>
   12164:	8809883a 	mov	r4,r17
   12168:	a00b883a 	mov	r5,r20
   1216c:	1039883a 	mov	fp,r2
   12170:	00051b80 	call	51b8 <__umodsi3>
   12174:	b8ffffcc 	andi	r3,r23,65535
   12178:	d8c00415 	stw	r3,16(sp)
   1217c:	d9000217 	ldw	r4,8(sp)
   12180:	d9400417 	ldw	r5,16(sp)
   12184:	1004943a 	slli	r2,r2,16
   12188:	2006d43a 	srli	r3,r4,16
   1218c:	8560983a 	sll	r16,r16,r21
   12190:	2f23383a 	mul	r17,r5,fp
   12194:	10c4b03a 	or	r2,r2,r3
   12198:	dc000015 	stw	r16,0(sp)
   1219c:	b56c983a 	sll	r22,r22,r21
   121a0:	1440032e 	bgeu	r2,r17,121b0 <__umoddi3+0x404>
   121a4:	15c5883a 	add	r2,r2,r23
   121a8:	e73fffc4 	addi	fp,fp,-1
   121ac:	15c05d2e 	bgeu	r2,r23,12324 <__umoddi3+0x578>
   121b0:	1463c83a 	sub	r17,r2,r17
   121b4:	8809883a 	mov	r4,r17
   121b8:	a00b883a 	mov	r5,r20
   121bc:	00051b00 	call	51b0 <__udivsi3>
   121c0:	8809883a 	mov	r4,r17
   121c4:	a00b883a 	mov	r5,r20
   121c8:	1021883a 	mov	r16,r2
   121cc:	00051b80 	call	51b8 <__umodsi3>
   121d0:	d8c00417 	ldw	r3,16(sp)
   121d4:	d9000217 	ldw	r4,8(sp)
   121d8:	1004943a 	slli	r2,r2,16
   121dc:	1c23383a 	mul	r17,r3,r16
   121e0:	20ffffcc 	andi	r3,r4,65535
   121e4:	10ceb03a 	or	r7,r2,r3
   121e8:	3c40032e 	bgeu	r7,r17,121f8 <__umoddi3+0x44c>
   121ec:	3dcf883a 	add	r7,r7,r23
   121f0:	843fffc4 	addi	r16,r16,-1
   121f4:	3dc0472e 	bgeu	r7,r23,12314 <__umoddi3+0x568>
   121f8:	e004943a 	slli	r2,fp,16
   121fc:	d9400017 	ldw	r5,0(sp)
   12200:	3c4fc83a 	sub	r7,r7,r17
   12204:	8084b03a 	or	r2,r16,r2
   12208:	28ffffcc 	andi	r3,r5,65535
   1220c:	280cd43a 	srli	r6,r5,16
   12210:	100ad43a 	srli	r5,r2,16
   12214:	10bfffcc 	andi	r2,r2,65535
   12218:	10d1383a 	mul	r8,r2,r3
   1221c:	28c7383a 	mul	r3,r5,r3
   12220:	1185383a 	mul	r2,r2,r6
   12224:	4008d43a 	srli	r4,r8,16
   12228:	298b383a 	mul	r5,r5,r6
   1222c:	10c5883a 	add	r2,r2,r3
   12230:	2089883a 	add	r4,r4,r2
   12234:	20c0022e 	bgeu	r4,r3,12240 <__umoddi3+0x494>
   12238:	00800074 	movhi	r2,1
   1223c:	288b883a 	add	r5,r5,r2
   12240:	2004d43a 	srli	r2,r4,16
   12244:	2008943a 	slli	r4,r4,16
   12248:	40ffffcc 	andi	r3,r8,65535
   1224c:	288b883a 	add	r5,r5,r2
   12250:	20c9883a 	add	r4,r4,r3
   12254:	39400b36 	bltu	r7,r5,12284 <__umoddi3+0x4d8>
   12258:	39403d26 	beq	r7,r5,12350 <__umoddi3+0x5a4>
   1225c:	394bc83a 	sub	r5,r7,r5
   12260:	00000f06 	br	122a0 <__umoddi3+0x4f4>
   12264:	30c5c83a 	sub	r2,r6,r3
   12268:	1839883a 	mov	fp,r3
   1226c:	b084d83a 	srl	r2,r22,r2
   12270:	a0c6983a 	sll	r3,r20,r3
   12274:	8720983a 	sll	r16,r16,fp
   12278:	b72c983a 	sll	r22,r22,fp
   1227c:	18a8b03a 	or	r20,r3,r2
   12280:	003f3a06 	br	11f6c <__umoddi3+0x1c0>
   12284:	d8c00017 	ldw	r3,0(sp)
   12288:	20c5c83a 	sub	r2,r4,r3
   1228c:	2089803a 	cmpltu	r4,r4,r2
   12290:	2dc7c83a 	sub	r3,r5,r23
   12294:	1907c83a 	sub	r3,r3,r4
   12298:	38cbc83a 	sub	r5,r7,r3
   1229c:	1009883a 	mov	r4,r2
   122a0:	b105c83a 	sub	r2,r22,r4
   122a4:	b087803a 	cmpltu	r3,r22,r2
   122a8:	28c7c83a 	sub	r3,r5,r3
   122ac:	d9400317 	ldw	r5,12(sp)
   122b0:	1544d83a 	srl	r2,r2,r21
   122b4:	1948983a 	sll	r4,r3,r5
   122b8:	1d46d83a 	srl	r3,r3,r21
   122bc:	20a4b03a 	or	r18,r4,r2
   122c0:	9011883a 	mov	r8,r18
   122c4:	1813883a 	mov	r9,r3
   122c8:	003ef606 	br	11ea4 <__umoddi3+0xf8>
   122cc:	01400604 	movi	r5,24
   122d0:	2805883a 	mov	r2,r5
   122d4:	003ecc06 	br	11e08 <__umoddi3+0x5c>
   122d8:	01400204 	movi	r5,8
   122dc:	2805883a 	mov	r2,r5
   122e0:	003ec906 	br	11e08 <__umoddi3+0x5c>
   122e4:	01400204 	movi	r5,8
   122e8:	2805883a 	mov	r2,r5
   122ec:	003f0106 	br	11ef4 <__umoddi3+0x148>
   122f0:	01400204 	movi	r5,8
   122f4:	2805883a 	mov	r2,r5
   122f8:	003f1206 	br	11f44 <__umoddi3+0x198>
   122fc:	01400604 	movi	r5,24
   12300:	2805883a 	mov	r2,r5
   12304:	003f0f06 	br	11f44 <__umoddi3+0x198>
   12308:	01400604 	movi	r5,24
   1230c:	2805883a 	mov	r2,r5
   12310:	003ef806 	br	11ef4 <__umoddi3+0x148>
   12314:	3c7fb82e 	bgeu	r7,r17,121f8 <__umoddi3+0x44c>
   12318:	843fffc4 	addi	r16,r16,-1
   1231c:	3dcf883a 	add	r7,r7,r23
   12320:	003fb506 	br	121f8 <__umoddi3+0x44c>
   12324:	147fa22e 	bgeu	r2,r17,121b0 <__umoddi3+0x404>
   12328:	e73fffc4 	addi	fp,fp,-1
   1232c:	15c5883a 	add	r2,r2,r23
   12330:	003f9f06 	br	121b0 <__umoddi3+0x404>
   12334:	147f692e 	bgeu	r2,r17,120dc <__umoddi3+0x330>
   12338:	1405883a 	add	r2,r2,r16
   1233c:	003f6706 	br	120dc <__umoddi3+0x330>
   12340:	1405883a 	add	r2,r2,r16
   12344:	003f1906 	br	11fac <__umoddi3+0x200>
   12348:	1405883a 	add	r2,r2,r16
   1234c:	003ec906 	br	11e74 <__umoddi3+0xc8>
   12350:	b13fcc36 	bltu	r22,r4,12284 <__umoddi3+0x4d8>
   12354:	000b883a 	mov	r5,zero
   12358:	003fd106 	br	122a0 <__umoddi3+0x4f4>

0001235c <__nesf2>:
   1235c:	defff304 	addi	sp,sp,-52
   12360:	dc400b15 	stw	r17,44(sp)
   12364:	dc400204 	addi	r17,sp,8
   12368:	dc000a15 	stw	r16,40(sp)
   1236c:	d9000015 	stw	r4,0(sp)
   12370:	d9400115 	stw	r5,4(sp)
   12374:	d809883a 	mov	r4,sp
   12378:	880b883a 	mov	r5,r17
   1237c:	dc000604 	addi	r16,sp,24
   12380:	dfc00c15 	stw	ra,48(sp)
   12384:	00135f40 	call	135f4 <__unpack_f>
   12388:	d9000104 	addi	r4,sp,4
   1238c:	800b883a 	mov	r5,r16
   12390:	00135f40 	call	135f4 <__unpack_f>
   12394:	d8800217 	ldw	r2,8(sp)
   12398:	00c00044 	movi	r3,1
   1239c:	180d883a 	mov	r6,r3
   123a0:	1880062e 	bgeu	r3,r2,123bc <__nesf2+0x60>
   123a4:	d8800617 	ldw	r2,24(sp)
   123a8:	8809883a 	mov	r4,r17
   123ac:	800b883a 	mov	r5,r16
   123b0:	1880022e 	bgeu	r3,r2,123bc <__nesf2+0x60>
   123b4:	00136bc0 	call	136bc <__fpcmp_parts_f>
   123b8:	100d883a 	mov	r6,r2
   123bc:	3005883a 	mov	r2,r6
   123c0:	dfc00c17 	ldw	ra,48(sp)
   123c4:	dc400b17 	ldw	r17,44(sp)
   123c8:	dc000a17 	ldw	r16,40(sp)
   123cc:	dec00d04 	addi	sp,sp,52
   123d0:	f800283a 	ret

000123d4 <__gtsf2>:
   123d4:	defff304 	addi	sp,sp,-52
   123d8:	dc400b15 	stw	r17,44(sp)
   123dc:	dc400204 	addi	r17,sp,8
   123e0:	dc000a15 	stw	r16,40(sp)
   123e4:	d9000015 	stw	r4,0(sp)
   123e8:	d9400115 	stw	r5,4(sp)
   123ec:	d809883a 	mov	r4,sp
   123f0:	880b883a 	mov	r5,r17
   123f4:	dc000604 	addi	r16,sp,24
   123f8:	dfc00c15 	stw	ra,48(sp)
   123fc:	00135f40 	call	135f4 <__unpack_f>
   12400:	d9000104 	addi	r4,sp,4
   12404:	800b883a 	mov	r5,r16
   12408:	00135f40 	call	135f4 <__unpack_f>
   1240c:	d8800217 	ldw	r2,8(sp)
   12410:	00c00044 	movi	r3,1
   12414:	01bfffc4 	movi	r6,-1
   12418:	1880062e 	bgeu	r3,r2,12434 <__gtsf2+0x60>
   1241c:	d8800617 	ldw	r2,24(sp)
   12420:	8809883a 	mov	r4,r17
   12424:	800b883a 	mov	r5,r16
   12428:	1880022e 	bgeu	r3,r2,12434 <__gtsf2+0x60>
   1242c:	00136bc0 	call	136bc <__fpcmp_parts_f>
   12430:	100d883a 	mov	r6,r2
   12434:	3005883a 	mov	r2,r6
   12438:	dfc00c17 	ldw	ra,48(sp)
   1243c:	dc400b17 	ldw	r17,44(sp)
   12440:	dc000a17 	ldw	r16,40(sp)
   12444:	dec00d04 	addi	sp,sp,52
   12448:	f800283a 	ret

0001244c <__ltsf2>:
   1244c:	defff304 	addi	sp,sp,-52
   12450:	dc400b15 	stw	r17,44(sp)
   12454:	dc400204 	addi	r17,sp,8
   12458:	dc000a15 	stw	r16,40(sp)
   1245c:	d9000015 	stw	r4,0(sp)
   12460:	d9400115 	stw	r5,4(sp)
   12464:	d809883a 	mov	r4,sp
   12468:	880b883a 	mov	r5,r17
   1246c:	dc000604 	addi	r16,sp,24
   12470:	dfc00c15 	stw	ra,48(sp)
   12474:	00135f40 	call	135f4 <__unpack_f>
   12478:	d9000104 	addi	r4,sp,4
   1247c:	800b883a 	mov	r5,r16
   12480:	00135f40 	call	135f4 <__unpack_f>
   12484:	d8800217 	ldw	r2,8(sp)
   12488:	00c00044 	movi	r3,1
   1248c:	180d883a 	mov	r6,r3
   12490:	1880062e 	bgeu	r3,r2,124ac <__ltsf2+0x60>
   12494:	d8800617 	ldw	r2,24(sp)
   12498:	8809883a 	mov	r4,r17
   1249c:	800b883a 	mov	r5,r16
   124a0:	1880022e 	bgeu	r3,r2,124ac <__ltsf2+0x60>
   124a4:	00136bc0 	call	136bc <__fpcmp_parts_f>
   124a8:	100d883a 	mov	r6,r2
   124ac:	3005883a 	mov	r2,r6
   124b0:	dfc00c17 	ldw	ra,48(sp)
   124b4:	dc400b17 	ldw	r17,44(sp)
   124b8:	dc000a17 	ldw	r16,40(sp)
   124bc:	dec00d04 	addi	sp,sp,52
   124c0:	f800283a 	ret

000124c4 <_fpadd_parts>:
   124c4:	defff804 	addi	sp,sp,-32
   124c8:	dcc00315 	stw	r19,12(sp)
   124cc:	2027883a 	mov	r19,r4
   124d0:	21000017 	ldw	r4,0(r4)
   124d4:	00c00044 	movi	r3,1
   124d8:	dd400515 	stw	r21,20(sp)
   124dc:	dd000415 	stw	r20,16(sp)
   124e0:	ddc00715 	stw	r23,28(sp)
   124e4:	dd800615 	stw	r22,24(sp)
   124e8:	dc800215 	stw	r18,8(sp)
   124ec:	dc400115 	stw	r17,4(sp)
   124f0:	dc000015 	stw	r16,0(sp)
   124f4:	282b883a 	mov	r21,r5
   124f8:	3029883a 	mov	r20,r6
   124fc:	1900632e 	bgeu	r3,r4,1268c <_fpadd_parts+0x1c8>
   12500:	28800017 	ldw	r2,0(r5)
   12504:	1880812e 	bgeu	r3,r2,1270c <_fpadd_parts+0x248>
   12508:	00c00104 	movi	r3,4
   1250c:	20c0dc26 	beq	r4,r3,12880 <_fpadd_parts+0x3bc>
   12510:	10c07e26 	beq	r2,r3,1270c <_fpadd_parts+0x248>
   12514:	00c00084 	movi	r3,2
   12518:	10c06726 	beq	r2,r3,126b8 <_fpadd_parts+0x1f4>
   1251c:	20c07b26 	beq	r4,r3,1270c <_fpadd_parts+0x248>
   12520:	9dc00217 	ldw	r23,8(r19)
   12524:	28c00217 	ldw	r3,8(r5)
   12528:	9c400317 	ldw	r17,12(r19)
   1252c:	2bc00317 	ldw	r15,12(r5)
   12530:	b8cdc83a 	sub	r6,r23,r3
   12534:	9c800417 	ldw	r18,16(r19)
   12538:	2c000417 	ldw	r16,16(r5)
   1253c:	3009883a 	mov	r4,r6
   12540:	30009716 	blt	r6,zero,127a0 <_fpadd_parts+0x2dc>
   12544:	00800fc4 	movi	r2,63
   12548:	11806b16 	blt	r2,r6,126f8 <_fpadd_parts+0x234>
   1254c:	0100a40e 	bge	zero,r4,127e0 <_fpadd_parts+0x31c>
   12550:	35bff804 	addi	r22,r6,-32
   12554:	b000bc16 	blt	r22,zero,12848 <_fpadd_parts+0x384>
   12558:	8596d83a 	srl	r11,r16,r22
   1255c:	0019883a 	mov	r12,zero
   12560:	0013883a 	mov	r9,zero
   12564:	01000044 	movi	r4,1
   12568:	0015883a 	mov	r10,zero
   1256c:	b000be16 	blt	r22,zero,12868 <_fpadd_parts+0x3a4>
   12570:	2590983a 	sll	r8,r4,r22
   12574:	000f883a 	mov	r7,zero
   12578:	00bfffc4 	movi	r2,-1
   1257c:	3889883a 	add	r4,r7,r2
   12580:	408b883a 	add	r5,r8,r2
   12584:	21cd803a 	cmpltu	r6,r4,r7
   12588:	314b883a 	add	r5,r6,r5
   1258c:	7904703a 	and	r2,r15,r4
   12590:	8146703a 	and	r3,r16,r5
   12594:	10c4b03a 	or	r2,r2,r3
   12598:	10000226 	beq	r2,zero,125a4 <_fpadd_parts+0xe0>
   1259c:	02400044 	movi	r9,1
   125a0:	0015883a 	mov	r10,zero
   125a4:	5a5eb03a 	or	r15,r11,r9
   125a8:	62a0b03a 	or	r16,r12,r10
   125ac:	99400117 	ldw	r5,4(r19)
   125b0:	a8800117 	ldw	r2,4(r21)
   125b4:	28806e26 	beq	r5,r2,12770 <_fpadd_parts+0x2ac>
   125b8:	28006626 	beq	r5,zero,12754 <_fpadd_parts+0x290>
   125bc:	7c45c83a 	sub	r2,r15,r17
   125c0:	7889803a 	cmpltu	r4,r15,r2
   125c4:	8487c83a 	sub	r3,r16,r18
   125c8:	1909c83a 	sub	r4,r3,r4
   125cc:	100d883a 	mov	r6,r2
   125d0:	200f883a 	mov	r7,r4
   125d4:	38007716 	blt	r7,zero,127b4 <_fpadd_parts+0x2f0>
   125d8:	a5c00215 	stw	r23,8(r20)
   125dc:	a1c00415 	stw	r7,16(r20)
   125e0:	a0000115 	stw	zero,4(r20)
   125e4:	a1800315 	stw	r6,12(r20)
   125e8:	a2000317 	ldw	r8,12(r20)
   125ec:	a2400417 	ldw	r9,16(r20)
   125f0:	00bfffc4 	movi	r2,-1
   125f4:	408b883a 	add	r5,r8,r2
   125f8:	2a09803a 	cmpltu	r4,r5,r8
   125fc:	488d883a 	add	r6,r9,r2
   12600:	01c40034 	movhi	r7,4096
   12604:	39ffffc4 	addi	r7,r7,-1
   12608:	218d883a 	add	r6,r4,r6
   1260c:	39801736 	bltu	r7,r6,1266c <_fpadd_parts+0x1a8>
   12610:	31c06526 	beq	r6,r7,127a8 <_fpadd_parts+0x2e4>
   12614:	a3000217 	ldw	r12,8(r20)
   12618:	4209883a 	add	r4,r8,r8
   1261c:	00bfffc4 	movi	r2,-1
   12620:	220f803a 	cmpltu	r7,r4,r8
   12624:	4a4b883a 	add	r5,r9,r9
   12628:	394f883a 	add	r7,r7,r5
   1262c:	2095883a 	add	r10,r4,r2
   12630:	3897883a 	add	r11,r7,r2
   12634:	510d803a 	cmpltu	r6,r10,r4
   12638:	6099883a 	add	r12,r12,r2
   1263c:	32d7883a 	add	r11,r6,r11
   12640:	00840034 	movhi	r2,4096
   12644:	10bfffc4 	addi	r2,r2,-1
   12648:	2011883a 	mov	r8,r4
   1264c:	3813883a 	mov	r9,r7
   12650:	a1000315 	stw	r4,12(r20)
   12654:	a1c00415 	stw	r7,16(r20)
   12658:	a3000215 	stw	r12,8(r20)
   1265c:	12c00336 	bltu	r2,r11,1266c <_fpadd_parts+0x1a8>
   12660:	58bfed1e 	bne	r11,r2,12618 <_fpadd_parts+0x154>
   12664:	00bfff84 	movi	r2,-2
   12668:	12bfeb2e 	bgeu	r2,r10,12618 <_fpadd_parts+0x154>
   1266c:	a2800417 	ldw	r10,16(r20)
   12670:	008000c4 	movi	r2,3
   12674:	00c80034 	movhi	r3,8192
   12678:	18ffffc4 	addi	r3,r3,-1
   1267c:	a2400317 	ldw	r9,12(r20)
   12680:	a0800015 	stw	r2,0(r20)
   12684:	1a802336 	bltu	r3,r10,12714 <_fpadd_parts+0x250>
   12688:	a027883a 	mov	r19,r20
   1268c:	9805883a 	mov	r2,r19
   12690:	ddc00717 	ldw	r23,28(sp)
   12694:	dd800617 	ldw	r22,24(sp)
   12698:	dd400517 	ldw	r21,20(sp)
   1269c:	dd000417 	ldw	r20,16(sp)
   126a0:	dcc00317 	ldw	r19,12(sp)
   126a4:	dc800217 	ldw	r18,8(sp)
   126a8:	dc400117 	ldw	r17,4(sp)
   126ac:	dc000017 	ldw	r16,0(sp)
   126b0:	dec00804 	addi	sp,sp,32
   126b4:	f800283a 	ret
   126b8:	20fff41e 	bne	r4,r3,1268c <_fpadd_parts+0x1c8>
   126bc:	31000015 	stw	r4,0(r6)
   126c0:	98800117 	ldw	r2,4(r19)
   126c4:	30800115 	stw	r2,4(r6)
   126c8:	98c00217 	ldw	r3,8(r19)
   126cc:	30c00215 	stw	r3,8(r6)
   126d0:	98800317 	ldw	r2,12(r19)
   126d4:	30800315 	stw	r2,12(r6)
   126d8:	98c00417 	ldw	r3,16(r19)
   126dc:	30c00415 	stw	r3,16(r6)
   126e0:	98800117 	ldw	r2,4(r19)
   126e4:	28c00117 	ldw	r3,4(r5)
   126e8:	3027883a 	mov	r19,r6
   126ec:	10c4703a 	and	r2,r2,r3
   126f0:	30800115 	stw	r2,4(r6)
   126f4:	003fe506 	br	1268c <_fpadd_parts+0x1c8>
   126f8:	1dc02616 	blt	r3,r23,12794 <_fpadd_parts+0x2d0>
   126fc:	0023883a 	mov	r17,zero
   12700:	182f883a 	mov	r23,r3
   12704:	0025883a 	mov	r18,zero
   12708:	003fa806 	br	125ac <_fpadd_parts+0xe8>
   1270c:	a827883a 	mov	r19,r21
   12710:	003fde06 	br	1268c <_fpadd_parts+0x1c8>
   12714:	01800044 	movi	r6,1
   12718:	500497fa 	slli	r2,r10,31
   1271c:	4808d07a 	srli	r4,r9,1
   12720:	518ad83a 	srl	r5,r10,r6
   12724:	a2000217 	ldw	r8,8(r20)
   12728:	1108b03a 	or	r4,r2,r4
   1272c:	0007883a 	mov	r3,zero
   12730:	4984703a 	and	r2,r9,r6
   12734:	208cb03a 	or	r6,r4,r2
   12738:	28ceb03a 	or	r7,r5,r3
   1273c:	42000044 	addi	r8,r8,1
   12740:	a027883a 	mov	r19,r20
   12744:	a1c00415 	stw	r7,16(r20)
   12748:	a2000215 	stw	r8,8(r20)
   1274c:	a1800315 	stw	r6,12(r20)
   12750:	003fce06 	br	1268c <_fpadd_parts+0x1c8>
   12754:	8bc5c83a 	sub	r2,r17,r15
   12758:	8889803a 	cmpltu	r4,r17,r2
   1275c:	9407c83a 	sub	r3,r18,r16
   12760:	1909c83a 	sub	r4,r3,r4
   12764:	100d883a 	mov	r6,r2
   12768:	200f883a 	mov	r7,r4
   1276c:	003f9906 	br	125d4 <_fpadd_parts+0x110>
   12770:	7c45883a 	add	r2,r15,r17
   12774:	13c9803a 	cmpltu	r4,r2,r15
   12778:	8487883a 	add	r3,r16,r18
   1277c:	20c9883a 	add	r4,r4,r3
   12780:	a1400115 	stw	r5,4(r20)
   12784:	a5c00215 	stw	r23,8(r20)
   12788:	a0800315 	stw	r2,12(r20)
   1278c:	a1000415 	stw	r4,16(r20)
   12790:	003fb606 	br	1266c <_fpadd_parts+0x1a8>
   12794:	001f883a 	mov	r15,zero
   12798:	0021883a 	mov	r16,zero
   1279c:	003f8306 	br	125ac <_fpadd_parts+0xe8>
   127a0:	018dc83a 	sub	r6,zero,r6
   127a4:	003f6706 	br	12544 <_fpadd_parts+0x80>
   127a8:	00bfff84 	movi	r2,-2
   127ac:	117faf36 	bltu	r2,r5,1266c <_fpadd_parts+0x1a8>
   127b0:	003f9806 	br	12614 <_fpadd_parts+0x150>
   127b4:	0005883a 	mov	r2,zero
   127b8:	1189c83a 	sub	r4,r2,r6
   127bc:	1105803a 	cmpltu	r2,r2,r4
   127c0:	01cbc83a 	sub	r5,zero,r7
   127c4:	2885c83a 	sub	r2,r5,r2
   127c8:	01800044 	movi	r6,1
   127cc:	a1800115 	stw	r6,4(r20)
   127d0:	a5c00215 	stw	r23,8(r20)
   127d4:	a1000315 	stw	r4,12(r20)
   127d8:	a0800415 	stw	r2,16(r20)
   127dc:	003f8206 	br	125e8 <_fpadd_parts+0x124>
   127e0:	203f7226 	beq	r4,zero,125ac <_fpadd_parts+0xe8>
   127e4:	35bff804 	addi	r22,r6,-32
   127e8:	b9af883a 	add	r23,r23,r6
   127ec:	b0003116 	blt	r22,zero,128b4 <_fpadd_parts+0x3f0>
   127f0:	959ad83a 	srl	r13,r18,r22
   127f4:	001d883a 	mov	r14,zero
   127f8:	000f883a 	mov	r7,zero
   127fc:	01000044 	movi	r4,1
   12800:	0011883a 	mov	r8,zero
   12804:	b0002516 	blt	r22,zero,1289c <_fpadd_parts+0x3d8>
   12808:	2594983a 	sll	r10,r4,r22
   1280c:	0013883a 	mov	r9,zero
   12810:	00bfffc4 	movi	r2,-1
   12814:	4889883a 	add	r4,r9,r2
   12818:	508b883a 	add	r5,r10,r2
   1281c:	224d803a 	cmpltu	r6,r4,r9
   12820:	314b883a 	add	r5,r6,r5
   12824:	8904703a 	and	r2,r17,r4
   12828:	9146703a 	and	r3,r18,r5
   1282c:	10c4b03a 	or	r2,r2,r3
   12830:	10000226 	beq	r2,zero,1283c <_fpadd_parts+0x378>
   12834:	01c00044 	movi	r7,1
   12838:	0011883a 	mov	r8,zero
   1283c:	69e2b03a 	or	r17,r13,r7
   12840:	7224b03a 	or	r18,r14,r8
   12844:	003f5906 	br	125ac <_fpadd_parts+0xe8>
   12848:	8407883a 	add	r3,r16,r16
   1284c:	008007c4 	movi	r2,31
   12850:	1185c83a 	sub	r2,r2,r6
   12854:	1886983a 	sll	r3,r3,r2
   12858:	7996d83a 	srl	r11,r15,r6
   1285c:	8198d83a 	srl	r12,r16,r6
   12860:	1ad6b03a 	or	r11,r3,r11
   12864:	003f3e06 	br	12560 <_fpadd_parts+0x9c>
   12868:	2006d07a 	srli	r3,r4,1
   1286c:	008007c4 	movi	r2,31
   12870:	1185c83a 	sub	r2,r2,r6
   12874:	1890d83a 	srl	r8,r3,r2
   12878:	218e983a 	sll	r7,r4,r6
   1287c:	003f3e06 	br	12578 <_fpadd_parts+0xb4>
   12880:	113f821e 	bne	r2,r4,1268c <_fpadd_parts+0x1c8>
   12884:	28c00117 	ldw	r3,4(r5)
   12888:	98800117 	ldw	r2,4(r19)
   1288c:	10ff7f26 	beq	r2,r3,1268c <_fpadd_parts+0x1c8>
   12890:	04c000b4 	movhi	r19,2
   12894:	9ce22404 	addi	r19,r19,-30576
   12898:	003f7c06 	br	1268c <_fpadd_parts+0x1c8>
   1289c:	2006d07a 	srli	r3,r4,1
   128a0:	008007c4 	movi	r2,31
   128a4:	1185c83a 	sub	r2,r2,r6
   128a8:	1894d83a 	srl	r10,r3,r2
   128ac:	2192983a 	sll	r9,r4,r6
   128b0:	003fd706 	br	12810 <_fpadd_parts+0x34c>
   128b4:	9487883a 	add	r3,r18,r18
   128b8:	008007c4 	movi	r2,31
   128bc:	1185c83a 	sub	r2,r2,r6
   128c0:	1886983a 	sll	r3,r3,r2
   128c4:	899ad83a 	srl	r13,r17,r6
   128c8:	919cd83a 	srl	r14,r18,r6
   128cc:	1b5ab03a 	or	r13,r3,r13
   128d0:	003fc906 	br	127f8 <_fpadd_parts+0x334>

000128d4 <__subdf3>:
   128d4:	deffea04 	addi	sp,sp,-88
   128d8:	dcc01415 	stw	r19,80(sp)
   128dc:	dcc00404 	addi	r19,sp,16
   128e0:	2011883a 	mov	r8,r4
   128e4:	2813883a 	mov	r9,r5
   128e8:	dc401315 	stw	r17,76(sp)
   128ec:	d809883a 	mov	r4,sp
   128f0:	980b883a 	mov	r5,r19
   128f4:	dc400904 	addi	r17,sp,36
   128f8:	dfc01515 	stw	ra,84(sp)
   128fc:	da400115 	stw	r9,4(sp)
   12900:	d9c00315 	stw	r7,12(sp)
   12904:	da000015 	stw	r8,0(sp)
   12908:	d9800215 	stw	r6,8(sp)
   1290c:	00137900 	call	13790 <__unpack_d>
   12910:	d9000204 	addi	r4,sp,8
   12914:	880b883a 	mov	r5,r17
   12918:	00137900 	call	13790 <__unpack_d>
   1291c:	d8800a17 	ldw	r2,40(sp)
   12920:	880b883a 	mov	r5,r17
   12924:	9809883a 	mov	r4,r19
   12928:	d9800e04 	addi	r6,sp,56
   1292c:	1080005c 	xori	r2,r2,1
   12930:	d8800a15 	stw	r2,40(sp)
   12934:	00124c40 	call	124c4 <_fpadd_parts>
   12938:	1009883a 	mov	r4,r2
   1293c:	00052400 	call	5240 <__pack_d>
   12940:	dfc01517 	ldw	ra,84(sp)
   12944:	dcc01417 	ldw	r19,80(sp)
   12948:	dc401317 	ldw	r17,76(sp)
   1294c:	dec01604 	addi	sp,sp,88
   12950:	f800283a 	ret

00012954 <__adddf3>:
   12954:	deffea04 	addi	sp,sp,-88
   12958:	dcc01415 	stw	r19,80(sp)
   1295c:	dcc00404 	addi	r19,sp,16
   12960:	2011883a 	mov	r8,r4
   12964:	2813883a 	mov	r9,r5
   12968:	dc401315 	stw	r17,76(sp)
   1296c:	d809883a 	mov	r4,sp
   12970:	980b883a 	mov	r5,r19
   12974:	dc400904 	addi	r17,sp,36
   12978:	dfc01515 	stw	ra,84(sp)
   1297c:	da400115 	stw	r9,4(sp)
   12980:	d9c00315 	stw	r7,12(sp)
   12984:	da000015 	stw	r8,0(sp)
   12988:	d9800215 	stw	r6,8(sp)
   1298c:	00137900 	call	13790 <__unpack_d>
   12990:	d9000204 	addi	r4,sp,8
   12994:	880b883a 	mov	r5,r17
   12998:	00137900 	call	13790 <__unpack_d>
   1299c:	d9800e04 	addi	r6,sp,56
   129a0:	9809883a 	mov	r4,r19
   129a4:	880b883a 	mov	r5,r17
   129a8:	00124c40 	call	124c4 <_fpadd_parts>
   129ac:	1009883a 	mov	r4,r2
   129b0:	00052400 	call	5240 <__pack_d>
   129b4:	dfc01517 	ldw	ra,84(sp)
   129b8:	dcc01417 	ldw	r19,80(sp)
   129bc:	dc401317 	ldw	r17,76(sp)
   129c0:	dec01604 	addi	sp,sp,88
   129c4:	f800283a 	ret

000129c8 <__muldf3>:
   129c8:	deffe004 	addi	sp,sp,-128
   129cc:	dc401815 	stw	r17,96(sp)
   129d0:	dc400404 	addi	r17,sp,16
   129d4:	2011883a 	mov	r8,r4
   129d8:	2813883a 	mov	r9,r5
   129dc:	dc001715 	stw	r16,92(sp)
   129e0:	d809883a 	mov	r4,sp
   129e4:	880b883a 	mov	r5,r17
   129e8:	dc000904 	addi	r16,sp,36
   129ec:	dfc01f15 	stw	ra,124(sp)
   129f0:	da400115 	stw	r9,4(sp)
   129f4:	d9c00315 	stw	r7,12(sp)
   129f8:	da000015 	stw	r8,0(sp)
   129fc:	d9800215 	stw	r6,8(sp)
   12a00:	ddc01e15 	stw	r23,120(sp)
   12a04:	dd801d15 	stw	r22,116(sp)
   12a08:	dd401c15 	stw	r21,112(sp)
   12a0c:	dd001b15 	stw	r20,108(sp)
   12a10:	dcc01a15 	stw	r19,104(sp)
   12a14:	dc801915 	stw	r18,100(sp)
   12a18:	00137900 	call	13790 <__unpack_d>
   12a1c:	d9000204 	addi	r4,sp,8
   12a20:	800b883a 	mov	r5,r16
   12a24:	00137900 	call	13790 <__unpack_d>
   12a28:	d9000417 	ldw	r4,16(sp)
   12a2c:	00800044 	movi	r2,1
   12a30:	1100102e 	bgeu	r2,r4,12a74 <__muldf3+0xac>
   12a34:	d8c00917 	ldw	r3,36(sp)
   12a38:	10c0062e 	bgeu	r2,r3,12a54 <__muldf3+0x8c>
   12a3c:	00800104 	movi	r2,4
   12a40:	20800a26 	beq	r4,r2,12a6c <__muldf3+0xa4>
   12a44:	1880cc26 	beq	r3,r2,12d78 <__muldf3+0x3b0>
   12a48:	00800084 	movi	r2,2
   12a4c:	20800926 	beq	r4,r2,12a74 <__muldf3+0xac>
   12a50:	1880191e 	bne	r3,r2,12ab8 <__muldf3+0xf0>
   12a54:	d8c00a17 	ldw	r3,40(sp)
   12a58:	d8800517 	ldw	r2,20(sp)
   12a5c:	8009883a 	mov	r4,r16
   12a60:	10c4c03a 	cmpne	r2,r2,r3
   12a64:	d8800a15 	stw	r2,40(sp)
   12a68:	00000706 	br	12a88 <__muldf3+0xc0>
   12a6c:	00800084 	movi	r2,2
   12a70:	1880c326 	beq	r3,r2,12d80 <__muldf3+0x3b8>
   12a74:	d8800517 	ldw	r2,20(sp)
   12a78:	d8c00a17 	ldw	r3,40(sp)
   12a7c:	8809883a 	mov	r4,r17
   12a80:	10c4c03a 	cmpne	r2,r2,r3
   12a84:	d8800515 	stw	r2,20(sp)
   12a88:	00052400 	call	5240 <__pack_d>
   12a8c:	dfc01f17 	ldw	ra,124(sp)
   12a90:	ddc01e17 	ldw	r23,120(sp)
   12a94:	dd801d17 	ldw	r22,116(sp)
   12a98:	dd401c17 	ldw	r21,112(sp)
   12a9c:	dd001b17 	ldw	r20,108(sp)
   12aa0:	dcc01a17 	ldw	r19,104(sp)
   12aa4:	dc801917 	ldw	r18,100(sp)
   12aa8:	dc401817 	ldw	r17,96(sp)
   12aac:	dc001717 	ldw	r16,92(sp)
   12ab0:	dec02004 	addi	sp,sp,128
   12ab4:	f800283a 	ret
   12ab8:	dd800717 	ldw	r22,28(sp)
   12abc:	dc800c17 	ldw	r18,48(sp)
   12ac0:	002b883a 	mov	r21,zero
   12ac4:	0023883a 	mov	r17,zero
   12ac8:	a80b883a 	mov	r5,r21
   12acc:	b00d883a 	mov	r6,r22
   12ad0:	880f883a 	mov	r7,r17
   12ad4:	ddc00817 	ldw	r23,32(sp)
   12ad8:	dcc00d17 	ldw	r19,52(sp)
   12adc:	9009883a 	mov	r4,r18
   12ae0:	00116940 	call	11694 <__muldi3>
   12ae4:	001b883a 	mov	r13,zero
   12ae8:	680f883a 	mov	r7,r13
   12aec:	b009883a 	mov	r4,r22
   12af0:	000b883a 	mov	r5,zero
   12af4:	980d883a 	mov	r6,r19
   12af8:	b82d883a 	mov	r22,r23
   12afc:	002f883a 	mov	r23,zero
   12b00:	db401615 	stw	r13,88(sp)
   12b04:	d8801315 	stw	r2,76(sp)
   12b08:	d8c01415 	stw	r3,80(sp)
   12b0c:	dcc01515 	stw	r19,84(sp)
   12b10:	00116940 	call	11694 <__muldi3>
   12b14:	b00d883a 	mov	r6,r22
   12b18:	000b883a 	mov	r5,zero
   12b1c:	9009883a 	mov	r4,r18
   12b20:	b80f883a 	mov	r7,r23
   12b24:	1021883a 	mov	r16,r2
   12b28:	1823883a 	mov	r17,r3
   12b2c:	00116940 	call	11694 <__muldi3>
   12b30:	8085883a 	add	r2,r16,r2
   12b34:	140d803a 	cmpltu	r6,r2,r16
   12b38:	88c7883a 	add	r3,r17,r3
   12b3c:	30cd883a 	add	r6,r6,r3
   12b40:	1029883a 	mov	r20,r2
   12b44:	302b883a 	mov	r21,r6
   12b48:	da801317 	ldw	r10,76(sp)
   12b4c:	dac01417 	ldw	r11,80(sp)
   12b50:	db001517 	ldw	r12,84(sp)
   12b54:	db401617 	ldw	r13,88(sp)
   12b58:	3440612e 	bgeu	r6,r17,12ce0 <__muldf3+0x318>
   12b5c:	0009883a 	mov	r4,zero
   12b60:	5105883a 	add	r2,r10,r4
   12b64:	128d803a 	cmpltu	r6,r2,r10
   12b68:	5d07883a 	add	r3,r11,r20
   12b6c:	30cd883a 	add	r6,r6,r3
   12b70:	0021883a 	mov	r16,zero
   12b74:	04400044 	movi	r17,1
   12b78:	1025883a 	mov	r18,r2
   12b7c:	3027883a 	mov	r19,r6
   12b80:	32c06236 	bltu	r6,r11,12d0c <__muldf3+0x344>
   12b84:	59807a26 	beq	r11,r6,12d70 <__muldf3+0x3a8>
   12b88:	680b883a 	mov	r5,r13
   12b8c:	b80f883a 	mov	r7,r23
   12b90:	6009883a 	mov	r4,r12
   12b94:	b00d883a 	mov	r6,r22
   12b98:	00116940 	call	11694 <__muldi3>
   12b9c:	1009883a 	mov	r4,r2
   12ba0:	000f883a 	mov	r7,zero
   12ba4:	1545883a 	add	r2,r2,r21
   12ba8:	1111803a 	cmpltu	r8,r2,r4
   12bac:	19c7883a 	add	r3,r3,r7
   12bb0:	40c7883a 	add	r3,r8,r3
   12bb4:	88cb883a 	add	r5,r17,r3
   12bb8:	d8c00617 	ldw	r3,24(sp)
   12bbc:	8089883a 	add	r4,r16,r2
   12bc0:	d8800b17 	ldw	r2,44(sp)
   12bc4:	18c00104 	addi	r3,r3,4
   12bc8:	240d803a 	cmpltu	r6,r4,r16
   12bcc:	10c7883a 	add	r3,r2,r3
   12bd0:	2013883a 	mov	r9,r4
   12bd4:	d8800a17 	ldw	r2,40(sp)
   12bd8:	d9000517 	ldw	r4,20(sp)
   12bdc:	314d883a 	add	r6,r6,r5
   12be0:	3015883a 	mov	r10,r6
   12be4:	2088c03a 	cmpne	r4,r4,r2
   12be8:	00880034 	movhi	r2,8192
   12bec:	10bfffc4 	addi	r2,r2,-1
   12bf0:	d9000f15 	stw	r4,60(sp)
   12bf4:	d8c01015 	stw	r3,64(sp)
   12bf8:	1180162e 	bgeu	r2,r6,12c54 <__muldf3+0x28c>
   12bfc:	1811883a 	mov	r8,r3
   12c00:	101f883a 	mov	r15,r2
   12c04:	980497fa 	slli	r2,r19,31
   12c08:	9016d07a 	srli	r11,r18,1
   12c0c:	500697fa 	slli	r3,r10,31
   12c10:	480cd07a 	srli	r6,r9,1
   12c14:	500ed07a 	srli	r7,r10,1
   12c18:	12d6b03a 	or	r11,r2,r11
   12c1c:	00800044 	movi	r2,1
   12c20:	198cb03a 	or	r6,r3,r6
   12c24:	4888703a 	and	r4,r9,r2
   12c28:	9818d07a 	srli	r12,r19,1
   12c2c:	001b883a 	mov	r13,zero
   12c30:	03a00034 	movhi	r14,32768
   12c34:	3013883a 	mov	r9,r6
   12c38:	3815883a 	mov	r10,r7
   12c3c:	4091883a 	add	r8,r8,r2
   12c40:	20000226 	beq	r4,zero,12c4c <__muldf3+0x284>
   12c44:	5b64b03a 	or	r18,r11,r13
   12c48:	63a6b03a 	or	r19,r12,r14
   12c4c:	7abfed36 	bltu	r15,r10,12c04 <__muldf3+0x23c>
   12c50:	da001015 	stw	r8,64(sp)
   12c54:	00840034 	movhi	r2,4096
   12c58:	10bfffc4 	addi	r2,r2,-1
   12c5c:	12801436 	bltu	r2,r10,12cb0 <__muldf3+0x2e8>
   12c60:	da001017 	ldw	r8,64(sp)
   12c64:	101f883a 	mov	r15,r2
   12c68:	4a45883a 	add	r2,r9,r9
   12c6c:	124d803a 	cmpltu	r6,r2,r9
   12c70:	5287883a 	add	r3,r10,r10
   12c74:	9497883a 	add	r11,r18,r18
   12c78:	5c8f803a 	cmpltu	r7,r11,r18
   12c7c:	9cd9883a 	add	r12,r19,r19
   12c80:	01000044 	movi	r4,1
   12c84:	30cd883a 	add	r6,r6,r3
   12c88:	3b0f883a 	add	r7,r7,r12
   12c8c:	423fffc4 	addi	r8,r8,-1
   12c90:	1013883a 	mov	r9,r2
   12c94:	3015883a 	mov	r10,r6
   12c98:	111ab03a 	or	r13,r2,r4
   12c9c:	98003016 	blt	r19,zero,12d60 <__muldf3+0x398>
   12ca0:	5825883a 	mov	r18,r11
   12ca4:	3827883a 	mov	r19,r7
   12ca8:	7abfef2e 	bgeu	r15,r10,12c68 <__muldf3+0x2a0>
   12cac:	da001015 	stw	r8,64(sp)
   12cb0:	00803fc4 	movi	r2,255
   12cb4:	488e703a 	and	r7,r9,r2
   12cb8:	00802004 	movi	r2,128
   12cbc:	0007883a 	mov	r3,zero
   12cc0:	0011883a 	mov	r8,zero
   12cc4:	38801826 	beq	r7,r2,12d28 <__muldf3+0x360>
   12cc8:	008000c4 	movi	r2,3
   12ccc:	d9000e04 	addi	r4,sp,56
   12cd0:	da801215 	stw	r10,72(sp)
   12cd4:	d8800e15 	stw	r2,56(sp)
   12cd8:	da401115 	stw	r9,68(sp)
   12cdc:	003f6a06 	br	12a88 <__muldf3+0xc0>
   12ce0:	89802126 	beq	r17,r6,12d68 <__muldf3+0x3a0>
   12ce4:	0009883a 	mov	r4,zero
   12ce8:	5105883a 	add	r2,r10,r4
   12cec:	128d803a 	cmpltu	r6,r2,r10
   12cf0:	5d07883a 	add	r3,r11,r20
   12cf4:	30cd883a 	add	r6,r6,r3
   12cf8:	0021883a 	mov	r16,zero
   12cfc:	0023883a 	mov	r17,zero
   12d00:	1025883a 	mov	r18,r2
   12d04:	3027883a 	mov	r19,r6
   12d08:	32ff9e2e 	bgeu	r6,r11,12b84 <__muldf3+0x1bc>
   12d0c:	00800044 	movi	r2,1
   12d10:	8089883a 	add	r4,r16,r2
   12d14:	240d803a 	cmpltu	r6,r4,r16
   12d18:	344d883a 	add	r6,r6,r17
   12d1c:	2021883a 	mov	r16,r4
   12d20:	3023883a 	mov	r17,r6
   12d24:	003f9806 	br	12b88 <__muldf3+0x1c0>
   12d28:	403fe71e 	bne	r8,zero,12cc8 <__muldf3+0x300>
   12d2c:	01004004 	movi	r4,256
   12d30:	4904703a 	and	r2,r9,r4
   12d34:	10c4b03a 	or	r2,r2,r3
   12d38:	103fe31e 	bne	r2,zero,12cc8 <__muldf3+0x300>
   12d3c:	94c4b03a 	or	r2,r18,r19
   12d40:	103fe126 	beq	r2,zero,12cc8 <__muldf3+0x300>
   12d44:	49c5883a 	add	r2,r9,r7
   12d48:	1251803a 	cmpltu	r8,r2,r9
   12d4c:	4291883a 	add	r8,r8,r10
   12d50:	013fc004 	movi	r4,-256
   12d54:	1112703a 	and	r9,r2,r4
   12d58:	4015883a 	mov	r10,r8
   12d5c:	003fda06 	br	12cc8 <__muldf3+0x300>
   12d60:	6813883a 	mov	r9,r13
   12d64:	003fce06 	br	12ca0 <__muldf3+0x2d8>
   12d68:	143f7c36 	bltu	r2,r16,12b5c <__muldf3+0x194>
   12d6c:	003fdd06 	br	12ce4 <__muldf3+0x31c>
   12d70:	12bf852e 	bgeu	r2,r10,12b88 <__muldf3+0x1c0>
   12d74:	003fe506 	br	12d0c <__muldf3+0x344>
   12d78:	00800084 	movi	r2,2
   12d7c:	20bf351e 	bne	r4,r2,12a54 <__muldf3+0x8c>
   12d80:	010000b4 	movhi	r4,2
   12d84:	21222404 	addi	r4,r4,-30576
   12d88:	003f3f06 	br	12a88 <__muldf3+0xc0>

00012d8c <__divdf3>:
   12d8c:	deffed04 	addi	sp,sp,-76
   12d90:	dcc01115 	stw	r19,68(sp)
   12d94:	dcc00404 	addi	r19,sp,16
   12d98:	2011883a 	mov	r8,r4
   12d9c:	2813883a 	mov	r9,r5
   12da0:	dc000e15 	stw	r16,56(sp)
   12da4:	d809883a 	mov	r4,sp
   12da8:	980b883a 	mov	r5,r19
   12dac:	dc000904 	addi	r16,sp,36
   12db0:	dfc01215 	stw	ra,72(sp)
   12db4:	da400115 	stw	r9,4(sp)
   12db8:	d9c00315 	stw	r7,12(sp)
   12dbc:	da000015 	stw	r8,0(sp)
   12dc0:	d9800215 	stw	r6,8(sp)
   12dc4:	dc801015 	stw	r18,64(sp)
   12dc8:	dc400f15 	stw	r17,60(sp)
   12dcc:	00137900 	call	13790 <__unpack_d>
   12dd0:	d9000204 	addi	r4,sp,8
   12dd4:	800b883a 	mov	r5,r16
   12dd8:	00137900 	call	13790 <__unpack_d>
   12ddc:	d9000417 	ldw	r4,16(sp)
   12de0:	00800044 	movi	r2,1
   12de4:	11000b2e 	bgeu	r2,r4,12e14 <__divdf3+0x88>
   12de8:	d9400917 	ldw	r5,36(sp)
   12dec:	1140762e 	bgeu	r2,r5,12fc8 <__divdf3+0x23c>
   12df0:	d8800517 	ldw	r2,20(sp)
   12df4:	d8c00a17 	ldw	r3,40(sp)
   12df8:	01800104 	movi	r6,4
   12dfc:	10c4f03a 	xor	r2,r2,r3
   12e00:	d8800515 	stw	r2,20(sp)
   12e04:	21800226 	beq	r4,r6,12e10 <__divdf3+0x84>
   12e08:	00800084 	movi	r2,2
   12e0c:	2080141e 	bne	r4,r2,12e60 <__divdf3+0xd4>
   12e10:	29000926 	beq	r5,r4,12e38 <__divdf3+0xac>
   12e14:	9809883a 	mov	r4,r19
   12e18:	00052400 	call	5240 <__pack_d>
   12e1c:	dfc01217 	ldw	ra,72(sp)
   12e20:	dcc01117 	ldw	r19,68(sp)
   12e24:	dc801017 	ldw	r18,64(sp)
   12e28:	dc400f17 	ldw	r17,60(sp)
   12e2c:	dc000e17 	ldw	r16,56(sp)
   12e30:	dec01304 	addi	sp,sp,76
   12e34:	f800283a 	ret
   12e38:	010000b4 	movhi	r4,2
   12e3c:	21222404 	addi	r4,r4,-30576
   12e40:	00052400 	call	5240 <__pack_d>
   12e44:	dfc01217 	ldw	ra,72(sp)
   12e48:	dcc01117 	ldw	r19,68(sp)
   12e4c:	dc801017 	ldw	r18,64(sp)
   12e50:	dc400f17 	ldw	r17,60(sp)
   12e54:	dc000e17 	ldw	r16,56(sp)
   12e58:	dec01304 	addi	sp,sp,76
   12e5c:	f800283a 	ret
   12e60:	29805b26 	beq	r5,r6,12fd0 <__divdf3+0x244>
   12e64:	28802d26 	beq	r5,r2,12f1c <__divdf3+0x190>
   12e68:	d8c00617 	ldw	r3,24(sp)
   12e6c:	d8800b17 	ldw	r2,44(sp)
   12e70:	d9c00817 	ldw	r7,32(sp)
   12e74:	dc400d17 	ldw	r17,52(sp)
   12e78:	188bc83a 	sub	r5,r3,r2
   12e7c:	d9800717 	ldw	r6,28(sp)
   12e80:	dc000c17 	ldw	r16,48(sp)
   12e84:	d9400615 	stw	r5,24(sp)
   12e88:	3c403836 	bltu	r7,r17,12f6c <__divdf3+0x1e0>
   12e8c:	89c03626 	beq	r17,r7,12f68 <__divdf3+0x1dc>
   12e90:	0015883a 	mov	r10,zero
   12e94:	001d883a 	mov	r14,zero
   12e98:	02c40034 	movhi	r11,4096
   12e9c:	001f883a 	mov	r15,zero
   12ea0:	003f883a 	mov	ra,zero
   12ea4:	04800f44 	movi	r18,61
   12ea8:	00000f06 	br	12ee8 <__divdf3+0x15c>
   12eac:	601d883a 	mov	r14,r12
   12eb0:	681f883a 	mov	r15,r13
   12eb4:	400d883a 	mov	r6,r8
   12eb8:	100f883a 	mov	r7,r2
   12ebc:	3191883a 	add	r8,r6,r6
   12ec0:	5808d07a 	srli	r4,r11,1
   12ec4:	4185803a 	cmpltu	r2,r8,r6
   12ec8:	39d3883a 	add	r9,r7,r7
   12ecc:	28c6b03a 	or	r3,r5,r3
   12ed0:	1245883a 	add	r2,r2,r9
   12ed4:	1815883a 	mov	r10,r3
   12ed8:	2017883a 	mov	r11,r4
   12edc:	400d883a 	mov	r6,r8
   12ee0:	100f883a 	mov	r7,r2
   12ee4:	fc801726 	beq	ra,r18,12f44 <__divdf3+0x1b8>
   12ee8:	580a97fa 	slli	r5,r11,31
   12eec:	5006d07a 	srli	r3,r10,1
   12ef0:	ffc00044 	addi	ra,ra,1
   12ef4:	3c7ff136 	bltu	r7,r17,12ebc <__divdf3+0x130>
   12ef8:	3411c83a 	sub	r8,r6,r16
   12efc:	3205803a 	cmpltu	r2,r6,r8
   12f00:	3c53c83a 	sub	r9,r7,r17
   12f04:	7298b03a 	or	r12,r14,r10
   12f08:	7adab03a 	or	r13,r15,r11
   12f0c:	4885c83a 	sub	r2,r9,r2
   12f10:	89ffe61e 	bne	r17,r7,12eac <__divdf3+0x120>
   12f14:	343fe936 	bltu	r6,r16,12ebc <__divdf3+0x130>
   12f18:	003fe406 	br	12eac <__divdf3+0x120>
   12f1c:	9809883a 	mov	r4,r19
   12f20:	d9800415 	stw	r6,16(sp)
   12f24:	00052400 	call	5240 <__pack_d>
   12f28:	dfc01217 	ldw	ra,72(sp)
   12f2c:	dcc01117 	ldw	r19,68(sp)
   12f30:	dc801017 	ldw	r18,64(sp)
   12f34:	dc400f17 	ldw	r17,60(sp)
   12f38:	dc000e17 	ldw	r16,56(sp)
   12f3c:	dec01304 	addi	sp,sp,76
   12f40:	f800283a 	ret
   12f44:	00803fc4 	movi	r2,255
   12f48:	7090703a 	and	r8,r14,r2
   12f4c:	00802004 	movi	r2,128
   12f50:	0007883a 	mov	r3,zero
   12f54:	0013883a 	mov	r9,zero
   12f58:	40800d26 	beq	r8,r2,12f90 <__divdf3+0x204>
   12f5c:	dbc00815 	stw	r15,32(sp)
   12f60:	db800715 	stw	r14,28(sp)
   12f64:	003fab06 	br	12e14 <__divdf3+0x88>
   12f68:	343fc92e 	bgeu	r6,r16,12e90 <__divdf3+0x104>
   12f6c:	3185883a 	add	r2,r6,r6
   12f70:	1189803a 	cmpltu	r4,r2,r6
   12f74:	39c7883a 	add	r3,r7,r7
   12f78:	20c9883a 	add	r4,r4,r3
   12f7c:	297fffc4 	addi	r5,r5,-1
   12f80:	100d883a 	mov	r6,r2
   12f84:	200f883a 	mov	r7,r4
   12f88:	d9400615 	stw	r5,24(sp)
   12f8c:	003fc006 	br	12e90 <__divdf3+0x104>
   12f90:	483ff21e 	bne	r9,zero,12f5c <__divdf3+0x1d0>
   12f94:	01004004 	movi	r4,256
   12f98:	7104703a 	and	r2,r14,r4
   12f9c:	10c4b03a 	or	r2,r2,r3
   12fa0:	103fee1e 	bne	r2,zero,12f5c <__divdf3+0x1d0>
   12fa4:	31c4b03a 	or	r2,r6,r7
   12fa8:	103fec26 	beq	r2,zero,12f5c <__divdf3+0x1d0>
   12fac:	7205883a 	add	r2,r14,r8
   12fb0:	1391803a 	cmpltu	r8,r2,r14
   12fb4:	43d1883a 	add	r8,r8,r15
   12fb8:	013fc004 	movi	r4,-256
   12fbc:	111c703a 	and	r14,r2,r4
   12fc0:	401f883a 	mov	r15,r8
   12fc4:	003fe506 	br	12f5c <__divdf3+0x1d0>
   12fc8:	8009883a 	mov	r4,r16
   12fcc:	003f9206 	br	12e18 <__divdf3+0x8c>
   12fd0:	9809883a 	mov	r4,r19
   12fd4:	d8000715 	stw	zero,28(sp)
   12fd8:	d8000815 	stw	zero,32(sp)
   12fdc:	d8000615 	stw	zero,24(sp)
   12fe0:	003f8d06 	br	12e18 <__divdf3+0x8c>

00012fe4 <__eqdf2>:
   12fe4:	deffef04 	addi	sp,sp,-68
   12fe8:	dc400f15 	stw	r17,60(sp)
   12fec:	dc400404 	addi	r17,sp,16
   12ff0:	2005883a 	mov	r2,r4
   12ff4:	2807883a 	mov	r3,r5
   12ff8:	dc000e15 	stw	r16,56(sp)
   12ffc:	d809883a 	mov	r4,sp
   13000:	880b883a 	mov	r5,r17
   13004:	dc000904 	addi	r16,sp,36
   13008:	d8c00115 	stw	r3,4(sp)
   1300c:	d8800015 	stw	r2,0(sp)
   13010:	d9800215 	stw	r6,8(sp)
   13014:	dfc01015 	stw	ra,64(sp)
   13018:	d9c00315 	stw	r7,12(sp)
   1301c:	00137900 	call	13790 <__unpack_d>
   13020:	d9000204 	addi	r4,sp,8
   13024:	800b883a 	mov	r5,r16
   13028:	00137900 	call	13790 <__unpack_d>
   1302c:	d8800417 	ldw	r2,16(sp)
   13030:	00c00044 	movi	r3,1
   13034:	180d883a 	mov	r6,r3
   13038:	1880062e 	bgeu	r3,r2,13054 <__eqdf2+0x70>
   1303c:	d8800917 	ldw	r2,36(sp)
   13040:	8809883a 	mov	r4,r17
   13044:	800b883a 	mov	r5,r16
   13048:	1880022e 	bgeu	r3,r2,13054 <__eqdf2+0x70>
   1304c:	00138c80 	call	138c8 <__fpcmp_parts_d>
   13050:	100d883a 	mov	r6,r2
   13054:	3005883a 	mov	r2,r6
   13058:	dfc01017 	ldw	ra,64(sp)
   1305c:	dc400f17 	ldw	r17,60(sp)
   13060:	dc000e17 	ldw	r16,56(sp)
   13064:	dec01104 	addi	sp,sp,68
   13068:	f800283a 	ret

0001306c <__nedf2>:
   1306c:	deffef04 	addi	sp,sp,-68
   13070:	dc400f15 	stw	r17,60(sp)
   13074:	dc400404 	addi	r17,sp,16
   13078:	2005883a 	mov	r2,r4
   1307c:	2807883a 	mov	r3,r5
   13080:	dc000e15 	stw	r16,56(sp)
   13084:	d809883a 	mov	r4,sp
   13088:	880b883a 	mov	r5,r17
   1308c:	dc000904 	addi	r16,sp,36
   13090:	d8c00115 	stw	r3,4(sp)
   13094:	d8800015 	stw	r2,0(sp)
   13098:	d9800215 	stw	r6,8(sp)
   1309c:	dfc01015 	stw	ra,64(sp)
   130a0:	d9c00315 	stw	r7,12(sp)
   130a4:	00137900 	call	13790 <__unpack_d>
   130a8:	d9000204 	addi	r4,sp,8
   130ac:	800b883a 	mov	r5,r16
   130b0:	00137900 	call	13790 <__unpack_d>
   130b4:	d8800417 	ldw	r2,16(sp)
   130b8:	00c00044 	movi	r3,1
   130bc:	180d883a 	mov	r6,r3
   130c0:	1880062e 	bgeu	r3,r2,130dc <__nedf2+0x70>
   130c4:	d8800917 	ldw	r2,36(sp)
   130c8:	8809883a 	mov	r4,r17
   130cc:	800b883a 	mov	r5,r16
   130d0:	1880022e 	bgeu	r3,r2,130dc <__nedf2+0x70>
   130d4:	00138c80 	call	138c8 <__fpcmp_parts_d>
   130d8:	100d883a 	mov	r6,r2
   130dc:	3005883a 	mov	r2,r6
   130e0:	dfc01017 	ldw	ra,64(sp)
   130e4:	dc400f17 	ldw	r17,60(sp)
   130e8:	dc000e17 	ldw	r16,56(sp)
   130ec:	dec01104 	addi	sp,sp,68
   130f0:	f800283a 	ret

000130f4 <__gtdf2>:
   130f4:	deffef04 	addi	sp,sp,-68
   130f8:	dc400f15 	stw	r17,60(sp)
   130fc:	dc400404 	addi	r17,sp,16
   13100:	2005883a 	mov	r2,r4
   13104:	2807883a 	mov	r3,r5
   13108:	dc000e15 	stw	r16,56(sp)
   1310c:	d809883a 	mov	r4,sp
   13110:	880b883a 	mov	r5,r17
   13114:	dc000904 	addi	r16,sp,36
   13118:	d8c00115 	stw	r3,4(sp)
   1311c:	d8800015 	stw	r2,0(sp)
   13120:	d9800215 	stw	r6,8(sp)
   13124:	dfc01015 	stw	ra,64(sp)
   13128:	d9c00315 	stw	r7,12(sp)
   1312c:	00137900 	call	13790 <__unpack_d>
   13130:	d9000204 	addi	r4,sp,8
   13134:	800b883a 	mov	r5,r16
   13138:	00137900 	call	13790 <__unpack_d>
   1313c:	d8800417 	ldw	r2,16(sp)
   13140:	00c00044 	movi	r3,1
   13144:	01bfffc4 	movi	r6,-1
   13148:	1880062e 	bgeu	r3,r2,13164 <__gtdf2+0x70>
   1314c:	d8800917 	ldw	r2,36(sp)
   13150:	8809883a 	mov	r4,r17
   13154:	800b883a 	mov	r5,r16
   13158:	1880022e 	bgeu	r3,r2,13164 <__gtdf2+0x70>
   1315c:	00138c80 	call	138c8 <__fpcmp_parts_d>
   13160:	100d883a 	mov	r6,r2
   13164:	3005883a 	mov	r2,r6
   13168:	dfc01017 	ldw	ra,64(sp)
   1316c:	dc400f17 	ldw	r17,60(sp)
   13170:	dc000e17 	ldw	r16,56(sp)
   13174:	dec01104 	addi	sp,sp,68
   13178:	f800283a 	ret

0001317c <__gedf2>:
   1317c:	deffef04 	addi	sp,sp,-68
   13180:	dc400f15 	stw	r17,60(sp)
   13184:	dc400404 	addi	r17,sp,16
   13188:	2005883a 	mov	r2,r4
   1318c:	2807883a 	mov	r3,r5
   13190:	dc000e15 	stw	r16,56(sp)
   13194:	d809883a 	mov	r4,sp
   13198:	880b883a 	mov	r5,r17
   1319c:	dc000904 	addi	r16,sp,36
   131a0:	d8c00115 	stw	r3,4(sp)
   131a4:	d8800015 	stw	r2,0(sp)
   131a8:	d9800215 	stw	r6,8(sp)
   131ac:	dfc01015 	stw	ra,64(sp)
   131b0:	d9c00315 	stw	r7,12(sp)
   131b4:	00137900 	call	13790 <__unpack_d>
   131b8:	d9000204 	addi	r4,sp,8
   131bc:	800b883a 	mov	r5,r16
   131c0:	00137900 	call	13790 <__unpack_d>
   131c4:	d8800417 	ldw	r2,16(sp)
   131c8:	00c00044 	movi	r3,1
   131cc:	01bfffc4 	movi	r6,-1
   131d0:	1880062e 	bgeu	r3,r2,131ec <__gedf2+0x70>
   131d4:	d8800917 	ldw	r2,36(sp)
   131d8:	8809883a 	mov	r4,r17
   131dc:	800b883a 	mov	r5,r16
   131e0:	1880022e 	bgeu	r3,r2,131ec <__gedf2+0x70>
   131e4:	00138c80 	call	138c8 <__fpcmp_parts_d>
   131e8:	100d883a 	mov	r6,r2
   131ec:	3005883a 	mov	r2,r6
   131f0:	dfc01017 	ldw	ra,64(sp)
   131f4:	dc400f17 	ldw	r17,60(sp)
   131f8:	dc000e17 	ldw	r16,56(sp)
   131fc:	dec01104 	addi	sp,sp,68
   13200:	f800283a 	ret

00013204 <__ltdf2>:
   13204:	deffef04 	addi	sp,sp,-68
   13208:	dc400f15 	stw	r17,60(sp)
   1320c:	dc400404 	addi	r17,sp,16
   13210:	2005883a 	mov	r2,r4
   13214:	2807883a 	mov	r3,r5
   13218:	dc000e15 	stw	r16,56(sp)
   1321c:	d809883a 	mov	r4,sp
   13220:	880b883a 	mov	r5,r17
   13224:	dc000904 	addi	r16,sp,36
   13228:	d8c00115 	stw	r3,4(sp)
   1322c:	d8800015 	stw	r2,0(sp)
   13230:	d9800215 	stw	r6,8(sp)
   13234:	dfc01015 	stw	ra,64(sp)
   13238:	d9c00315 	stw	r7,12(sp)
   1323c:	00137900 	call	13790 <__unpack_d>
   13240:	d9000204 	addi	r4,sp,8
   13244:	800b883a 	mov	r5,r16
   13248:	00137900 	call	13790 <__unpack_d>
   1324c:	d8800417 	ldw	r2,16(sp)
   13250:	00c00044 	movi	r3,1
   13254:	180d883a 	mov	r6,r3
   13258:	1880062e 	bgeu	r3,r2,13274 <__ltdf2+0x70>
   1325c:	d8800917 	ldw	r2,36(sp)
   13260:	8809883a 	mov	r4,r17
   13264:	800b883a 	mov	r5,r16
   13268:	1880022e 	bgeu	r3,r2,13274 <__ltdf2+0x70>
   1326c:	00138c80 	call	138c8 <__fpcmp_parts_d>
   13270:	100d883a 	mov	r6,r2
   13274:	3005883a 	mov	r2,r6
   13278:	dfc01017 	ldw	ra,64(sp)
   1327c:	dc400f17 	ldw	r17,60(sp)
   13280:	dc000e17 	ldw	r16,56(sp)
   13284:	dec01104 	addi	sp,sp,68
   13288:	f800283a 	ret

0001328c <__ledf2>:
   1328c:	deffef04 	addi	sp,sp,-68
   13290:	dc400f15 	stw	r17,60(sp)
   13294:	dc400404 	addi	r17,sp,16
   13298:	2005883a 	mov	r2,r4
   1329c:	2807883a 	mov	r3,r5
   132a0:	dc000e15 	stw	r16,56(sp)
   132a4:	d809883a 	mov	r4,sp
   132a8:	880b883a 	mov	r5,r17
   132ac:	dc000904 	addi	r16,sp,36
   132b0:	d8c00115 	stw	r3,4(sp)
   132b4:	d8800015 	stw	r2,0(sp)
   132b8:	d9800215 	stw	r6,8(sp)
   132bc:	dfc01015 	stw	ra,64(sp)
   132c0:	d9c00315 	stw	r7,12(sp)
   132c4:	00137900 	call	13790 <__unpack_d>
   132c8:	d9000204 	addi	r4,sp,8
   132cc:	800b883a 	mov	r5,r16
   132d0:	00137900 	call	13790 <__unpack_d>
   132d4:	d8800417 	ldw	r2,16(sp)
   132d8:	00c00044 	movi	r3,1
   132dc:	180d883a 	mov	r6,r3
   132e0:	1880062e 	bgeu	r3,r2,132fc <__ledf2+0x70>
   132e4:	d8800917 	ldw	r2,36(sp)
   132e8:	8809883a 	mov	r4,r17
   132ec:	800b883a 	mov	r5,r16
   132f0:	1880022e 	bgeu	r3,r2,132fc <__ledf2+0x70>
   132f4:	00138c80 	call	138c8 <__fpcmp_parts_d>
   132f8:	100d883a 	mov	r6,r2
   132fc:	3005883a 	mov	r2,r6
   13300:	dfc01017 	ldw	ra,64(sp)
   13304:	dc400f17 	ldw	r17,60(sp)
   13308:	dc000e17 	ldw	r16,56(sp)
   1330c:	dec01104 	addi	sp,sp,68
   13310:	f800283a 	ret

00013314 <__fixdfsi>:
   13314:	defff804 	addi	sp,sp,-32
   13318:	2005883a 	mov	r2,r4
   1331c:	2807883a 	mov	r3,r5
   13320:	d809883a 	mov	r4,sp
   13324:	d9400204 	addi	r5,sp,8
   13328:	d8c00115 	stw	r3,4(sp)
   1332c:	d8800015 	stw	r2,0(sp)
   13330:	dfc00715 	stw	ra,28(sp)
   13334:	00137900 	call	13790 <__unpack_d>
   13338:	d8c00217 	ldw	r3,8(sp)
   1333c:	00800084 	movi	r2,2
   13340:	1880051e 	bne	r3,r2,13358 <__fixdfsi+0x44>
   13344:	0007883a 	mov	r3,zero
   13348:	1805883a 	mov	r2,r3
   1334c:	dfc00717 	ldw	ra,28(sp)
   13350:	dec00804 	addi	sp,sp,32
   13354:	f800283a 	ret
   13358:	00800044 	movi	r2,1
   1335c:	10fff92e 	bgeu	r2,r3,13344 <__fixdfsi+0x30>
   13360:	00800104 	movi	r2,4
   13364:	18800426 	beq	r3,r2,13378 <__fixdfsi+0x64>
   13368:	d8c00417 	ldw	r3,16(sp)
   1336c:	183ff516 	blt	r3,zero,13344 <__fixdfsi+0x30>
   13370:	00800784 	movi	r2,30
   13374:	10c0080e 	bge	r2,r3,13398 <__fixdfsi+0x84>
   13378:	d8800317 	ldw	r2,12(sp)
   1337c:	1000121e 	bne	r2,zero,133c8 <__fixdfsi+0xb4>
   13380:	00e00034 	movhi	r3,32768
   13384:	18ffffc4 	addi	r3,r3,-1
   13388:	1805883a 	mov	r2,r3
   1338c:	dfc00717 	ldw	ra,28(sp)
   13390:	dec00804 	addi	sp,sp,32
   13394:	f800283a 	ret
   13398:	00800f04 	movi	r2,60
   1339c:	10d1c83a 	sub	r8,r2,r3
   133a0:	40bff804 	addi	r2,r8,-32
   133a4:	d9800517 	ldw	r6,20(sp)
   133a8:	d9c00617 	ldw	r7,24(sp)
   133ac:	10000816 	blt	r2,zero,133d0 <__fixdfsi+0xbc>
   133b0:	3888d83a 	srl	r4,r7,r2
   133b4:	d8800317 	ldw	r2,12(sp)
   133b8:	2007883a 	mov	r3,r4
   133bc:	103fe226 	beq	r2,zero,13348 <__fixdfsi+0x34>
   133c0:	0107c83a 	sub	r3,zero,r4
   133c4:	003fe006 	br	13348 <__fixdfsi+0x34>
   133c8:	00e00034 	movhi	r3,32768
   133cc:	003fde06 	br	13348 <__fixdfsi+0x34>
   133d0:	39c7883a 	add	r3,r7,r7
   133d4:	008007c4 	movi	r2,31
   133d8:	1205c83a 	sub	r2,r2,r8
   133dc:	1886983a 	sll	r3,r3,r2
   133e0:	3208d83a 	srl	r4,r6,r8
   133e4:	1908b03a 	or	r4,r3,r4
   133e8:	003ff206 	br	133b4 <__fixdfsi+0xa0>

000133ec <__truncdfsf2>:
   133ec:	defff804 	addi	sp,sp,-32
   133f0:	2005883a 	mov	r2,r4
   133f4:	2807883a 	mov	r3,r5
   133f8:	d809883a 	mov	r4,sp
   133fc:	d9400204 	addi	r5,sp,8
   13400:	d8c00115 	stw	r3,4(sp)
   13404:	d8800015 	stw	r2,0(sp)
   13408:	dfc00715 	stw	ra,28(sp)
   1340c:	00137900 	call	13790 <__unpack_d>
   13410:	d9c00517 	ldw	r7,20(sp)
   13414:	da000617 	ldw	r8,24(sp)
   13418:	02d00034 	movhi	r11,16384
   1341c:	5affffc4 	addi	r11,r11,-1
   13420:	3812d7ba 	srli	r9,r7,30
   13424:	401a90ba 	slli	r13,r8,2
   13428:	3ac4703a 	and	r2,r7,r11
   1342c:	0007883a 	mov	r3,zero
   13430:	6a52b03a 	or	r9,r13,r9
   13434:	10c4b03a 	or	r2,r2,r3
   13438:	d9000217 	ldw	r4,8(sp)
   1343c:	d9400317 	ldw	r5,12(sp)
   13440:	d9800417 	ldw	r6,16(sp)
   13444:	480f883a 	mov	r7,r9
   13448:	10000126 	beq	r2,zero,13450 <__truncdfsf2+0x64>
   1344c:	49c00054 	ori	r7,r9,1
   13450:	00137640 	call	13764 <__make_fp>
   13454:	dfc00717 	ldw	ra,28(sp)
   13458:	dec00804 	addi	sp,sp,32
   1345c:	f800283a 	ret

00013460 <__floatunsidf>:
   13460:	defff204 	addi	sp,sp,-56
   13464:	dfc00d15 	stw	ra,52(sp)
   13468:	ddc00c15 	stw	r23,48(sp)
   1346c:	dd800b15 	stw	r22,44(sp)
   13470:	dd400a15 	stw	r21,40(sp)
   13474:	dd000915 	stw	r20,36(sp)
   13478:	dcc00815 	stw	r19,32(sp)
   1347c:	dc800715 	stw	r18,28(sp)
   13480:	dc400615 	stw	r17,24(sp)
   13484:	dc000515 	stw	r16,20(sp)
   13488:	d8000115 	stw	zero,4(sp)
   1348c:	20000f1e 	bne	r4,zero,134cc <__floatunsidf+0x6c>
   13490:	00800084 	movi	r2,2
   13494:	d8800015 	stw	r2,0(sp)
   13498:	d809883a 	mov	r4,sp
   1349c:	00052400 	call	5240 <__pack_d>
   134a0:	dfc00d17 	ldw	ra,52(sp)
   134a4:	ddc00c17 	ldw	r23,48(sp)
   134a8:	dd800b17 	ldw	r22,44(sp)
   134ac:	dd400a17 	ldw	r21,40(sp)
   134b0:	dd000917 	ldw	r20,36(sp)
   134b4:	dcc00817 	ldw	r19,32(sp)
   134b8:	dc800717 	ldw	r18,28(sp)
   134bc:	dc400617 	ldw	r17,24(sp)
   134c0:	dc000517 	ldw	r16,20(sp)
   134c4:	dec00e04 	addi	sp,sp,56
   134c8:	f800283a 	ret
   134cc:	008000c4 	movi	r2,3
   134d0:	00c00f04 	movi	r3,60
   134d4:	002f883a 	mov	r23,zero
   134d8:	202d883a 	mov	r22,r4
   134dc:	d8800015 	stw	r2,0(sp)
   134e0:	d8c00215 	stw	r3,8(sp)
   134e4:	d9000315 	stw	r4,12(sp)
   134e8:	ddc00415 	stw	r23,16(sp)
   134ec:	00051c00 	call	51c0 <__clzsi2>
   134f0:	12400744 	addi	r9,r2,29
   134f4:	48000b16 	blt	r9,zero,13524 <__floatunsidf+0xc4>
   134f8:	483fe726 	beq	r9,zero,13498 <__floatunsidf+0x38>
   134fc:	10bfff44 	addi	r2,r2,-3
   13500:	10002e16 	blt	r2,zero,135bc <__floatunsidf+0x15c>
   13504:	b0a2983a 	sll	r17,r22,r2
   13508:	0021883a 	mov	r16,zero
   1350c:	d8800217 	ldw	r2,8(sp)
   13510:	dc400415 	stw	r17,16(sp)
   13514:	dc000315 	stw	r16,12(sp)
   13518:	1245c83a 	sub	r2,r2,r9
   1351c:	d8800215 	stw	r2,8(sp)
   13520:	003fdd06 	br	13498 <__floatunsidf+0x38>
   13524:	0255c83a 	sub	r10,zero,r9
   13528:	51bff804 	addi	r6,r10,-32
   1352c:	30001b16 	blt	r6,zero,1359c <__floatunsidf+0x13c>
   13530:	b9a8d83a 	srl	r20,r23,r6
   13534:	002b883a 	mov	r21,zero
   13538:	000f883a 	mov	r7,zero
   1353c:	01000044 	movi	r4,1
   13540:	0011883a 	mov	r8,zero
   13544:	30002516 	blt	r6,zero,135dc <__floatunsidf+0x17c>
   13548:	21a6983a 	sll	r19,r4,r6
   1354c:	0025883a 	mov	r18,zero
   13550:	00bfffc4 	movi	r2,-1
   13554:	9089883a 	add	r4,r18,r2
   13558:	988b883a 	add	r5,r19,r2
   1355c:	248d803a 	cmpltu	r6,r4,r18
   13560:	314b883a 	add	r5,r6,r5
   13564:	b104703a 	and	r2,r22,r4
   13568:	b946703a 	and	r3,r23,r5
   1356c:	10c4b03a 	or	r2,r2,r3
   13570:	10000226 	beq	r2,zero,1357c <__floatunsidf+0x11c>
   13574:	01c00044 	movi	r7,1
   13578:	0011883a 	mov	r8,zero
   1357c:	d9000217 	ldw	r4,8(sp)
   13580:	a1c4b03a 	or	r2,r20,r7
   13584:	aa06b03a 	or	r3,r21,r8
   13588:	2249c83a 	sub	r4,r4,r9
   1358c:	d8c00415 	stw	r3,16(sp)
   13590:	d9000215 	stw	r4,8(sp)
   13594:	d8800315 	stw	r2,12(sp)
   13598:	003fbf06 	br	13498 <__floatunsidf+0x38>
   1359c:	bdc7883a 	add	r3,r23,r23
   135a0:	008007c4 	movi	r2,31
   135a4:	1285c83a 	sub	r2,r2,r10
   135a8:	1886983a 	sll	r3,r3,r2
   135ac:	b2a8d83a 	srl	r20,r22,r10
   135b0:	baaad83a 	srl	r21,r23,r10
   135b4:	1d28b03a 	or	r20,r3,r20
   135b8:	003fdf06 	br	13538 <__floatunsidf+0xd8>
   135bc:	b006d07a 	srli	r3,r22,1
   135c0:	008007c4 	movi	r2,31
   135c4:	1245c83a 	sub	r2,r2,r9
   135c8:	1886d83a 	srl	r3,r3,r2
   135cc:	ba62983a 	sll	r17,r23,r9
   135d0:	b260983a 	sll	r16,r22,r9
   135d4:	1c62b03a 	or	r17,r3,r17
   135d8:	003fcc06 	br	1350c <__floatunsidf+0xac>
   135dc:	2006d07a 	srli	r3,r4,1
   135e0:	008007c4 	movi	r2,31
   135e4:	1285c83a 	sub	r2,r2,r10
   135e8:	18a6d83a 	srl	r19,r3,r2
   135ec:	22a4983a 	sll	r18,r4,r10
   135f0:	003fd706 	br	13550 <__floatunsidf+0xf0>

000135f4 <__unpack_f>:
   135f4:	21800017 	ldw	r6,0(r4)
   135f8:	00c02034 	movhi	r3,128
   135fc:	18ffffc4 	addi	r3,r3,-1
   13600:	3004d5fa 	srli	r2,r6,23
   13604:	3008d7fa 	srli	r4,r6,31
   13608:	30ce703a 	and	r7,r6,r3
   1360c:	10c03fcc 	andi	r3,r2,255
   13610:	29000115 	stw	r4,4(r5)
   13614:	1800131e 	bne	r3,zero,13664 <__unpack_f+0x70>
   13618:	38000f26 	beq	r7,zero,13658 <__unpack_f+0x64>
   1361c:	380691fa 	slli	r3,r7,7
   13620:	01bfe084 	movi	r6,-126
   13624:	008000c4 	movi	r2,3
   13628:	01100034 	movhi	r4,16384
   1362c:	213fffc4 	addi	r4,r4,-1
   13630:	28800015 	stw	r2,0(r5)
   13634:	29800215 	stw	r6,8(r5)
   13638:	20c00536 	bltu	r4,r3,13650 <__unpack_f+0x5c>
   1363c:	3005883a 	mov	r2,r6
   13640:	18c7883a 	add	r3,r3,r3
   13644:	10bfffc4 	addi	r2,r2,-1
   13648:	20fffd2e 	bgeu	r4,r3,13640 <__unpack_f+0x4c>
   1364c:	28800215 	stw	r2,8(r5)
   13650:	28c00315 	stw	r3,12(r5)
   13654:	f800283a 	ret
   13658:	00800084 	movi	r2,2
   1365c:	28800015 	stw	r2,0(r5)
   13660:	f800283a 	ret
   13664:	00803fc4 	movi	r2,255
   13668:	18800826 	beq	r3,r2,1368c <__unpack_f+0x98>
   1366c:	380491fa 	slli	r2,r7,7
   13670:	18ffe044 	addi	r3,r3,-127
   13674:	28c00215 	stw	r3,8(r5)
   13678:	10900034 	orhi	r2,r2,16384
   1367c:	28800315 	stw	r2,12(r5)
   13680:	008000c4 	movi	r2,3
   13684:	28800015 	stw	r2,0(r5)
   13688:	f800283a 	ret
   1368c:	3800031e 	bne	r7,zero,1369c <__unpack_f+0xa8>
   13690:	00800104 	movi	r2,4
   13694:	28800015 	stw	r2,0(r5)
   13698:	f800283a 	ret
   1369c:	3080042c 	andhi	r2,r6,16
   136a0:	10000426 	beq	r2,zero,136b4 <__unpack_f+0xc0>
   136a4:	00800044 	movi	r2,1
   136a8:	28800015 	stw	r2,0(r5)
   136ac:	29c00315 	stw	r7,12(r5)
   136b0:	f800283a 	ret
   136b4:	28000015 	stw	zero,0(r5)
   136b8:	003ffc06 	br	136ac <__unpack_f+0xb8>

000136bc <__fpcmp_parts_f>:
   136bc:	21800017 	ldw	r6,0(r4)
   136c0:	00c00044 	movi	r3,1
   136c4:	19800a2e 	bgeu	r3,r6,136f0 <__fpcmp_parts_f+0x34>
   136c8:	28800017 	ldw	r2,0(r5)
   136cc:	1880082e 	bgeu	r3,r2,136f0 <__fpcmp_parts_f+0x34>
   136d0:	00c00104 	movi	r3,4
   136d4:	30c01e26 	beq	r6,r3,13750 <__fpcmp_parts_f+0x94>
   136d8:	10c01a26 	beq	r2,r3,13744 <__fpcmp_parts_f+0x88>
   136dc:	00c00084 	movi	r3,2
   136e0:	30c00526 	beq	r6,r3,136f8 <__fpcmp_parts_f+0x3c>
   136e4:	10c0071e 	bne	r2,r3,13704 <__fpcmp_parts_f+0x48>
   136e8:	20800117 	ldw	r2,4(r4)
   136ec:	1000091e 	bne	r2,zero,13714 <__fpcmp_parts_f+0x58>
   136f0:	00800044 	movi	r2,1
   136f4:	f800283a 	ret
   136f8:	10c0121e 	bne	r2,r3,13744 <__fpcmp_parts_f+0x88>
   136fc:	0005883a 	mov	r2,zero
   13700:	f800283a 	ret
   13704:	20c00117 	ldw	r3,4(r4)
   13708:	28800117 	ldw	r2,4(r5)
   1370c:	18800326 	beq	r3,r2,1371c <__fpcmp_parts_f+0x60>
   13710:	183ff726 	beq	r3,zero,136f0 <__fpcmp_parts_f+0x34>
   13714:	00bfffc4 	movi	r2,-1
   13718:	f800283a 	ret
   1371c:	21800217 	ldw	r6,8(r4)
   13720:	28800217 	ldw	r2,8(r5)
   13724:	11bffa16 	blt	r2,r6,13710 <__fpcmp_parts_f+0x54>
   13728:	30800416 	blt	r6,r2,1373c <__fpcmp_parts_f+0x80>
   1372c:	21000317 	ldw	r4,12(r4)
   13730:	29400317 	ldw	r5,12(r5)
   13734:	293ff636 	bltu	r5,r4,13710 <__fpcmp_parts_f+0x54>
   13738:	217ff02e 	bgeu	r4,r5,136fc <__fpcmp_parts_f+0x40>
   1373c:	183fec1e 	bne	r3,zero,136f0 <__fpcmp_parts_f+0x34>
   13740:	003ff406 	br	13714 <__fpcmp_parts_f+0x58>
   13744:	28800117 	ldw	r2,4(r5)
   13748:	103fe91e 	bne	r2,zero,136f0 <__fpcmp_parts_f+0x34>
   1374c:	003ff106 	br	13714 <__fpcmp_parts_f+0x58>
   13750:	11bfe51e 	bne	r2,r6,136e8 <__fpcmp_parts_f+0x2c>
   13754:	28c00117 	ldw	r3,4(r5)
   13758:	20800117 	ldw	r2,4(r4)
   1375c:	1885c83a 	sub	r2,r3,r2
   13760:	f800283a 	ret

00013764 <__make_fp>:
   13764:	defffb04 	addi	sp,sp,-20
   13768:	d9000015 	stw	r4,0(sp)
   1376c:	d809883a 	mov	r4,sp
   13770:	dfc00415 	stw	ra,16(sp)
   13774:	d9400115 	stw	r5,4(sp)
   13778:	d9800215 	stw	r6,8(sp)
   1377c:	d9c00315 	stw	r7,12(sp)
   13780:	00139900 	call	13990 <__pack_f>
   13784:	dfc00417 	ldw	ra,16(sp)
   13788:	dec00504 	addi	sp,sp,20
   1378c:	f800283a 	ret

00013790 <__unpack_d>:
   13790:	20c00117 	ldw	r3,4(r4)
   13794:	22400017 	ldw	r9,0(r4)
   13798:	00800434 	movhi	r2,16
   1379c:	10bfffc4 	addi	r2,r2,-1
   137a0:	1808d53a 	srli	r4,r3,20
   137a4:	180cd7fa 	srli	r6,r3,31
   137a8:	1894703a 	and	r10,r3,r2
   137ac:	2201ffcc 	andi	r8,r4,2047
   137b0:	281b883a 	mov	r13,r5
   137b4:	4817883a 	mov	r11,r9
   137b8:	29800115 	stw	r6,4(r5)
   137bc:	5019883a 	mov	r12,r10
   137c0:	40001e1e 	bne	r8,zero,1383c <__unpack_d+0xac>
   137c4:	4a84b03a 	or	r2,r9,r10
   137c8:	10001926 	beq	r2,zero,13830 <__unpack_d+0xa0>
   137cc:	4804d63a 	srli	r2,r9,24
   137d0:	500c923a 	slli	r6,r10,8
   137d4:	013f0084 	movi	r4,-1022
   137d8:	00c40034 	movhi	r3,4096
   137dc:	18ffffc4 	addi	r3,r3,-1
   137e0:	118cb03a 	or	r6,r2,r6
   137e4:	008000c4 	movi	r2,3
   137e8:	480a923a 	slli	r5,r9,8
   137ec:	68800015 	stw	r2,0(r13)
   137f0:	69000215 	stw	r4,8(r13)
   137f4:	19800b36 	bltu	r3,r6,13824 <__unpack_d+0x94>
   137f8:	200f883a 	mov	r7,r4
   137fc:	1811883a 	mov	r8,r3
   13800:	2945883a 	add	r2,r5,r5
   13804:	1149803a 	cmpltu	r4,r2,r5
   13808:	3187883a 	add	r3,r6,r6
   1380c:	20c9883a 	add	r4,r4,r3
   13810:	100b883a 	mov	r5,r2
   13814:	200d883a 	mov	r6,r4
   13818:	39ffffc4 	addi	r7,r7,-1
   1381c:	413ff82e 	bgeu	r8,r4,13800 <__unpack_d+0x70>
   13820:	69c00215 	stw	r7,8(r13)
   13824:	69800415 	stw	r6,16(r13)
   13828:	69400315 	stw	r5,12(r13)
   1382c:	f800283a 	ret
   13830:	00800084 	movi	r2,2
   13834:	28800015 	stw	r2,0(r5)
   13838:	f800283a 	ret
   1383c:	0081ffc4 	movi	r2,2047
   13840:	40800f26 	beq	r8,r2,13880 <__unpack_d+0xf0>
   13844:	480cd63a 	srli	r6,r9,24
   13848:	5006923a 	slli	r3,r10,8
   1384c:	4804923a 	slli	r2,r9,8
   13850:	0009883a 	mov	r4,zero
   13854:	30c6b03a 	or	r3,r6,r3
   13858:	01440034 	movhi	r5,4096
   1385c:	110cb03a 	or	r6,r2,r4
   13860:	423f0044 	addi	r8,r8,-1023
   13864:	194eb03a 	or	r7,r3,r5
   13868:	008000c4 	movi	r2,3
   1386c:	69c00415 	stw	r7,16(r13)
   13870:	6a000215 	stw	r8,8(r13)
   13874:	68800015 	stw	r2,0(r13)
   13878:	69800315 	stw	r6,12(r13)
   1387c:	f800283a 	ret
   13880:	4a84b03a 	or	r2,r9,r10
   13884:	1000031e 	bne	r2,zero,13894 <__unpack_d+0x104>
   13888:	00800104 	movi	r2,4
   1388c:	28800015 	stw	r2,0(r5)
   13890:	f800283a 	ret
   13894:	0009883a 	mov	r4,zero
   13898:	01400234 	movhi	r5,8
   1389c:	4904703a 	and	r2,r9,r4
   138a0:	5146703a 	and	r3,r10,r5
   138a4:	10c4b03a 	or	r2,r2,r3
   138a8:	10000526 	beq	r2,zero,138c0 <__unpack_d+0x130>
   138ac:	00800044 	movi	r2,1
   138b0:	68800015 	stw	r2,0(r13)
   138b4:	6b000415 	stw	r12,16(r13)
   138b8:	6ac00315 	stw	r11,12(r13)
   138bc:	f800283a 	ret
   138c0:	68000015 	stw	zero,0(r13)
   138c4:	003ffb06 	br	138b4 <__unpack_d+0x124>

000138c8 <__fpcmp_parts_d>:
   138c8:	21800017 	ldw	r6,0(r4)
   138cc:	00c00044 	movi	r3,1
   138d0:	19800a2e 	bgeu	r3,r6,138fc <__fpcmp_parts_d+0x34>
   138d4:	28800017 	ldw	r2,0(r5)
   138d8:	1880082e 	bgeu	r3,r2,138fc <__fpcmp_parts_d+0x34>
   138dc:	00c00104 	movi	r3,4
   138e0:	30c02626 	beq	r6,r3,1397c <__fpcmp_parts_d+0xb4>
   138e4:	10c02226 	beq	r2,r3,13970 <__fpcmp_parts_d+0xa8>
   138e8:	00c00084 	movi	r3,2
   138ec:	30c00526 	beq	r6,r3,13904 <__fpcmp_parts_d+0x3c>
   138f0:	10c0071e 	bne	r2,r3,13910 <__fpcmp_parts_d+0x48>
   138f4:	20800117 	ldw	r2,4(r4)
   138f8:	1000091e 	bne	r2,zero,13920 <__fpcmp_parts_d+0x58>
   138fc:	00800044 	movi	r2,1
   13900:	f800283a 	ret
   13904:	10c01a1e 	bne	r2,r3,13970 <__fpcmp_parts_d+0xa8>
   13908:	0005883a 	mov	r2,zero
   1390c:	f800283a 	ret
   13910:	22000117 	ldw	r8,4(r4)
   13914:	28800117 	ldw	r2,4(r5)
   13918:	40800326 	beq	r8,r2,13928 <__fpcmp_parts_d+0x60>
   1391c:	403ff726 	beq	r8,zero,138fc <__fpcmp_parts_d+0x34>
   13920:	00bfffc4 	movi	r2,-1
   13924:	f800283a 	ret
   13928:	20c00217 	ldw	r3,8(r4)
   1392c:	28800217 	ldw	r2,8(r5)
   13930:	10fffa16 	blt	r2,r3,1391c <__fpcmp_parts_d+0x54>
   13934:	18800916 	blt	r3,r2,1395c <__fpcmp_parts_d+0x94>
   13938:	21c00417 	ldw	r7,16(r4)
   1393c:	28c00417 	ldw	r3,16(r5)
   13940:	21800317 	ldw	r6,12(r4)
   13944:	28800317 	ldw	r2,12(r5)
   13948:	19fff436 	bltu	r3,r7,1391c <__fpcmp_parts_d+0x54>
   1394c:	38c00526 	beq	r7,r3,13964 <__fpcmp_parts_d+0x9c>
   13950:	38c00236 	bltu	r7,r3,1395c <__fpcmp_parts_d+0x94>
   13954:	19ffec1e 	bne	r3,r7,13908 <__fpcmp_parts_d+0x40>
   13958:	30bfeb2e 	bgeu	r6,r2,13908 <__fpcmp_parts_d+0x40>
   1395c:	403fe71e 	bne	r8,zero,138fc <__fpcmp_parts_d+0x34>
   13960:	003fef06 	br	13920 <__fpcmp_parts_d+0x58>
   13964:	11bffa2e 	bgeu	r2,r6,13950 <__fpcmp_parts_d+0x88>
   13968:	403fe426 	beq	r8,zero,138fc <__fpcmp_parts_d+0x34>
   1396c:	003fec06 	br	13920 <__fpcmp_parts_d+0x58>
   13970:	28800117 	ldw	r2,4(r5)
   13974:	103fe11e 	bne	r2,zero,138fc <__fpcmp_parts_d+0x34>
   13978:	003fe906 	br	13920 <__fpcmp_parts_d+0x58>
   1397c:	11bfdd1e 	bne	r2,r6,138f4 <__fpcmp_parts_d+0x2c>
   13980:	28c00117 	ldw	r3,4(r5)
   13984:	20800117 	ldw	r2,4(r4)
   13988:	1885c83a 	sub	r2,r3,r2
   1398c:	f800283a 	ret

00013990 <__pack_f>:
   13990:	20c00017 	ldw	r3,0(r4)
   13994:	01c00044 	movi	r7,1
   13998:	21800317 	ldw	r6,12(r4)
   1399c:	21400117 	ldw	r5,4(r4)
   139a0:	38c02d2e 	bgeu	r7,r3,13a58 <__pack_f+0xc8>
   139a4:	00800104 	movi	r2,4
   139a8:	18802826 	beq	r3,r2,13a4c <__pack_f+0xbc>
   139ac:	00800084 	movi	r2,2
   139b0:	18800126 	beq	r3,r2,139b8 <__pack_f+0x28>
   139b4:	3000101e 	bne	r6,zero,139f8 <__pack_f+0x68>
   139b8:	000d883a 	mov	r6,zero
   139bc:	0007883a 	mov	r3,zero
   139c0:	19003fcc 	andi	r4,r3,255
   139c4:	200895fa 	slli	r4,r4,23
   139c8:	00c02034 	movhi	r3,128
   139cc:	18ffffc4 	addi	r3,r3,-1
   139d0:	30c6703a 	and	r3,r6,r3
   139d4:	10a0002c 	andhi	r2,r2,32768
   139d8:	10c4b03a 	or	r2,r2,r3
   139dc:	280a97fa 	slli	r5,r5,31
   139e0:	1104b03a 	or	r2,r2,r4
   139e4:	00e00034 	movhi	r3,32768
   139e8:	18ffffc4 	addi	r3,r3,-1
   139ec:	10c4703a 	and	r2,r2,r3
   139f0:	1144b03a 	or	r2,r2,r5
   139f4:	f800283a 	ret
   139f8:	21000217 	ldw	r4,8(r4)
   139fc:	00bfe084 	movi	r2,-126
   13a00:	20801b16 	blt	r4,r2,13a70 <__pack_f+0xe0>
   13a04:	00801fc4 	movi	r2,127
   13a08:	11001016 	blt	r2,r4,13a4c <__pack_f+0xbc>
   13a0c:	308e703a 	and	r7,r6,r2
   13a10:	2087883a 	add	r3,r4,r2
   13a14:	00801004 	movi	r2,64
   13a18:	38800526 	beq	r7,r2,13a30 <__pack_f+0xa0>
   13a1c:	31800fc4 	addi	r6,r6,63
   13a20:	30000716 	blt	r6,zero,13a40 <__pack_f+0xb0>
   13a24:	300490ba 	slli	r2,r6,2
   13a28:	100cd27a 	srli	r6,r2,9
   13a2c:	003fe406 	br	139c0 <__pack_f+0x30>
   13a30:	3080200c 	andi	r2,r6,128
   13a34:	103ffa26 	beq	r2,zero,13a20 <__pack_f+0x90>
   13a38:	31cd883a 	add	r6,r6,r7
   13a3c:	003ff806 	br	13a20 <__pack_f+0x90>
   13a40:	300cd07a 	srli	r6,r6,1
   13a44:	18c00044 	addi	r3,r3,1
   13a48:	003ff606 	br	13a24 <__pack_f+0x94>
   13a4c:	000d883a 	mov	r6,zero
   13a50:	00ffffc4 	movi	r3,-1
   13a54:	003fda06 	br	139c0 <__pack_f+0x30>
   13a58:	31800434 	orhi	r6,r6,16
   13a5c:	00802034 	movhi	r2,128
   13a60:	10bfffc4 	addi	r2,r2,-1
   13a64:	308c703a 	and	r6,r6,r2
   13a68:	00ffffc4 	movi	r3,-1
   13a6c:	003fd406 	br	139c0 <__pack_f+0x30>
   13a70:	1109c83a 	sub	r4,r2,r4
   13a74:	00800644 	movi	r2,25
   13a78:	11001216 	blt	r2,r4,13ac4 <__pack_f+0x134>
   13a7c:	3904983a 	sll	r2,r7,r4
   13a80:	3106d83a 	srl	r3,r6,r4
   13a84:	10bfffc4 	addi	r2,r2,-1
   13a88:	3084703a 	and	r2,r6,r2
   13a8c:	1004c03a 	cmpne	r2,r2,zero
   13a90:	1886b03a 	or	r3,r3,r2
   13a94:	19001fcc 	andi	r4,r3,127
   13a98:	00801004 	movi	r2,64
   13a9c:	20800c26 	beq	r4,r2,13ad0 <__pack_f+0x140>
   13aa0:	18c00fc4 	addi	r3,r3,63
   13aa4:	00900034 	movhi	r2,16384
   13aa8:	10bfffc4 	addi	r2,r2,-1
   13aac:	180cd1fa 	srli	r6,r3,7
   13ab0:	10c7803a 	cmpltu	r3,r2,r3
   13ab4:	00802034 	movhi	r2,128
   13ab8:	10bfffc4 	addi	r2,r2,-1
   13abc:	308c703a 	and	r6,r6,r2
   13ac0:	003fbf06 	br	139c0 <__pack_f+0x30>
   13ac4:	0007883a 	mov	r3,zero
   13ac8:	000d883a 	mov	r6,zero
   13acc:	003ff906 	br	13ab4 <__pack_f+0x124>
   13ad0:	1880200c 	andi	r2,r3,128
   13ad4:	10000126 	beq	r2,zero,13adc <__pack_f+0x14c>
   13ad8:	1907883a 	add	r3,r3,r4
   13adc:	180cd1fa 	srli	r6,r3,7
   13ae0:	00900034 	movhi	r2,16384
   13ae4:	10bfffc4 	addi	r2,r2,-1
   13ae8:	10c7803a 	cmpltu	r3,r2,r3
   13aec:	003ff106 	br	13ab4 <__pack_f+0x124>

00013af0 <close>:
   13af0:	defff804 	addi	sp,sp,-32
   13af4:	dfc00715 	stw	ra,28(sp)
   13af8:	df000615 	stw	fp,24(sp)
   13afc:	df000604 	addi	fp,sp,24
   13b00:	e13ffc15 	stw	r4,-16(fp)
   13b04:	e0bffc17 	ldw	r2,-16(fp)
   13b08:	1004803a 	cmplt	r2,r2,zero
   13b0c:	1000081e 	bne	r2,zero,13b30 <close+0x40>
   13b10:	e0bffc17 	ldw	r2,-16(fp)
   13b14:	10800324 	muli	r2,r2,12
   13b18:	1007883a 	mov	r3,r2
   13b1c:	008000b4 	movhi	r2,2
   13b20:	10a45404 	addi	r2,r2,-28336
   13b24:	1887883a 	add	r3,r3,r2
   13b28:	e0ffff15 	stw	r3,-4(fp)
   13b2c:	00000106 	br	13b34 <close+0x44>
   13b30:	e03fff15 	stw	zero,-4(fp)
   13b34:	e0bfff17 	ldw	r2,-4(fp)
   13b38:	e0bffb15 	stw	r2,-20(fp)
   13b3c:	e0bffb17 	ldw	r2,-20(fp)
   13b40:	1005003a 	cmpeq	r2,r2,zero
   13b44:	10001d1e 	bne	r2,zero,13bbc <close+0xcc>
   13b48:	e0bffb17 	ldw	r2,-20(fp)
   13b4c:	10800017 	ldw	r2,0(r2)
   13b50:	10800417 	ldw	r2,16(r2)
   13b54:	1005003a 	cmpeq	r2,r2,zero
   13b58:	1000071e 	bne	r2,zero,13b78 <close+0x88>
   13b5c:	e0bffb17 	ldw	r2,-20(fp)
   13b60:	10800017 	ldw	r2,0(r2)
   13b64:	10800417 	ldw	r2,16(r2)
   13b68:	e13ffb17 	ldw	r4,-20(fp)
   13b6c:	103ee83a 	callr	r2
   13b70:	e0bffe15 	stw	r2,-8(fp)
   13b74:	00000106 	br	13b7c <close+0x8c>
   13b78:	e03ffe15 	stw	zero,-8(fp)
   13b7c:	e0bffe17 	ldw	r2,-8(fp)
   13b80:	e0bffa15 	stw	r2,-24(fp)
   13b84:	e13ffc17 	ldw	r4,-16(fp)
   13b88:	00145500 	call	14550 <alt_release_fd>
   13b8c:	e0bffa17 	ldw	r2,-24(fp)
   13b90:	1004403a 	cmpge	r2,r2,zero
   13b94:	1000071e 	bne	r2,zero,13bb4 <close+0xc4>
   13b98:	0013bec0 	call	13bec <alt_get_errno>
   13b9c:	e0fffa17 	ldw	r3,-24(fp)
   13ba0:	00c7c83a 	sub	r3,zero,r3
   13ba4:	10c00015 	stw	r3,0(r2)
   13ba8:	00bfffc4 	movi	r2,-1
   13bac:	e0bffd15 	stw	r2,-12(fp)
   13bb0:	00000806 	br	13bd4 <close+0xe4>
   13bb4:	e03ffd15 	stw	zero,-12(fp)
   13bb8:	00000606 	br	13bd4 <close+0xe4>
   13bbc:	0013bec0 	call	13bec <alt_get_errno>
   13bc0:	1007883a 	mov	r3,r2
   13bc4:	00801444 	movi	r2,81
   13bc8:	18800015 	stw	r2,0(r3)
   13bcc:	00bfffc4 	movi	r2,-1
   13bd0:	e0bffd15 	stw	r2,-12(fp)
   13bd4:	e0bffd17 	ldw	r2,-12(fp)
   13bd8:	e037883a 	mov	sp,fp
   13bdc:	dfc00117 	ldw	ra,4(sp)
   13be0:	df000017 	ldw	fp,0(sp)
   13be4:	dec00204 	addi	sp,sp,8
   13be8:	f800283a 	ret

00013bec <alt_get_errno>:
   13bec:	defffd04 	addi	sp,sp,-12
   13bf0:	dfc00215 	stw	ra,8(sp)
   13bf4:	df000115 	stw	fp,4(sp)
   13bf8:	df000104 	addi	fp,sp,4
   13bfc:	008000b4 	movhi	r2,2
   13c00:	10a92004 	addi	r2,r2,-23424
   13c04:	10800017 	ldw	r2,0(r2)
   13c08:	1005003a 	cmpeq	r2,r2,zero
   13c0c:	1000061e 	bne	r2,zero,13c28 <alt_get_errno+0x3c>
   13c10:	008000b4 	movhi	r2,2
   13c14:	10a92004 	addi	r2,r2,-23424
   13c18:	10800017 	ldw	r2,0(r2)
   13c1c:	103ee83a 	callr	r2
   13c20:	e0bfff15 	stw	r2,-4(fp)
   13c24:	00000306 	br	13c34 <alt_get_errno+0x48>
   13c28:	008000b4 	movhi	r2,2
   13c2c:	10b02004 	addi	r2,r2,-16256
   13c30:	e0bfff15 	stw	r2,-4(fp)
   13c34:	e0bfff17 	ldw	r2,-4(fp)
   13c38:	e037883a 	mov	sp,fp
   13c3c:	dfc00117 	ldw	ra,4(sp)
   13c40:	df000017 	ldw	fp,0(sp)
   13c44:	dec00204 	addi	sp,sp,8
   13c48:	f800283a 	ret

00013c4c <alt_dev_null_write>:
   13c4c:	defffc04 	addi	sp,sp,-16
   13c50:	df000315 	stw	fp,12(sp)
   13c54:	df000304 	addi	fp,sp,12
   13c58:	e13ffd15 	stw	r4,-12(fp)
   13c5c:	e17ffe15 	stw	r5,-8(fp)
   13c60:	e1bfff15 	stw	r6,-4(fp)
   13c64:	e0bfff17 	ldw	r2,-4(fp)
   13c68:	e037883a 	mov	sp,fp
   13c6c:	df000017 	ldw	fp,0(sp)
   13c70:	dec00104 	addi	sp,sp,4
   13c74:	f800283a 	ret

00013c78 <fstat>:
   13c78:	defff904 	addi	sp,sp,-28
   13c7c:	dfc00615 	stw	ra,24(sp)
   13c80:	df000515 	stw	fp,20(sp)
   13c84:	df000504 	addi	fp,sp,20
   13c88:	e13ffc15 	stw	r4,-16(fp)
   13c8c:	e17ffd15 	stw	r5,-12(fp)
   13c90:	e0bffc17 	ldw	r2,-16(fp)
   13c94:	1004803a 	cmplt	r2,r2,zero
   13c98:	1000081e 	bne	r2,zero,13cbc <fstat+0x44>
   13c9c:	e0bffc17 	ldw	r2,-16(fp)
   13ca0:	10800324 	muli	r2,r2,12
   13ca4:	1007883a 	mov	r3,r2
   13ca8:	008000b4 	movhi	r2,2
   13cac:	10a45404 	addi	r2,r2,-28336
   13cb0:	1887883a 	add	r3,r3,r2
   13cb4:	e0ffff15 	stw	r3,-4(fp)
   13cb8:	00000106 	br	13cc0 <fstat+0x48>
   13cbc:	e03fff15 	stw	zero,-4(fp)
   13cc0:	e0bfff17 	ldw	r2,-4(fp)
   13cc4:	e0bffb15 	stw	r2,-20(fp)
   13cc8:	e0bffb17 	ldw	r2,-20(fp)
   13ccc:	1005003a 	cmpeq	r2,r2,zero
   13cd0:	1000121e 	bne	r2,zero,13d1c <fstat+0xa4>
   13cd4:	e0bffb17 	ldw	r2,-20(fp)
   13cd8:	10800017 	ldw	r2,0(r2)
   13cdc:	10800817 	ldw	r2,32(r2)
   13ce0:	1005003a 	cmpeq	r2,r2,zero
   13ce4:	1000081e 	bne	r2,zero,13d08 <fstat+0x90>
   13ce8:	e0bffb17 	ldw	r2,-20(fp)
   13cec:	10800017 	ldw	r2,0(r2)
   13cf0:	10800817 	ldw	r2,32(r2)
   13cf4:	e13ffb17 	ldw	r4,-20(fp)
   13cf8:	e17ffd17 	ldw	r5,-12(fp)
   13cfc:	103ee83a 	callr	r2
   13d00:	e0bffe15 	stw	r2,-8(fp)
   13d04:	00000b06 	br	13d34 <fstat+0xbc>
   13d08:	e0fffd17 	ldw	r3,-12(fp)
   13d0c:	00880004 	movi	r2,8192
   13d10:	18800115 	stw	r2,4(r3)
   13d14:	e03ffe15 	stw	zero,-8(fp)
   13d18:	00000606 	br	13d34 <fstat+0xbc>
   13d1c:	0013d4c0 	call	13d4c <alt_get_errno>
   13d20:	1007883a 	mov	r3,r2
   13d24:	00801444 	movi	r2,81
   13d28:	18800015 	stw	r2,0(r3)
   13d2c:	00bfffc4 	movi	r2,-1
   13d30:	e0bffe15 	stw	r2,-8(fp)
   13d34:	e0bffe17 	ldw	r2,-8(fp)
   13d38:	e037883a 	mov	sp,fp
   13d3c:	dfc00117 	ldw	ra,4(sp)
   13d40:	df000017 	ldw	fp,0(sp)
   13d44:	dec00204 	addi	sp,sp,8
   13d48:	f800283a 	ret

00013d4c <alt_get_errno>:
   13d4c:	defffd04 	addi	sp,sp,-12
   13d50:	dfc00215 	stw	ra,8(sp)
   13d54:	df000115 	stw	fp,4(sp)
   13d58:	df000104 	addi	fp,sp,4
   13d5c:	008000b4 	movhi	r2,2
   13d60:	10a92004 	addi	r2,r2,-23424
   13d64:	10800017 	ldw	r2,0(r2)
   13d68:	1005003a 	cmpeq	r2,r2,zero
   13d6c:	1000061e 	bne	r2,zero,13d88 <alt_get_errno+0x3c>
   13d70:	008000b4 	movhi	r2,2
   13d74:	10a92004 	addi	r2,r2,-23424
   13d78:	10800017 	ldw	r2,0(r2)
   13d7c:	103ee83a 	callr	r2
   13d80:	e0bfff15 	stw	r2,-4(fp)
   13d84:	00000306 	br	13d94 <alt_get_errno+0x48>
   13d88:	008000b4 	movhi	r2,2
   13d8c:	10b02004 	addi	r2,r2,-16256
   13d90:	e0bfff15 	stw	r2,-4(fp)
   13d94:	e0bfff17 	ldw	r2,-4(fp)
   13d98:	e037883a 	mov	sp,fp
   13d9c:	dfc00117 	ldw	ra,4(sp)
   13da0:	df000017 	ldw	fp,0(sp)
   13da4:	dec00204 	addi	sp,sp,8
   13da8:	f800283a 	ret

00013dac <gettimeofday>:
   13dac:	defff504 	addi	sp,sp,-44
   13db0:	dfc00a15 	stw	ra,40(sp)
   13db4:	df000915 	stw	fp,36(sp)
   13db8:	dc800815 	stw	r18,32(sp)
   13dbc:	dc400715 	stw	r17,28(sp)
   13dc0:	dc000615 	stw	r16,24(sp)
   13dc4:	df000604 	addi	fp,sp,24
   13dc8:	e13ffd15 	stw	r4,-12(fp)
   13dcc:	e17ffe15 	stw	r5,-8(fp)
   13dd0:	e0bffe17 	ldw	r2,-8(fp)
   13dd4:	e0bffc15 	stw	r2,-16(fp)
   13dd8:	008000b4 	movhi	r2,2
   13ddc:	10b02904 	addi	r2,r2,-16220
   13de0:	10800017 	ldw	r2,0(r2)
   13de4:	e0bffb15 	stw	r2,-20(fp)
   13de8:	008000b4 	movhi	r2,2
   13dec:	10b02804 	addi	r2,r2,-16224
   13df0:	10800017 	ldw	r2,0(r2)
   13df4:	e0bffa15 	stw	r2,-24(fp)
   13df8:	e0bffa17 	ldw	r2,-24(fp)
   13dfc:	1005003a 	cmpeq	r2,r2,zero
   13e00:	1000661e 	bne	r2,zero,13f9c <gettimeofday+0x1f0>
   13e04:	d0a70f17 	ldw	r2,-25540(gp)
   13e08:	1021883a 	mov	r16,r2
   13e0c:	e13ffb17 	ldw	r4,-20(fp)
   13e10:	e17ffa17 	ldw	r5,-24(fp)
   13e14:	00051b00 	call	51b0 <__udivsi3>
   13e18:	8085883a 	add	r2,r16,r2
   13e1c:	1007883a 	mov	r3,r2
   13e20:	e0bffd17 	ldw	r2,-12(fp)
   13e24:	10c00015 	stw	r3,0(r2)
   13e28:	008000b4 	movhi	r2,2
   13e2c:	10b02404 	addi	r2,r2,-16240
   13e30:	10800017 	ldw	r2,0(r2)
   13e34:	1025883a 	mov	r18,r2
   13e38:	e43ffb17 	ldw	r16,-20(fp)
   13e3c:	0023883a 	mov	r17,zero
   13e40:	010003f4 	movhi	r4,15
   13e44:	21109004 	addi	r4,r4,16960
   13e48:	e17ffa17 	ldw	r5,-24(fp)
   13e4c:	00051b00 	call	51b0 <__udivsi3>
   13e50:	1009883a 	mov	r4,r2
   13e54:	2005883a 	mov	r2,r4
   13e58:	0007883a 	mov	r3,zero
   13e5c:	8009883a 	mov	r4,r16
   13e60:	880b883a 	mov	r5,r17
   13e64:	100d883a 	mov	r6,r2
   13e68:	180f883a 	mov	r7,r3
   13e6c:	00116940 	call	11694 <__muldi3>
   13e70:	1009883a 	mov	r4,r2
   13e74:	180b883a 	mov	r5,r3
   13e78:	2005883a 	mov	r2,r4
   13e7c:	2807883a 	mov	r3,r5
   13e80:	1009883a 	mov	r4,r2
   13e84:	180b883a 	mov	r5,r3
   13e88:	018003f4 	movhi	r6,15
   13e8c:	31909004 	addi	r6,r6,16960
   13e90:	000f883a 	mov	r7,zero
   13e94:	0011dac0 	call	11dac <__umoddi3>
   13e98:	1009883a 	mov	r4,r2
   13e9c:	180b883a 	mov	r5,r3
   13ea0:	2005883a 	mov	r2,r4
   13ea4:	2807883a 	mov	r3,r5
   13ea8:	9085883a 	add	r2,r18,r2
   13eac:	1007883a 	mov	r3,r2
   13eb0:	e0bffd17 	ldw	r2,-12(fp)
   13eb4:	10c00115 	stw	r3,4(r2)
   13eb8:	00001506 	br	13f10 <gettimeofday+0x164>
   13ebc:	e0bffd17 	ldw	r2,-12(fp)
   13ec0:	10800017 	ldw	r2,0(r2)
   13ec4:	10800048 	cmpgei	r2,r2,1
   13ec8:	1000051e 	bne	r2,zero,13ee0 <gettimeofday+0x134>
   13ecc:	e0bffd17 	ldw	r2,-12(fp)
   13ed0:	10000015 	stw	zero,0(r2)
   13ed4:	e0bffd17 	ldw	r2,-12(fp)
   13ed8:	10000115 	stw	zero,4(r2)
   13edc:	00001d06 	br	13f54 <gettimeofday+0x1a8>
   13ee0:	e0bffd17 	ldw	r2,-12(fp)
   13ee4:	10800017 	ldw	r2,0(r2)
   13ee8:	10ffffc4 	addi	r3,r2,-1
   13eec:	e0bffd17 	ldw	r2,-12(fp)
   13ef0:	10c00015 	stw	r3,0(r2)
   13ef4:	e0bffd17 	ldw	r2,-12(fp)
   13ef8:	10c00117 	ldw	r3,4(r2)
   13efc:	008003f4 	movhi	r2,15
   13f00:	10909004 	addi	r2,r2,16960
   13f04:	1887883a 	add	r3,r3,r2
   13f08:	e0bffd17 	ldw	r2,-12(fp)
   13f0c:	10c00115 	stw	r3,4(r2)
   13f10:	e0bffd17 	ldw	r2,-12(fp)
   13f14:	10800117 	ldw	r2,4(r2)
   13f18:	1004803a 	cmplt	r2,r2,zero
   13f1c:	103fe71e 	bne	r2,zero,13ebc <gettimeofday+0x110>
   13f20:	00000c06 	br	13f54 <gettimeofday+0x1a8>
   13f24:	e0bffd17 	ldw	r2,-12(fp)
   13f28:	10800017 	ldw	r2,0(r2)
   13f2c:	10c00044 	addi	r3,r2,1
   13f30:	e0bffd17 	ldw	r2,-12(fp)
   13f34:	10c00015 	stw	r3,0(r2)
   13f38:	e0bffd17 	ldw	r2,-12(fp)
   13f3c:	10c00117 	ldw	r3,4(r2)
   13f40:	00bffc74 	movhi	r2,65521
   13f44:	10af7004 	addi	r2,r2,-16960
   13f48:	1887883a 	add	r3,r3,r2
   13f4c:	e0bffd17 	ldw	r2,-12(fp)
   13f50:	10c00115 	stw	r3,4(r2)
   13f54:	e0bffd17 	ldw	r2,-12(fp)
   13f58:	10c00117 	ldw	r3,4(r2)
   13f5c:	008003f4 	movhi	r2,15
   13f60:	10908fc4 	addi	r2,r2,16959
   13f64:	10ffef16 	blt	r2,r3,13f24 <gettimeofday+0x178>
   13f68:	e0bffc17 	ldw	r2,-16(fp)
   13f6c:	1005003a 	cmpeq	r2,r2,zero
   13f70:	1000081e 	bne	r2,zero,13f94 <gettimeofday+0x1e8>
   13f74:	d0e70d17 	ldw	r3,-25548(gp)
   13f78:	e0bffc17 	ldw	r2,-16(fp)
   13f7c:	10c00015 	stw	r3,0(r2)
   13f80:	008000b4 	movhi	r2,2
   13f84:	10b02204 	addi	r2,r2,-16248
   13f88:	10c00017 	ldw	r3,0(r2)
   13f8c:	e0bffc17 	ldw	r2,-16(fp)
   13f90:	10c00115 	stw	r3,4(r2)
   13f94:	e03fff15 	stw	zero,-4(fp)
   13f98:	00000206 	br	13fa4 <gettimeofday+0x1f8>
   13f9c:	00bfde84 	movi	r2,-134
   13fa0:	e0bfff15 	stw	r2,-4(fp)
   13fa4:	e0bfff17 	ldw	r2,-4(fp)
   13fa8:	e037883a 	mov	sp,fp
   13fac:	dfc00417 	ldw	ra,16(sp)
   13fb0:	df000317 	ldw	fp,12(sp)
   13fb4:	dc800217 	ldw	r18,8(sp)
   13fb8:	dc400117 	ldw	r17,4(sp)
   13fbc:	dc000017 	ldw	r16,0(sp)
   13fc0:	dec00504 	addi	sp,sp,20
   13fc4:	f800283a 	ret

00013fc8 <isatty>:
   13fc8:	deffeb04 	addi	sp,sp,-84
   13fcc:	dfc01415 	stw	ra,80(sp)
   13fd0:	df001315 	stw	fp,76(sp)
   13fd4:	df001304 	addi	fp,sp,76
   13fd8:	e13ffd15 	stw	r4,-12(fp)
   13fdc:	e0bffd17 	ldw	r2,-12(fp)
   13fe0:	1004803a 	cmplt	r2,r2,zero
   13fe4:	1000081e 	bne	r2,zero,14008 <isatty+0x40>
   13fe8:	e0bffd17 	ldw	r2,-12(fp)
   13fec:	10800324 	muli	r2,r2,12
   13ff0:	1007883a 	mov	r3,r2
   13ff4:	008000b4 	movhi	r2,2
   13ff8:	10a45404 	addi	r2,r2,-28336
   13ffc:	1887883a 	add	r3,r3,r2
   14000:	e0ffff15 	stw	r3,-4(fp)
   14004:	00000106 	br	1400c <isatty+0x44>
   14008:	e03fff15 	stw	zero,-4(fp)
   1400c:	e0bfff17 	ldw	r2,-4(fp)
   14010:	e0bfed15 	stw	r2,-76(fp)
   14014:	e0bfed17 	ldw	r2,-76(fp)
   14018:	1005003a 	cmpeq	r2,r2,zero
   1401c:	10000f1e 	bne	r2,zero,1405c <isatty+0x94>
   14020:	e0bfed17 	ldw	r2,-76(fp)
   14024:	10800017 	ldw	r2,0(r2)
   14028:	10800817 	ldw	r2,32(r2)
   1402c:	1004c03a 	cmpne	r2,r2,zero
   14030:	1000031e 	bne	r2,zero,14040 <isatty+0x78>
   14034:	00800044 	movi	r2,1
   14038:	e0bffe15 	stw	r2,-8(fp)
   1403c:	00000c06 	br	14070 <isatty+0xa8>
   14040:	e17fee04 	addi	r5,fp,-72
   14044:	e13ffd17 	ldw	r4,-12(fp)
   14048:	0013c780 	call	13c78 <fstat>
   1404c:	e0bfef17 	ldw	r2,-68(fp)
   14050:	10880020 	cmpeqi	r2,r2,8192
   14054:	e0bffe15 	stw	r2,-8(fp)
   14058:	00000506 	br	14070 <isatty+0xa8>
   1405c:	00140880 	call	14088 <alt_get_errno>
   14060:	1007883a 	mov	r3,r2
   14064:	00801444 	movi	r2,81
   14068:	18800015 	stw	r2,0(r3)
   1406c:	e03ffe15 	stw	zero,-8(fp)
   14070:	e0bffe17 	ldw	r2,-8(fp)
   14074:	e037883a 	mov	sp,fp
   14078:	dfc00117 	ldw	ra,4(sp)
   1407c:	df000017 	ldw	fp,0(sp)
   14080:	dec00204 	addi	sp,sp,8
   14084:	f800283a 	ret

00014088 <alt_get_errno>:
   14088:	defffd04 	addi	sp,sp,-12
   1408c:	dfc00215 	stw	ra,8(sp)
   14090:	df000115 	stw	fp,4(sp)
   14094:	df000104 	addi	fp,sp,4
   14098:	008000b4 	movhi	r2,2
   1409c:	10a92004 	addi	r2,r2,-23424
   140a0:	10800017 	ldw	r2,0(r2)
   140a4:	1005003a 	cmpeq	r2,r2,zero
   140a8:	1000061e 	bne	r2,zero,140c4 <alt_get_errno+0x3c>
   140ac:	008000b4 	movhi	r2,2
   140b0:	10a92004 	addi	r2,r2,-23424
   140b4:	10800017 	ldw	r2,0(r2)
   140b8:	103ee83a 	callr	r2
   140bc:	e0bfff15 	stw	r2,-4(fp)
   140c0:	00000306 	br	140d0 <alt_get_errno+0x48>
   140c4:	008000b4 	movhi	r2,2
   140c8:	10b02004 	addi	r2,r2,-16256
   140cc:	e0bfff15 	stw	r2,-4(fp)
   140d0:	e0bfff17 	ldw	r2,-4(fp)
   140d4:	e037883a 	mov	sp,fp
   140d8:	dfc00117 	ldw	ra,4(sp)
   140dc:	df000017 	ldw	fp,0(sp)
   140e0:	dec00204 	addi	sp,sp,8
   140e4:	f800283a 	ret

000140e8 <alt_load>:
   140e8:	defffe04 	addi	sp,sp,-8
   140ec:	dfc00115 	stw	ra,4(sp)
   140f0:	df000015 	stw	fp,0(sp)
   140f4:	d839883a 	mov	fp,sp
   140f8:	010000b4 	movhi	r4,2
   140fc:	21292604 	addi	r4,r4,-23400
   14100:	014000b4 	movhi	r5,2
   14104:	29623704 	addi	r5,r5,-30500
   14108:	018000b4 	movhi	r6,2
   1410c:	31a92604 	addi	r6,r6,-23400
   14110:	00141680 	call	14168 <alt_load_section>
   14114:	01000034 	movhi	r4,0
   14118:	21000804 	addi	r4,r4,32
   1411c:	01400034 	movhi	r5,0
   14120:	29400804 	addi	r5,r5,32
   14124:	01800034 	movhi	r6,0
   14128:	31806d04 	addi	r6,r6,436
   1412c:	00141680 	call	14168 <alt_load_section>
   14130:	01000074 	movhi	r4,1
   14134:	211e3704 	addi	r4,r4,30940
   14138:	01400074 	movhi	r5,1
   1413c:	295e3704 	addi	r5,r5,30940
   14140:	018000b4 	movhi	r6,2
   14144:	31a23704 	addi	r6,r6,-30500
   14148:	00141680 	call	14168 <alt_load_section>
   1414c:	001682c0 	call	1682c <alt_dcache_flush_all>
   14150:	0016a4c0 	call	16a4c <alt_icache_flush_all>
   14154:	e037883a 	mov	sp,fp
   14158:	dfc00117 	ldw	ra,4(sp)
   1415c:	df000017 	ldw	fp,0(sp)
   14160:	dec00204 	addi	sp,sp,8
   14164:	f800283a 	ret

00014168 <alt_load_section>:
   14168:	defffc04 	addi	sp,sp,-16
   1416c:	df000315 	stw	fp,12(sp)
   14170:	df000304 	addi	fp,sp,12
   14174:	e13ffd15 	stw	r4,-12(fp)
   14178:	e17ffe15 	stw	r5,-8(fp)
   1417c:	e1bfff15 	stw	r6,-4(fp)
   14180:	e0fffe17 	ldw	r3,-8(fp)
   14184:	e0bffd17 	ldw	r2,-12(fp)
   14188:	18800e26 	beq	r3,r2,141c4 <alt_load_section+0x5c>
   1418c:	00000a06 	br	141b8 <alt_load_section+0x50>
   14190:	e0bffd17 	ldw	r2,-12(fp)
   14194:	10c00017 	ldw	r3,0(r2)
   14198:	e0bffe17 	ldw	r2,-8(fp)
   1419c:	10c00015 	stw	r3,0(r2)
   141a0:	e0bffe17 	ldw	r2,-8(fp)
   141a4:	10800104 	addi	r2,r2,4
   141a8:	e0bffe15 	stw	r2,-8(fp)
   141ac:	e0bffd17 	ldw	r2,-12(fp)
   141b0:	10800104 	addi	r2,r2,4
   141b4:	e0bffd15 	stw	r2,-12(fp)
   141b8:	e0fffe17 	ldw	r3,-8(fp)
   141bc:	e0bfff17 	ldw	r2,-4(fp)
   141c0:	18bff31e 	bne	r3,r2,14190 <alt_load_section+0x28>
   141c4:	e037883a 	mov	sp,fp
   141c8:	df000017 	ldw	fp,0(sp)
   141cc:	dec00104 	addi	sp,sp,4
   141d0:	f800283a 	ret

000141d4 <lseek>:
   141d4:	defff804 	addi	sp,sp,-32
   141d8:	dfc00715 	stw	ra,28(sp)
   141dc:	df000615 	stw	fp,24(sp)
   141e0:	df000604 	addi	fp,sp,24
   141e4:	e13ffc15 	stw	r4,-16(fp)
   141e8:	e17ffd15 	stw	r5,-12(fp)
   141ec:	e1bffe15 	stw	r6,-8(fp)
   141f0:	e03ffa15 	stw	zero,-24(fp)
   141f4:	e0bffc17 	ldw	r2,-16(fp)
   141f8:	1004803a 	cmplt	r2,r2,zero
   141fc:	1000081e 	bne	r2,zero,14220 <lseek+0x4c>
   14200:	e0bffc17 	ldw	r2,-16(fp)
   14204:	10800324 	muli	r2,r2,12
   14208:	1007883a 	mov	r3,r2
   1420c:	008000b4 	movhi	r2,2
   14210:	10a45404 	addi	r2,r2,-28336
   14214:	1887883a 	add	r3,r3,r2
   14218:	e0ffff15 	stw	r3,-4(fp)
   1421c:	00000106 	br	14224 <lseek+0x50>
   14220:	e03fff15 	stw	zero,-4(fp)
   14224:	e0bfff17 	ldw	r2,-4(fp)
   14228:	e0bffb15 	stw	r2,-20(fp)
   1422c:	e0bffb17 	ldw	r2,-20(fp)
   14230:	1005003a 	cmpeq	r2,r2,zero
   14234:	1000111e 	bne	r2,zero,1427c <lseek+0xa8>
   14238:	e0bffb17 	ldw	r2,-20(fp)
   1423c:	10800017 	ldw	r2,0(r2)
   14240:	10800717 	ldw	r2,28(r2)
   14244:	1005003a 	cmpeq	r2,r2,zero
   14248:	1000091e 	bne	r2,zero,14270 <lseek+0x9c>
   1424c:	e0bffb17 	ldw	r2,-20(fp)
   14250:	10800017 	ldw	r2,0(r2)
   14254:	10800717 	ldw	r2,28(r2)
   14258:	e13ffb17 	ldw	r4,-20(fp)
   1425c:	e17ffd17 	ldw	r5,-12(fp)
   14260:	e1bffe17 	ldw	r6,-8(fp)
   14264:	103ee83a 	callr	r2
   14268:	e0bffa15 	stw	r2,-24(fp)
   1426c:	00000506 	br	14284 <lseek+0xb0>
   14270:	00bfde84 	movi	r2,-134
   14274:	e0bffa15 	stw	r2,-24(fp)
   14278:	00000206 	br	14284 <lseek+0xb0>
   1427c:	00bfebc4 	movi	r2,-81
   14280:	e0bffa15 	stw	r2,-24(fp)
   14284:	e0bffa17 	ldw	r2,-24(fp)
   14288:	1004403a 	cmpge	r2,r2,zero
   1428c:	1000071e 	bne	r2,zero,142ac <lseek+0xd8>
   14290:	00142c40 	call	142c4 <alt_get_errno>
   14294:	1007883a 	mov	r3,r2
   14298:	e0bffa17 	ldw	r2,-24(fp)
   1429c:	0085c83a 	sub	r2,zero,r2
   142a0:	18800015 	stw	r2,0(r3)
   142a4:	00bfffc4 	movi	r2,-1
   142a8:	e0bffa15 	stw	r2,-24(fp)
   142ac:	e0bffa17 	ldw	r2,-24(fp)
   142b0:	e037883a 	mov	sp,fp
   142b4:	dfc00117 	ldw	ra,4(sp)
   142b8:	df000017 	ldw	fp,0(sp)
   142bc:	dec00204 	addi	sp,sp,8
   142c0:	f800283a 	ret

000142c4 <alt_get_errno>:
   142c4:	defffd04 	addi	sp,sp,-12
   142c8:	dfc00215 	stw	ra,8(sp)
   142cc:	df000115 	stw	fp,4(sp)
   142d0:	df000104 	addi	fp,sp,4
   142d4:	008000b4 	movhi	r2,2
   142d8:	10a92004 	addi	r2,r2,-23424
   142dc:	10800017 	ldw	r2,0(r2)
   142e0:	1005003a 	cmpeq	r2,r2,zero
   142e4:	1000061e 	bne	r2,zero,14300 <alt_get_errno+0x3c>
   142e8:	008000b4 	movhi	r2,2
   142ec:	10a92004 	addi	r2,r2,-23424
   142f0:	10800017 	ldw	r2,0(r2)
   142f4:	103ee83a 	callr	r2
   142f8:	e0bfff15 	stw	r2,-4(fp)
   142fc:	00000306 	br	1430c <alt_get_errno+0x48>
   14300:	008000b4 	movhi	r2,2
   14304:	10b02004 	addi	r2,r2,-16256
   14308:	e0bfff15 	stw	r2,-4(fp)
   1430c:	e0bfff17 	ldw	r2,-4(fp)
   14310:	e037883a 	mov	sp,fp
   14314:	dfc00117 	ldw	ra,4(sp)
   14318:	df000017 	ldw	fp,0(sp)
   1431c:	dec00204 	addi	sp,sp,8
   14320:	f800283a 	ret

00014324 <alt_main>:
   14324:	defffd04 	addi	sp,sp,-12
   14328:	dfc00215 	stw	ra,8(sp)
   1432c:	df000115 	stw	fp,4(sp)
   14330:	df000104 	addi	fp,sp,4
   14334:	0009883a 	mov	r4,zero
   14338:	00149c00 	call	149c0 <alt_irq_init>
   1433c:	00149f40 	call	149f4 <alt_sys_init>
   14340:	010000b4 	movhi	r4,2
   14344:	21222c04 	addi	r4,r4,-30544
   14348:	014000b4 	movhi	r5,2
   1434c:	29622c04 	addi	r5,r5,-30544
   14350:	018000b4 	movhi	r6,2
   14354:	31a22c04 	addi	r6,r6,-30544
   14358:	0016e0c0 	call	16e0c <alt_io_redirect>
   1435c:	00169840 	call	16984 <_do_ctors>
   14360:	01000074 	movhi	r4,1
   14364:	211a7a04 	addi	r4,r4,27112
   14368:	00174640 	call	17464 <atexit>
   1436c:	d1271117 	ldw	r4,-25532(gp)
   14370:	d1671217 	ldw	r5,-25528(gp)
   14374:	d1a71317 	ldw	r6,-25524(gp)
   14378:	0000ea80 	call	ea8 <main>
   1437c:	e0bfff15 	stw	r2,-4(fp)
   14380:	01000044 	movi	r4,1
   14384:	0013af00 	call	13af0 <close>
   14388:	e13fff17 	ldw	r4,-4(fp)
   1438c:	00174780 	call	17478 <exit>

00014390 <__malloc_lock>:
   14390:	defffe04 	addi	sp,sp,-8
   14394:	df000115 	stw	fp,4(sp)
   14398:	df000104 	addi	fp,sp,4
   1439c:	e13fff15 	stw	r4,-4(fp)
   143a0:	e037883a 	mov	sp,fp
   143a4:	df000017 	ldw	fp,0(sp)
   143a8:	dec00104 	addi	sp,sp,4
   143ac:	f800283a 	ret

000143b0 <__malloc_unlock>:
   143b0:	defffe04 	addi	sp,sp,-8
   143b4:	df000115 	stw	fp,4(sp)
   143b8:	df000104 	addi	fp,sp,4
   143bc:	e13fff15 	stw	r4,-4(fp)
   143c0:	e037883a 	mov	sp,fp
   143c4:	df000017 	ldw	fp,0(sp)
   143c8:	dec00104 	addi	sp,sp,4
   143cc:	f800283a 	ret

000143d0 <read>:
   143d0:	defff704 	addi	sp,sp,-36
   143d4:	dfc00815 	stw	ra,32(sp)
   143d8:	df000715 	stw	fp,28(sp)
   143dc:	df000704 	addi	fp,sp,28
   143e0:	e13ffb15 	stw	r4,-20(fp)
   143e4:	e17ffc15 	stw	r5,-16(fp)
   143e8:	e1bffd15 	stw	r6,-12(fp)
   143ec:	e0bffb17 	ldw	r2,-20(fp)
   143f0:	1004803a 	cmplt	r2,r2,zero
   143f4:	1000081e 	bne	r2,zero,14418 <read+0x48>
   143f8:	e0bffb17 	ldw	r2,-20(fp)
   143fc:	10800324 	muli	r2,r2,12
   14400:	1007883a 	mov	r3,r2
   14404:	008000b4 	movhi	r2,2
   14408:	10a45404 	addi	r2,r2,-28336
   1440c:	1887883a 	add	r3,r3,r2
   14410:	e0ffff15 	stw	r3,-4(fp)
   14414:	00000106 	br	1441c <read+0x4c>
   14418:	e03fff15 	stw	zero,-4(fp)
   1441c:	e0bfff17 	ldw	r2,-4(fp)
   14420:	e0bffa15 	stw	r2,-24(fp)
   14424:	e0bffa17 	ldw	r2,-24(fp)
   14428:	1005003a 	cmpeq	r2,r2,zero
   1442c:	1000241e 	bne	r2,zero,144c0 <read+0xf0>
   14430:	e0bffa17 	ldw	r2,-24(fp)
   14434:	10800217 	ldw	r2,8(r2)
   14438:	108000cc 	andi	r2,r2,3
   1443c:	10800060 	cmpeqi	r2,r2,1
   14440:	10001a1e 	bne	r2,zero,144ac <read+0xdc>
   14444:	e0bffa17 	ldw	r2,-24(fp)
   14448:	10800017 	ldw	r2,0(r2)
   1444c:	10800517 	ldw	r2,20(r2)
   14450:	1005003a 	cmpeq	r2,r2,zero
   14454:	1000151e 	bne	r2,zero,144ac <read+0xdc>
   14458:	e0bffa17 	ldw	r2,-24(fp)
   1445c:	10800017 	ldw	r2,0(r2)
   14460:	10800517 	ldw	r2,20(r2)
   14464:	e17ffc17 	ldw	r5,-16(fp)
   14468:	e1bffd17 	ldw	r6,-12(fp)
   1446c:	e13ffa17 	ldw	r4,-24(fp)
   14470:	103ee83a 	callr	r2
   14474:	e0bff915 	stw	r2,-28(fp)
   14478:	e0bff917 	ldw	r2,-28(fp)
   1447c:	1004403a 	cmpge	r2,r2,zero
   14480:	1000071e 	bne	r2,zero,144a0 <read+0xd0>
   14484:	00144f00 	call	144f0 <alt_get_errno>
   14488:	e0fff917 	ldw	r3,-28(fp)
   1448c:	00c7c83a 	sub	r3,zero,r3
   14490:	10c00015 	stw	r3,0(r2)
   14494:	00bfffc4 	movi	r2,-1
   14498:	e0bffe15 	stw	r2,-8(fp)
   1449c:	00000e06 	br	144d8 <read+0x108>
   144a0:	e0bff917 	ldw	r2,-28(fp)
   144a4:	e0bffe15 	stw	r2,-8(fp)
   144a8:	00000b06 	br	144d8 <read+0x108>
   144ac:	00144f00 	call	144f0 <alt_get_errno>
   144b0:	1007883a 	mov	r3,r2
   144b4:	00800344 	movi	r2,13
   144b8:	18800015 	stw	r2,0(r3)
   144bc:	00000406 	br	144d0 <read+0x100>
   144c0:	00144f00 	call	144f0 <alt_get_errno>
   144c4:	1007883a 	mov	r3,r2
   144c8:	00801444 	movi	r2,81
   144cc:	18800015 	stw	r2,0(r3)
   144d0:	00bfffc4 	movi	r2,-1
   144d4:	e0bffe15 	stw	r2,-8(fp)
   144d8:	e0bffe17 	ldw	r2,-8(fp)
   144dc:	e037883a 	mov	sp,fp
   144e0:	dfc00117 	ldw	ra,4(sp)
   144e4:	df000017 	ldw	fp,0(sp)
   144e8:	dec00204 	addi	sp,sp,8
   144ec:	f800283a 	ret

000144f0 <alt_get_errno>:
   144f0:	defffd04 	addi	sp,sp,-12
   144f4:	dfc00215 	stw	ra,8(sp)
   144f8:	df000115 	stw	fp,4(sp)
   144fc:	df000104 	addi	fp,sp,4
   14500:	008000b4 	movhi	r2,2
   14504:	10a92004 	addi	r2,r2,-23424
   14508:	10800017 	ldw	r2,0(r2)
   1450c:	1005003a 	cmpeq	r2,r2,zero
   14510:	1000061e 	bne	r2,zero,1452c <alt_get_errno+0x3c>
   14514:	008000b4 	movhi	r2,2
   14518:	10a92004 	addi	r2,r2,-23424
   1451c:	10800017 	ldw	r2,0(r2)
   14520:	103ee83a 	callr	r2
   14524:	e0bfff15 	stw	r2,-4(fp)
   14528:	00000306 	br	14538 <alt_get_errno+0x48>
   1452c:	008000b4 	movhi	r2,2
   14530:	10b02004 	addi	r2,r2,-16256
   14534:	e0bfff15 	stw	r2,-4(fp)
   14538:	e0bfff17 	ldw	r2,-4(fp)
   1453c:	e037883a 	mov	sp,fp
   14540:	dfc00117 	ldw	ra,4(sp)
   14544:	df000017 	ldw	fp,0(sp)
   14548:	dec00204 	addi	sp,sp,8
   1454c:	f800283a 	ret

00014550 <alt_release_fd>:
   14550:	defffe04 	addi	sp,sp,-8
   14554:	df000115 	stw	fp,4(sp)
   14558:	df000104 	addi	fp,sp,4
   1455c:	e13fff15 	stw	r4,-4(fp)
   14560:	e0bfff17 	ldw	r2,-4(fp)
   14564:	108000d0 	cmplti	r2,r2,3
   14568:	10000d1e 	bne	r2,zero,145a0 <alt_release_fd+0x50>
   1456c:	e0bfff17 	ldw	r2,-4(fp)
   14570:	00c000b4 	movhi	r3,2
   14574:	18e45404 	addi	r3,r3,-28336
   14578:	10800324 	muli	r2,r2,12
   1457c:	10c5883a 	add	r2,r2,r3
   14580:	10800204 	addi	r2,r2,8
   14584:	10000015 	stw	zero,0(r2)
   14588:	e0bfff17 	ldw	r2,-4(fp)
   1458c:	00c000b4 	movhi	r3,2
   14590:	18e45404 	addi	r3,r3,-28336
   14594:	10800324 	muli	r2,r2,12
   14598:	10c5883a 	add	r2,r2,r3
   1459c:	10000015 	stw	zero,0(r2)
   145a0:	e037883a 	mov	sp,fp
   145a4:	df000017 	ldw	fp,0(sp)
   145a8:	dec00104 	addi	sp,sp,4
   145ac:	f800283a 	ret

000145b0 <sbrk>:
   145b0:	defff804 	addi	sp,sp,-32
   145b4:	df000715 	stw	fp,28(sp)
   145b8:	df000704 	addi	fp,sp,28
   145bc:	e13ffe15 	stw	r4,-8(fp)
   145c0:	0005303a 	rdctl	r2,status
   145c4:	e0bffb15 	stw	r2,-20(fp)
   145c8:	e0fffb17 	ldw	r3,-20(fp)
   145cc:	00bfff84 	movi	r2,-2
   145d0:	1884703a 	and	r2,r3,r2
   145d4:	1001703a 	wrctl	status,r2
   145d8:	e0bffb17 	ldw	r2,-20(fp)
   145dc:	e0bffd15 	stw	r2,-12(fp)
   145e0:	d0a00d17 	ldw	r2,-32716(gp)
   145e4:	10c000c4 	addi	r3,r2,3
   145e8:	00bfff04 	movi	r2,-4
   145ec:	1884703a 	and	r2,r3,r2
   145f0:	d0a00d15 	stw	r2,-32716(gp)
   145f4:	d0e00d17 	ldw	r3,-32716(gp)
   145f8:	e0bffe17 	ldw	r2,-8(fp)
   145fc:	1887883a 	add	r3,r3,r2
   14600:	00820034 	movhi	r2,2048
   14604:	10800004 	addi	r2,r2,0
   14608:	10c0072e 	bgeu	r2,r3,14628 <sbrk+0x78>
   1460c:	e0bffd17 	ldw	r2,-12(fp)
   14610:	e0bffa15 	stw	r2,-24(fp)
   14614:	e0bffa17 	ldw	r2,-24(fp)
   14618:	1001703a 	wrctl	status,r2
   1461c:	00bfffc4 	movi	r2,-1
   14620:	e0bfff15 	stw	r2,-4(fp)
   14624:	00000c06 	br	14658 <sbrk+0xa8>
   14628:	d0a00d17 	ldw	r2,-32716(gp)
   1462c:	e0bffc15 	stw	r2,-16(fp)
   14630:	d0e00d17 	ldw	r3,-32716(gp)
   14634:	e0bffe17 	ldw	r2,-8(fp)
   14638:	1885883a 	add	r2,r3,r2
   1463c:	d0a00d15 	stw	r2,-32716(gp)
   14640:	e0bffd17 	ldw	r2,-12(fp)
   14644:	e0bff915 	stw	r2,-28(fp)
   14648:	e0bff917 	ldw	r2,-28(fp)
   1464c:	1001703a 	wrctl	status,r2
   14650:	e0bffc17 	ldw	r2,-16(fp)
   14654:	e0bfff15 	stw	r2,-4(fp)
   14658:	e0bfff17 	ldw	r2,-4(fp)
   1465c:	e037883a 	mov	sp,fp
   14660:	df000017 	ldw	fp,0(sp)
   14664:	dec00104 	addi	sp,sp,4
   14668:	f800283a 	ret

0001466c <alt_alarm_stop>:
   1466c:	defffa04 	addi	sp,sp,-24
   14670:	df000515 	stw	fp,20(sp)
   14674:	df000504 	addi	fp,sp,20
   14678:	e13fff15 	stw	r4,-4(fp)
   1467c:	0005303a 	rdctl	r2,status
   14680:	e0bffd15 	stw	r2,-12(fp)
   14684:	e0fffd17 	ldw	r3,-12(fp)
   14688:	00bfff84 	movi	r2,-2
   1468c:	1884703a 	and	r2,r3,r2
   14690:	1001703a 	wrctl	status,r2
   14694:	e0bffd17 	ldw	r2,-12(fp)
   14698:	e0bffe15 	stw	r2,-8(fp)
   1469c:	e0bfff17 	ldw	r2,-4(fp)
   146a0:	e0bffc15 	stw	r2,-16(fp)
   146a4:	e0bffc17 	ldw	r2,-16(fp)
   146a8:	10c00017 	ldw	r3,0(r2)
   146ac:	e0bffc17 	ldw	r2,-16(fp)
   146b0:	10800117 	ldw	r2,4(r2)
   146b4:	18800115 	stw	r2,4(r3)
   146b8:	e0bffc17 	ldw	r2,-16(fp)
   146bc:	10c00117 	ldw	r3,4(r2)
   146c0:	e0bffc17 	ldw	r2,-16(fp)
   146c4:	10800017 	ldw	r2,0(r2)
   146c8:	18800015 	stw	r2,0(r3)
   146cc:	e0fffc17 	ldw	r3,-16(fp)
   146d0:	e0bffc17 	ldw	r2,-16(fp)
   146d4:	18800115 	stw	r2,4(r3)
   146d8:	e0fffc17 	ldw	r3,-16(fp)
   146dc:	e0bffc17 	ldw	r2,-16(fp)
   146e0:	18800015 	stw	r2,0(r3)
   146e4:	e0bffe17 	ldw	r2,-8(fp)
   146e8:	e0bffb15 	stw	r2,-20(fp)
   146ec:	e0bffb17 	ldw	r2,-20(fp)
   146f0:	1001703a 	wrctl	status,r2
   146f4:	e037883a 	mov	sp,fp
   146f8:	df000017 	ldw	fp,0(sp)
   146fc:	dec00104 	addi	sp,sp,4
   14700:	f800283a 	ret

00014704 <alt_tick>:
   14704:	defffb04 	addi	sp,sp,-20
   14708:	dfc00415 	stw	ra,16(sp)
   1470c:	df000315 	stw	fp,12(sp)
   14710:	df000304 	addi	fp,sp,12
   14714:	d0a00e17 	ldw	r2,-32712(gp)
   14718:	e0bffe15 	stw	r2,-8(fp)
   1471c:	d0a71517 	ldw	r2,-25516(gp)
   14720:	10800044 	addi	r2,r2,1
   14724:	d0a71515 	stw	r2,-25516(gp)
   14728:	00003106 	br	147f0 <alt_tick+0xec>
   1472c:	e0bffe17 	ldw	r2,-8(fp)
   14730:	10800017 	ldw	r2,0(r2)
   14734:	e0bfff15 	stw	r2,-4(fp)
   14738:	e0bffe17 	ldw	r2,-8(fp)
   1473c:	10800403 	ldbu	r2,16(r2)
   14740:	10803fcc 	andi	r2,r2,255
   14744:	1005003a 	cmpeq	r2,r2,zero
   14748:	1000051e 	bne	r2,zero,14760 <alt_tick+0x5c>
   1474c:	d0a71517 	ldw	r2,-25516(gp)
   14750:	1004c03a 	cmpne	r2,r2,zero
   14754:	1000021e 	bne	r2,zero,14760 <alt_tick+0x5c>
   14758:	e0bffe17 	ldw	r2,-8(fp)
   1475c:	10000405 	stb	zero,16(r2)
   14760:	e0bffe17 	ldw	r2,-8(fp)
   14764:	10c00217 	ldw	r3,8(r2)
   14768:	d0a71517 	ldw	r2,-25516(gp)
   1476c:	10c01e36 	bltu	r2,r3,147e8 <alt_tick+0xe4>
   14770:	e0bffe17 	ldw	r2,-8(fp)
   14774:	10800403 	ldbu	r2,16(r2)
   14778:	10803fcc 	andi	r2,r2,255
   1477c:	1004c03a 	cmpne	r2,r2,zero
   14780:	1000191e 	bne	r2,zero,147e8 <alt_tick+0xe4>
   14784:	e0bffe17 	ldw	r2,-8(fp)
   14788:	10c00317 	ldw	r3,12(r2)
   1478c:	e0bffe17 	ldw	r2,-8(fp)
   14790:	11000517 	ldw	r4,20(r2)
   14794:	183ee83a 	callr	r3
   14798:	e0bffd15 	stw	r2,-12(fp)
   1479c:	e0bffd17 	ldw	r2,-12(fp)
   147a0:	1004c03a 	cmpne	r2,r2,zero
   147a4:	1000031e 	bne	r2,zero,147b4 <alt_tick+0xb0>
   147a8:	e13ffe17 	ldw	r4,-8(fp)
   147ac:	001466c0 	call	1466c <alt_alarm_stop>
   147b0:	00000d06 	br	147e8 <alt_tick+0xe4>
   147b4:	e0bffe17 	ldw	r2,-8(fp)
   147b8:	10c00217 	ldw	r3,8(r2)
   147bc:	e0bffd17 	ldw	r2,-12(fp)
   147c0:	1887883a 	add	r3,r3,r2
   147c4:	e0bffe17 	ldw	r2,-8(fp)
   147c8:	10c00215 	stw	r3,8(r2)
   147cc:	e0bffe17 	ldw	r2,-8(fp)
   147d0:	10c00217 	ldw	r3,8(r2)
   147d4:	d0a71517 	ldw	r2,-25516(gp)
   147d8:	1880032e 	bgeu	r3,r2,147e8 <alt_tick+0xe4>
   147dc:	e0fffe17 	ldw	r3,-8(fp)
   147e0:	00800044 	movi	r2,1
   147e4:	18800405 	stb	r2,16(r3)
   147e8:	e0bfff17 	ldw	r2,-4(fp)
   147ec:	e0bffe15 	stw	r2,-8(fp)
   147f0:	d0e00e04 	addi	r3,gp,-32712
   147f4:	e0bffe17 	ldw	r2,-8(fp)
   147f8:	10ffcc1e 	bne	r2,r3,1472c <alt_tick+0x28>
   147fc:	e037883a 	mov	sp,fp
   14800:	dfc00117 	ldw	ra,4(sp)
   14804:	df000017 	ldw	fp,0(sp)
   14808:	dec00204 	addi	sp,sp,8
   1480c:	f800283a 	ret

00014810 <usleep>:
   14810:	defffd04 	addi	sp,sp,-12
   14814:	dfc00215 	stw	ra,8(sp)
   14818:	df000115 	stw	fp,4(sp)
   1481c:	df000104 	addi	fp,sp,4
   14820:	e13fff15 	stw	r4,-4(fp)
   14824:	e13fff17 	ldw	r4,-4(fp)
   14828:	00166e00 	call	166e0 <alt_busy_sleep>
   1482c:	e037883a 	mov	sp,fp
   14830:	dfc00117 	ldw	ra,4(sp)
   14834:	df000017 	ldw	fp,0(sp)
   14838:	dec00204 	addi	sp,sp,8
   1483c:	f800283a 	ret

00014840 <write>:
   14840:	defff704 	addi	sp,sp,-36
   14844:	dfc00815 	stw	ra,32(sp)
   14848:	df000715 	stw	fp,28(sp)
   1484c:	df000704 	addi	fp,sp,28
   14850:	e13ffb15 	stw	r4,-20(fp)
   14854:	e17ffc15 	stw	r5,-16(fp)
   14858:	e1bffd15 	stw	r6,-12(fp)
   1485c:	e0bffb17 	ldw	r2,-20(fp)
   14860:	1004803a 	cmplt	r2,r2,zero
   14864:	1000081e 	bne	r2,zero,14888 <write+0x48>
   14868:	e0bffb17 	ldw	r2,-20(fp)
   1486c:	10800324 	muli	r2,r2,12
   14870:	1007883a 	mov	r3,r2
   14874:	008000b4 	movhi	r2,2
   14878:	10a45404 	addi	r2,r2,-28336
   1487c:	1887883a 	add	r3,r3,r2
   14880:	e0ffff15 	stw	r3,-4(fp)
   14884:	00000106 	br	1488c <write+0x4c>
   14888:	e03fff15 	stw	zero,-4(fp)
   1488c:	e0bfff17 	ldw	r2,-4(fp)
   14890:	e0bffa15 	stw	r2,-24(fp)
   14894:	e0bffa17 	ldw	r2,-24(fp)
   14898:	1005003a 	cmpeq	r2,r2,zero
   1489c:	1000241e 	bne	r2,zero,14930 <write+0xf0>
   148a0:	e0bffa17 	ldw	r2,-24(fp)
   148a4:	10800217 	ldw	r2,8(r2)
   148a8:	108000cc 	andi	r2,r2,3
   148ac:	1005003a 	cmpeq	r2,r2,zero
   148b0:	10001a1e 	bne	r2,zero,1491c <write+0xdc>
   148b4:	e0bffa17 	ldw	r2,-24(fp)
   148b8:	10800017 	ldw	r2,0(r2)
   148bc:	10800617 	ldw	r2,24(r2)
   148c0:	1005003a 	cmpeq	r2,r2,zero
   148c4:	1000151e 	bne	r2,zero,1491c <write+0xdc>
   148c8:	e0bffa17 	ldw	r2,-24(fp)
   148cc:	10800017 	ldw	r2,0(r2)
   148d0:	10800617 	ldw	r2,24(r2)
   148d4:	e17ffc17 	ldw	r5,-16(fp)
   148d8:	e1bffd17 	ldw	r6,-12(fp)
   148dc:	e13ffa17 	ldw	r4,-24(fp)
   148e0:	103ee83a 	callr	r2
   148e4:	e0bff915 	stw	r2,-28(fp)
   148e8:	e0bff917 	ldw	r2,-28(fp)
   148ec:	1004403a 	cmpge	r2,r2,zero
   148f0:	1000071e 	bne	r2,zero,14910 <write+0xd0>
   148f4:	00149600 	call	14960 <alt_get_errno>
   148f8:	e0fff917 	ldw	r3,-28(fp)
   148fc:	00c7c83a 	sub	r3,zero,r3
   14900:	10c00015 	stw	r3,0(r2)
   14904:	00bfffc4 	movi	r2,-1
   14908:	e0bffe15 	stw	r2,-8(fp)
   1490c:	00000e06 	br	14948 <write+0x108>
   14910:	e0bff917 	ldw	r2,-28(fp)
   14914:	e0bffe15 	stw	r2,-8(fp)
   14918:	00000b06 	br	14948 <write+0x108>
   1491c:	00149600 	call	14960 <alt_get_errno>
   14920:	1007883a 	mov	r3,r2
   14924:	00800344 	movi	r2,13
   14928:	18800015 	stw	r2,0(r3)
   1492c:	00000406 	br	14940 <write+0x100>
   14930:	00149600 	call	14960 <alt_get_errno>
   14934:	1007883a 	mov	r3,r2
   14938:	00801444 	movi	r2,81
   1493c:	18800015 	stw	r2,0(r3)
   14940:	00bfffc4 	movi	r2,-1
   14944:	e0bffe15 	stw	r2,-8(fp)
   14948:	e0bffe17 	ldw	r2,-8(fp)
   1494c:	e037883a 	mov	sp,fp
   14950:	dfc00117 	ldw	ra,4(sp)
   14954:	df000017 	ldw	fp,0(sp)
   14958:	dec00204 	addi	sp,sp,8
   1495c:	f800283a 	ret

00014960 <alt_get_errno>:
   14960:	defffd04 	addi	sp,sp,-12
   14964:	dfc00215 	stw	ra,8(sp)
   14968:	df000115 	stw	fp,4(sp)
   1496c:	df000104 	addi	fp,sp,4
   14970:	008000b4 	movhi	r2,2
   14974:	10a92004 	addi	r2,r2,-23424
   14978:	10800017 	ldw	r2,0(r2)
   1497c:	1005003a 	cmpeq	r2,r2,zero
   14980:	1000061e 	bne	r2,zero,1499c <alt_get_errno+0x3c>
   14984:	008000b4 	movhi	r2,2
   14988:	10a92004 	addi	r2,r2,-23424
   1498c:	10800017 	ldw	r2,0(r2)
   14990:	103ee83a 	callr	r2
   14994:	e0bfff15 	stw	r2,-4(fp)
   14998:	00000306 	br	149a8 <alt_get_errno+0x48>
   1499c:	008000b4 	movhi	r2,2
   149a0:	10b02004 	addi	r2,r2,-16256
   149a4:	e0bfff15 	stw	r2,-4(fp)
   149a8:	e0bfff17 	ldw	r2,-4(fp)
   149ac:	e037883a 	mov	sp,fp
   149b0:	dfc00117 	ldw	ra,4(sp)
   149b4:	df000017 	ldw	fp,0(sp)
   149b8:	dec00204 	addi	sp,sp,8
   149bc:	f800283a 	ret

000149c0 <alt_irq_init>:
   149c0:	defffd04 	addi	sp,sp,-12
   149c4:	dfc00215 	stw	ra,8(sp)
   149c8:	df000115 	stw	fp,4(sp)
   149cc:	df000104 	addi	fp,sp,4
   149d0:	e13fff15 	stw	r4,-4(fp)
   149d4:	00171480 	call	17148 <altera_nios2_qsys_irq_init>
   149d8:	00800044 	movi	r2,1
   149dc:	1001703a 	wrctl	status,r2
   149e0:	e037883a 	mov	sp,fp
   149e4:	dfc00117 	ldw	ra,4(sp)
   149e8:	df000017 	ldw	fp,0(sp)
   149ec:	dec00204 	addi	sp,sp,8
   149f0:	f800283a 	ret

000149f4 <alt_sys_init>:
   149f4:	defffe04 	addi	sp,sp,-8
   149f8:	dfc00115 	stw	ra,4(sp)
   149fc:	df000015 	stw	fp,0(sp)
   14a00:	d839883a 	mov	fp,sp
   14a04:	01020034 	movhi	r4,2048
   14a08:	21040804 	addi	r4,r4,4128
   14a0c:	000b883a 	mov	r5,zero
   14a10:	000d883a 	mov	r6,zero
   14a14:	01c0fa04 	movi	r7,1000
   14a18:	00164fc0 	call	164fc <alt_avalon_timer_sc_init>
   14a1c:	010000b4 	movhi	r4,2
   14a20:	2124be04 	addi	r4,r4,-27912
   14a24:	000b883a 	mov	r5,zero
   14a28:	018000c4 	movi	r6,3
   14a2c:	0014be80 	call	14be8 <altera_avalon_jtag_uart_init>
   14a30:	010000b4 	movhi	r4,2
   14a34:	2124b404 	addi	r4,r4,-27952
   14a38:	0014a680 	call	14a68 <alt_dev_reg>
   14a3c:	010000b4 	movhi	r4,2
   14a40:	2128d604 	addi	r4,r4,-23720
   14a44:	00162f80 	call	162f8 <altera_avalon_lcd_16207_init>
   14a48:	010000b4 	movhi	r4,2
   14a4c:	2128cc04 	addi	r4,r4,-23760
   14a50:	0014a680 	call	14a68 <alt_dev_reg>
   14a54:	e037883a 	mov	sp,fp
   14a58:	dfc00117 	ldw	ra,4(sp)
   14a5c:	df000017 	ldw	fp,0(sp)
   14a60:	dec00204 	addi	sp,sp,8
   14a64:	f800283a 	ret

00014a68 <alt_dev_reg>:
   14a68:	defffd04 	addi	sp,sp,-12
   14a6c:	dfc00215 	stw	ra,8(sp)
   14a70:	df000115 	stw	fp,4(sp)
   14a74:	df000104 	addi	fp,sp,4
   14a78:	e13fff15 	stw	r4,-4(fp)
   14a7c:	e13fff17 	ldw	r4,-4(fp)
   14a80:	014000b4 	movhi	r5,2
   14a84:	29691d04 	addi	r5,r5,-23436
   14a88:	00168700 	call	16870 <alt_dev_llist_insert>
   14a8c:	e037883a 	mov	sp,fp
   14a90:	dfc00117 	ldw	ra,4(sp)
   14a94:	df000017 	ldw	fp,0(sp)
   14a98:	dec00204 	addi	sp,sp,8
   14a9c:	f800283a 	ret

00014aa0 <altera_avalon_jtag_uart_read_fd>:
   14aa0:	defffa04 	addi	sp,sp,-24
   14aa4:	dfc00515 	stw	ra,20(sp)
   14aa8:	df000415 	stw	fp,16(sp)
   14aac:	df000404 	addi	fp,sp,16
   14ab0:	e13ffd15 	stw	r4,-12(fp)
   14ab4:	e17ffe15 	stw	r5,-8(fp)
   14ab8:	e1bfff15 	stw	r6,-4(fp)
   14abc:	e0bffd17 	ldw	r2,-12(fp)
   14ac0:	10800017 	ldw	r2,0(r2)
   14ac4:	e0bffc15 	stw	r2,-16(fp)
   14ac8:	e0bffc17 	ldw	r2,-16(fp)
   14acc:	11000a04 	addi	r4,r2,40
   14ad0:	e0bffd17 	ldw	r2,-12(fp)
   14ad4:	11c00217 	ldw	r7,8(r2)
   14ad8:	e17ffe17 	ldw	r5,-8(fp)
   14adc:	e1bfff17 	ldw	r6,-4(fp)
   14ae0:	00150e80 	call	150e8 <altera_avalon_jtag_uart_read>
   14ae4:	e037883a 	mov	sp,fp
   14ae8:	dfc00117 	ldw	ra,4(sp)
   14aec:	df000017 	ldw	fp,0(sp)
   14af0:	dec00204 	addi	sp,sp,8
   14af4:	f800283a 	ret

00014af8 <altera_avalon_jtag_uart_write_fd>:
   14af8:	defffa04 	addi	sp,sp,-24
   14afc:	dfc00515 	stw	ra,20(sp)
   14b00:	df000415 	stw	fp,16(sp)
   14b04:	df000404 	addi	fp,sp,16
   14b08:	e13ffd15 	stw	r4,-12(fp)
   14b0c:	e17ffe15 	stw	r5,-8(fp)
   14b10:	e1bfff15 	stw	r6,-4(fp)
   14b14:	e0bffd17 	ldw	r2,-12(fp)
   14b18:	10800017 	ldw	r2,0(r2)
   14b1c:	e0bffc15 	stw	r2,-16(fp)
   14b20:	e0bffc17 	ldw	r2,-16(fp)
   14b24:	11000a04 	addi	r4,r2,40
   14b28:	e0bffd17 	ldw	r2,-12(fp)
   14b2c:	11c00217 	ldw	r7,8(r2)
   14b30:	e17ffe17 	ldw	r5,-8(fp)
   14b34:	e1bfff17 	ldw	r6,-4(fp)
   14b38:	001530c0 	call	1530c <altera_avalon_jtag_uart_write>
   14b3c:	e037883a 	mov	sp,fp
   14b40:	dfc00117 	ldw	ra,4(sp)
   14b44:	df000017 	ldw	fp,0(sp)
   14b48:	dec00204 	addi	sp,sp,8
   14b4c:	f800283a 	ret

00014b50 <altera_avalon_jtag_uart_close_fd>:
   14b50:	defffc04 	addi	sp,sp,-16
   14b54:	dfc00315 	stw	ra,12(sp)
   14b58:	df000215 	stw	fp,8(sp)
   14b5c:	df000204 	addi	fp,sp,8
   14b60:	e13fff15 	stw	r4,-4(fp)
   14b64:	e0bfff17 	ldw	r2,-4(fp)
   14b68:	10800017 	ldw	r2,0(r2)
   14b6c:	e0bffe15 	stw	r2,-8(fp)
   14b70:	e0bffe17 	ldw	r2,-8(fp)
   14b74:	11000a04 	addi	r4,r2,40
   14b78:	e0bfff17 	ldw	r2,-4(fp)
   14b7c:	11400217 	ldw	r5,8(r2)
   14b80:	0014f800 	call	14f80 <altera_avalon_jtag_uart_close>
   14b84:	e037883a 	mov	sp,fp
   14b88:	dfc00117 	ldw	ra,4(sp)
   14b8c:	df000017 	ldw	fp,0(sp)
   14b90:	dec00204 	addi	sp,sp,8
   14b94:	f800283a 	ret

00014b98 <altera_avalon_jtag_uart_ioctl_fd>:
   14b98:	defffa04 	addi	sp,sp,-24
   14b9c:	dfc00515 	stw	ra,20(sp)
   14ba0:	df000415 	stw	fp,16(sp)
   14ba4:	df000404 	addi	fp,sp,16
   14ba8:	e13ffd15 	stw	r4,-12(fp)
   14bac:	e17ffe15 	stw	r5,-8(fp)
   14bb0:	e1bfff15 	stw	r6,-4(fp)
   14bb4:	e0bffd17 	ldw	r2,-12(fp)
   14bb8:	10800017 	ldw	r2,0(r2)
   14bbc:	e0bffc15 	stw	r2,-16(fp)
   14bc0:	e0bffc17 	ldw	r2,-16(fp)
   14bc4:	11000a04 	addi	r4,r2,40
   14bc8:	e17ffe17 	ldw	r5,-8(fp)
   14bcc:	e1bfff17 	ldw	r6,-4(fp)
   14bd0:	0014ff40 	call	14ff4 <altera_avalon_jtag_uart_ioctl>
   14bd4:	e037883a 	mov	sp,fp
   14bd8:	dfc00117 	ldw	ra,4(sp)
   14bdc:	df000017 	ldw	fp,0(sp)
   14be0:	dec00204 	addi	sp,sp,8
   14be4:	f800283a 	ret

00014be8 <altera_avalon_jtag_uart_init>:
   14be8:	defffa04 	addi	sp,sp,-24
   14bec:	dfc00515 	stw	ra,20(sp)
   14bf0:	df000415 	stw	fp,16(sp)
   14bf4:	df000404 	addi	fp,sp,16
   14bf8:	e13ffd15 	stw	r4,-12(fp)
   14bfc:	e17ffe15 	stw	r5,-8(fp)
   14c00:	e1bfff15 	stw	r6,-4(fp)
   14c04:	e0fffd17 	ldw	r3,-12(fp)
   14c08:	00800044 	movi	r2,1
   14c0c:	18800815 	stw	r2,32(r3)
   14c10:	e0bffd17 	ldw	r2,-12(fp)
   14c14:	10800017 	ldw	r2,0(r2)
   14c18:	11000104 	addi	r4,r2,4
   14c1c:	e0bffd17 	ldw	r2,-12(fp)
   14c20:	10800817 	ldw	r2,32(r2)
   14c24:	1007883a 	mov	r3,r2
   14c28:	2005883a 	mov	r2,r4
   14c2c:	10c00035 	stwio	r3,0(r2)
   14c30:	e13ffe17 	ldw	r4,-8(fp)
   14c34:	e17fff17 	ldw	r5,-4(fp)
   14c38:	d8000015 	stw	zero,0(sp)
   14c3c:	01800074 	movhi	r6,1
   14c40:	31932a04 	addi	r6,r6,19624
   14c44:	e1fffd17 	ldw	r7,-12(fp)
   14c48:	0016a7c0 	call	16a7c <alt_ic_isr_register>
   14c4c:	e0bffd17 	ldw	r2,-12(fp)
   14c50:	10000915 	stw	zero,36(r2)
   14c54:	e0bffd17 	ldw	r2,-12(fp)
   14c58:	11000204 	addi	r4,r2,8
   14c5c:	008000b4 	movhi	r2,2
   14c60:	10b02804 	addi	r2,r2,-16224
   14c64:	10800017 	ldw	r2,0(r2)
   14c68:	100b883a 	mov	r5,r2
   14c6c:	01800074 	movhi	r6,1
   14c70:	3193b404 	addi	r6,r6,20176
   14c74:	e1fffd17 	ldw	r7,-12(fp)
   14c78:	001658c0 	call	1658c <alt_alarm_start>
   14c7c:	1004403a 	cmpge	r2,r2,zero
   14c80:	1000041e 	bne	r2,zero,14c94 <altera_avalon_jtag_uart_init+0xac>
   14c84:	e0fffd17 	ldw	r3,-12(fp)
   14c88:	00a00034 	movhi	r2,32768
   14c8c:	10bfffc4 	addi	r2,r2,-1
   14c90:	18800115 	stw	r2,4(r3)
   14c94:	e037883a 	mov	sp,fp
   14c98:	dfc00117 	ldw	ra,4(sp)
   14c9c:	df000017 	ldw	fp,0(sp)
   14ca0:	dec00204 	addi	sp,sp,8
   14ca4:	f800283a 	ret

00014ca8 <altera_avalon_jtag_uart_irq>:
   14ca8:	defff804 	addi	sp,sp,-32
   14cac:	df000715 	stw	fp,28(sp)
   14cb0:	df000704 	addi	fp,sp,28
   14cb4:	e13fff15 	stw	r4,-4(fp)
   14cb8:	e0bfff17 	ldw	r2,-4(fp)
   14cbc:	e0bffe15 	stw	r2,-8(fp)
   14cc0:	e0bffe17 	ldw	r2,-8(fp)
   14cc4:	10800017 	ldw	r2,0(r2)
   14cc8:	e0bffd15 	stw	r2,-12(fp)
   14ccc:	00000006 	br	14cd0 <altera_avalon_jtag_uart_irq+0x28>
   14cd0:	e0bffd17 	ldw	r2,-12(fp)
   14cd4:	10800104 	addi	r2,r2,4
   14cd8:	10800037 	ldwio	r2,0(r2)
   14cdc:	e0bffc15 	stw	r2,-16(fp)
   14ce0:	e0bffc17 	ldw	r2,-16(fp)
   14ce4:	1080c00c 	andi	r2,r2,768
   14ce8:	1005003a 	cmpeq	r2,r2,zero
   14cec:	1000741e 	bne	r2,zero,14ec0 <altera_avalon_jtag_uart_irq+0x218>
   14cf0:	e0bffc17 	ldw	r2,-16(fp)
   14cf4:	1080400c 	andi	r2,r2,256
   14cf8:	1005003a 	cmpeq	r2,r2,zero
   14cfc:	1000351e 	bne	r2,zero,14dd4 <altera_avalon_jtag_uart_irq+0x12c>
   14d00:	00800074 	movhi	r2,1
   14d04:	e0bffb15 	stw	r2,-20(fp)
   14d08:	e0bffe17 	ldw	r2,-8(fp)
   14d0c:	10800a17 	ldw	r2,40(r2)
   14d10:	10800044 	addi	r2,r2,1
   14d14:	1081ffcc 	andi	r2,r2,2047
   14d18:	e0bffa15 	stw	r2,-24(fp)
   14d1c:	e0bffe17 	ldw	r2,-8(fp)
   14d20:	10c00b17 	ldw	r3,44(r2)
   14d24:	e0bffa17 	ldw	r2,-24(fp)
   14d28:	18801626 	beq	r3,r2,14d84 <altera_avalon_jtag_uart_irq+0xdc>
   14d2c:	e0bffd17 	ldw	r2,-12(fp)
   14d30:	10800037 	ldwio	r2,0(r2)
   14d34:	e0bffb15 	stw	r2,-20(fp)
   14d38:	e0bffb17 	ldw	r2,-20(fp)
   14d3c:	10a0000c 	andi	r2,r2,32768
   14d40:	1005003a 	cmpeq	r2,r2,zero
   14d44:	10000f1e 	bne	r2,zero,14d84 <altera_avalon_jtag_uart_irq+0xdc>
   14d48:	e0bffe17 	ldw	r2,-8(fp)
   14d4c:	10c00a17 	ldw	r3,40(r2)
   14d50:	e0bffb17 	ldw	r2,-20(fp)
   14d54:	1009883a 	mov	r4,r2
   14d58:	e0bffe17 	ldw	r2,-8(fp)
   14d5c:	1885883a 	add	r2,r3,r2
   14d60:	10800e04 	addi	r2,r2,56
   14d64:	11000005 	stb	r4,0(r2)
   14d68:	e0bffe17 	ldw	r2,-8(fp)
   14d6c:	10800a17 	ldw	r2,40(r2)
   14d70:	10800044 	addi	r2,r2,1
   14d74:	10c1ffcc 	andi	r3,r2,2047
   14d78:	e0bffe17 	ldw	r2,-8(fp)
   14d7c:	10c00a15 	stw	r3,40(r2)
   14d80:	003fe106 	br	14d08 <altera_avalon_jtag_uart_irq+0x60>
   14d84:	e0bffb17 	ldw	r2,-20(fp)
   14d88:	10bfffec 	andhi	r2,r2,65535
   14d8c:	1005003a 	cmpeq	r2,r2,zero
   14d90:	1000101e 	bne	r2,zero,14dd4 <altera_avalon_jtag_uart_irq+0x12c>
   14d94:	e0bffe17 	ldw	r2,-8(fp)
   14d98:	10c00817 	ldw	r3,32(r2)
   14d9c:	00bfff84 	movi	r2,-2
   14da0:	1886703a 	and	r3,r3,r2
   14da4:	e0bffe17 	ldw	r2,-8(fp)
   14da8:	10c00815 	stw	r3,32(r2)
   14dac:	e0bffd17 	ldw	r2,-12(fp)
   14db0:	11000104 	addi	r4,r2,4
   14db4:	e0bffe17 	ldw	r2,-8(fp)
   14db8:	10800817 	ldw	r2,32(r2)
   14dbc:	1007883a 	mov	r3,r2
   14dc0:	2005883a 	mov	r2,r4
   14dc4:	10c00035 	stwio	r3,0(r2)
   14dc8:	e0bffd17 	ldw	r2,-12(fp)
   14dcc:	10800104 	addi	r2,r2,4
   14dd0:	10800037 	ldwio	r2,0(r2)
   14dd4:	e0bffc17 	ldw	r2,-16(fp)
   14dd8:	1080800c 	andi	r2,r2,512
   14ddc:	1005003a 	cmpeq	r2,r2,zero
   14de0:	103fbb1e 	bne	r2,zero,14cd0 <altera_avalon_jtag_uart_irq+0x28>
   14de4:	e0bffc17 	ldw	r2,-16(fp)
   14de8:	10bfffec 	andhi	r2,r2,65535
   14dec:	1004d43a 	srli	r2,r2,16
   14df0:	e0bff915 	stw	r2,-28(fp)
   14df4:	00001506 	br	14e4c <altera_avalon_jtag_uart_irq+0x1a4>
   14df8:	e13ffd17 	ldw	r4,-12(fp)
   14dfc:	e0bffe17 	ldw	r2,-8(fp)
   14e00:	10c00d17 	ldw	r3,52(r2)
   14e04:	e0bffe17 	ldw	r2,-8(fp)
   14e08:	1885883a 	add	r2,r3,r2
   14e0c:	10820e04 	addi	r2,r2,2104
   14e10:	10800003 	ldbu	r2,0(r2)
   14e14:	10c03fcc 	andi	r3,r2,255
   14e18:	18c0201c 	xori	r3,r3,128
   14e1c:	18ffe004 	addi	r3,r3,-128
   14e20:	2005883a 	mov	r2,r4
   14e24:	10c00035 	stwio	r3,0(r2)
   14e28:	e0bffe17 	ldw	r2,-8(fp)
   14e2c:	10800d17 	ldw	r2,52(r2)
   14e30:	10800044 	addi	r2,r2,1
   14e34:	10c1ffcc 	andi	r3,r2,2047
   14e38:	e0bffe17 	ldw	r2,-8(fp)
   14e3c:	10c00d15 	stw	r3,52(r2)
   14e40:	e0bff917 	ldw	r2,-28(fp)
   14e44:	10bfffc4 	addi	r2,r2,-1
   14e48:	e0bff915 	stw	r2,-28(fp)
   14e4c:	e0bff917 	ldw	r2,-28(fp)
   14e50:	1005003a 	cmpeq	r2,r2,zero
   14e54:	1000051e 	bne	r2,zero,14e6c <altera_avalon_jtag_uart_irq+0x1c4>
   14e58:	e0bffe17 	ldw	r2,-8(fp)
   14e5c:	10c00d17 	ldw	r3,52(r2)
   14e60:	e0bffe17 	ldw	r2,-8(fp)
   14e64:	10800c17 	ldw	r2,48(r2)
   14e68:	18bfe31e 	bne	r3,r2,14df8 <altera_avalon_jtag_uart_irq+0x150>
   14e6c:	e0bff917 	ldw	r2,-28(fp)
   14e70:	1005003a 	cmpeq	r2,r2,zero
   14e74:	103f961e 	bne	r2,zero,14cd0 <altera_avalon_jtag_uart_irq+0x28>
   14e78:	e0bffe17 	ldw	r2,-8(fp)
   14e7c:	10c00817 	ldw	r3,32(r2)
   14e80:	00bfff44 	movi	r2,-3
   14e84:	1886703a 	and	r3,r3,r2
   14e88:	e0bffe17 	ldw	r2,-8(fp)
   14e8c:	10c00815 	stw	r3,32(r2)
   14e90:	e0bffe17 	ldw	r2,-8(fp)
   14e94:	10800017 	ldw	r2,0(r2)
   14e98:	11000104 	addi	r4,r2,4
   14e9c:	e0bffe17 	ldw	r2,-8(fp)
   14ea0:	10800817 	ldw	r2,32(r2)
   14ea4:	1007883a 	mov	r3,r2
   14ea8:	2005883a 	mov	r2,r4
   14eac:	10c00035 	stwio	r3,0(r2)
   14eb0:	e0bffd17 	ldw	r2,-12(fp)
   14eb4:	10800104 	addi	r2,r2,4
   14eb8:	10800037 	ldwio	r2,0(r2)
   14ebc:	003f8406 	br	14cd0 <altera_avalon_jtag_uart_irq+0x28>
   14ec0:	e037883a 	mov	sp,fp
   14ec4:	df000017 	ldw	fp,0(sp)
   14ec8:	dec00104 	addi	sp,sp,4
   14ecc:	f800283a 	ret

00014ed0 <altera_avalon_jtag_uart_timeout>:
   14ed0:	defffc04 	addi	sp,sp,-16
   14ed4:	df000315 	stw	fp,12(sp)
   14ed8:	df000304 	addi	fp,sp,12
   14edc:	e13fff15 	stw	r4,-4(fp)
   14ee0:	e0bfff17 	ldw	r2,-4(fp)
   14ee4:	e0bffe15 	stw	r2,-8(fp)
   14ee8:	e0bffe17 	ldw	r2,-8(fp)
   14eec:	10800017 	ldw	r2,0(r2)
   14ef0:	10800104 	addi	r2,r2,4
   14ef4:	10800037 	ldwio	r2,0(r2)
   14ef8:	e0bffd15 	stw	r2,-12(fp)
   14efc:	e0bffd17 	ldw	r2,-12(fp)
   14f00:	1081000c 	andi	r2,r2,1024
   14f04:	1005003a 	cmpeq	r2,r2,zero
   14f08:	10000c1e 	bne	r2,zero,14f3c <altera_avalon_jtag_uart_timeout+0x6c>
   14f0c:	e0bffe17 	ldw	r2,-8(fp)
   14f10:	10800017 	ldw	r2,0(r2)
   14f14:	11000104 	addi	r4,r2,4
   14f18:	e0bffe17 	ldw	r2,-8(fp)
   14f1c:	10800817 	ldw	r2,32(r2)
   14f20:	10810014 	ori	r2,r2,1024
   14f24:	1007883a 	mov	r3,r2
   14f28:	2005883a 	mov	r2,r4
   14f2c:	10c00035 	stwio	r3,0(r2)
   14f30:	e0bffe17 	ldw	r2,-8(fp)
   14f34:	10000915 	stw	zero,36(r2)
   14f38:	00000a06 	br	14f64 <altera_avalon_jtag_uart_timeout+0x94>
   14f3c:	e0bffe17 	ldw	r2,-8(fp)
   14f40:	10c00917 	ldw	r3,36(r2)
   14f44:	00a00034 	movhi	r2,32768
   14f48:	10bfff04 	addi	r2,r2,-4
   14f4c:	10c00536 	bltu	r2,r3,14f64 <altera_avalon_jtag_uart_timeout+0x94>
   14f50:	e0bffe17 	ldw	r2,-8(fp)
   14f54:	10800917 	ldw	r2,36(r2)
   14f58:	10c00044 	addi	r3,r2,1
   14f5c:	e0bffe17 	ldw	r2,-8(fp)
   14f60:	10c00915 	stw	r3,36(r2)
   14f64:	008000b4 	movhi	r2,2
   14f68:	10b02804 	addi	r2,r2,-16224
   14f6c:	10800017 	ldw	r2,0(r2)
   14f70:	e037883a 	mov	sp,fp
   14f74:	df000017 	ldw	fp,0(sp)
   14f78:	dec00104 	addi	sp,sp,4
   14f7c:	f800283a 	ret

00014f80 <altera_avalon_jtag_uart_close>:
   14f80:	defffc04 	addi	sp,sp,-16
   14f84:	df000315 	stw	fp,12(sp)
   14f88:	df000304 	addi	fp,sp,12
   14f8c:	e13ffd15 	stw	r4,-12(fp)
   14f90:	e17ffe15 	stw	r5,-8(fp)
   14f94:	00000706 	br	14fb4 <altera_avalon_jtag_uart_close+0x34>
   14f98:	e0bffe17 	ldw	r2,-8(fp)
   14f9c:	1090000c 	andi	r2,r2,16384
   14fa0:	1005003a 	cmpeq	r2,r2,zero
   14fa4:	1000031e 	bne	r2,zero,14fb4 <altera_avalon_jtag_uart_close+0x34>
   14fa8:	00bffd44 	movi	r2,-11
   14fac:	e0bfff15 	stw	r2,-4(fp)
   14fb0:	00000b06 	br	14fe0 <altera_avalon_jtag_uart_close+0x60>
   14fb4:	e0bffd17 	ldw	r2,-12(fp)
   14fb8:	10c00d17 	ldw	r3,52(r2)
   14fbc:	e0bffd17 	ldw	r2,-12(fp)
   14fc0:	10800c17 	ldw	r2,48(r2)
   14fc4:	18800526 	beq	r3,r2,14fdc <altera_avalon_jtag_uart_close+0x5c>
   14fc8:	e0bffd17 	ldw	r2,-12(fp)
   14fcc:	10c00917 	ldw	r3,36(r2)
   14fd0:	e0bffd17 	ldw	r2,-12(fp)
   14fd4:	10800117 	ldw	r2,4(r2)
   14fd8:	18bfef36 	bltu	r3,r2,14f98 <altera_avalon_jtag_uart_close+0x18>
   14fdc:	e03fff15 	stw	zero,-4(fp)
   14fe0:	e0bfff17 	ldw	r2,-4(fp)
   14fe4:	e037883a 	mov	sp,fp
   14fe8:	df000017 	ldw	fp,0(sp)
   14fec:	dec00104 	addi	sp,sp,4
   14ff0:	f800283a 	ret

00014ff4 <altera_avalon_jtag_uart_ioctl>:
   14ff4:	defff804 	addi	sp,sp,-32
   14ff8:	df000715 	stw	fp,28(sp)
   14ffc:	df000704 	addi	fp,sp,28
   15000:	e13ffb15 	stw	r4,-20(fp)
   15004:	e17ffc15 	stw	r5,-16(fp)
   15008:	e1bffd15 	stw	r6,-12(fp)
   1500c:	00bff9c4 	movi	r2,-25
   15010:	e0bffa15 	stw	r2,-24(fp)
   15014:	e0bffc17 	ldw	r2,-16(fp)
   15018:	e0bfff15 	stw	r2,-4(fp)
   1501c:	e0ffff17 	ldw	r3,-4(fp)
   15020:	189a8060 	cmpeqi	r2,r3,27137
   15024:	1000041e 	bne	r2,zero,15038 <altera_avalon_jtag_uart_ioctl+0x44>
   15028:	e0ffff17 	ldw	r3,-4(fp)
   1502c:	189a80a0 	cmpeqi	r2,r3,27138
   15030:	10001b1e 	bne	r2,zero,150a0 <altera_avalon_jtag_uart_ioctl+0xac>
   15034:	00002706 	br	150d4 <altera_avalon_jtag_uart_ioctl+0xe0>
   15038:	e0bffb17 	ldw	r2,-20(fp)
   1503c:	10c00117 	ldw	r3,4(r2)
   15040:	00a00034 	movhi	r2,32768
   15044:	10bfffc4 	addi	r2,r2,-1
   15048:	18802226 	beq	r3,r2,150d4 <altera_avalon_jtag_uart_ioctl+0xe0>
   1504c:	e0bffd17 	ldw	r2,-12(fp)
   15050:	10800017 	ldw	r2,0(r2)
   15054:	e0bff915 	stw	r2,-28(fp)
   15058:	e0bff917 	ldw	r2,-28(fp)
   1505c:	10800090 	cmplti	r2,r2,2
   15060:	1000071e 	bne	r2,zero,15080 <altera_avalon_jtag_uart_ioctl+0x8c>
   15064:	e0fff917 	ldw	r3,-28(fp)
   15068:	00a00034 	movhi	r2,32768
   1506c:	10bfffc4 	addi	r2,r2,-1
   15070:	18800326 	beq	r3,r2,15080 <altera_avalon_jtag_uart_ioctl+0x8c>
   15074:	e0bff917 	ldw	r2,-28(fp)
   15078:	e0bffe15 	stw	r2,-8(fp)
   1507c:	00000306 	br	1508c <altera_avalon_jtag_uart_ioctl+0x98>
   15080:	00e00034 	movhi	r3,32768
   15084:	18ffff84 	addi	r3,r3,-2
   15088:	e0fffe15 	stw	r3,-8(fp)
   1508c:	e0bffb17 	ldw	r2,-20(fp)
   15090:	e0fffe17 	ldw	r3,-8(fp)
   15094:	10c00115 	stw	r3,4(r2)
   15098:	e03ffa15 	stw	zero,-24(fp)
   1509c:	00000d06 	br	150d4 <altera_avalon_jtag_uart_ioctl+0xe0>
   150a0:	e0bffb17 	ldw	r2,-20(fp)
   150a4:	10c00117 	ldw	r3,4(r2)
   150a8:	00a00034 	movhi	r2,32768
   150ac:	10bfffc4 	addi	r2,r2,-1
   150b0:	18800826 	beq	r3,r2,150d4 <altera_avalon_jtag_uart_ioctl+0xe0>
   150b4:	e13ffd17 	ldw	r4,-12(fp)
   150b8:	e0bffb17 	ldw	r2,-20(fp)
   150bc:	10c00917 	ldw	r3,36(r2)
   150c0:	e0bffb17 	ldw	r2,-20(fp)
   150c4:	10800117 	ldw	r2,4(r2)
   150c8:	1885803a 	cmpltu	r2,r3,r2
   150cc:	20800015 	stw	r2,0(r4)
   150d0:	e03ffa15 	stw	zero,-24(fp)
   150d4:	e0bffa17 	ldw	r2,-24(fp)
   150d8:	e037883a 	mov	sp,fp
   150dc:	df000017 	ldw	fp,0(sp)
   150e0:	dec00104 	addi	sp,sp,4
   150e4:	f800283a 	ret

000150e8 <altera_avalon_jtag_uart_read>:
   150e8:	defff204 	addi	sp,sp,-56
   150ec:	dfc00d15 	stw	ra,52(sp)
   150f0:	df000c15 	stw	fp,48(sp)
   150f4:	df000c04 	addi	fp,sp,48
   150f8:	e13ffb15 	stw	r4,-20(fp)
   150fc:	e17ffc15 	stw	r5,-16(fp)
   15100:	e1bffd15 	stw	r6,-12(fp)
   15104:	e1fffe15 	stw	r7,-8(fp)
   15108:	e0bffc17 	ldw	r2,-16(fp)
   1510c:	e0bffa15 	stw	r2,-24(fp)
   15110:	00004806 	br	15234 <altera_avalon_jtag_uart_read+0x14c>
   15114:	e0bffb17 	ldw	r2,-20(fp)
   15118:	10800a17 	ldw	r2,40(r2)
   1511c:	e0bff715 	stw	r2,-36(fp)
   15120:	e0bffb17 	ldw	r2,-20(fp)
   15124:	10800b17 	ldw	r2,44(r2)
   15128:	e0bff615 	stw	r2,-40(fp)
   1512c:	e0fff717 	ldw	r3,-36(fp)
   15130:	e0bff617 	ldw	r2,-40(fp)
   15134:	18800536 	bltu	r3,r2,1514c <altera_avalon_jtag_uart_read+0x64>
   15138:	e0bff717 	ldw	r2,-36(fp)
   1513c:	e0fff617 	ldw	r3,-40(fp)
   15140:	10c5c83a 	sub	r2,r2,r3
   15144:	e0bff815 	stw	r2,-32(fp)
   15148:	00000406 	br	1515c <altera_avalon_jtag_uart_read+0x74>
   1514c:	00820004 	movi	r2,2048
   15150:	e0fff617 	ldw	r3,-40(fp)
   15154:	10c5c83a 	sub	r2,r2,r3
   15158:	e0bff815 	stw	r2,-32(fp)
   1515c:	e0bff817 	ldw	r2,-32(fp)
   15160:	1005003a 	cmpeq	r2,r2,zero
   15164:	10001f1e 	bne	r2,zero,151e4 <altera_avalon_jtag_uart_read+0xfc>
   15168:	e0fffd17 	ldw	r3,-12(fp)
   1516c:	e0bff817 	ldw	r2,-32(fp)
   15170:	1880022e 	bgeu	r3,r2,1517c <altera_avalon_jtag_uart_read+0x94>
   15174:	e0bffd17 	ldw	r2,-12(fp)
   15178:	e0bff815 	stw	r2,-32(fp)
   1517c:	e0bffb17 	ldw	r2,-20(fp)
   15180:	10c00e04 	addi	r3,r2,56
   15184:	e0bff617 	ldw	r2,-40(fp)
   15188:	1887883a 	add	r3,r3,r2
   1518c:	e0bffa17 	ldw	r2,-24(fp)
   15190:	1009883a 	mov	r4,r2
   15194:	180b883a 	mov	r5,r3
   15198:	e1bff817 	ldw	r6,-32(fp)
   1519c:	000c4500 	call	c450 <memcpy>
   151a0:	e0fff817 	ldw	r3,-32(fp)
   151a4:	e0bffa17 	ldw	r2,-24(fp)
   151a8:	10c5883a 	add	r2,r2,r3
   151ac:	e0bffa15 	stw	r2,-24(fp)
   151b0:	e0fffd17 	ldw	r3,-12(fp)
   151b4:	e0bff817 	ldw	r2,-32(fp)
   151b8:	1885c83a 	sub	r2,r3,r2
   151bc:	e0bffd15 	stw	r2,-12(fp)
   151c0:	e0fff617 	ldw	r3,-40(fp)
   151c4:	e0bff817 	ldw	r2,-32(fp)
   151c8:	1885883a 	add	r2,r3,r2
   151cc:	10c1ffcc 	andi	r3,r2,2047
   151d0:	e0bffb17 	ldw	r2,-20(fp)
   151d4:	10c00b15 	stw	r3,44(r2)
   151d8:	e0bffd17 	ldw	r2,-12(fp)
   151dc:	10800048 	cmpgei	r2,r2,1
   151e0:	103fcc1e 	bne	r2,zero,15114 <altera_avalon_jtag_uart_read+0x2c>
   151e4:	e0fffa17 	ldw	r3,-24(fp)
   151e8:	e0bffc17 	ldw	r2,-16(fp)
   151ec:	1880141e 	bne	r3,r2,15240 <altera_avalon_jtag_uart_read+0x158>
   151f0:	e0bffe17 	ldw	r2,-8(fp)
   151f4:	1090000c 	andi	r2,r2,16384
   151f8:	1004c03a 	cmpne	r2,r2,zero
   151fc:	1000101e 	bne	r2,zero,15240 <altera_avalon_jtag_uart_read+0x158>
   15200:	e0bffb17 	ldw	r2,-20(fp)
   15204:	10c00a17 	ldw	r3,40(r2)
   15208:	e0bff717 	ldw	r2,-36(fp)
   1520c:	1880051e 	bne	r3,r2,15224 <altera_avalon_jtag_uart_read+0x13c>
   15210:	e0bffb17 	ldw	r2,-20(fp)
   15214:	10c00917 	ldw	r3,36(r2)
   15218:	e0bffb17 	ldw	r2,-20(fp)
   1521c:	10800117 	ldw	r2,4(r2)
   15220:	18bff736 	bltu	r3,r2,15200 <altera_avalon_jtag_uart_read+0x118>
   15224:	e0bffb17 	ldw	r2,-20(fp)
   15228:	10c00a17 	ldw	r3,40(r2)
   1522c:	e0bff717 	ldw	r2,-36(fp)
   15230:	18800326 	beq	r3,r2,15240 <altera_avalon_jtag_uart_read+0x158>
   15234:	e0bffd17 	ldw	r2,-12(fp)
   15238:	10800048 	cmpgei	r2,r2,1
   1523c:	103fb51e 	bne	r2,zero,15114 <altera_avalon_jtag_uart_read+0x2c>
   15240:	e0fffa17 	ldw	r3,-24(fp)
   15244:	e0bffc17 	ldw	r2,-16(fp)
   15248:	18801926 	beq	r3,r2,152b0 <altera_avalon_jtag_uart_read+0x1c8>
   1524c:	0005303a 	rdctl	r2,status
   15250:	e0bff515 	stw	r2,-44(fp)
   15254:	e0fff517 	ldw	r3,-44(fp)
   15258:	00bfff84 	movi	r2,-2
   1525c:	1884703a 	and	r2,r3,r2
   15260:	1001703a 	wrctl	status,r2
   15264:	e0bff517 	ldw	r2,-44(fp)
   15268:	e0bff915 	stw	r2,-28(fp)
   1526c:	e0bffb17 	ldw	r2,-20(fp)
   15270:	10800817 	ldw	r2,32(r2)
   15274:	10c00054 	ori	r3,r2,1
   15278:	e0bffb17 	ldw	r2,-20(fp)
   1527c:	10c00815 	stw	r3,32(r2)
   15280:	e0bffb17 	ldw	r2,-20(fp)
   15284:	10800017 	ldw	r2,0(r2)
   15288:	11000104 	addi	r4,r2,4
   1528c:	e0bffb17 	ldw	r2,-20(fp)
   15290:	10800817 	ldw	r2,32(r2)
   15294:	1007883a 	mov	r3,r2
   15298:	2005883a 	mov	r2,r4
   1529c:	10c00035 	stwio	r3,0(r2)
   152a0:	e0bff917 	ldw	r2,-28(fp)
   152a4:	e0bff415 	stw	r2,-48(fp)
   152a8:	e0bff417 	ldw	r2,-48(fp)
   152ac:	1001703a 	wrctl	status,r2
   152b0:	e0fffa17 	ldw	r3,-24(fp)
   152b4:	e0bffc17 	ldw	r2,-16(fp)
   152b8:	18800526 	beq	r3,r2,152d0 <altera_avalon_jtag_uart_read+0x1e8>
   152bc:	e0fffa17 	ldw	r3,-24(fp)
   152c0:	e0bffc17 	ldw	r2,-16(fp)
   152c4:	1887c83a 	sub	r3,r3,r2
   152c8:	e0ffff15 	stw	r3,-4(fp)
   152cc:	00000906 	br	152f4 <altera_avalon_jtag_uart_read+0x20c>
   152d0:	e0bffe17 	ldw	r2,-8(fp)
   152d4:	1090000c 	andi	r2,r2,16384
   152d8:	1005003a 	cmpeq	r2,r2,zero
   152dc:	1000031e 	bne	r2,zero,152ec <altera_avalon_jtag_uart_read+0x204>
   152e0:	00bffd44 	movi	r2,-11
   152e4:	e0bfff15 	stw	r2,-4(fp)
   152e8:	00000206 	br	152f4 <altera_avalon_jtag_uart_read+0x20c>
   152ec:	00bffec4 	movi	r2,-5
   152f0:	e0bfff15 	stw	r2,-4(fp)
   152f4:	e0bfff17 	ldw	r2,-4(fp)
   152f8:	e037883a 	mov	sp,fp
   152fc:	dfc00117 	ldw	ra,4(sp)
   15300:	df000017 	ldw	fp,0(sp)
   15304:	dec00204 	addi	sp,sp,8
   15308:	f800283a 	ret

0001530c <altera_avalon_jtag_uart_write>:
   1530c:	defff204 	addi	sp,sp,-56
   15310:	dfc00d15 	stw	ra,52(sp)
   15314:	df000c15 	stw	fp,48(sp)
   15318:	df000c04 	addi	fp,sp,48
   1531c:	e13ffb15 	stw	r4,-20(fp)
   15320:	e17ffc15 	stw	r5,-16(fp)
   15324:	e1bffd15 	stw	r6,-12(fp)
   15328:	e1fffe15 	stw	r7,-8(fp)
   1532c:	e03ff915 	stw	zero,-28(fp)
   15330:	e0bffc17 	ldw	r2,-16(fp)
   15334:	e0bff615 	stw	r2,-40(fp)
   15338:	00003a06 	br	15424 <altera_avalon_jtag_uart_write+0x118>
   1533c:	e0bffb17 	ldw	r2,-20(fp)
   15340:	10800c17 	ldw	r2,48(r2)
   15344:	e0bffa15 	stw	r2,-24(fp)
   15348:	e0bffb17 	ldw	r2,-20(fp)
   1534c:	10800d17 	ldw	r2,52(r2)
   15350:	e0bff915 	stw	r2,-28(fp)
   15354:	e0fffa17 	ldw	r3,-24(fp)
   15358:	e0bff917 	ldw	r2,-28(fp)
   1535c:	1880062e 	bgeu	r3,r2,15378 <altera_avalon_jtag_uart_write+0x6c>
   15360:	e0fff917 	ldw	r3,-28(fp)
   15364:	e0bffa17 	ldw	r2,-24(fp)
   15368:	1885c83a 	sub	r2,r3,r2
   1536c:	10bfffc4 	addi	r2,r2,-1
   15370:	e0bff815 	stw	r2,-32(fp)
   15374:	00000c06 	br	153a8 <altera_avalon_jtag_uart_write+0x9c>
   15378:	e0bff917 	ldw	r2,-28(fp)
   1537c:	1005003a 	cmpeq	r2,r2,zero
   15380:	1000051e 	bne	r2,zero,15398 <altera_avalon_jtag_uart_write+0x8c>
   15384:	00820004 	movi	r2,2048
   15388:	e0fffa17 	ldw	r3,-24(fp)
   1538c:	10c5c83a 	sub	r2,r2,r3
   15390:	e0bff815 	stw	r2,-32(fp)
   15394:	00000406 	br	153a8 <altera_avalon_jtag_uart_write+0x9c>
   15398:	0081ffc4 	movi	r2,2047
   1539c:	e0fffa17 	ldw	r3,-24(fp)
   153a0:	10c5c83a 	sub	r2,r2,r3
   153a4:	e0bff815 	stw	r2,-32(fp)
   153a8:	e0bff817 	ldw	r2,-32(fp)
   153ac:	1005003a 	cmpeq	r2,r2,zero
   153b0:	10001f1e 	bne	r2,zero,15430 <altera_avalon_jtag_uart_write+0x124>
   153b4:	e0fffd17 	ldw	r3,-12(fp)
   153b8:	e0bff817 	ldw	r2,-32(fp)
   153bc:	1880022e 	bgeu	r3,r2,153c8 <altera_avalon_jtag_uart_write+0xbc>
   153c0:	e0bffd17 	ldw	r2,-12(fp)
   153c4:	e0bff815 	stw	r2,-32(fp)
   153c8:	e0bffb17 	ldw	r2,-20(fp)
   153cc:	10c20e04 	addi	r3,r2,2104
   153d0:	e0bffa17 	ldw	r2,-24(fp)
   153d4:	1885883a 	add	r2,r3,r2
   153d8:	e0fffc17 	ldw	r3,-16(fp)
   153dc:	1009883a 	mov	r4,r2
   153e0:	180b883a 	mov	r5,r3
   153e4:	e1bff817 	ldw	r6,-32(fp)
   153e8:	000c4500 	call	c450 <memcpy>
   153ec:	e0fff817 	ldw	r3,-32(fp)
   153f0:	e0bffc17 	ldw	r2,-16(fp)
   153f4:	10c5883a 	add	r2,r2,r3
   153f8:	e0bffc15 	stw	r2,-16(fp)
   153fc:	e0fffd17 	ldw	r3,-12(fp)
   15400:	e0bff817 	ldw	r2,-32(fp)
   15404:	1885c83a 	sub	r2,r3,r2
   15408:	e0bffd15 	stw	r2,-12(fp)
   1540c:	e0fffa17 	ldw	r3,-24(fp)
   15410:	e0bff817 	ldw	r2,-32(fp)
   15414:	1885883a 	add	r2,r3,r2
   15418:	10c1ffcc 	andi	r3,r2,2047
   1541c:	e0bffb17 	ldw	r2,-20(fp)
   15420:	10c00c15 	stw	r3,48(r2)
   15424:	e0bffd17 	ldw	r2,-12(fp)
   15428:	10800048 	cmpgei	r2,r2,1
   1542c:	103fc31e 	bne	r2,zero,1533c <altera_avalon_jtag_uart_write+0x30>
   15430:	0005303a 	rdctl	r2,status
   15434:	e0bff515 	stw	r2,-44(fp)
   15438:	e0fff517 	ldw	r3,-44(fp)
   1543c:	00bfff84 	movi	r2,-2
   15440:	1884703a 	and	r2,r3,r2
   15444:	1001703a 	wrctl	status,r2
   15448:	e0bff517 	ldw	r2,-44(fp)
   1544c:	e0bff715 	stw	r2,-36(fp)
   15450:	e0bffb17 	ldw	r2,-20(fp)
   15454:	10800817 	ldw	r2,32(r2)
   15458:	10c00094 	ori	r3,r2,2
   1545c:	e0bffb17 	ldw	r2,-20(fp)
   15460:	10c00815 	stw	r3,32(r2)
   15464:	e0bffb17 	ldw	r2,-20(fp)
   15468:	10800017 	ldw	r2,0(r2)
   1546c:	11000104 	addi	r4,r2,4
   15470:	e0bffb17 	ldw	r2,-20(fp)
   15474:	10800817 	ldw	r2,32(r2)
   15478:	1007883a 	mov	r3,r2
   1547c:	2005883a 	mov	r2,r4
   15480:	10c00035 	stwio	r3,0(r2)
   15484:	e0bff717 	ldw	r2,-36(fp)
   15488:	e0bff415 	stw	r2,-48(fp)
   1548c:	e0bff417 	ldw	r2,-48(fp)
   15490:	1001703a 	wrctl	status,r2
   15494:	e0bffd17 	ldw	r2,-12(fp)
   15498:	10800050 	cmplti	r2,r2,1
   1549c:	1000111e 	bne	r2,zero,154e4 <altera_avalon_jtag_uart_write+0x1d8>
   154a0:	e0bffe17 	ldw	r2,-8(fp)
   154a4:	1090000c 	andi	r2,r2,16384
   154a8:	1004c03a 	cmpne	r2,r2,zero
   154ac:	1000101e 	bne	r2,zero,154f0 <altera_avalon_jtag_uart_write+0x1e4>
   154b0:	e0bffb17 	ldw	r2,-20(fp)
   154b4:	10c00d17 	ldw	r3,52(r2)
   154b8:	e0bff917 	ldw	r2,-28(fp)
   154bc:	1880051e 	bne	r3,r2,154d4 <altera_avalon_jtag_uart_write+0x1c8>
   154c0:	e0bffb17 	ldw	r2,-20(fp)
   154c4:	10c00917 	ldw	r3,36(r2)
   154c8:	e0bffb17 	ldw	r2,-20(fp)
   154cc:	10800117 	ldw	r2,4(r2)
   154d0:	18bff736 	bltu	r3,r2,154b0 <altera_avalon_jtag_uart_write+0x1a4>
   154d4:	e0bffb17 	ldw	r2,-20(fp)
   154d8:	10c00d17 	ldw	r3,52(r2)
   154dc:	e0bff917 	ldw	r2,-28(fp)
   154e0:	18800326 	beq	r3,r2,154f0 <altera_avalon_jtag_uart_write+0x1e4>
   154e4:	e0bffd17 	ldw	r2,-12(fp)
   154e8:	10800048 	cmpgei	r2,r2,1
   154ec:	103fcd1e 	bne	r2,zero,15424 <altera_avalon_jtag_uart_write+0x118>
   154f0:	e0fffc17 	ldw	r3,-16(fp)
   154f4:	e0bff617 	ldw	r2,-40(fp)
   154f8:	18800526 	beq	r3,r2,15510 <altera_avalon_jtag_uart_write+0x204>
   154fc:	e0fffc17 	ldw	r3,-16(fp)
   15500:	e0bff617 	ldw	r2,-40(fp)
   15504:	1887c83a 	sub	r3,r3,r2
   15508:	e0ffff15 	stw	r3,-4(fp)
   1550c:	00000906 	br	15534 <altera_avalon_jtag_uart_write+0x228>
   15510:	e0bffe17 	ldw	r2,-8(fp)
   15514:	1090000c 	andi	r2,r2,16384
   15518:	1005003a 	cmpeq	r2,r2,zero
   1551c:	1000031e 	bne	r2,zero,1552c <altera_avalon_jtag_uart_write+0x220>
   15520:	00bffd44 	movi	r2,-11
   15524:	e0bfff15 	stw	r2,-4(fp)
   15528:	00000206 	br	15534 <altera_avalon_jtag_uart_write+0x228>
   1552c:	00bffec4 	movi	r2,-5
   15530:	e0bfff15 	stw	r2,-4(fp)
   15534:	e0bfff17 	ldw	r2,-4(fp)
   15538:	e037883a 	mov	sp,fp
   1553c:	dfc00117 	ldw	ra,4(sp)
   15540:	df000017 	ldw	fp,0(sp)
   15544:	dec00204 	addi	sp,sp,8
   15548:	f800283a 	ret

0001554c <lcd_write_command>:
   1554c:	defffa04 	addi	sp,sp,-24
   15550:	dfc00515 	stw	ra,20(sp)
   15554:	df000415 	stw	fp,16(sp)
   15558:	df000404 	addi	fp,sp,16
   1555c:	e13ffe15 	stw	r4,-8(fp)
   15560:	e17fff05 	stb	r5,-4(fp)
   15564:	e0bffe17 	ldw	r2,-8(fp)
   15568:	10800017 	ldw	r2,0(r2)
   1556c:	e0bffd15 	stw	r2,-12(fp)
   15570:	008003f4 	movhi	r2,15
   15574:	10909004 	addi	r2,r2,16960
   15578:	e0bffc15 	stw	r2,-16(fp)
   1557c:	e0bffe17 	ldw	r2,-8(fp)
   15580:	10800803 	ldbu	r2,32(r2)
   15584:	10803fcc 	andi	r2,r2,255
   15588:	1080201c 	xori	r2,r2,128
   1558c:	10bfe004 	addi	r2,r2,-128
   15590:	1004c03a 	cmpne	r2,r2,zero
   15594:	1000161e 	bne	r2,zero,155f0 <lcd_write_command+0xa4>
   15598:	00000a06 	br	155c4 <lcd_write_command+0x78>
   1559c:	e0bffc17 	ldw	r2,-16(fp)
   155a0:	10bfffc4 	addi	r2,r2,-1
   155a4:	e0bffc15 	stw	r2,-16(fp)
   155a8:	e0bffc17 	ldw	r2,-16(fp)
   155ac:	1004c03a 	cmpne	r2,r2,zero
   155b0:	1000041e 	bne	r2,zero,155c4 <lcd_write_command+0x78>
   155b4:	e0fffe17 	ldw	r3,-8(fp)
   155b8:	00800044 	movi	r2,1
   155bc:	18800805 	stb	r2,32(r3)
   155c0:	00000b06 	br	155f0 <lcd_write_command+0xa4>
   155c4:	e0bffd17 	ldw	r2,-12(fp)
   155c8:	10800104 	addi	r2,r2,4
   155cc:	10800037 	ldwio	r2,0(r2)
   155d0:	1080200c 	andi	r2,r2,128
   155d4:	1004c03a 	cmpne	r2,r2,zero
   155d8:	103ff01e 	bne	r2,zero,1559c <lcd_write_command+0x50>
   155dc:	01001904 	movi	r4,100
   155e0:	00148100 	call	14810 <usleep>
   155e4:	e0bffd17 	ldw	r2,-12(fp)
   155e8:	e0ffff03 	ldbu	r3,-4(fp)
   155ec:	10c00035 	stwio	r3,0(r2)
   155f0:	e037883a 	mov	sp,fp
   155f4:	dfc00117 	ldw	ra,4(sp)
   155f8:	df000017 	ldw	fp,0(sp)
   155fc:	dec00204 	addi	sp,sp,8
   15600:	f800283a 	ret

00015604 <lcd_write_data>:
   15604:	defffa04 	addi	sp,sp,-24
   15608:	dfc00515 	stw	ra,20(sp)
   1560c:	df000415 	stw	fp,16(sp)
   15610:	df000404 	addi	fp,sp,16
   15614:	e13ffe15 	stw	r4,-8(fp)
   15618:	e17fff05 	stb	r5,-4(fp)
   1561c:	e0bffe17 	ldw	r2,-8(fp)
   15620:	10800017 	ldw	r2,0(r2)
   15624:	e0bffd15 	stw	r2,-12(fp)
   15628:	008003f4 	movhi	r2,15
   1562c:	10909004 	addi	r2,r2,16960
   15630:	e0bffc15 	stw	r2,-16(fp)
   15634:	e0bffe17 	ldw	r2,-8(fp)
   15638:	10800803 	ldbu	r2,32(r2)
   1563c:	10803fcc 	andi	r2,r2,255
   15640:	1080201c 	xori	r2,r2,128
   15644:	10bfe004 	addi	r2,r2,-128
   15648:	1004c03a 	cmpne	r2,r2,zero
   1564c:	10001d1e 	bne	r2,zero,156c4 <lcd_write_data+0xc0>
   15650:	00000a06 	br	1567c <lcd_write_data+0x78>
   15654:	e0bffc17 	ldw	r2,-16(fp)
   15658:	10bfffc4 	addi	r2,r2,-1
   1565c:	e0bffc15 	stw	r2,-16(fp)
   15660:	e0bffc17 	ldw	r2,-16(fp)
   15664:	1004c03a 	cmpne	r2,r2,zero
   15668:	1000041e 	bne	r2,zero,1567c <lcd_write_data+0x78>
   1566c:	e0fffe17 	ldw	r3,-8(fp)
   15670:	00800044 	movi	r2,1
   15674:	18800805 	stb	r2,32(r3)
   15678:	00001206 	br	156c4 <lcd_write_data+0xc0>
   1567c:	e0bffd17 	ldw	r2,-12(fp)
   15680:	10800104 	addi	r2,r2,4
   15684:	10800037 	ldwio	r2,0(r2)
   15688:	1080200c 	andi	r2,r2,128
   1568c:	1004c03a 	cmpne	r2,r2,zero
   15690:	103ff01e 	bne	r2,zero,15654 <lcd_write_data+0x50>
   15694:	01001904 	movi	r4,100
   15698:	00148100 	call	14810 <usleep>
   1569c:	e0bffd17 	ldw	r2,-12(fp)
   156a0:	10800204 	addi	r2,r2,8
   156a4:	e0ffff03 	ldbu	r3,-4(fp)
   156a8:	10c00035 	stwio	r3,0(r2)
   156ac:	e0bffe17 	ldw	r2,-8(fp)
   156b0:	108008c3 	ldbu	r2,35(r2)
   156b4:	10800044 	addi	r2,r2,1
   156b8:	1007883a 	mov	r3,r2
   156bc:	e0bffe17 	ldw	r2,-8(fp)
   156c0:	10c008c5 	stb	r3,35(r2)
   156c4:	e037883a 	mov	sp,fp
   156c8:	dfc00117 	ldw	ra,4(sp)
   156cc:	df000017 	ldw	fp,0(sp)
   156d0:	dec00204 	addi	sp,sp,8
   156d4:	f800283a 	ret

000156d8 <lcd_clear_screen>:
   156d8:	defffc04 	addi	sp,sp,-16
   156dc:	dfc00315 	stw	ra,12(sp)
   156e0:	df000215 	stw	fp,8(sp)
   156e4:	df000204 	addi	fp,sp,8
   156e8:	e13fff15 	stw	r4,-4(fp)
   156ec:	e13fff17 	ldw	r4,-4(fp)
   156f0:	01400044 	movi	r5,1
   156f4:	001554c0 	call	1554c <lcd_write_command>
   156f8:	e0bfff17 	ldw	r2,-4(fp)
   156fc:	10000845 	stb	zero,33(r2)
   15700:	e0bfff17 	ldw	r2,-4(fp)
   15704:	10000885 	stb	zero,34(r2)
   15708:	e0bfff17 	ldw	r2,-4(fp)
   1570c:	100008c5 	stb	zero,35(r2)
   15710:	e03ffe15 	stw	zero,-8(fp)
   15714:	00001906 	br	1577c <lcd_clear_screen+0xa4>
   15718:	e0bffe17 	ldw	r2,-8(fp)
   1571c:	108018e4 	muli	r2,r2,99
   15720:	10c01004 	addi	r3,r2,64
   15724:	e0bfff17 	ldw	r2,-4(fp)
   15728:	1889883a 	add	r4,r3,r2
   1572c:	01400804 	movi	r5,32
   15730:	01801444 	movi	r6,81
   15734:	000c5d00 	call	c5d0 <memset>
   15738:	e0bffe17 	ldw	r2,-8(fp)
   1573c:	108018e4 	muli	r2,r2,99
   15740:	10c00c04 	addi	r3,r2,48
   15744:	e0bfff17 	ldw	r2,-4(fp)
   15748:	1889883a 	add	r4,r3,r2
   1574c:	01400804 	movi	r5,32
   15750:	01800404 	movi	r6,16
   15754:	000c5d00 	call	c5d0 <memset>
   15758:	e0bffe17 	ldw	r2,-8(fp)
   1575c:	e0ffff17 	ldw	r3,-4(fp)
   15760:	108018e4 	muli	r2,r2,99
   15764:	10c5883a 	add	r2,r2,r3
   15768:	10802404 	addi	r2,r2,144
   1576c:	10000045 	stb	zero,1(r2)
   15770:	e0bffe17 	ldw	r2,-8(fp)
   15774:	10800044 	addi	r2,r2,1
   15778:	e0bffe15 	stw	r2,-8(fp)
   1577c:	e0bffe17 	ldw	r2,-8(fp)
   15780:	10800090 	cmplti	r2,r2,2
   15784:	103fe41e 	bne	r2,zero,15718 <lcd_clear_screen+0x40>
   15788:	e037883a 	mov	sp,fp
   1578c:	dfc00117 	ldw	ra,4(sp)
   15790:	df000017 	ldw	fp,0(sp)
   15794:	dec00204 	addi	sp,sp,8
   15798:	f800283a 	ret

0001579c <lcd_repaint_screen>:
   1579c:	defff604 	addi	sp,sp,-40
   157a0:	dfc00915 	stw	ra,36(sp)
   157a4:	df000815 	stw	fp,32(sp)
   157a8:	dc000715 	stw	r16,28(sp)
   157ac:	df000704 	addi	fp,sp,28
   157b0:	e13fff15 	stw	r4,-4(fp)
   157b4:	e0bfff17 	ldw	r2,-4(fp)
   157b8:	10800943 	ldbu	r2,37(r2)
   157bc:	10803fcc 	andi	r2,r2,255
   157c0:	1080201c 	xori	r2,r2,128
   157c4:	10bfe004 	addi	r2,r2,-128
   157c8:	e0bffc15 	stw	r2,-16(fp)
   157cc:	e03ffe15 	stw	zero,-8(fp)
   157d0:	00006406 	br	15964 <lcd_repaint_screen+0x1c8>
   157d4:	e0bffe17 	ldw	r2,-8(fp)
   157d8:	e0ffff17 	ldw	r3,-4(fp)
   157dc:	108018e4 	muli	r2,r2,99
   157e0:	10c5883a 	add	r2,r2,r3
   157e4:	10802404 	addi	r2,r2,144
   157e8:	10800043 	ldbu	r2,1(r2)
   157ec:	10803fcc 	andi	r2,r2,255
   157f0:	1080201c 	xori	r2,r2,128
   157f4:	10bfe004 	addi	r2,r2,-128
   157f8:	e0bffb15 	stw	r2,-20(fp)
   157fc:	e0bffe17 	ldw	r2,-8(fp)
   15800:	e0ffff17 	ldw	r3,-4(fp)
   15804:	108018e4 	muli	r2,r2,99
   15808:	10c5883a 	add	r2,r2,r3
   1580c:	10802404 	addi	r2,r2,144
   15810:	10800083 	ldbu	r2,2(r2)
   15814:	10c03fcc 	andi	r3,r2,255
   15818:	e0bffc17 	ldw	r2,-16(fp)
   1581c:	1885383a 	mul	r2,r3,r2
   15820:	1005d23a 	srai	r2,r2,8
   15824:	e0bffa15 	stw	r2,-24(fp)
   15828:	e0fffa17 	ldw	r3,-24(fp)
   1582c:	e0bffb17 	ldw	r2,-20(fp)
   15830:	18800116 	blt	r3,r2,15838 <lcd_repaint_screen+0x9c>
   15834:	e03ffa15 	stw	zero,-24(fp)
   15838:	e03ffd15 	stw	zero,-12(fp)
   1583c:	00004306 	br	1594c <lcd_repaint_screen+0x1b0>
   15840:	e43ffe17 	ldw	r16,-8(fp)
   15844:	e0fffd17 	ldw	r3,-12(fp)
   15848:	e0bffa17 	ldw	r2,-24(fp)
   1584c:	1889883a 	add	r4,r3,r2
   15850:	e17ffb17 	ldw	r5,-20(fp)
   15854:	00051500 	call	5150 <__modsi3>
   15858:	1009883a 	mov	r4,r2
   1585c:	e0ffff17 	ldw	r3,-4(fp)
   15860:	808018e4 	muli	r2,r16,99
   15864:	10c5883a 	add	r2,r2,r3
   15868:	1105883a 	add	r2,r2,r4
   1586c:	10801004 	addi	r2,r2,64
   15870:	10800003 	ldbu	r2,0(r2)
   15874:	e0bff945 	stb	r2,-27(fp)
   15878:	e0bffe17 	ldw	r2,-8(fp)
   1587c:	e13ffd17 	ldw	r4,-12(fp)
   15880:	e0ffff17 	ldw	r3,-4(fp)
   15884:	108018e4 	muli	r2,r2,99
   15888:	10c5883a 	add	r2,r2,r3
   1588c:	1105883a 	add	r2,r2,r4
   15890:	10800c04 	addi	r2,r2,48
   15894:	10800003 	ldbu	r2,0(r2)
   15898:	10c03fcc 	andi	r3,r2,255
   1589c:	18c0201c 	xori	r3,r3,128
   158a0:	18ffe004 	addi	r3,r3,-128
   158a4:	e0bff947 	ldb	r2,-27(fp)
   158a8:	18802526 	beq	r3,r2,15940 <lcd_repaint_screen+0x1a4>
   158ac:	e0fffe17 	ldw	r3,-8(fp)
   158b0:	d0a01004 	addi	r2,gp,-32704
   158b4:	1885883a 	add	r2,r3,r2
   158b8:	10800003 	ldbu	r2,0(r2)
   158bc:	1007883a 	mov	r3,r2
   158c0:	e0bffd17 	ldw	r2,-12(fp)
   158c4:	1885883a 	add	r2,r3,r2
   158c8:	e0bff905 	stb	r2,-28(fp)
   158cc:	e0fff903 	ldbu	r3,-28(fp)
   158d0:	e0bfff17 	ldw	r2,-4(fp)
   158d4:	108008c3 	ldbu	r2,35(r2)
   158d8:	10803fcc 	andi	r2,r2,255
   158dc:	1080201c 	xori	r2,r2,128
   158e0:	10bfe004 	addi	r2,r2,-128
   158e4:	18800926 	beq	r3,r2,1590c <lcd_repaint_screen+0x170>
   158e8:	e0fff903 	ldbu	r3,-28(fp)
   158ec:	00bfe004 	movi	r2,-128
   158f0:	1884b03a 	or	r2,r3,r2
   158f4:	11403fcc 	andi	r5,r2,255
   158f8:	e13fff17 	ldw	r4,-4(fp)
   158fc:	001554c0 	call	1554c <lcd_write_command>
   15900:	e0fff903 	ldbu	r3,-28(fp)
   15904:	e0bfff17 	ldw	r2,-4(fp)
   15908:	10c008c5 	stb	r3,35(r2)
   1590c:	e0bff943 	ldbu	r2,-27(fp)
   15910:	11403fcc 	andi	r5,r2,255
   15914:	e13fff17 	ldw	r4,-4(fp)
   15918:	00156040 	call	15604 <lcd_write_data>
   1591c:	e0bffe17 	ldw	r2,-8(fp)
   15920:	e13ffd17 	ldw	r4,-12(fp)
   15924:	e0ffff17 	ldw	r3,-4(fp)
   15928:	108018e4 	muli	r2,r2,99
   1592c:	10c5883a 	add	r2,r2,r3
   15930:	1105883a 	add	r2,r2,r4
   15934:	10c00c04 	addi	r3,r2,48
   15938:	e0bff943 	ldbu	r2,-27(fp)
   1593c:	18800005 	stb	r2,0(r3)
   15940:	e0bffd17 	ldw	r2,-12(fp)
   15944:	10800044 	addi	r2,r2,1
   15948:	e0bffd15 	stw	r2,-12(fp)
   1594c:	e0bffd17 	ldw	r2,-12(fp)
   15950:	10800410 	cmplti	r2,r2,16
   15954:	103fba1e 	bne	r2,zero,15840 <lcd_repaint_screen+0xa4>
   15958:	e0bffe17 	ldw	r2,-8(fp)
   1595c:	10800044 	addi	r2,r2,1
   15960:	e0bffe15 	stw	r2,-8(fp)
   15964:	e0bffe17 	ldw	r2,-8(fp)
   15968:	10800090 	cmplti	r2,r2,2
   1596c:	103f991e 	bne	r2,zero,157d4 <lcd_repaint_screen+0x38>
   15970:	e037883a 	mov	sp,fp
   15974:	dfc00217 	ldw	ra,8(sp)
   15978:	df000117 	ldw	fp,4(sp)
   1597c:	dc000017 	ldw	r16,0(sp)
   15980:	dec00304 	addi	sp,sp,12
   15984:	f800283a 	ret

00015988 <lcd_scroll_up>:
   15988:	defffc04 	addi	sp,sp,-16
   1598c:	dfc00315 	stw	ra,12(sp)
   15990:	df000215 	stw	fp,8(sp)
   15994:	df000204 	addi	fp,sp,8
   15998:	e13fff15 	stw	r4,-4(fp)
   1599c:	e03ffe15 	stw	zero,-8(fp)
   159a0:	00001d06 	br	15a18 <lcd_scroll_up+0x90>
   159a4:	e0bffe17 	ldw	r2,-8(fp)
   159a8:	10800048 	cmpgei	r2,r2,1
   159ac:	10000f1e 	bne	r2,zero,159ec <lcd_scroll_up+0x64>
   159b0:	e0bffe17 	ldw	r2,-8(fp)
   159b4:	108018e4 	muli	r2,r2,99
   159b8:	10c01004 	addi	r3,r2,64
   159bc:	e0bfff17 	ldw	r2,-4(fp)
   159c0:	1889883a 	add	r4,r3,r2
   159c4:	e0bffe17 	ldw	r2,-8(fp)
   159c8:	10800044 	addi	r2,r2,1
   159cc:	108018e4 	muli	r2,r2,99
   159d0:	10c01004 	addi	r3,r2,64
   159d4:	e0bfff17 	ldw	r2,-4(fp)
   159d8:	1885883a 	add	r2,r3,r2
   159dc:	100b883a 	mov	r5,r2
   159e0:	01801404 	movi	r6,80
   159e4:	000c4500 	call	c450 <memcpy>
   159e8:	00000806 	br	15a0c <lcd_scroll_up+0x84>
   159ec:	e0bffe17 	ldw	r2,-8(fp)
   159f0:	108018e4 	muli	r2,r2,99
   159f4:	10c01004 	addi	r3,r2,64
   159f8:	e0bfff17 	ldw	r2,-4(fp)
   159fc:	1889883a 	add	r4,r3,r2
   15a00:	01400804 	movi	r5,32
   15a04:	01801404 	movi	r6,80
   15a08:	000c5d00 	call	c5d0 <memset>
   15a0c:	e0bffe17 	ldw	r2,-8(fp)
   15a10:	10800044 	addi	r2,r2,1
   15a14:	e0bffe15 	stw	r2,-8(fp)
   15a18:	e0bffe17 	ldw	r2,-8(fp)
   15a1c:	10800090 	cmplti	r2,r2,2
   15a20:	103fe01e 	bne	r2,zero,159a4 <lcd_scroll_up+0x1c>
   15a24:	e0bfff17 	ldw	r2,-4(fp)
   15a28:	10800883 	ldbu	r2,34(r2)
   15a2c:	10bfffc4 	addi	r2,r2,-1
   15a30:	1007883a 	mov	r3,r2
   15a34:	e0bfff17 	ldw	r2,-4(fp)
   15a38:	10c00885 	stb	r3,34(r2)
   15a3c:	e037883a 	mov	sp,fp
   15a40:	dfc00117 	ldw	ra,4(sp)
   15a44:	df000017 	ldw	fp,0(sp)
   15a48:	dec00204 	addi	sp,sp,8
   15a4c:	f800283a 	ret

00015a50 <lcd_handle_escape>:
   15a50:	defff804 	addi	sp,sp,-32
   15a54:	dfc00715 	stw	ra,28(sp)
   15a58:	df000615 	stw	fp,24(sp)
   15a5c:	df000604 	addi	fp,sp,24
   15a60:	e13ffd15 	stw	r4,-12(fp)
   15a64:	e17ffe05 	stb	r5,-8(fp)
   15a68:	e03ffc15 	stw	zero,-16(fp)
   15a6c:	e03ffb15 	stw	zero,-20(fp)
   15a70:	e0bffd17 	ldw	r2,-12(fp)
   15a74:	10800a03 	ldbu	r2,40(r2)
   15a78:	10803fcc 	andi	r2,r2,255
   15a7c:	1080201c 	xori	r2,r2,128
   15a80:	10bfe004 	addi	r2,r2,-128
   15a84:	108016d8 	cmpnei	r2,r2,91
   15a88:	1000491e 	bne	r2,zero,15bb0 <lcd_handle_escape+0x160>
   15a8c:	e0bffd17 	ldw	r2,-12(fp)
   15a90:	10800a04 	addi	r2,r2,40
   15a94:	10800044 	addi	r2,r2,1
   15a98:	e0bffa15 	stw	r2,-24(fp)
   15a9c:	00000d06 	br	15ad4 <lcd_handle_escape+0x84>
   15aa0:	e0bffc17 	ldw	r2,-16(fp)
   15aa4:	10c002a4 	muli	r3,r2,10
   15aa8:	e0bffa17 	ldw	r2,-24(fp)
   15aac:	10800003 	ldbu	r2,0(r2)
   15ab0:	10803fcc 	andi	r2,r2,255
   15ab4:	1080201c 	xori	r2,r2,128
   15ab8:	10bfe004 	addi	r2,r2,-128
   15abc:	1885883a 	add	r2,r3,r2
   15ac0:	10bff404 	addi	r2,r2,-48
   15ac4:	e0bffc15 	stw	r2,-16(fp)
   15ac8:	e0bffa17 	ldw	r2,-24(fp)
   15acc:	10800044 	addi	r2,r2,1
   15ad0:	e0bffa15 	stw	r2,-24(fp)
   15ad4:	e0bffa17 	ldw	r2,-24(fp)
   15ad8:	10800003 	ldbu	r2,0(r2)
   15adc:	10803fcc 	andi	r2,r2,255
   15ae0:	1080201c 	xori	r2,r2,128
   15ae4:	10bfe004 	addi	r2,r2,-128
   15ae8:	1007883a 	mov	r3,r2
   15aec:	008000b4 	movhi	r2,2
   15af0:	10a91404 	addi	r2,r2,-23472
   15af4:	10800017 	ldw	r2,0(r2)
   15af8:	1885883a 	add	r2,r3,r2
   15afc:	10800003 	ldbu	r2,0(r2)
   15b00:	10803fcc 	andi	r2,r2,255
   15b04:	1080010c 	andi	r2,r2,4
   15b08:	1004c03a 	cmpne	r2,r2,zero
   15b0c:	103fe41e 	bne	r2,zero,15aa0 <lcd_handle_escape+0x50>
   15b10:	e0bffa17 	ldw	r2,-24(fp)
   15b14:	10800003 	ldbu	r2,0(r2)
   15b18:	10803fcc 	andi	r2,r2,255
   15b1c:	1080201c 	xori	r2,r2,128
   15b20:	10bfe004 	addi	r2,r2,-128
   15b24:	10800ed8 	cmpnei	r2,r2,59
   15b28:	1000231e 	bne	r2,zero,15bb8 <lcd_handle_escape+0x168>
   15b2c:	e0bffa17 	ldw	r2,-24(fp)
   15b30:	10800044 	addi	r2,r2,1
   15b34:	e0bffa15 	stw	r2,-24(fp)
   15b38:	00000d06 	br	15b70 <lcd_handle_escape+0x120>
   15b3c:	e0bffb17 	ldw	r2,-20(fp)
   15b40:	10c002a4 	muli	r3,r2,10
   15b44:	e0bffa17 	ldw	r2,-24(fp)
   15b48:	10800003 	ldbu	r2,0(r2)
   15b4c:	10803fcc 	andi	r2,r2,255
   15b50:	1080201c 	xori	r2,r2,128
   15b54:	10bfe004 	addi	r2,r2,-128
   15b58:	1885883a 	add	r2,r3,r2
   15b5c:	10bff404 	addi	r2,r2,-48
   15b60:	e0bffb15 	stw	r2,-20(fp)
   15b64:	e0bffa17 	ldw	r2,-24(fp)
   15b68:	10800044 	addi	r2,r2,1
   15b6c:	e0bffa15 	stw	r2,-24(fp)
   15b70:	e0bffa17 	ldw	r2,-24(fp)
   15b74:	10800003 	ldbu	r2,0(r2)
   15b78:	10803fcc 	andi	r2,r2,255
   15b7c:	1080201c 	xori	r2,r2,128
   15b80:	10bfe004 	addi	r2,r2,-128
   15b84:	1007883a 	mov	r3,r2
   15b88:	008000b4 	movhi	r2,2
   15b8c:	10a91404 	addi	r2,r2,-23472
   15b90:	10800017 	ldw	r2,0(r2)
   15b94:	1885883a 	add	r2,r3,r2
   15b98:	10800003 	ldbu	r2,0(r2)
   15b9c:	10803fcc 	andi	r2,r2,255
   15ba0:	1080010c 	andi	r2,r2,4
   15ba4:	1004c03a 	cmpne	r2,r2,zero
   15ba8:	103fe41e 	bne	r2,zero,15b3c <lcd_handle_escape+0xec>
   15bac:	00000206 	br	15bb8 <lcd_handle_escape+0x168>
   15bb0:	00bfffc4 	movi	r2,-1
   15bb4:	e0bffc15 	stw	r2,-16(fp)
   15bb8:	e0bffe07 	ldb	r2,-8(fp)
   15bbc:	e0bfff15 	stw	r2,-4(fp)
   15bc0:	e0ffff17 	ldw	r3,-4(fp)
   15bc4:	188012a0 	cmpeqi	r2,r3,74
   15bc8:	10002f1e 	bne	r2,zero,15c88 <lcd_handle_escape+0x238>
   15bcc:	e0ffff17 	ldw	r3,-4(fp)
   15bd0:	188012c8 	cmpgei	r2,r3,75
   15bd4:	1000041e 	bne	r2,zero,15be8 <lcd_handle_escape+0x198>
   15bd8:	e0ffff17 	ldw	r3,-4(fp)
   15bdc:	18801220 	cmpeqi	r2,r3,72
   15be0:	1000081e 	bne	r2,zero,15c04 <lcd_handle_escape+0x1b4>
   15be4:	00004906 	br	15d0c <lcd_handle_escape+0x2bc>
   15be8:	e0ffff17 	ldw	r3,-4(fp)
   15bec:	188012e0 	cmpeqi	r2,r3,75
   15bf0:	10002b1e 	bne	r2,zero,15ca0 <lcd_handle_escape+0x250>
   15bf4:	e0ffff17 	ldw	r3,-4(fp)
   15bf8:	188019a0 	cmpeqi	r2,r3,102
   15bfc:	1000011e 	bne	r2,zero,15c04 <lcd_handle_escape+0x1b4>
   15c00:	00004206 	br	15d0c <lcd_handle_escape+0x2bc>
   15c04:	e0bffb17 	ldw	r2,-20(fp)
   15c08:	10800050 	cmplti	r2,r2,1
   15c0c:	1000051e 	bne	r2,zero,15c24 <lcd_handle_escape+0x1d4>
   15c10:	e0bffb17 	ldw	r2,-20(fp)
   15c14:	10bfffc4 	addi	r2,r2,-1
   15c18:	1007883a 	mov	r3,r2
   15c1c:	e0bffd17 	ldw	r2,-12(fp)
   15c20:	10c00845 	stb	r3,33(r2)
   15c24:	e0bffc17 	ldw	r2,-16(fp)
   15c28:	10800050 	cmplti	r2,r2,1
   15c2c:	1000371e 	bne	r2,zero,15d0c <lcd_handle_escape+0x2bc>
   15c30:	e0bffc17 	ldw	r2,-16(fp)
   15c34:	10bfffc4 	addi	r2,r2,-1
   15c38:	1007883a 	mov	r3,r2
   15c3c:	e0bffd17 	ldw	r2,-12(fp)
   15c40:	10c00885 	stb	r3,34(r2)
   15c44:	e0bffd17 	ldw	r2,-12(fp)
   15c48:	10800883 	ldbu	r2,34(r2)
   15c4c:	10803fcc 	andi	r2,r2,255
   15c50:	10800170 	cmpltui	r2,r2,5
   15c54:	1000061e 	bne	r2,zero,15c70 <lcd_handle_escape+0x220>
   15c58:	e0fffd17 	ldw	r3,-12(fp)
   15c5c:	00800104 	movi	r2,4
   15c60:	18800885 	stb	r2,34(r3)
   15c64:	00000206 	br	15c70 <lcd_handle_escape+0x220>
   15c68:	e13ffd17 	ldw	r4,-12(fp)
   15c6c:	00159880 	call	15988 <lcd_scroll_up>
   15c70:	e0bffd17 	ldw	r2,-12(fp)
   15c74:	10800883 	ldbu	r2,34(r2)
   15c78:	10803fcc 	andi	r2,r2,255
   15c7c:	108000e8 	cmpgeui	r2,r2,3
   15c80:	103ff91e 	bne	r2,zero,15c68 <lcd_handle_escape+0x218>
   15c84:	00002106 	br	15d0c <lcd_handle_escape+0x2bc>
   15c88:	e0bffc17 	ldw	r2,-16(fp)
   15c8c:	10800098 	cmpnei	r2,r2,2
   15c90:	10001e1e 	bne	r2,zero,15d0c <lcd_handle_escape+0x2bc>
   15c94:	e13ffd17 	ldw	r4,-12(fp)
   15c98:	00156d80 	call	156d8 <lcd_clear_screen>
   15c9c:	00001b06 	br	15d0c <lcd_handle_escape+0x2bc>
   15ca0:	e0bffc17 	ldw	r2,-16(fp)
   15ca4:	10800048 	cmpgei	r2,r2,1
   15ca8:	1000181e 	bne	r2,zero,15d0c <lcd_handle_escape+0x2bc>
   15cac:	e0bffd17 	ldw	r2,-12(fp)
   15cb0:	10800843 	ldbu	r2,33(r2)
   15cb4:	10803fcc 	andi	r2,r2,255
   15cb8:	10801428 	cmpgeui	r2,r2,80
   15cbc:	1000131e 	bne	r2,zero,15d0c <lcd_handle_escape+0x2bc>
   15cc0:	e0bffd17 	ldw	r2,-12(fp)
   15cc4:	10800883 	ldbu	r2,34(r2)
   15cc8:	10803fcc 	andi	r2,r2,255
   15ccc:	108018e4 	muli	r2,r2,99
   15cd0:	10c01004 	addi	r3,r2,64
   15cd4:	e0bffd17 	ldw	r2,-12(fp)
   15cd8:	1887883a 	add	r3,r3,r2
   15cdc:	e0bffd17 	ldw	r2,-12(fp)
   15ce0:	10800843 	ldbu	r2,33(r2)
   15ce4:	10803fcc 	andi	r2,r2,255
   15ce8:	1889883a 	add	r4,r3,r2
   15cec:	e0bffd17 	ldw	r2,-12(fp)
   15cf0:	10800843 	ldbu	r2,33(r2)
   15cf4:	10c03fcc 	andi	r3,r2,255
   15cf8:	00801404 	movi	r2,80
   15cfc:	10c5c83a 	sub	r2,r2,r3
   15d00:	100d883a 	mov	r6,r2
   15d04:	01400804 	movi	r5,32
   15d08:	000c5d00 	call	c5d0 <memset>
   15d0c:	e037883a 	mov	sp,fp
   15d10:	dfc00117 	ldw	ra,4(sp)
   15d14:	df000017 	ldw	fp,0(sp)
   15d18:	dec00204 	addi	sp,sp,8
   15d1c:	f800283a 	ret

00015d20 <altera_avalon_lcd_16207_write>:
   15d20:	defff204 	addi	sp,sp,-56
   15d24:	dfc00d15 	stw	ra,52(sp)
   15d28:	df000c15 	stw	fp,48(sp)
   15d2c:	dc000b15 	stw	r16,44(sp)
   15d30:	df000b04 	addi	fp,sp,44
   15d34:	e13ffc15 	stw	r4,-16(fp)
   15d38:	e17ffd15 	stw	r5,-12(fp)
   15d3c:	e1bffe15 	stw	r6,-8(fp)
   15d40:	e1ffff15 	stw	r7,-4(fp)
   15d44:	e0bffe17 	ldw	r2,-8(fp)
   15d48:	1007883a 	mov	r3,r2
   15d4c:	e0bffd17 	ldw	r2,-12(fp)
   15d50:	10c5883a 	add	r2,r2,r3
   15d54:	e0bffb15 	stw	r2,-20(fp)
   15d58:	e0fffc17 	ldw	r3,-16(fp)
   15d5c:	00800044 	movi	r2,1
   15d60:	188009c5 	stb	r2,39(r3)
   15d64:	0000a206 	br	15ff0 <altera_avalon_lcd_16207_write+0x2d0>
   15d68:	e0bffd17 	ldw	r2,-12(fp)
   15d6c:	10800003 	ldbu	r2,0(r2)
   15d70:	e0bff805 	stb	r2,-32(fp)
   15d74:	e0bffc17 	ldw	r2,-16(fp)
   15d78:	10800903 	ldbu	r2,36(r2)
   15d7c:	10803fcc 	andi	r2,r2,255
   15d80:	1080201c 	xori	r2,r2,128
   15d84:	10bfe004 	addi	r2,r2,-128
   15d88:	1004803a 	cmplt	r2,r2,zero
   15d8c:	10003b1e 	bne	r2,zero,15e7c <altera_avalon_lcd_16207_write+0x15c>
   15d90:	e0bffc17 	ldw	r2,-16(fp)
   15d94:	10800903 	ldbu	r2,36(r2)
   15d98:	10803fcc 	andi	r2,r2,255
   15d9c:	1080201c 	xori	r2,r2,128
   15da0:	10bfe004 	addi	r2,r2,-128
   15da4:	e0bff715 	stw	r2,-36(fp)
   15da8:	e0bff717 	ldw	r2,-36(fp)
   15dac:	1004c03a 	cmpne	r2,r2,zero
   15db0:	1000031e 	bne	r2,zero,15dc0 <altera_avalon_lcd_16207_write+0xa0>
   15db4:	e0bff807 	ldb	r2,-32(fp)
   15db8:	108016d8 	cmpnei	r2,r2,91
   15dbc:	1000111e 	bne	r2,zero,15e04 <altera_avalon_lcd_16207_write+0xe4>
   15dc0:	e0bff717 	ldw	r2,-36(fp)
   15dc4:	1005003a 	cmpeq	r2,r2,zero
   15dc8:	10001a1e 	bne	r2,zero,15e34 <altera_avalon_lcd_16207_write+0x114>
   15dcc:	e0bff807 	ldb	r2,-32(fp)
   15dd0:	1007883a 	mov	r3,r2
   15dd4:	008000b4 	movhi	r2,2
   15dd8:	10a91404 	addi	r2,r2,-23472
   15ddc:	10800017 	ldw	r2,0(r2)
   15de0:	1885883a 	add	r2,r3,r2
   15de4:	10800003 	ldbu	r2,0(r2)
   15de8:	10803fcc 	andi	r2,r2,255
   15dec:	1080010c 	andi	r2,r2,4
   15df0:	1004c03a 	cmpne	r2,r2,zero
   15df4:	10000f1e 	bne	r2,zero,15e34 <altera_avalon_lcd_16207_write+0x114>
   15df8:	e0bff807 	ldb	r2,-32(fp)
   15dfc:	10800ee0 	cmpeqi	r2,r2,59
   15e00:	10000c1e 	bne	r2,zero,15e34 <altera_avalon_lcd_16207_write+0x114>
   15e04:	e0fff717 	ldw	r3,-36(fp)
   15e08:	e0bffc17 	ldw	r2,-16(fp)
   15e0c:	1885883a 	add	r2,r3,r2
   15e10:	10800a04 	addi	r2,r2,40
   15e14:	10000005 	stb	zero,0(r2)
   15e18:	e17ff807 	ldb	r5,-32(fp)
   15e1c:	e13ffc17 	ldw	r4,-16(fp)
   15e20:	0015a500 	call	15a50 <lcd_handle_escape>
   15e24:	e0fffc17 	ldw	r3,-16(fp)
   15e28:	00bfffc4 	movi	r2,-1
   15e2c:	18800905 	stb	r2,36(r3)
   15e30:	00006c06 	br	15fe4 <altera_avalon_lcd_16207_write+0x2c4>
   15e34:	e0bffc17 	ldw	r2,-16(fp)
   15e38:	10800903 	ldbu	r2,36(r2)
   15e3c:	10803fcc 	andi	r2,r2,255
   15e40:	108001e8 	cmpgeui	r2,r2,7
   15e44:	1000671e 	bne	r2,zero,15fe4 <altera_avalon_lcd_16207_write+0x2c4>
   15e48:	e0fff717 	ldw	r3,-36(fp)
   15e4c:	e0bffc17 	ldw	r2,-16(fp)
   15e50:	1885883a 	add	r2,r3,r2
   15e54:	10c00a04 	addi	r3,r2,40
   15e58:	e0bff803 	ldbu	r2,-32(fp)
   15e5c:	18800005 	stb	r2,0(r3)
   15e60:	e0bffc17 	ldw	r2,-16(fp)
   15e64:	10800903 	ldbu	r2,36(r2)
   15e68:	10800044 	addi	r2,r2,1
   15e6c:	1007883a 	mov	r3,r2
   15e70:	e0bffc17 	ldw	r2,-16(fp)
   15e74:	10c00905 	stb	r3,36(r2)
   15e78:	00005a06 	br	15fe4 <altera_avalon_lcd_16207_write+0x2c4>
   15e7c:	e0bff807 	ldb	r2,-32(fp)
   15e80:	108006d8 	cmpnei	r2,r2,27
   15e84:	1000031e 	bne	r2,zero,15e94 <altera_avalon_lcd_16207_write+0x174>
   15e88:	e0bffc17 	ldw	r2,-16(fp)
   15e8c:	10000905 	stb	zero,36(r2)
   15e90:	00005406 	br	15fe4 <altera_avalon_lcd_16207_write+0x2c4>
   15e94:	e0bff807 	ldb	r2,-32(fp)
   15e98:	10800358 	cmpnei	r2,r2,13
   15e9c:	1000031e 	bne	r2,zero,15eac <altera_avalon_lcd_16207_write+0x18c>
   15ea0:	e0bffc17 	ldw	r2,-16(fp)
   15ea4:	10000845 	stb	zero,33(r2)
   15ea8:	00004e06 	br	15fe4 <altera_avalon_lcd_16207_write+0x2c4>
   15eac:	e0bff807 	ldb	r2,-32(fp)
   15eb0:	10800298 	cmpnei	r2,r2,10
   15eb4:	1000101e 	bne	r2,zero,15ef8 <altera_avalon_lcd_16207_write+0x1d8>
   15eb8:	e0bffc17 	ldw	r2,-16(fp)
   15ebc:	10000845 	stb	zero,33(r2)
   15ec0:	e0bffc17 	ldw	r2,-16(fp)
   15ec4:	10800883 	ldbu	r2,34(r2)
   15ec8:	10800044 	addi	r2,r2,1
   15ecc:	1007883a 	mov	r3,r2
   15ed0:	e0bffc17 	ldw	r2,-16(fp)
   15ed4:	10c00885 	stb	r3,34(r2)
   15ed8:	e0bffc17 	ldw	r2,-16(fp)
   15edc:	10800883 	ldbu	r2,34(r2)
   15ee0:	10803fcc 	andi	r2,r2,255
   15ee4:	108000f0 	cmpltui	r2,r2,3
   15ee8:	10003e1e 	bne	r2,zero,15fe4 <altera_avalon_lcd_16207_write+0x2c4>
   15eec:	e13ffc17 	ldw	r4,-16(fp)
   15ef0:	00159880 	call	15988 <lcd_scroll_up>
   15ef4:	00003b06 	br	15fe4 <altera_avalon_lcd_16207_write+0x2c4>
   15ef8:	e0bff807 	ldb	r2,-32(fp)
   15efc:	10800218 	cmpnei	r2,r2,8
   15f00:	10000c1e 	bne	r2,zero,15f34 <altera_avalon_lcd_16207_write+0x214>
   15f04:	e0bffc17 	ldw	r2,-16(fp)
   15f08:	10800843 	ldbu	r2,33(r2)
   15f0c:	10803fcc 	andi	r2,r2,255
   15f10:	1005003a 	cmpeq	r2,r2,zero
   15f14:	1000331e 	bne	r2,zero,15fe4 <altera_avalon_lcd_16207_write+0x2c4>
   15f18:	e0bffc17 	ldw	r2,-16(fp)
   15f1c:	10800843 	ldbu	r2,33(r2)
   15f20:	10bfffc4 	addi	r2,r2,-1
   15f24:	1007883a 	mov	r3,r2
   15f28:	e0bffc17 	ldw	r2,-16(fp)
   15f2c:	10c00845 	stb	r3,33(r2)
   15f30:	00002c06 	br	15fe4 <altera_avalon_lcd_16207_write+0x2c4>
   15f34:	e0bff807 	ldb	r2,-32(fp)
   15f38:	1007883a 	mov	r3,r2
   15f3c:	008000b4 	movhi	r2,2
   15f40:	10a91404 	addi	r2,r2,-23472
   15f44:	10800017 	ldw	r2,0(r2)
   15f48:	1885883a 	add	r2,r3,r2
   15f4c:	10800003 	ldbu	r2,0(r2)
   15f50:	10803fcc 	andi	r2,r2,255
   15f54:	1080201c 	xori	r2,r2,128
   15f58:	10bfe004 	addi	r2,r2,-128
   15f5c:	108025cc 	andi	r2,r2,151
   15f60:	1005003a 	cmpeq	r2,r2,zero
   15f64:	10001f1e 	bne	r2,zero,15fe4 <altera_avalon_lcd_16207_write+0x2c4>
   15f68:	e0bffc17 	ldw	r2,-16(fp)
   15f6c:	10800883 	ldbu	r2,34(r2)
   15f70:	10803fcc 	andi	r2,r2,255
   15f74:	108000b0 	cmpltui	r2,r2,2
   15f78:	1000021e 	bne	r2,zero,15f84 <altera_avalon_lcd_16207_write+0x264>
   15f7c:	e13ffc17 	ldw	r4,-16(fp)
   15f80:	00159880 	call	15988 <lcd_scroll_up>
   15f84:	e0bffc17 	ldw	r2,-16(fp)
   15f88:	10800843 	ldbu	r2,33(r2)
   15f8c:	10803fcc 	andi	r2,r2,255
   15f90:	10801428 	cmpgeui	r2,r2,80
   15f94:	10000d1e 	bne	r2,zero,15fcc <altera_avalon_lcd_16207_write+0x2ac>
   15f98:	e0bffc17 	ldw	r2,-16(fp)
   15f9c:	10800883 	ldbu	r2,34(r2)
   15fa0:	11003fcc 	andi	r4,r2,255
   15fa4:	e0bffc17 	ldw	r2,-16(fp)
   15fa8:	10800843 	ldbu	r2,33(r2)
   15fac:	11403fcc 	andi	r5,r2,255
   15fb0:	e0fffc17 	ldw	r3,-16(fp)
   15fb4:	208018e4 	muli	r2,r4,99
   15fb8:	10c5883a 	add	r2,r2,r3
   15fbc:	1145883a 	add	r2,r2,r5
   15fc0:	10c01004 	addi	r3,r2,64
   15fc4:	e0bff803 	ldbu	r2,-32(fp)
   15fc8:	18800005 	stb	r2,0(r3)
   15fcc:	e0bffc17 	ldw	r2,-16(fp)
   15fd0:	10800843 	ldbu	r2,33(r2)
   15fd4:	10800044 	addi	r2,r2,1
   15fd8:	1007883a 	mov	r3,r2
   15fdc:	e0bffc17 	ldw	r2,-16(fp)
   15fe0:	10c00845 	stb	r3,33(r2)
   15fe4:	e0bffd17 	ldw	r2,-12(fp)
   15fe8:	10800044 	addi	r2,r2,1
   15fec:	e0bffd15 	stw	r2,-12(fp)
   15ff0:	e0fffd17 	ldw	r3,-12(fp)
   15ff4:	e0bffb17 	ldw	r2,-20(fp)
   15ff8:	18bf5b36 	bltu	r3,r2,15d68 <altera_avalon_lcd_16207_write+0x48>
   15ffc:	00800404 	movi	r2,16
   16000:	e0bff915 	stw	r2,-28(fp)
   16004:	e03ffa15 	stw	zero,-24(fp)
   16008:	00003606 	br	160e4 <altera_avalon_lcd_16207_write+0x3c4>
   1600c:	00801404 	movi	r2,80
   16010:	e0bff615 	stw	r2,-40(fp)
   16014:	00001106 	br	1605c <altera_avalon_lcd_16207_write+0x33c>
   16018:	e13ffa17 	ldw	r4,-24(fp)
   1601c:	e0bff617 	ldw	r2,-40(fp)
   16020:	117fffc4 	addi	r5,r2,-1
   16024:	e0fffc17 	ldw	r3,-16(fp)
   16028:	208018e4 	muli	r2,r4,99
   1602c:	10c5883a 	add	r2,r2,r3
   16030:	1145883a 	add	r2,r2,r5
   16034:	10801004 	addi	r2,r2,64
   16038:	10800003 	ldbu	r2,0(r2)
   1603c:	10803fcc 	andi	r2,r2,255
   16040:	1080201c 	xori	r2,r2,128
   16044:	10bfe004 	addi	r2,r2,-128
   16048:	10800818 	cmpnei	r2,r2,32
   1604c:	1000061e 	bne	r2,zero,16068 <altera_avalon_lcd_16207_write+0x348>
   16050:	e0bff617 	ldw	r2,-40(fp)
   16054:	10bfffc4 	addi	r2,r2,-1
   16058:	e0bff615 	stw	r2,-40(fp)
   1605c:	e0bff617 	ldw	r2,-40(fp)
   16060:	10800048 	cmpgei	r2,r2,1
   16064:	103fec1e 	bne	r2,zero,16018 <altera_avalon_lcd_16207_write+0x2f8>
   16068:	e0bff617 	ldw	r2,-40(fp)
   1606c:	10800448 	cmpgei	r2,r2,17
   16070:	1000031e 	bne	r2,zero,16080 <altera_avalon_lcd_16207_write+0x360>
   16074:	00800404 	movi	r2,16
   16078:	e0bff615 	stw	r2,-40(fp)
   1607c:	00000306 	br	1608c <altera_avalon_lcd_16207_write+0x36c>
   16080:	e0bff617 	ldw	r2,-40(fp)
   16084:	10800044 	addi	r2,r2,1
   16088:	e0bff615 	stw	r2,-40(fp)
   1608c:	e13ffa17 	ldw	r4,-24(fp)
   16090:	e0bff617 	ldw	r2,-40(fp)
   16094:	100b883a 	mov	r5,r2
   16098:	e0fffc17 	ldw	r3,-16(fp)
   1609c:	208018e4 	muli	r2,r4,99
   160a0:	10c5883a 	add	r2,r2,r3
   160a4:	10802404 	addi	r2,r2,144
   160a8:	11400045 	stb	r5,1(r2)
   160ac:	e0fff917 	ldw	r3,-28(fp)
   160b0:	e0bff617 	ldw	r2,-40(fp)
   160b4:	1880020e 	bge	r3,r2,160c0 <altera_avalon_lcd_16207_write+0x3a0>
   160b8:	e0bff617 	ldw	r2,-40(fp)
   160bc:	e0bff915 	stw	r2,-28(fp)
   160c0:	e0bffa17 	ldw	r2,-24(fp)
   160c4:	e0fffc17 	ldw	r3,-16(fp)
   160c8:	108018e4 	muli	r2,r2,99
   160cc:	10c5883a 	add	r2,r2,r3
   160d0:	10802404 	addi	r2,r2,144
   160d4:	10000085 	stb	zero,2(r2)
   160d8:	e0bffa17 	ldw	r2,-24(fp)
   160dc:	10800044 	addi	r2,r2,1
   160e0:	e0bffa15 	stw	r2,-24(fp)
   160e4:	e0bffa17 	ldw	r2,-24(fp)
   160e8:	10800090 	cmplti	r2,r2,2
   160ec:	103fc71e 	bne	r2,zero,1600c <altera_avalon_lcd_16207_write+0x2ec>
   160f0:	e0bff917 	ldw	r2,-28(fp)
   160f4:	10800448 	cmpgei	r2,r2,17
   160f8:	1000031e 	bne	r2,zero,16108 <altera_avalon_lcd_16207_write+0x3e8>
   160fc:	e0bffc17 	ldw	r2,-16(fp)
   16100:	10000985 	stb	zero,38(r2)
   16104:	00002d06 	br	161bc <altera_avalon_lcd_16207_write+0x49c>
   16108:	e0bff917 	ldw	r2,-28(fp)
   1610c:	1085883a 	add	r2,r2,r2
   16110:	e0bff915 	stw	r2,-28(fp)
   16114:	e0bff917 	ldw	r2,-28(fp)
   16118:	1007883a 	mov	r3,r2
   1611c:	e0bffc17 	ldw	r2,-16(fp)
   16120:	10c00985 	stb	r3,38(r2)
   16124:	e03ffa15 	stw	zero,-24(fp)
   16128:	00002106 	br	161b0 <altera_avalon_lcd_16207_write+0x490>
   1612c:	e0bffa17 	ldw	r2,-24(fp)
   16130:	e0fffc17 	ldw	r3,-16(fp)
   16134:	108018e4 	muli	r2,r2,99
   16138:	10c5883a 	add	r2,r2,r3
   1613c:	10802404 	addi	r2,r2,144
   16140:	10800043 	ldbu	r2,1(r2)
   16144:	10803fcc 	andi	r2,r2,255
   16148:	1080201c 	xori	r2,r2,128
   1614c:	10bfe004 	addi	r2,r2,-128
   16150:	10800450 	cmplti	r2,r2,17
   16154:	1000131e 	bne	r2,zero,161a4 <altera_avalon_lcd_16207_write+0x484>
   16158:	e43ffa17 	ldw	r16,-24(fp)
   1615c:	e0bffa17 	ldw	r2,-24(fp)
   16160:	e0fffc17 	ldw	r3,-16(fp)
   16164:	108018e4 	muli	r2,r2,99
   16168:	10c5883a 	add	r2,r2,r3
   1616c:	10802404 	addi	r2,r2,144
   16170:	10800043 	ldbu	r2,1(r2)
   16174:	10803fcc 	andi	r2,r2,255
   16178:	1080201c 	xori	r2,r2,128
   1617c:	10bfe004 	addi	r2,r2,-128
   16180:	1008923a 	slli	r4,r2,8
   16184:	e17ff917 	ldw	r5,-28(fp)
   16188:	00050f00 	call	50f0 <__divsi3>
   1618c:	1009883a 	mov	r4,r2
   16190:	e0fffc17 	ldw	r3,-16(fp)
   16194:	808018e4 	muli	r2,r16,99
   16198:	10c5883a 	add	r2,r2,r3
   1619c:	10802404 	addi	r2,r2,144
   161a0:	11000085 	stb	r4,2(r2)
   161a4:	e0bffa17 	ldw	r2,-24(fp)
   161a8:	10800044 	addi	r2,r2,1
   161ac:	e0bffa15 	stw	r2,-24(fp)
   161b0:	e0bffa17 	ldw	r2,-24(fp)
   161b4:	10800090 	cmplti	r2,r2,2
   161b8:	103fdc1e 	bne	r2,zero,1612c <altera_avalon_lcd_16207_write+0x40c>
   161bc:	e0bffc17 	ldw	r2,-16(fp)
   161c0:	10800943 	ldbu	r2,37(r2)
   161c4:	10803fcc 	andi	r2,r2,255
   161c8:	1080201c 	xori	r2,r2,128
   161cc:	10bfe004 	addi	r2,r2,-128
   161d0:	e0bff515 	stw	r2,-44(fp)
   161d4:	e13ffc17 	ldw	r4,-16(fp)
   161d8:	001579c0 	call	1579c <lcd_repaint_screen>
   161dc:	e0bffc17 	ldw	r2,-16(fp)
   161e0:	100009c5 	stb	zero,39(r2)
   161e4:	e0bffc17 	ldw	r2,-16(fp)
   161e8:	10800943 	ldbu	r2,37(r2)
   161ec:	10c03fcc 	andi	r3,r2,255
   161f0:	18c0201c 	xori	r3,r3,128
   161f4:	18ffe004 	addi	r3,r3,-128
   161f8:	e0bff517 	ldw	r2,-44(fp)
   161fc:	18800426 	beq	r3,r2,16210 <altera_avalon_lcd_16207_write+0x4f0>
   16200:	e0fffc17 	ldw	r3,-16(fp)
   16204:	00800044 	movi	r2,1
   16208:	188009c5 	stb	r2,39(r3)
   1620c:	003feb06 	br	161bc <altera_avalon_lcd_16207_write+0x49c>
   16210:	e0bffe17 	ldw	r2,-8(fp)
   16214:	e037883a 	mov	sp,fp
   16218:	dfc00217 	ldw	ra,8(sp)
   1621c:	df000117 	ldw	fp,4(sp)
   16220:	dc000017 	ldw	r16,0(sp)
   16224:	dec00304 	addi	sp,sp,12
   16228:	f800283a 	ret

0001622c <alt_lcd_16207_timeout>:
   1622c:	defffc04 	addi	sp,sp,-16
   16230:	dfc00315 	stw	ra,12(sp)
   16234:	df000215 	stw	fp,8(sp)
   16238:	df000204 	addi	fp,sp,8
   1623c:	e13fff15 	stw	r4,-4(fp)
   16240:	e0bfff17 	ldw	r2,-4(fp)
   16244:	e0bffe15 	stw	r2,-8(fp)
   16248:	e0bffe17 	ldw	r2,-8(fp)
   1624c:	10800943 	ldbu	r2,37(r2)
   16250:	10803fcc 	andi	r2,r2,255
   16254:	1080201c 	xori	r2,r2,128
   16258:	10bfe004 	addi	r2,r2,-128
   1625c:	10c00044 	addi	r3,r2,1
   16260:	e0bffe17 	ldw	r2,-8(fp)
   16264:	10800983 	ldbu	r2,38(r2)
   16268:	10803fcc 	andi	r2,r2,255
   1626c:	1080201c 	xori	r2,r2,128
   16270:	10bfe004 	addi	r2,r2,-128
   16274:	18800316 	blt	r3,r2,16284 <alt_lcd_16207_timeout+0x58>
   16278:	e0bffe17 	ldw	r2,-8(fp)
   1627c:	10000945 	stb	zero,37(r2)
   16280:	00000606 	br	1629c <alt_lcd_16207_timeout+0x70>
   16284:	e0bffe17 	ldw	r2,-8(fp)
   16288:	10800943 	ldbu	r2,37(r2)
   1628c:	10800044 	addi	r2,r2,1
   16290:	1007883a 	mov	r3,r2
   16294:	e0bffe17 	ldw	r2,-8(fp)
   16298:	10c00945 	stb	r3,37(r2)
   1629c:	e0bffe17 	ldw	r2,-8(fp)
   162a0:	10800983 	ldbu	r2,38(r2)
   162a4:	10803fcc 	andi	r2,r2,255
   162a8:	1080201c 	xori	r2,r2,128
   162ac:	10bfe004 	addi	r2,r2,-128
   162b0:	10800050 	cmplti	r2,r2,1
   162b4:	1000091e 	bne	r2,zero,162dc <alt_lcd_16207_timeout+0xb0>
   162b8:	e0bffe17 	ldw	r2,-8(fp)
   162bc:	108009c3 	ldbu	r2,39(r2)
   162c0:	10803fcc 	andi	r2,r2,255
   162c4:	1080201c 	xori	r2,r2,128
   162c8:	10bfe004 	addi	r2,r2,-128
   162cc:	1004c03a 	cmpne	r2,r2,zero
   162d0:	1000021e 	bne	r2,zero,162dc <alt_lcd_16207_timeout+0xb0>
   162d4:	e13ffe17 	ldw	r4,-8(fp)
   162d8:	001579c0 	call	1579c <lcd_repaint_screen>
   162dc:	e0bffe17 	ldw	r2,-8(fp)
   162e0:	10800717 	ldw	r2,28(r2)
   162e4:	e037883a 	mov	sp,fp
   162e8:	dfc00117 	ldw	ra,4(sp)
   162ec:	df000017 	ldw	fp,0(sp)
   162f0:	dec00204 	addi	sp,sp,8
   162f4:	f800283a 	ret

000162f8 <altera_avalon_lcd_16207_init>:
   162f8:	defffc04 	addi	sp,sp,-16
   162fc:	dfc00315 	stw	ra,12(sp)
   16300:	df000215 	stw	fp,8(sp)
   16304:	df000204 	addi	fp,sp,8
   16308:	e13fff15 	stw	r4,-4(fp)
   1630c:	e0bfff17 	ldw	r2,-4(fp)
   16310:	10800017 	ldw	r2,0(r2)
   16314:	e0bffe15 	stw	r2,-8(fp)
   16318:	e0bfff17 	ldw	r2,-4(fp)
   1631c:	10000805 	stb	zero,32(r2)
   16320:	010ea604 	movi	r4,15000
   16324:	00148100 	call	14810 <usleep>
   16328:	e0bffe17 	ldw	r2,-8(fp)
   1632c:	1007883a 	mov	r3,r2
   16330:	00800c04 	movi	r2,48
   16334:	18800035 	stwio	r2,0(r3)
   16338:	01040104 	movi	r4,4100
   1633c:	00148100 	call	14810 <usleep>
   16340:	e0bffe17 	ldw	r2,-8(fp)
   16344:	1007883a 	mov	r3,r2
   16348:	00800c04 	movi	r2,48
   1634c:	18800035 	stwio	r2,0(r3)
   16350:	0100fa04 	movi	r4,1000
   16354:	00148100 	call	14810 <usleep>
   16358:	e0bffe17 	ldw	r2,-8(fp)
   1635c:	1007883a 	mov	r3,r2
   16360:	00800c04 	movi	r2,48
   16364:	18800035 	stwio	r2,0(r3)
   16368:	e13fff17 	ldw	r4,-4(fp)
   1636c:	01400e04 	movi	r5,56
   16370:	001554c0 	call	1554c <lcd_write_command>
   16374:	e13fff17 	ldw	r4,-4(fp)
   16378:	01400204 	movi	r5,8
   1637c:	001554c0 	call	1554c <lcd_write_command>
   16380:	e13fff17 	ldw	r4,-4(fp)
   16384:	00156d80 	call	156d8 <lcd_clear_screen>
   16388:	e13fff17 	ldw	r4,-4(fp)
   1638c:	01400184 	movi	r5,6
   16390:	001554c0 	call	1554c <lcd_write_command>
   16394:	e13fff17 	ldw	r4,-4(fp)
   16398:	01400304 	movi	r5,12
   1639c:	001554c0 	call	1554c <lcd_write_command>
   163a0:	e0ffff17 	ldw	r3,-4(fp)
   163a4:	00bfffc4 	movi	r2,-1
   163a8:	18800905 	stb	r2,36(r3)
   163ac:	e0bfff17 	ldw	r2,-4(fp)
   163b0:	11000a04 	addi	r4,r2,40
   163b4:	000b883a 	mov	r5,zero
   163b8:	01800204 	movi	r6,8
   163bc:	000c5d00 	call	c5d0 <memset>
   163c0:	e0bfff17 	ldw	r2,-4(fp)
   163c4:	10000945 	stb	zero,37(r2)
   163c8:	e0bfff17 	ldw	r2,-4(fp)
   163cc:	10000985 	stb	zero,38(r2)
   163d0:	e0bfff17 	ldw	r2,-4(fp)
   163d4:	100009c5 	stb	zero,39(r2)
   163d8:	008000b4 	movhi	r2,2
   163dc:	10b02804 	addi	r2,r2,-16224
   163e0:	10800017 	ldw	r2,0(r2)
   163e4:	1009883a 	mov	r4,r2
   163e8:	01400284 	movi	r5,10
   163ec:	00051b00 	call	51b0 <__udivsi3>
   163f0:	1007883a 	mov	r3,r2
   163f4:	e0bfff17 	ldw	r2,-4(fp)
   163f8:	10c00715 	stw	r3,28(r2)
   163fc:	e0bfff17 	ldw	r2,-4(fp)
   16400:	11000104 	addi	r4,r2,4
   16404:	e0bfff17 	ldw	r2,-4(fp)
   16408:	10800717 	ldw	r2,28(r2)
   1640c:	100b883a 	mov	r5,r2
   16410:	01800074 	movhi	r6,1
   16414:	31988b04 	addi	r6,r6,25132
   16418:	e1ffff17 	ldw	r7,-4(fp)
   1641c:	001658c0 	call	1658c <alt_alarm_start>
   16420:	e037883a 	mov	sp,fp
   16424:	dfc00117 	ldw	ra,4(sp)
   16428:	df000017 	ldw	fp,0(sp)
   1642c:	dec00204 	addi	sp,sp,8
   16430:	f800283a 	ret

00016434 <altera_avalon_lcd_16207_write_fd>:
   16434:	defffa04 	addi	sp,sp,-24
   16438:	dfc00515 	stw	ra,20(sp)
   1643c:	df000415 	stw	fp,16(sp)
   16440:	df000404 	addi	fp,sp,16
   16444:	e13ffd15 	stw	r4,-12(fp)
   16448:	e17ffe15 	stw	r5,-8(fp)
   1644c:	e1bfff15 	stw	r6,-4(fp)
   16450:	e0bffd17 	ldw	r2,-12(fp)
   16454:	10800017 	ldw	r2,0(r2)
   16458:	e0bffc15 	stw	r2,-16(fp)
   1645c:	e0bffc17 	ldw	r2,-16(fp)
   16460:	11000a04 	addi	r4,r2,40
   16464:	e0bffd17 	ldw	r2,-12(fp)
   16468:	11c00217 	ldw	r7,8(r2)
   1646c:	e17ffe17 	ldw	r5,-8(fp)
   16470:	e1bfff17 	ldw	r6,-4(fp)
   16474:	0015d200 	call	15d20 <altera_avalon_lcd_16207_write>
   16478:	e037883a 	mov	sp,fp
   1647c:	dfc00117 	ldw	ra,4(sp)
   16480:	df000017 	ldw	fp,0(sp)
   16484:	dec00204 	addi	sp,sp,8
   16488:	f800283a 	ret

0001648c <alt_avalon_timer_sc_irq>:
   1648c:	defffa04 	addi	sp,sp,-24
   16490:	dfc00515 	stw	ra,20(sp)
   16494:	df000415 	stw	fp,16(sp)
   16498:	df000404 	addi	fp,sp,16
   1649c:	e13fff15 	stw	r4,-4(fp)
   164a0:	e0bfff17 	ldw	r2,-4(fp)
   164a4:	10000035 	stwio	zero,0(r2)
   164a8:	e0bfff17 	ldw	r2,-4(fp)
   164ac:	10800104 	addi	r2,r2,4
   164b0:	10800037 	ldwio	r2,0(r2)
   164b4:	0005303a 	rdctl	r2,status
   164b8:	e0bffd15 	stw	r2,-12(fp)
   164bc:	e0fffd17 	ldw	r3,-12(fp)
   164c0:	00bfff84 	movi	r2,-2
   164c4:	1884703a 	and	r2,r3,r2
   164c8:	1001703a 	wrctl	status,r2
   164cc:	e0bffd17 	ldw	r2,-12(fp)
   164d0:	e0bffe15 	stw	r2,-8(fp)
   164d4:	00147040 	call	14704 <alt_tick>
   164d8:	e0bffe17 	ldw	r2,-8(fp)
   164dc:	e0bffc15 	stw	r2,-16(fp)
   164e0:	e0bffc17 	ldw	r2,-16(fp)
   164e4:	1001703a 	wrctl	status,r2
   164e8:	e037883a 	mov	sp,fp
   164ec:	dfc00117 	ldw	ra,4(sp)
   164f0:	df000017 	ldw	fp,0(sp)
   164f4:	dec00204 	addi	sp,sp,8
   164f8:	f800283a 	ret

000164fc <alt_avalon_timer_sc_init>:
   164fc:	defff804 	addi	sp,sp,-32
   16500:	dfc00715 	stw	ra,28(sp)
   16504:	df000615 	stw	fp,24(sp)
   16508:	df000604 	addi	fp,sp,24
   1650c:	e13ffc15 	stw	r4,-16(fp)
   16510:	e17ffd15 	stw	r5,-12(fp)
   16514:	e1bffe15 	stw	r6,-8(fp)
   16518:	e1ffff15 	stw	r7,-4(fp)
   1651c:	e0bfff17 	ldw	r2,-4(fp)
   16520:	e0bffb15 	stw	r2,-20(fp)
   16524:	008000b4 	movhi	r2,2
   16528:	10b02804 	addi	r2,r2,-16224
   1652c:	10800017 	ldw	r2,0(r2)
   16530:	1004c03a 	cmpne	r2,r2,zero
   16534:	1000041e 	bne	r2,zero,16548 <alt_avalon_timer_sc_init+0x4c>
   16538:	00c000b4 	movhi	r3,2
   1653c:	18f02804 	addi	r3,r3,-16224
   16540:	e0bffb17 	ldw	r2,-20(fp)
   16544:	18800015 	stw	r2,0(r3)
   16548:	e0bffc17 	ldw	r2,-16(fp)
   1654c:	10800104 	addi	r2,r2,4
   16550:	1007883a 	mov	r3,r2
   16554:	008001c4 	movi	r2,7
   16558:	18800035 	stwio	r2,0(r3)
   1655c:	d8000015 	stw	zero,0(sp)
   16560:	e13ffd17 	ldw	r4,-12(fp)
   16564:	e17ffe17 	ldw	r5,-8(fp)
   16568:	01800074 	movhi	r6,1
   1656c:	31992304 	addi	r6,r6,25740
   16570:	e1fffc17 	ldw	r7,-16(fp)
   16574:	0016a7c0 	call	16a7c <alt_ic_isr_register>
   16578:	e037883a 	mov	sp,fp
   1657c:	dfc00117 	ldw	ra,4(sp)
   16580:	df000017 	ldw	fp,0(sp)
   16584:	dec00204 	addi	sp,sp,8
   16588:	f800283a 	ret

0001658c <alt_alarm_start>:
   1658c:	defff404 	addi	sp,sp,-48
   16590:	df000b15 	stw	fp,44(sp)
   16594:	df000b04 	addi	fp,sp,44
   16598:	e13ffb15 	stw	r4,-20(fp)
   1659c:	e17ffc15 	stw	r5,-16(fp)
   165a0:	e1bffd15 	stw	r6,-12(fp)
   165a4:	e1fffe15 	stw	r7,-8(fp)
   165a8:	e03ff915 	stw	zero,-28(fp)
   165ac:	008000b4 	movhi	r2,2
   165b0:	10b02804 	addi	r2,r2,-16224
   165b4:	10800017 	ldw	r2,0(r2)
   165b8:	1005003a 	cmpeq	r2,r2,zero
   165bc:	1000411e 	bne	r2,zero,166c4 <alt_alarm_start+0x138>
   165c0:	e0bffb17 	ldw	r2,-20(fp)
   165c4:	1005003a 	cmpeq	r2,r2,zero
   165c8:	10003b1e 	bne	r2,zero,166b8 <alt_alarm_start+0x12c>
   165cc:	e0fffb17 	ldw	r3,-20(fp)
   165d0:	e0bffd17 	ldw	r2,-12(fp)
   165d4:	18800315 	stw	r2,12(r3)
   165d8:	e0fffb17 	ldw	r3,-20(fp)
   165dc:	e0bffe17 	ldw	r2,-8(fp)
   165e0:	18800515 	stw	r2,20(r3)
   165e4:	0005303a 	rdctl	r2,status
   165e8:	e0bff815 	stw	r2,-32(fp)
   165ec:	e0fff817 	ldw	r3,-32(fp)
   165f0:	00bfff84 	movi	r2,-2
   165f4:	1884703a 	and	r2,r3,r2
   165f8:	1001703a 	wrctl	status,r2
   165fc:	e0bff817 	ldw	r2,-32(fp)
   16600:	e0bffa15 	stw	r2,-24(fp)
   16604:	008000b4 	movhi	r2,2
   16608:	10b02904 	addi	r2,r2,-16220
   1660c:	10800017 	ldw	r2,0(r2)
   16610:	e0bff915 	stw	r2,-28(fp)
   16614:	e0fffc17 	ldw	r3,-16(fp)
   16618:	e0bff917 	ldw	r2,-28(fp)
   1661c:	1885883a 	add	r2,r3,r2
   16620:	10c00044 	addi	r3,r2,1
   16624:	e0bffb17 	ldw	r2,-20(fp)
   16628:	10c00215 	stw	r3,8(r2)
   1662c:	e0bffb17 	ldw	r2,-20(fp)
   16630:	10c00217 	ldw	r3,8(r2)
   16634:	e0bff917 	ldw	r2,-28(fp)
   16638:	1880042e 	bgeu	r3,r2,1664c <alt_alarm_start+0xc0>
   1663c:	e0fffb17 	ldw	r3,-20(fp)
   16640:	00800044 	movi	r2,1
   16644:	18800405 	stb	r2,16(r3)
   16648:	00000206 	br	16654 <alt_alarm_start+0xc8>
   1664c:	e0bffb17 	ldw	r2,-20(fp)
   16650:	10000405 	stb	zero,16(r2)
   16654:	e0fffb17 	ldw	r3,-20(fp)
   16658:	008000b4 	movhi	r2,2
   1665c:	10a92204 	addi	r2,r2,-23416
   16660:	e0bff615 	stw	r2,-40(fp)
   16664:	e0fff715 	stw	r3,-36(fp)
   16668:	e0fff717 	ldw	r3,-36(fp)
   1666c:	e0bff617 	ldw	r2,-40(fp)
   16670:	18800115 	stw	r2,4(r3)
   16674:	e0bff617 	ldw	r2,-40(fp)
   16678:	10c00017 	ldw	r3,0(r2)
   1667c:	e0bff717 	ldw	r2,-36(fp)
   16680:	10c00015 	stw	r3,0(r2)
   16684:	e0bff617 	ldw	r2,-40(fp)
   16688:	10c00017 	ldw	r3,0(r2)
   1668c:	e0bff717 	ldw	r2,-36(fp)
   16690:	18800115 	stw	r2,4(r3)
   16694:	e0fff617 	ldw	r3,-40(fp)
   16698:	e0bff717 	ldw	r2,-36(fp)
   1669c:	18800015 	stw	r2,0(r3)
   166a0:	e0bffa17 	ldw	r2,-24(fp)
   166a4:	e0bff515 	stw	r2,-44(fp)
   166a8:	e0bff517 	ldw	r2,-44(fp)
   166ac:	1001703a 	wrctl	status,r2
   166b0:	e03fff15 	stw	zero,-4(fp)
   166b4:	00000506 	br	166cc <alt_alarm_start+0x140>
   166b8:	00bffa84 	movi	r2,-22
   166bc:	e0bfff15 	stw	r2,-4(fp)
   166c0:	00000206 	br	166cc <alt_alarm_start+0x140>
   166c4:	00bfde84 	movi	r2,-134
   166c8:	e0bfff15 	stw	r2,-4(fp)
   166cc:	e0bfff17 	ldw	r2,-4(fp)
   166d0:	e037883a 	mov	sp,fp
   166d4:	df000017 	ldw	fp,0(sp)
   166d8:	dec00104 	addi	sp,sp,4
   166dc:	f800283a 	ret

000166e0 <alt_busy_sleep>:
   166e0:	defffa04 	addi	sp,sp,-24
   166e4:	dfc00515 	stw	ra,20(sp)
   166e8:	df000415 	stw	fp,16(sp)
   166ec:	df000404 	addi	fp,sp,16
   166f0:	e13fff15 	stw	r4,-4(fp)
   166f4:	008000c4 	movi	r2,3
   166f8:	e0bffc15 	stw	r2,-16(fp)
   166fc:	e0fffc17 	ldw	r3,-16(fp)
   16700:	008003f4 	movhi	r2,15
   16704:	10909004 	addi	r2,r2,16960
   16708:	188b383a 	mul	r5,r3,r2
   1670c:	01017db4 	movhi	r4,1526
   16710:	21384004 	addi	r4,r4,-7936
   16714:	00051b00 	call	51b0 <__udivsi3>
   16718:	100b883a 	mov	r5,r2
   1671c:	01200034 	movhi	r4,32768
   16720:	213fffc4 	addi	r4,r4,-1
   16724:	00051b00 	call	51b0 <__udivsi3>
   16728:	100b883a 	mov	r5,r2
   1672c:	e13fff17 	ldw	r4,-4(fp)
   16730:	00051b00 	call	51b0 <__udivsi3>
   16734:	e0bffd15 	stw	r2,-12(fp)
   16738:	e0bffd17 	ldw	r2,-12(fp)
   1673c:	1005003a 	cmpeq	r2,r2,zero
   16740:	1000281e 	bne	r2,zero,167e4 <alt_busy_sleep+0x104>
   16744:	e03ffe15 	stw	zero,-8(fp)
   16748:	00001606 	br	167a4 <alt_busy_sleep+0xc4>
   1674c:	00a00034 	movhi	r2,32768
   16750:	10bfffc4 	addi	r2,r2,-1
   16754:	10bfffc4 	addi	r2,r2,-1
   16758:	103ffe1e 	bne	r2,zero,16754 <alt_busy_sleep+0x74>
   1675c:	e0fffc17 	ldw	r3,-16(fp)
   16760:	008003f4 	movhi	r2,15
   16764:	10909004 	addi	r2,r2,16960
   16768:	188b383a 	mul	r5,r3,r2
   1676c:	01017db4 	movhi	r4,1526
   16770:	21384004 	addi	r4,r4,-7936
   16774:	00051b00 	call	51b0 <__udivsi3>
   16778:	100b883a 	mov	r5,r2
   1677c:	01200034 	movhi	r4,32768
   16780:	213fffc4 	addi	r4,r4,-1
   16784:	00051b00 	call	51b0 <__udivsi3>
   16788:	1007883a 	mov	r3,r2
   1678c:	e0bfff17 	ldw	r2,-4(fp)
   16790:	10c5c83a 	sub	r2,r2,r3
   16794:	e0bfff15 	stw	r2,-4(fp)
   16798:	e0bffe17 	ldw	r2,-8(fp)
   1679c:	10800044 	addi	r2,r2,1
   167a0:	e0bffe15 	stw	r2,-8(fp)
   167a4:	e0fffe17 	ldw	r3,-8(fp)
   167a8:	e0bffd17 	ldw	r2,-12(fp)
   167ac:	18bfe716 	blt	r3,r2,1674c <alt_busy_sleep+0x6c>
   167b0:	e0fffc17 	ldw	r3,-16(fp)
   167b4:	008003f4 	movhi	r2,15
   167b8:	10909004 	addi	r2,r2,16960
   167bc:	188b383a 	mul	r5,r3,r2
   167c0:	01017db4 	movhi	r4,1526
   167c4:	21384004 	addi	r4,r4,-7936
   167c8:	00051b00 	call	51b0 <__udivsi3>
   167cc:	1007883a 	mov	r3,r2
   167d0:	e0bfff17 	ldw	r2,-4(fp)
   167d4:	1885383a 	mul	r2,r3,r2
   167d8:	10bfffc4 	addi	r2,r2,-1
   167dc:	103ffe1e 	bne	r2,zero,167d8 <alt_busy_sleep+0xf8>
   167e0:	00000c06 	br	16814 <alt_busy_sleep+0x134>
   167e4:	e0fffc17 	ldw	r3,-16(fp)
   167e8:	008003f4 	movhi	r2,15
   167ec:	10909004 	addi	r2,r2,16960
   167f0:	188b383a 	mul	r5,r3,r2
   167f4:	01017db4 	movhi	r4,1526
   167f8:	21384004 	addi	r4,r4,-7936
   167fc:	00051b00 	call	51b0 <__udivsi3>
   16800:	1007883a 	mov	r3,r2
   16804:	e0bfff17 	ldw	r2,-4(fp)
   16808:	1885383a 	mul	r2,r3,r2
   1680c:	10bfffc4 	addi	r2,r2,-1
   16810:	00bffe16 	blt	zero,r2,1680c <alt_busy_sleep+0x12c>
   16814:	0005883a 	mov	r2,zero
   16818:	e037883a 	mov	sp,fp
   1681c:	dfc00117 	ldw	ra,4(sp)
   16820:	df000017 	ldw	fp,0(sp)
   16824:	dec00204 	addi	sp,sp,8
   16828:	f800283a 	ret

0001682c <alt_dcache_flush_all>:
   1682c:	defffe04 	addi	sp,sp,-8
   16830:	df000115 	stw	fp,4(sp)
   16834:	df000104 	addi	fp,sp,4
   16838:	e03fff15 	stw	zero,-4(fp)
   1683c:	00000506 	br	16854 <alt_dcache_flush_all+0x28>
   16840:	e0bfff17 	ldw	r2,-4(fp)
   16844:	1000003b 	flushd	0(r2)
   16848:	e0bfff17 	ldw	r2,-4(fp)
   1684c:	10800804 	addi	r2,r2,32
   16850:	e0bfff15 	stw	r2,-4(fp)
   16854:	e0bfff17 	ldw	r2,-4(fp)
   16858:	10820030 	cmpltui	r2,r2,2048
   1685c:	103ff81e 	bne	r2,zero,16840 <alt_dcache_flush_all+0x14>
   16860:	e037883a 	mov	sp,fp
   16864:	df000017 	ldw	fp,0(sp)
   16868:	dec00104 	addi	sp,sp,4
   1686c:	f800283a 	ret

00016870 <alt_dev_llist_insert>:
   16870:	defff904 	addi	sp,sp,-28
   16874:	dfc00615 	stw	ra,24(sp)
   16878:	df000515 	stw	fp,20(sp)
   1687c:	df000504 	addi	fp,sp,20
   16880:	e13ffd15 	stw	r4,-12(fp)
   16884:	e17ffe15 	stw	r5,-8(fp)
   16888:	e0bffd17 	ldw	r2,-12(fp)
   1688c:	1005003a 	cmpeq	r2,r2,zero
   16890:	1000041e 	bne	r2,zero,168a4 <alt_dev_llist_insert+0x34>
   16894:	e0bffd17 	ldw	r2,-12(fp)
   16898:	10800217 	ldw	r2,8(r2)
   1689c:	1004c03a 	cmpne	r2,r2,zero
   168a0:	1000071e 	bne	r2,zero,168c0 <alt_dev_llist_insert+0x50>
   168a4:	00169240 	call	16924 <alt_get_errno>
   168a8:	1007883a 	mov	r3,r2
   168ac:	00800584 	movi	r2,22
   168b0:	18800015 	stw	r2,0(r3)
   168b4:	00bffa84 	movi	r2,-22
   168b8:	e0bfff15 	stw	r2,-4(fp)
   168bc:	00001306 	br	1690c <alt_dev_llist_insert+0x9c>
   168c0:	e0fffd17 	ldw	r3,-12(fp)
   168c4:	e0bffe17 	ldw	r2,-8(fp)
   168c8:	e0bffb15 	stw	r2,-20(fp)
   168cc:	e0fffc15 	stw	r3,-16(fp)
   168d0:	e0fffc17 	ldw	r3,-16(fp)
   168d4:	e0bffb17 	ldw	r2,-20(fp)
   168d8:	18800115 	stw	r2,4(r3)
   168dc:	e0bffb17 	ldw	r2,-20(fp)
   168e0:	10c00017 	ldw	r3,0(r2)
   168e4:	e0bffc17 	ldw	r2,-16(fp)
   168e8:	10c00015 	stw	r3,0(r2)
   168ec:	e0bffb17 	ldw	r2,-20(fp)
   168f0:	10c00017 	ldw	r3,0(r2)
   168f4:	e0bffc17 	ldw	r2,-16(fp)
   168f8:	18800115 	stw	r2,4(r3)
   168fc:	e0fffb17 	ldw	r3,-20(fp)
   16900:	e0bffc17 	ldw	r2,-16(fp)
   16904:	18800015 	stw	r2,0(r3)
   16908:	e03fff15 	stw	zero,-4(fp)
   1690c:	e0bfff17 	ldw	r2,-4(fp)
   16910:	e037883a 	mov	sp,fp
   16914:	dfc00117 	ldw	ra,4(sp)
   16918:	df000017 	ldw	fp,0(sp)
   1691c:	dec00204 	addi	sp,sp,8
   16920:	f800283a 	ret

00016924 <alt_get_errno>:
   16924:	defffd04 	addi	sp,sp,-12
   16928:	dfc00215 	stw	ra,8(sp)
   1692c:	df000115 	stw	fp,4(sp)
   16930:	df000104 	addi	fp,sp,4
   16934:	008000b4 	movhi	r2,2
   16938:	10a92004 	addi	r2,r2,-23424
   1693c:	10800017 	ldw	r2,0(r2)
   16940:	1005003a 	cmpeq	r2,r2,zero
   16944:	1000061e 	bne	r2,zero,16960 <alt_get_errno+0x3c>
   16948:	008000b4 	movhi	r2,2
   1694c:	10a92004 	addi	r2,r2,-23424
   16950:	10800017 	ldw	r2,0(r2)
   16954:	103ee83a 	callr	r2
   16958:	e0bfff15 	stw	r2,-4(fp)
   1695c:	00000306 	br	1696c <alt_get_errno+0x48>
   16960:	008000b4 	movhi	r2,2
   16964:	10b02004 	addi	r2,r2,-16256
   16968:	e0bfff15 	stw	r2,-4(fp)
   1696c:	e0bfff17 	ldw	r2,-4(fp)
   16970:	e037883a 	mov	sp,fp
   16974:	dfc00117 	ldw	ra,4(sp)
   16978:	df000017 	ldw	fp,0(sp)
   1697c:	dec00204 	addi	sp,sp,8
   16980:	f800283a 	ret

00016984 <_do_ctors>:
   16984:	defffd04 	addi	sp,sp,-12
   16988:	dfc00215 	stw	ra,8(sp)
   1698c:	df000115 	stw	fp,4(sp)
   16990:	df000104 	addi	fp,sp,4
   16994:	00bfff04 	movi	r2,-4
   16998:	00c00074 	movhi	r3,1
   1699c:	18de3704 	addi	r3,r3,30940
   169a0:	1885883a 	add	r2,r3,r2
   169a4:	e0bfff15 	stw	r2,-4(fp)
   169a8:	00000606 	br	169c4 <_do_ctors+0x40>
   169ac:	e0bfff17 	ldw	r2,-4(fp)
   169b0:	10800017 	ldw	r2,0(r2)
   169b4:	103ee83a 	callr	r2
   169b8:	e0bfff17 	ldw	r2,-4(fp)
   169bc:	10bfff04 	addi	r2,r2,-4
   169c0:	e0bfff15 	stw	r2,-4(fp)
   169c4:	e0ffff17 	ldw	r3,-4(fp)
   169c8:	00800074 	movhi	r2,1
   169cc:	109e3604 	addi	r2,r2,30936
   169d0:	18bff62e 	bgeu	r3,r2,169ac <_do_ctors+0x28>
   169d4:	e037883a 	mov	sp,fp
   169d8:	dfc00117 	ldw	ra,4(sp)
   169dc:	df000017 	ldw	fp,0(sp)
   169e0:	dec00204 	addi	sp,sp,8
   169e4:	f800283a 	ret

000169e8 <_do_dtors>:
   169e8:	defffd04 	addi	sp,sp,-12
   169ec:	dfc00215 	stw	ra,8(sp)
   169f0:	df000115 	stw	fp,4(sp)
   169f4:	df000104 	addi	fp,sp,4
   169f8:	00bfff04 	movi	r2,-4
   169fc:	00c00074 	movhi	r3,1
   16a00:	18de3704 	addi	r3,r3,30940
   16a04:	1885883a 	add	r2,r3,r2
   16a08:	e0bfff15 	stw	r2,-4(fp)
   16a0c:	00000606 	br	16a28 <_do_dtors+0x40>
   16a10:	e0bfff17 	ldw	r2,-4(fp)
   16a14:	10800017 	ldw	r2,0(r2)
   16a18:	103ee83a 	callr	r2
   16a1c:	e0bfff17 	ldw	r2,-4(fp)
   16a20:	10bfff04 	addi	r2,r2,-4
   16a24:	e0bfff15 	stw	r2,-4(fp)
   16a28:	e0ffff17 	ldw	r3,-4(fp)
   16a2c:	00800074 	movhi	r2,1
   16a30:	109e3704 	addi	r2,r2,30940
   16a34:	18bff62e 	bgeu	r3,r2,16a10 <_do_dtors+0x28>
   16a38:	e037883a 	mov	sp,fp
   16a3c:	dfc00117 	ldw	ra,4(sp)
   16a40:	df000017 	ldw	fp,0(sp)
   16a44:	dec00204 	addi	sp,sp,8
   16a48:	f800283a 	ret

00016a4c <alt_icache_flush_all>:
   16a4c:	defffe04 	addi	sp,sp,-8
   16a50:	dfc00115 	stw	ra,4(sp)
   16a54:	df000015 	stw	fp,0(sp)
   16a58:	d839883a 	mov	fp,sp
   16a5c:	0009883a 	mov	r4,zero
   16a60:	01440004 	movi	r5,4096
   16a64:	00173d40 	call	173d4 <alt_icache_flush>
   16a68:	e037883a 	mov	sp,fp
   16a6c:	dfc00117 	ldw	ra,4(sp)
   16a70:	df000017 	ldw	fp,0(sp)
   16a74:	dec00204 	addi	sp,sp,8
   16a78:	f800283a 	ret

00016a7c <alt_ic_isr_register>:
   16a7c:	defff904 	addi	sp,sp,-28
   16a80:	dfc00615 	stw	ra,24(sp)
   16a84:	df000515 	stw	fp,20(sp)
   16a88:	df000504 	addi	fp,sp,20
   16a8c:	e13ffc15 	stw	r4,-16(fp)
   16a90:	e17ffd15 	stw	r5,-12(fp)
   16a94:	e1bffe15 	stw	r6,-8(fp)
   16a98:	e1ffff15 	stw	r7,-4(fp)
   16a9c:	e0800217 	ldw	r2,8(fp)
   16aa0:	d8800015 	stw	r2,0(sp)
   16aa4:	e13ffc17 	ldw	r4,-16(fp)
   16aa8:	e17ffd17 	ldw	r5,-12(fp)
   16aac:	e1bffe17 	ldw	r6,-8(fp)
   16ab0:	e1ffff17 	ldw	r7,-4(fp)
   16ab4:	0016c500 	call	16c50 <alt_iic_isr_register>
   16ab8:	e037883a 	mov	sp,fp
   16abc:	dfc00117 	ldw	ra,4(sp)
   16ac0:	df000017 	ldw	fp,0(sp)
   16ac4:	dec00204 	addi	sp,sp,8
   16ac8:	f800283a 	ret

00016acc <alt_ic_irq_enable>:
   16acc:	defff904 	addi	sp,sp,-28
   16ad0:	df000615 	stw	fp,24(sp)
   16ad4:	df000604 	addi	fp,sp,24
   16ad8:	e13ffe15 	stw	r4,-8(fp)
   16adc:	e17fff15 	stw	r5,-4(fp)
   16ae0:	e0bfff17 	ldw	r2,-4(fp)
   16ae4:	e0bffc15 	stw	r2,-16(fp)
   16ae8:	0005303a 	rdctl	r2,status
   16aec:	e0bffb15 	stw	r2,-20(fp)
   16af0:	e0fffb17 	ldw	r3,-20(fp)
   16af4:	00bfff84 	movi	r2,-2
   16af8:	1884703a 	and	r2,r3,r2
   16afc:	1001703a 	wrctl	status,r2
   16b00:	e0bffb17 	ldw	r2,-20(fp)
   16b04:	e0bffd15 	stw	r2,-12(fp)
   16b08:	e0fffc17 	ldw	r3,-16(fp)
   16b0c:	00800044 	movi	r2,1
   16b10:	10c4983a 	sll	r2,r2,r3
   16b14:	1007883a 	mov	r3,r2
   16b18:	008000b4 	movhi	r2,2
   16b1c:	10b02a04 	addi	r2,r2,-16216
   16b20:	10800017 	ldw	r2,0(r2)
   16b24:	1886b03a 	or	r3,r3,r2
   16b28:	008000b4 	movhi	r2,2
   16b2c:	10b02a04 	addi	r2,r2,-16216
   16b30:	10c00015 	stw	r3,0(r2)
   16b34:	008000b4 	movhi	r2,2
   16b38:	10b02a04 	addi	r2,r2,-16216
   16b3c:	10800017 	ldw	r2,0(r2)
   16b40:	100170fa 	wrctl	ienable,r2
   16b44:	e0bffd17 	ldw	r2,-12(fp)
   16b48:	e0bffa15 	stw	r2,-24(fp)
   16b4c:	e0bffa17 	ldw	r2,-24(fp)
   16b50:	1001703a 	wrctl	status,r2
   16b54:	0005883a 	mov	r2,zero
   16b58:	e037883a 	mov	sp,fp
   16b5c:	df000017 	ldw	fp,0(sp)
   16b60:	dec00104 	addi	sp,sp,4
   16b64:	f800283a 	ret

00016b68 <alt_ic_irq_disable>:
   16b68:	defff904 	addi	sp,sp,-28
   16b6c:	df000615 	stw	fp,24(sp)
   16b70:	df000604 	addi	fp,sp,24
   16b74:	e13ffe15 	stw	r4,-8(fp)
   16b78:	e17fff15 	stw	r5,-4(fp)
   16b7c:	e0bfff17 	ldw	r2,-4(fp)
   16b80:	e0bffc15 	stw	r2,-16(fp)
   16b84:	0005303a 	rdctl	r2,status
   16b88:	e0bffb15 	stw	r2,-20(fp)
   16b8c:	e0fffb17 	ldw	r3,-20(fp)
   16b90:	00bfff84 	movi	r2,-2
   16b94:	1884703a 	and	r2,r3,r2
   16b98:	1001703a 	wrctl	status,r2
   16b9c:	e0bffb17 	ldw	r2,-20(fp)
   16ba0:	e0bffd15 	stw	r2,-12(fp)
   16ba4:	e0fffc17 	ldw	r3,-16(fp)
   16ba8:	00800044 	movi	r2,1
   16bac:	10c4983a 	sll	r2,r2,r3
   16bb0:	0084303a 	nor	r2,zero,r2
   16bb4:	1007883a 	mov	r3,r2
   16bb8:	008000b4 	movhi	r2,2
   16bbc:	10b02a04 	addi	r2,r2,-16216
   16bc0:	10800017 	ldw	r2,0(r2)
   16bc4:	1886703a 	and	r3,r3,r2
   16bc8:	008000b4 	movhi	r2,2
   16bcc:	10b02a04 	addi	r2,r2,-16216
   16bd0:	10c00015 	stw	r3,0(r2)
   16bd4:	008000b4 	movhi	r2,2
   16bd8:	10b02a04 	addi	r2,r2,-16216
   16bdc:	10800017 	ldw	r2,0(r2)
   16be0:	100170fa 	wrctl	ienable,r2
   16be4:	e0bffd17 	ldw	r2,-12(fp)
   16be8:	e0bffa15 	stw	r2,-24(fp)
   16bec:	e0bffa17 	ldw	r2,-24(fp)
   16bf0:	1001703a 	wrctl	status,r2
   16bf4:	0005883a 	mov	r2,zero
   16bf8:	e037883a 	mov	sp,fp
   16bfc:	df000017 	ldw	fp,0(sp)
   16c00:	dec00104 	addi	sp,sp,4
   16c04:	f800283a 	ret

00016c08 <alt_ic_irq_enabled>:
   16c08:	defffc04 	addi	sp,sp,-16
   16c0c:	df000315 	stw	fp,12(sp)
   16c10:	df000304 	addi	fp,sp,12
   16c14:	e13ffe15 	stw	r4,-8(fp)
   16c18:	e17fff15 	stw	r5,-4(fp)
   16c1c:	000530fa 	rdctl	r2,ienable
   16c20:	e0bffd15 	stw	r2,-12(fp)
   16c24:	e0ffff17 	ldw	r3,-4(fp)
   16c28:	00800044 	movi	r2,1
   16c2c:	10c4983a 	sll	r2,r2,r3
   16c30:	1007883a 	mov	r3,r2
   16c34:	e0bffd17 	ldw	r2,-12(fp)
   16c38:	1884703a 	and	r2,r3,r2
   16c3c:	1004c03a 	cmpne	r2,r2,zero
   16c40:	e037883a 	mov	sp,fp
   16c44:	df000017 	ldw	fp,0(sp)
   16c48:	dec00104 	addi	sp,sp,4
   16c4c:	f800283a 	ret

00016c50 <alt_iic_isr_register>:
   16c50:	defff404 	addi	sp,sp,-48
   16c54:	dfc00b15 	stw	ra,44(sp)
   16c58:	df000a15 	stw	fp,40(sp)
   16c5c:	df000a04 	addi	fp,sp,40
   16c60:	e13ffb15 	stw	r4,-20(fp)
   16c64:	e17ffc15 	stw	r5,-16(fp)
   16c68:	e1bffd15 	stw	r6,-12(fp)
   16c6c:	e1fffe15 	stw	r7,-8(fp)
   16c70:	00bffa84 	movi	r2,-22
   16c74:	e0bffa15 	stw	r2,-24(fp)
   16c78:	e0bffc17 	ldw	r2,-16(fp)
   16c7c:	e0bff915 	stw	r2,-28(fp)
   16c80:	e0bff917 	ldw	r2,-28(fp)
   16c84:	10800808 	cmpgei	r2,r2,32
   16c88:	1000291e 	bne	r2,zero,16d30 <alt_iic_isr_register+0xe0>
   16c8c:	0005303a 	rdctl	r2,status
   16c90:	e0bff715 	stw	r2,-36(fp)
   16c94:	e0fff717 	ldw	r3,-36(fp)
   16c98:	00bfff84 	movi	r2,-2
   16c9c:	1884703a 	and	r2,r3,r2
   16ca0:	1001703a 	wrctl	status,r2
   16ca4:	e0bff717 	ldw	r2,-36(fp)
   16ca8:	e0bff815 	stw	r2,-32(fp)
   16cac:	e0bff917 	ldw	r2,-28(fp)
   16cb0:	00c000b4 	movhi	r3,2
   16cb4:	18f11d04 	addi	r3,r3,-15244
   16cb8:	100490fa 	slli	r2,r2,3
   16cbc:	10c7883a 	add	r3,r2,r3
   16cc0:	e0bffd17 	ldw	r2,-12(fp)
   16cc4:	18800015 	stw	r2,0(r3)
   16cc8:	e0bff917 	ldw	r2,-28(fp)
   16ccc:	00c000b4 	movhi	r3,2
   16cd0:	18f11d04 	addi	r3,r3,-15244
   16cd4:	100490fa 	slli	r2,r2,3
   16cd8:	10c5883a 	add	r2,r2,r3
   16cdc:	10c00104 	addi	r3,r2,4
   16ce0:	e0bffe17 	ldw	r2,-8(fp)
   16ce4:	18800015 	stw	r2,0(r3)
   16ce8:	e0bffd17 	ldw	r2,-12(fp)
   16cec:	1005003a 	cmpeq	r2,r2,zero
   16cf0:	1000051e 	bne	r2,zero,16d08 <alt_iic_isr_register+0xb8>
   16cf4:	e17ff917 	ldw	r5,-28(fp)
   16cf8:	e13ffb17 	ldw	r4,-20(fp)
   16cfc:	0016acc0 	call	16acc <alt_ic_irq_enable>
   16d00:	e0bfff15 	stw	r2,-4(fp)
   16d04:	00000406 	br	16d18 <alt_iic_isr_register+0xc8>
   16d08:	e17ff917 	ldw	r5,-28(fp)
   16d0c:	e13ffb17 	ldw	r4,-20(fp)
   16d10:	0016b680 	call	16b68 <alt_ic_irq_disable>
   16d14:	e0bfff15 	stw	r2,-4(fp)
   16d18:	e0bfff17 	ldw	r2,-4(fp)
   16d1c:	e0bffa15 	stw	r2,-24(fp)
   16d20:	e0bff817 	ldw	r2,-32(fp)
   16d24:	e0bff615 	stw	r2,-40(fp)
   16d28:	e0bff617 	ldw	r2,-40(fp)
   16d2c:	1001703a 	wrctl	status,r2
   16d30:	e0bffa17 	ldw	r2,-24(fp)
   16d34:	e037883a 	mov	sp,fp
   16d38:	dfc00117 	ldw	ra,4(sp)
   16d3c:	df000017 	ldw	fp,0(sp)
   16d40:	dec00204 	addi	sp,sp,8
   16d44:	f800283a 	ret

00016d48 <alt_open_fd>:
   16d48:	defff904 	addi	sp,sp,-28
   16d4c:	dfc00615 	stw	ra,24(sp)
   16d50:	df000515 	stw	fp,20(sp)
   16d54:	df000504 	addi	fp,sp,20
   16d58:	e13ffc15 	stw	r4,-16(fp)
   16d5c:	e17ffd15 	stw	r5,-12(fp)
   16d60:	e1bffe15 	stw	r6,-8(fp)
   16d64:	e1ffff15 	stw	r7,-4(fp)
   16d68:	e13ffd17 	ldw	r4,-12(fp)
   16d6c:	e17ffe17 	ldw	r5,-8(fp)
   16d70:	e1bfff17 	ldw	r6,-4(fp)
   16d74:	0016f600 	call	16f60 <open>
   16d78:	e0bffb15 	stw	r2,-20(fp)
   16d7c:	e0bffb17 	ldw	r2,-20(fp)
   16d80:	1004803a 	cmplt	r2,r2,zero
   16d84:	10001c1e 	bne	r2,zero,16df8 <alt_open_fd+0xb0>
   16d88:	e0bffb17 	ldw	r2,-20(fp)
   16d8c:	00c000b4 	movhi	r3,2
   16d90:	18e45404 	addi	r3,r3,-28336
   16d94:	10800324 	muli	r2,r2,12
   16d98:	10c5883a 	add	r2,r2,r3
   16d9c:	10c00017 	ldw	r3,0(r2)
   16da0:	e0bffc17 	ldw	r2,-16(fp)
   16da4:	10c00015 	stw	r3,0(r2)
   16da8:	e0bffb17 	ldw	r2,-20(fp)
   16dac:	00c000b4 	movhi	r3,2
   16db0:	18e45404 	addi	r3,r3,-28336
   16db4:	10800324 	muli	r2,r2,12
   16db8:	10c5883a 	add	r2,r2,r3
   16dbc:	10800104 	addi	r2,r2,4
   16dc0:	10c00017 	ldw	r3,0(r2)
   16dc4:	e0bffc17 	ldw	r2,-16(fp)
   16dc8:	10c00115 	stw	r3,4(r2)
   16dcc:	e0bffb17 	ldw	r2,-20(fp)
   16dd0:	00c000b4 	movhi	r3,2
   16dd4:	18e45404 	addi	r3,r3,-28336
   16dd8:	10800324 	muli	r2,r2,12
   16ddc:	10c5883a 	add	r2,r2,r3
   16de0:	10800204 	addi	r2,r2,8
   16de4:	10c00017 	ldw	r3,0(r2)
   16de8:	e0bffc17 	ldw	r2,-16(fp)
   16dec:	10c00215 	stw	r3,8(r2)
   16df0:	e13ffb17 	ldw	r4,-20(fp)
   16df4:	00145500 	call	14550 <alt_release_fd>
   16df8:	e037883a 	mov	sp,fp
   16dfc:	dfc00117 	ldw	ra,4(sp)
   16e00:	df000017 	ldw	fp,0(sp)
   16e04:	dec00204 	addi	sp,sp,8
   16e08:	f800283a 	ret

00016e0c <alt_io_redirect>:
   16e0c:	defffb04 	addi	sp,sp,-20
   16e10:	dfc00415 	stw	ra,16(sp)
   16e14:	df000315 	stw	fp,12(sp)
   16e18:	df000304 	addi	fp,sp,12
   16e1c:	e13ffd15 	stw	r4,-12(fp)
   16e20:	e17ffe15 	stw	r5,-8(fp)
   16e24:	e1bfff15 	stw	r6,-4(fp)
   16e28:	010000b4 	movhi	r4,2
   16e2c:	21245704 	addi	r4,r4,-28324
   16e30:	e17ffd17 	ldw	r5,-12(fp)
   16e34:	01800044 	movi	r6,1
   16e38:	01c07fc4 	movi	r7,511
   16e3c:	0016d480 	call	16d48 <alt_open_fd>
   16e40:	010000b4 	movhi	r4,2
   16e44:	21245404 	addi	r4,r4,-28336
   16e48:	e17ffe17 	ldw	r5,-8(fp)
   16e4c:	000d883a 	mov	r6,zero
   16e50:	01c07fc4 	movi	r7,511
   16e54:	0016d480 	call	16d48 <alt_open_fd>
   16e58:	010000b4 	movhi	r4,2
   16e5c:	21245a04 	addi	r4,r4,-28312
   16e60:	e17fff17 	ldw	r5,-4(fp)
   16e64:	01800044 	movi	r6,1
   16e68:	01c07fc4 	movi	r7,511
   16e6c:	0016d480 	call	16d48 <alt_open_fd>
   16e70:	e037883a 	mov	sp,fp
   16e74:	dfc00117 	ldw	ra,4(sp)
   16e78:	df000017 	ldw	fp,0(sp)
   16e7c:	dec00204 	addi	sp,sp,8
   16e80:	f800283a 	ret

00016e84 <alt_file_locked>:
   16e84:	defffc04 	addi	sp,sp,-16
   16e88:	df000315 	stw	fp,12(sp)
   16e8c:	df000304 	addi	fp,sp,12
   16e90:	e13ffe15 	stw	r4,-8(fp)
   16e94:	e0bffe17 	ldw	r2,-8(fp)
   16e98:	10800217 	ldw	r2,8(r2)
   16e9c:	10d00034 	orhi	r3,r2,16384
   16ea0:	e0bffe17 	ldw	r2,-8(fp)
   16ea4:	10c00215 	stw	r3,8(r2)
   16ea8:	e03ffd15 	stw	zero,-12(fp)
   16eac:	00002006 	br	16f30 <alt_file_locked+0xac>
   16eb0:	e0bffd17 	ldw	r2,-12(fp)
   16eb4:	00c000b4 	movhi	r3,2
   16eb8:	18e45404 	addi	r3,r3,-28336
   16ebc:	10800324 	muli	r2,r2,12
   16ec0:	10c5883a 	add	r2,r2,r3
   16ec4:	10c00017 	ldw	r3,0(r2)
   16ec8:	e0bffe17 	ldw	r2,-8(fp)
   16ecc:	10800017 	ldw	r2,0(r2)
   16ed0:	1880141e 	bne	r3,r2,16f24 <alt_file_locked+0xa0>
   16ed4:	e0bffd17 	ldw	r2,-12(fp)
   16ed8:	00c000b4 	movhi	r3,2
   16edc:	18e45404 	addi	r3,r3,-28336
   16ee0:	10800324 	muli	r2,r2,12
   16ee4:	10c5883a 	add	r2,r2,r3
   16ee8:	10800204 	addi	r2,r2,8
   16eec:	10800017 	ldw	r2,0(r2)
   16ef0:	1004403a 	cmpge	r2,r2,zero
   16ef4:	10000b1e 	bne	r2,zero,16f24 <alt_file_locked+0xa0>
   16ef8:	e0bffd17 	ldw	r2,-12(fp)
   16efc:	10800324 	muli	r2,r2,12
   16f00:	1007883a 	mov	r3,r2
   16f04:	008000b4 	movhi	r2,2
   16f08:	10a45404 	addi	r2,r2,-28336
   16f0c:	1887883a 	add	r3,r3,r2
   16f10:	e0bffe17 	ldw	r2,-8(fp)
   16f14:	18800326 	beq	r3,r2,16f24 <alt_file_locked+0xa0>
   16f18:	00bffcc4 	movi	r2,-13
   16f1c:	e0bfff15 	stw	r2,-4(fp)
   16f20:	00000a06 	br	16f4c <alt_file_locked+0xc8>
   16f24:	e0bffd17 	ldw	r2,-12(fp)
   16f28:	10800044 	addi	r2,r2,1
   16f2c:	e0bffd15 	stw	r2,-12(fp)
   16f30:	008000b4 	movhi	r2,2
   16f34:	10a91f04 	addi	r2,r2,-23428
   16f38:	10800017 	ldw	r2,0(r2)
   16f3c:	1007883a 	mov	r3,r2
   16f40:	e0bffd17 	ldw	r2,-12(fp)
   16f44:	18bfda2e 	bgeu	r3,r2,16eb0 <alt_file_locked+0x2c>
   16f48:	e03fff15 	stw	zero,-4(fp)
   16f4c:	e0bfff17 	ldw	r2,-4(fp)
   16f50:	e037883a 	mov	sp,fp
   16f54:	df000017 	ldw	fp,0(sp)
   16f58:	dec00104 	addi	sp,sp,4
   16f5c:	f800283a 	ret

00016f60 <open>:
   16f60:	defff404 	addi	sp,sp,-48
   16f64:	dfc00b15 	stw	ra,44(sp)
   16f68:	df000a15 	stw	fp,40(sp)
   16f6c:	df000a04 	addi	fp,sp,40
   16f70:	e13ffb15 	stw	r4,-20(fp)
   16f74:	e17ffc15 	stw	r5,-16(fp)
   16f78:	e1bffd15 	stw	r6,-12(fp)
   16f7c:	00bfffc4 	movi	r2,-1
   16f80:	e0bff815 	stw	r2,-32(fp)
   16f84:	00bffb44 	movi	r2,-19
   16f88:	e0bff715 	stw	r2,-36(fp)
   16f8c:	e03ff615 	stw	zero,-40(fp)
   16f90:	e13ffb17 	ldw	r4,-20(fp)
   16f94:	014000b4 	movhi	r5,2
   16f98:	29691d04 	addi	r5,r5,-23436
   16f9c:	00171680 	call	17168 <alt_find_dev>
   16fa0:	e0bffa15 	stw	r2,-24(fp)
   16fa4:	e0bffa17 	ldw	r2,-24(fp)
   16fa8:	1004c03a 	cmpne	r2,r2,zero
   16fac:	1000051e 	bne	r2,zero,16fc4 <open+0x64>
   16fb0:	e13ffb17 	ldw	r4,-20(fp)
   16fb4:	00171fc0 	call	171fc <alt_find_file>
   16fb8:	e0bffa15 	stw	r2,-24(fp)
   16fbc:	00800044 	movi	r2,1
   16fc0:	e0bff615 	stw	r2,-40(fp)
   16fc4:	e0bffa17 	ldw	r2,-24(fp)
   16fc8:	1005003a 	cmpeq	r2,r2,zero
   16fcc:	1000301e 	bne	r2,zero,17090 <open+0x130>
   16fd0:	e13ffa17 	ldw	r4,-24(fp)
   16fd4:	001731c0 	call	1731c <alt_get_fd>
   16fd8:	e0bff815 	stw	r2,-32(fp)
   16fdc:	e0bff817 	ldw	r2,-32(fp)
   16fe0:	1004403a 	cmpge	r2,r2,zero
   16fe4:	1000031e 	bne	r2,zero,16ff4 <open+0x94>
   16fe8:	e0bff817 	ldw	r2,-32(fp)
   16fec:	e0bff715 	stw	r2,-36(fp)
   16ff0:	00002906 	br	17098 <open+0x138>
   16ff4:	e0bff817 	ldw	r2,-32(fp)
   16ff8:	10800324 	muli	r2,r2,12
   16ffc:	1007883a 	mov	r3,r2
   17000:	008000b4 	movhi	r2,2
   17004:	10a45404 	addi	r2,r2,-28336
   17008:	1885883a 	add	r2,r3,r2
   1700c:	e0bff915 	stw	r2,-28(fp)
   17010:	e0fffc17 	ldw	r3,-16(fp)
   17014:	00900034 	movhi	r2,16384
   17018:	10bfffc4 	addi	r2,r2,-1
   1701c:	1886703a 	and	r3,r3,r2
   17020:	e0bff917 	ldw	r2,-28(fp)
   17024:	10c00215 	stw	r3,8(r2)
   17028:	e0bff617 	ldw	r2,-40(fp)
   1702c:	1004c03a 	cmpne	r2,r2,zero
   17030:	1000061e 	bne	r2,zero,1704c <open+0xec>
   17034:	e13ff917 	ldw	r4,-28(fp)
   17038:	0016e840 	call	16e84 <alt_file_locked>
   1703c:	e0bff715 	stw	r2,-36(fp)
   17040:	e0bff717 	ldw	r2,-36(fp)
   17044:	1004803a 	cmplt	r2,r2,zero
   17048:	1000131e 	bne	r2,zero,17098 <open+0x138>
   1704c:	e0bffa17 	ldw	r2,-24(fp)
   17050:	10800317 	ldw	r2,12(r2)
   17054:	1005003a 	cmpeq	r2,r2,zero
   17058:	1000091e 	bne	r2,zero,17080 <open+0x120>
   1705c:	e0bffa17 	ldw	r2,-24(fp)
   17060:	10800317 	ldw	r2,12(r2)
   17064:	e13ff917 	ldw	r4,-28(fp)
   17068:	e17ffb17 	ldw	r5,-20(fp)
   1706c:	e1bffc17 	ldw	r6,-16(fp)
   17070:	e1fffd17 	ldw	r7,-12(fp)
   17074:	103ee83a 	callr	r2
   17078:	e0bfff15 	stw	r2,-4(fp)
   1707c:	00000106 	br	17084 <open+0x124>
   17080:	e03fff15 	stw	zero,-4(fp)
   17084:	e0bfff17 	ldw	r2,-4(fp)
   17088:	e0bff715 	stw	r2,-36(fp)
   1708c:	00000206 	br	17098 <open+0x138>
   17090:	00bffb44 	movi	r2,-19
   17094:	e0bff715 	stw	r2,-36(fp)
   17098:	e0bff717 	ldw	r2,-36(fp)
   1709c:	1004403a 	cmpge	r2,r2,zero
   170a0:	1000091e 	bne	r2,zero,170c8 <open+0x168>
   170a4:	e13ff817 	ldw	r4,-32(fp)
   170a8:	00145500 	call	14550 <alt_release_fd>
   170ac:	00170e80 	call	170e8 <alt_get_errno>
   170b0:	e0fff717 	ldw	r3,-36(fp)
   170b4:	00c7c83a 	sub	r3,zero,r3
   170b8:	10c00015 	stw	r3,0(r2)
   170bc:	00bfffc4 	movi	r2,-1
   170c0:	e0bffe15 	stw	r2,-8(fp)
   170c4:	00000206 	br	170d0 <open+0x170>
   170c8:	e0bff817 	ldw	r2,-32(fp)
   170cc:	e0bffe15 	stw	r2,-8(fp)
   170d0:	e0bffe17 	ldw	r2,-8(fp)
   170d4:	e037883a 	mov	sp,fp
   170d8:	dfc00117 	ldw	ra,4(sp)
   170dc:	df000017 	ldw	fp,0(sp)
   170e0:	dec00204 	addi	sp,sp,8
   170e4:	f800283a 	ret

000170e8 <alt_get_errno>:
   170e8:	defffd04 	addi	sp,sp,-12
   170ec:	dfc00215 	stw	ra,8(sp)
   170f0:	df000115 	stw	fp,4(sp)
   170f4:	df000104 	addi	fp,sp,4
   170f8:	008000b4 	movhi	r2,2
   170fc:	10a92004 	addi	r2,r2,-23424
   17100:	10800017 	ldw	r2,0(r2)
   17104:	1005003a 	cmpeq	r2,r2,zero
   17108:	1000061e 	bne	r2,zero,17124 <alt_get_errno+0x3c>
   1710c:	008000b4 	movhi	r2,2
   17110:	10a92004 	addi	r2,r2,-23424
   17114:	10800017 	ldw	r2,0(r2)
   17118:	103ee83a 	callr	r2
   1711c:	e0bfff15 	stw	r2,-4(fp)
   17120:	00000306 	br	17130 <alt_get_errno+0x48>
   17124:	008000b4 	movhi	r2,2
   17128:	10b02004 	addi	r2,r2,-16256
   1712c:	e0bfff15 	stw	r2,-4(fp)
   17130:	e0bfff17 	ldw	r2,-4(fp)
   17134:	e037883a 	mov	sp,fp
   17138:	dfc00117 	ldw	ra,4(sp)
   1713c:	df000017 	ldw	fp,0(sp)
   17140:	dec00204 	addi	sp,sp,8
   17144:	f800283a 	ret

00017148 <altera_nios2_qsys_irq_init>:
   17148:	deffff04 	addi	sp,sp,-4
   1714c:	df000015 	stw	fp,0(sp)
   17150:	d839883a 	mov	fp,sp
   17154:	000170fa 	wrctl	ienable,zero
   17158:	e037883a 	mov	sp,fp
   1715c:	df000017 	ldw	fp,0(sp)
   17160:	dec00104 	addi	sp,sp,4
   17164:	f800283a 	ret

00017168 <alt_find_dev>:
   17168:	defff904 	addi	sp,sp,-28
   1716c:	dfc00615 	stw	ra,24(sp)
   17170:	df000515 	stw	fp,20(sp)
   17174:	df000504 	addi	fp,sp,20
   17178:	e13ffd15 	stw	r4,-12(fp)
   1717c:	e17ffe15 	stw	r5,-8(fp)
   17180:	e0bffe17 	ldw	r2,-8(fp)
   17184:	10800017 	ldw	r2,0(r2)
   17188:	e0bffc15 	stw	r2,-16(fp)
   1718c:	e13ffd17 	ldw	r4,-12(fp)
   17190:	00056fc0 	call	56fc <strlen>
   17194:	10800044 	addi	r2,r2,1
   17198:	e0bffb15 	stw	r2,-20(fp)
   1719c:	00000d06 	br	171d4 <alt_find_dev+0x6c>
   171a0:	e0bffc17 	ldw	r2,-16(fp)
   171a4:	11000217 	ldw	r4,8(r2)
   171a8:	e1bffb17 	ldw	r6,-20(fp)
   171ac:	e17ffd17 	ldw	r5,-12(fp)
   171b0:	00174b00 	call	174b0 <memcmp>
   171b4:	1004c03a 	cmpne	r2,r2,zero
   171b8:	1000031e 	bne	r2,zero,171c8 <alt_find_dev+0x60>
   171bc:	e0bffc17 	ldw	r2,-16(fp)
   171c0:	e0bfff15 	stw	r2,-4(fp)
   171c4:	00000706 	br	171e4 <alt_find_dev+0x7c>
   171c8:	e0bffc17 	ldw	r2,-16(fp)
   171cc:	10800017 	ldw	r2,0(r2)
   171d0:	e0bffc15 	stw	r2,-16(fp)
   171d4:	e0fffe17 	ldw	r3,-8(fp)
   171d8:	e0bffc17 	ldw	r2,-16(fp)
   171dc:	10fff01e 	bne	r2,r3,171a0 <alt_find_dev+0x38>
   171e0:	e03fff15 	stw	zero,-4(fp)
   171e4:	e0bfff17 	ldw	r2,-4(fp)
   171e8:	e037883a 	mov	sp,fp
   171ec:	dfc00117 	ldw	ra,4(sp)
   171f0:	df000017 	ldw	fp,0(sp)
   171f4:	dec00204 	addi	sp,sp,8
   171f8:	f800283a 	ret

000171fc <alt_find_file>:
   171fc:	defffa04 	addi	sp,sp,-24
   17200:	dfc00515 	stw	ra,20(sp)
   17204:	df000415 	stw	fp,16(sp)
   17208:	df000404 	addi	fp,sp,16
   1720c:	e13ffe15 	stw	r4,-8(fp)
   17210:	008000b4 	movhi	r2,2
   17214:	10a91b04 	addi	r2,r2,-23444
   17218:	10800017 	ldw	r2,0(r2)
   1721c:	e0bffd15 	stw	r2,-12(fp)
   17220:	00003306 	br	172f0 <alt_find_file+0xf4>
   17224:	e0bffd17 	ldw	r2,-12(fp)
   17228:	11000217 	ldw	r4,8(r2)
   1722c:	00056fc0 	call	56fc <strlen>
   17230:	e0bffc15 	stw	r2,-16(fp)
   17234:	e0bffd17 	ldw	r2,-12(fp)
   17238:	10c00217 	ldw	r3,8(r2)
   1723c:	e0bffc17 	ldw	r2,-16(fp)
   17240:	1885883a 	add	r2,r3,r2
   17244:	10bfffc4 	addi	r2,r2,-1
   17248:	10800003 	ldbu	r2,0(r2)
   1724c:	10803fcc 	andi	r2,r2,255
   17250:	1080201c 	xori	r2,r2,128
   17254:	10bfe004 	addi	r2,r2,-128
   17258:	10800bd8 	cmpnei	r2,r2,47
   1725c:	1000031e 	bne	r2,zero,1726c <alt_find_file+0x70>
   17260:	e0bffc17 	ldw	r2,-16(fp)
   17264:	10bfffc4 	addi	r2,r2,-1
   17268:	e0bffc15 	stw	r2,-16(fp)
   1726c:	e0bffc17 	ldw	r2,-16(fp)
   17270:	1007883a 	mov	r3,r2
   17274:	e0bffe17 	ldw	r2,-8(fp)
   17278:	1885883a 	add	r2,r3,r2
   1727c:	10800003 	ldbu	r2,0(r2)
   17280:	10803fcc 	andi	r2,r2,255
   17284:	1080201c 	xori	r2,r2,128
   17288:	10bfe004 	addi	r2,r2,-128
   1728c:	10800be0 	cmpeqi	r2,r2,47
   17290:	10000a1e 	bne	r2,zero,172bc <alt_find_file+0xc0>
   17294:	e0bffc17 	ldw	r2,-16(fp)
   17298:	1007883a 	mov	r3,r2
   1729c:	e0bffe17 	ldw	r2,-8(fp)
   172a0:	1885883a 	add	r2,r3,r2
   172a4:	10800003 	ldbu	r2,0(r2)
   172a8:	10803fcc 	andi	r2,r2,255
   172ac:	1080201c 	xori	r2,r2,128
   172b0:	10bfe004 	addi	r2,r2,-128
   172b4:	1004c03a 	cmpne	r2,r2,zero
   172b8:	10000a1e 	bne	r2,zero,172e4 <alt_find_file+0xe8>
   172bc:	e0bffd17 	ldw	r2,-12(fp)
   172c0:	11000217 	ldw	r4,8(r2)
   172c4:	e1bffc17 	ldw	r6,-16(fp)
   172c8:	e17ffe17 	ldw	r5,-8(fp)
   172cc:	00174b00 	call	174b0 <memcmp>
   172d0:	1004c03a 	cmpne	r2,r2,zero
   172d4:	1000031e 	bne	r2,zero,172e4 <alt_find_file+0xe8>
   172d8:	e0bffd17 	ldw	r2,-12(fp)
   172dc:	e0bfff15 	stw	r2,-4(fp)
   172e0:	00000806 	br	17304 <alt_find_file+0x108>
   172e4:	e0bffd17 	ldw	r2,-12(fp)
   172e8:	10800017 	ldw	r2,0(r2)
   172ec:	e0bffd15 	stw	r2,-12(fp)
   172f0:	00c000b4 	movhi	r3,2
   172f4:	18e91b04 	addi	r3,r3,-23444
   172f8:	e0bffd17 	ldw	r2,-12(fp)
   172fc:	10ffc91e 	bne	r2,r3,17224 <alt_find_file+0x28>
   17300:	e03fff15 	stw	zero,-4(fp)
   17304:	e0bfff17 	ldw	r2,-4(fp)
   17308:	e037883a 	mov	sp,fp
   1730c:	dfc00117 	ldw	ra,4(sp)
   17310:	df000017 	ldw	fp,0(sp)
   17314:	dec00204 	addi	sp,sp,8
   17318:	f800283a 	ret

0001731c <alt_get_fd>:
   1731c:	defffc04 	addi	sp,sp,-16
   17320:	df000315 	stw	fp,12(sp)
   17324:	df000304 	addi	fp,sp,12
   17328:	e13fff15 	stw	r4,-4(fp)
   1732c:	00bffa04 	movi	r2,-24
   17330:	e0bffd15 	stw	r2,-12(fp)
   17334:	e03ffe15 	stw	zero,-8(fp)
   17338:	00001e06 	br	173b4 <alt_get_fd+0x98>
   1733c:	e0bffe17 	ldw	r2,-8(fp)
   17340:	00c000b4 	movhi	r3,2
   17344:	18e45404 	addi	r3,r3,-28336
   17348:	10800324 	muli	r2,r2,12
   1734c:	10c5883a 	add	r2,r2,r3
   17350:	10800017 	ldw	r2,0(r2)
   17354:	1004c03a 	cmpne	r2,r2,zero
   17358:	1000131e 	bne	r2,zero,173a8 <alt_get_fd+0x8c>
   1735c:	e0bffe17 	ldw	r2,-8(fp)
   17360:	00c000b4 	movhi	r3,2
   17364:	18e45404 	addi	r3,r3,-28336
   17368:	10800324 	muli	r2,r2,12
   1736c:	10c7883a 	add	r3,r2,r3
   17370:	e0bfff17 	ldw	r2,-4(fp)
   17374:	18800015 	stw	r2,0(r3)
   17378:	008000b4 	movhi	r2,2
   1737c:	10a91f04 	addi	r2,r2,-23428
   17380:	10c00017 	ldw	r3,0(r2)
   17384:	e0bffe17 	ldw	r2,-8(fp)
   17388:	1880040e 	bge	r3,r2,1739c <alt_get_fd+0x80>
   1738c:	00c000b4 	movhi	r3,2
   17390:	18e91f04 	addi	r3,r3,-23428
   17394:	e0bffe17 	ldw	r2,-8(fp)
   17398:	18800015 	stw	r2,0(r3)
   1739c:	e0bffe17 	ldw	r2,-8(fp)
   173a0:	e0bffd15 	stw	r2,-12(fp)
   173a4:	00000606 	br	173c0 <alt_get_fd+0xa4>
   173a8:	e0bffe17 	ldw	r2,-8(fp)
   173ac:	10800044 	addi	r2,r2,1
   173b0:	e0bffe15 	stw	r2,-8(fp)
   173b4:	e0bffe17 	ldw	r2,-8(fp)
   173b8:	10800810 	cmplti	r2,r2,32
   173bc:	103fdf1e 	bne	r2,zero,1733c <alt_get_fd+0x20>
   173c0:	e0bffd17 	ldw	r2,-12(fp)
   173c4:	e037883a 	mov	sp,fp
   173c8:	df000017 	ldw	fp,0(sp)
   173cc:	dec00104 	addi	sp,sp,4
   173d0:	f800283a 	ret

000173d4 <alt_icache_flush>:
   173d4:	defffb04 	addi	sp,sp,-20
   173d8:	df000415 	stw	fp,16(sp)
   173dc:	df000404 	addi	fp,sp,16
   173e0:	e13ffe15 	stw	r4,-8(fp)
   173e4:	e17fff15 	stw	r5,-4(fp)
   173e8:	e0bfff17 	ldw	r2,-4(fp)
   173ec:	10840070 	cmpltui	r2,r2,4097
   173f0:	1000021e 	bne	r2,zero,173fc <alt_icache_flush+0x28>
   173f4:	00840004 	movi	r2,4096
   173f8:	e0bfff15 	stw	r2,-4(fp)
   173fc:	e0fffe17 	ldw	r3,-8(fp)
   17400:	e0bfff17 	ldw	r2,-4(fp)
   17404:	1885883a 	add	r2,r3,r2
   17408:	e0bffc15 	stw	r2,-16(fp)
   1740c:	e0bffe17 	ldw	r2,-8(fp)
   17410:	e0bffd15 	stw	r2,-12(fp)
   17414:	00000506 	br	1742c <alt_icache_flush+0x58>
   17418:	e0bffd17 	ldw	r2,-12(fp)
   1741c:	1000603a 	flushi	r2
   17420:	e0bffd17 	ldw	r2,-12(fp)
   17424:	10800804 	addi	r2,r2,32
   17428:	e0bffd15 	stw	r2,-12(fp)
   1742c:	e0fffd17 	ldw	r3,-12(fp)
   17430:	e0bffc17 	ldw	r2,-16(fp)
   17434:	18bff836 	bltu	r3,r2,17418 <alt_icache_flush+0x44>
   17438:	e0bffe17 	ldw	r2,-8(fp)
   1743c:	108007cc 	andi	r2,r2,31
   17440:	1005003a 	cmpeq	r2,r2,zero
   17444:	1000021e 	bne	r2,zero,17450 <alt_icache_flush+0x7c>
   17448:	e0bffd17 	ldw	r2,-12(fp)
   1744c:	1000603a 	flushi	r2
   17450:	0000203a 	flushp
   17454:	e037883a 	mov	sp,fp
   17458:	df000017 	ldw	fp,0(sp)
   1745c:	dec00104 	addi	sp,sp,4
   17460:	f800283a 	ret

00017464 <atexit>:
   17464:	200b883a 	mov	r5,r4
   17468:	000d883a 	mov	r6,zero
   1746c:	0009883a 	mov	r4,zero
   17470:	000f883a 	mov	r7,zero
   17474:	00175241 	jmpi	17524 <__register_exitproc>

00017478 <exit>:
   17478:	defffe04 	addi	sp,sp,-8
   1747c:	000b883a 	mov	r5,zero
   17480:	dc000015 	stw	r16,0(sp)
   17484:	dfc00115 	stw	ra,4(sp)
   17488:	2021883a 	mov	r16,r4
   1748c:	001765c0 	call	1765c <__call_exitprocs>
   17490:	008000b4 	movhi	r2,2
   17494:	10a91604 	addi	r2,r2,-23464
   17498:	11000017 	ldw	r4,0(r2)
   1749c:	20800f17 	ldw	r2,60(r4)
   174a0:	10000126 	beq	r2,zero,174a8 <exit+0x30>
   174a4:	103ee83a 	callr	r2
   174a8:	8009883a 	mov	r4,r16
   174ac:	001784c0 	call	1784c <_exit>

000174b0 <memcmp>:
   174b0:	00c000c4 	movi	r3,3
   174b4:	1980032e 	bgeu	r3,r6,174c4 <memcmp+0x14>
   174b8:	2144b03a 	or	r2,r4,r5
   174bc:	10c4703a 	and	r2,r2,r3
   174c0:	10000f26 	beq	r2,zero,17500 <memcmp+0x50>
   174c4:	31ffffc4 	addi	r7,r6,-1
   174c8:	3000061e 	bne	r6,zero,174e4 <memcmp+0x34>
   174cc:	00000a06 	br	174f8 <memcmp+0x48>
   174d0:	39ffffc4 	addi	r7,r7,-1
   174d4:	00bfffc4 	movi	r2,-1
   174d8:	21000044 	addi	r4,r4,1
   174dc:	29400044 	addi	r5,r5,1
   174e0:	38800526 	beq	r7,r2,174f8 <memcmp+0x48>
   174e4:	20c00003 	ldbu	r3,0(r4)
   174e8:	28800003 	ldbu	r2,0(r5)
   174ec:	18bff826 	beq	r3,r2,174d0 <memcmp+0x20>
   174f0:	1885c83a 	sub	r2,r3,r2
   174f4:	f800283a 	ret
   174f8:	0005883a 	mov	r2,zero
   174fc:	f800283a 	ret
   17500:	180f883a 	mov	r7,r3
   17504:	20c00017 	ldw	r3,0(r4)
   17508:	28800017 	ldw	r2,0(r5)
   1750c:	18bfed1e 	bne	r3,r2,174c4 <memcmp+0x14>
   17510:	31bfff04 	addi	r6,r6,-4
   17514:	21000104 	addi	r4,r4,4
   17518:	29400104 	addi	r5,r5,4
   1751c:	39bff936 	bltu	r7,r6,17504 <memcmp+0x54>
   17520:	003fe806 	br	174c4 <memcmp+0x14>

00017524 <__register_exitproc>:
   17524:	defffa04 	addi	sp,sp,-24
   17528:	008000b4 	movhi	r2,2
   1752c:	10a91604 	addi	r2,r2,-23464
   17530:	dc000015 	stw	r16,0(sp)
   17534:	14000017 	ldw	r16,0(r2)
   17538:	dd000415 	stw	r20,16(sp)
   1753c:	2829883a 	mov	r20,r5
   17540:	81405217 	ldw	r5,328(r16)
   17544:	dcc00315 	stw	r19,12(sp)
   17548:	dc800215 	stw	r18,8(sp)
   1754c:	dc400115 	stw	r17,4(sp)
   17550:	dfc00515 	stw	ra,20(sp)
   17554:	2023883a 	mov	r17,r4
   17558:	3027883a 	mov	r19,r6
   1755c:	3825883a 	mov	r18,r7
   17560:	28002526 	beq	r5,zero,175f8 <__register_exitproc+0xd4>
   17564:	29000117 	ldw	r4,4(r5)
   17568:	008007c4 	movi	r2,31
   1756c:	11002716 	blt	r2,r4,1760c <__register_exitproc+0xe8>
   17570:	8800101e 	bne	r17,zero,175b4 <__register_exitproc+0x90>
   17574:	2105883a 	add	r2,r4,r4
   17578:	1085883a 	add	r2,r2,r2
   1757c:	20c00044 	addi	r3,r4,1
   17580:	1145883a 	add	r2,r2,r5
   17584:	0009883a 	mov	r4,zero
   17588:	15000215 	stw	r20,8(r2)
   1758c:	28c00115 	stw	r3,4(r5)
   17590:	2005883a 	mov	r2,r4
   17594:	dfc00517 	ldw	ra,20(sp)
   17598:	dd000417 	ldw	r20,16(sp)
   1759c:	dcc00317 	ldw	r19,12(sp)
   175a0:	dc800217 	ldw	r18,8(sp)
   175a4:	dc400117 	ldw	r17,4(sp)
   175a8:	dc000017 	ldw	r16,0(sp)
   175ac:	dec00604 	addi	sp,sp,24
   175b0:	f800283a 	ret
   175b4:	29802204 	addi	r6,r5,136
   175b8:	00800044 	movi	r2,1
   175bc:	110e983a 	sll	r7,r2,r4
   175c0:	30c04017 	ldw	r3,256(r6)
   175c4:	2105883a 	add	r2,r4,r4
   175c8:	1085883a 	add	r2,r2,r2
   175cc:	1185883a 	add	r2,r2,r6
   175d0:	19c6b03a 	or	r3,r3,r7
   175d4:	14802015 	stw	r18,128(r2)
   175d8:	14c00015 	stw	r19,0(r2)
   175dc:	00800084 	movi	r2,2
   175e0:	30c04015 	stw	r3,256(r6)
   175e4:	88bfe31e 	bne	r17,r2,17574 <__register_exitproc+0x50>
   175e8:	30804117 	ldw	r2,260(r6)
   175ec:	11c4b03a 	or	r2,r2,r7
   175f0:	30804115 	stw	r2,260(r6)
   175f4:	003fdf06 	br	17574 <__register_exitproc+0x50>
   175f8:	008000b4 	movhi	r2,2
   175fc:	10b15d04 	addi	r2,r2,-14988
   17600:	100b883a 	mov	r5,r2
   17604:	80805215 	stw	r2,328(r16)
   17608:	003fd606 	br	17564 <__register_exitproc+0x40>
   1760c:	00800034 	movhi	r2,0
   17610:	10800004 	addi	r2,r2,0
   17614:	1000021e 	bne	r2,zero,17620 <__register_exitproc+0xfc>
   17618:	013fffc4 	movi	r4,-1
   1761c:	003fdc06 	br	17590 <__register_exitproc+0x6c>
   17620:	01006404 	movi	r4,400
   17624:	103ee83a 	callr	r2
   17628:	1007883a 	mov	r3,r2
   1762c:	103ffa26 	beq	r2,zero,17618 <__register_exitproc+0xf4>
   17630:	80805217 	ldw	r2,328(r16)
   17634:	180b883a 	mov	r5,r3
   17638:	18000115 	stw	zero,4(r3)
   1763c:	18800015 	stw	r2,0(r3)
   17640:	80c05215 	stw	r3,328(r16)
   17644:	18006215 	stw	zero,392(r3)
   17648:	18006315 	stw	zero,396(r3)
   1764c:	0009883a 	mov	r4,zero
   17650:	883fc826 	beq	r17,zero,17574 <__register_exitproc+0x50>
   17654:	003fd706 	br	175b4 <__register_exitproc+0x90>

00017658 <register_fini>:
   17658:	f800283a 	ret

0001765c <__call_exitprocs>:
   1765c:	008000b4 	movhi	r2,2
   17660:	10a91604 	addi	r2,r2,-23464
   17664:	10800017 	ldw	r2,0(r2)
   17668:	defff304 	addi	sp,sp,-52
   1766c:	df000b15 	stw	fp,44(sp)
   17670:	d8800115 	stw	r2,4(sp)
   17674:	00800034 	movhi	r2,0
   17678:	10800004 	addi	r2,r2,0
   1767c:	1005003a 	cmpeq	r2,r2,zero
   17680:	d8800215 	stw	r2,8(sp)
   17684:	d8800117 	ldw	r2,4(sp)
   17688:	dd400815 	stw	r21,32(sp)
   1768c:	dd000715 	stw	r20,28(sp)
   17690:	10805204 	addi	r2,r2,328
   17694:	dfc00c15 	stw	ra,48(sp)
   17698:	ddc00a15 	stw	r23,40(sp)
   1769c:	dd800915 	stw	r22,36(sp)
   176a0:	dcc00615 	stw	r19,24(sp)
   176a4:	dc800515 	stw	r18,20(sp)
   176a8:	dc400415 	stw	r17,16(sp)
   176ac:	dc000315 	stw	r16,12(sp)
   176b0:	282b883a 	mov	r21,r5
   176b4:	2039883a 	mov	fp,r4
   176b8:	d8800015 	stw	r2,0(sp)
   176bc:	2829003a 	cmpeq	r20,r5,zero
   176c0:	d8800117 	ldw	r2,4(sp)
   176c4:	14405217 	ldw	r17,328(r2)
   176c8:	88001026 	beq	r17,zero,1770c <__call_exitprocs+0xb0>
   176cc:	ddc00017 	ldw	r23,0(sp)
   176d0:	88800117 	ldw	r2,4(r17)
   176d4:	8c802204 	addi	r18,r17,136
   176d8:	143fffc4 	addi	r16,r2,-1
   176dc:	80000916 	blt	r16,zero,17704 <__call_exitprocs+0xa8>
   176e0:	05bfffc4 	movi	r22,-1
   176e4:	a000151e 	bne	r20,zero,1773c <__call_exitprocs+0xe0>
   176e8:	8409883a 	add	r4,r16,r16
   176ec:	2105883a 	add	r2,r4,r4
   176f0:	1485883a 	add	r2,r2,r18
   176f4:	10c02017 	ldw	r3,128(r2)
   176f8:	a8c01126 	beq	r21,r3,17740 <__call_exitprocs+0xe4>
   176fc:	843fffc4 	addi	r16,r16,-1
   17700:	85bff81e 	bne	r16,r22,176e4 <__call_exitprocs+0x88>
   17704:	d8800217 	ldw	r2,8(sp)
   17708:	10003126 	beq	r2,zero,177d0 <__call_exitprocs+0x174>
   1770c:	dfc00c17 	ldw	ra,48(sp)
   17710:	df000b17 	ldw	fp,44(sp)
   17714:	ddc00a17 	ldw	r23,40(sp)
   17718:	dd800917 	ldw	r22,36(sp)
   1771c:	dd400817 	ldw	r21,32(sp)
   17720:	dd000717 	ldw	r20,28(sp)
   17724:	dcc00617 	ldw	r19,24(sp)
   17728:	dc800517 	ldw	r18,20(sp)
   1772c:	dc400417 	ldw	r17,16(sp)
   17730:	dc000317 	ldw	r16,12(sp)
   17734:	dec00d04 	addi	sp,sp,52
   17738:	f800283a 	ret
   1773c:	8409883a 	add	r4,r16,r16
   17740:	88c00117 	ldw	r3,4(r17)
   17744:	2105883a 	add	r2,r4,r4
   17748:	1445883a 	add	r2,r2,r17
   1774c:	18ffffc4 	addi	r3,r3,-1
   17750:	11800217 	ldw	r6,8(r2)
   17754:	1c001526 	beq	r3,r16,177ac <__call_exitprocs+0x150>
   17758:	10000215 	stw	zero,8(r2)
   1775c:	303fe726 	beq	r6,zero,176fc <__call_exitprocs+0xa0>
   17760:	00c00044 	movi	r3,1
   17764:	1c06983a 	sll	r3,r3,r16
   17768:	90804017 	ldw	r2,256(r18)
   1776c:	8cc00117 	ldw	r19,4(r17)
   17770:	1884703a 	and	r2,r3,r2
   17774:	10001426 	beq	r2,zero,177c8 <__call_exitprocs+0x16c>
   17778:	90804117 	ldw	r2,260(r18)
   1777c:	1884703a 	and	r2,r3,r2
   17780:	10000c1e 	bne	r2,zero,177b4 <__call_exitprocs+0x158>
   17784:	2105883a 	add	r2,r4,r4
   17788:	1485883a 	add	r2,r2,r18
   1778c:	11400017 	ldw	r5,0(r2)
   17790:	e009883a 	mov	r4,fp
   17794:	303ee83a 	callr	r6
   17798:	88800117 	ldw	r2,4(r17)
   1779c:	98bfc81e 	bne	r19,r2,176c0 <__call_exitprocs+0x64>
   177a0:	b8800017 	ldw	r2,0(r23)
   177a4:	147fd526 	beq	r2,r17,176fc <__call_exitprocs+0xa0>
   177a8:	003fc506 	br	176c0 <__call_exitprocs+0x64>
   177ac:	8c000115 	stw	r16,4(r17)
   177b0:	003fea06 	br	1775c <__call_exitprocs+0x100>
   177b4:	2105883a 	add	r2,r4,r4
   177b8:	1485883a 	add	r2,r2,r18
   177bc:	11000017 	ldw	r4,0(r2)
   177c0:	303ee83a 	callr	r6
   177c4:	003ff406 	br	17798 <__call_exitprocs+0x13c>
   177c8:	303ee83a 	callr	r6
   177cc:	003ff206 	br	17798 <__call_exitprocs+0x13c>
   177d0:	88800117 	ldw	r2,4(r17)
   177d4:	1000081e 	bne	r2,zero,177f8 <__call_exitprocs+0x19c>
   177d8:	89000017 	ldw	r4,0(r17)
   177dc:	20000726 	beq	r4,zero,177fc <__call_exitprocs+0x1a0>
   177e0:	b9000015 	stw	r4,0(r23)
   177e4:	8809883a 	mov	r4,r17
   177e8:	00000000 	call	0 <__reset>
   177ec:	bc400017 	ldw	r17,0(r23)
   177f0:	883fb71e 	bne	r17,zero,176d0 <__call_exitprocs+0x74>
   177f4:	003fc506 	br	1770c <__call_exitprocs+0xb0>
   177f8:	89000017 	ldw	r4,0(r17)
   177fc:	882f883a 	mov	r23,r17
   17800:	2023883a 	mov	r17,r4
   17804:	883fb21e 	bne	r17,zero,176d0 <__call_exitprocs+0x74>
   17808:	003fc006 	br	1770c <__call_exitprocs+0xb0>

0001780c <alt_sim_halt>:
   1780c:	defffd04 	addi	sp,sp,-12
   17810:	df000215 	stw	fp,8(sp)
   17814:	df000204 	addi	fp,sp,8
   17818:	e13fff15 	stw	r4,-4(fp)
   1781c:	e0bfff17 	ldw	r2,-4(fp)
   17820:	e0bffe15 	stw	r2,-8(fp)
   17824:	e0bffe17 	ldw	r2,-8(fp)
   17828:	1005003a 	cmpeq	r2,r2,zero
   1782c:	1000021e 	bne	r2,zero,17838 <alt_sim_halt+0x2c>
   17830:	002af070 	cmpltui	zero,zero,43969
   17834:	00000106 	br	1783c <alt_sim_halt+0x30>
   17838:	002af0b0 	cmpltui	zero,zero,43970
   1783c:	e037883a 	mov	sp,fp
   17840:	df000017 	ldw	fp,0(sp)
   17844:	dec00104 	addi	sp,sp,4
   17848:	f800283a 	ret

0001784c <_exit>:
   1784c:	defffd04 	addi	sp,sp,-12
   17850:	dfc00215 	stw	ra,8(sp)
   17854:	df000115 	stw	fp,4(sp)
   17858:	df000104 	addi	fp,sp,4
   1785c:	e13fff15 	stw	r4,-4(fp)
   17860:	e13fff17 	ldw	r4,-4(fp)
   17864:	001780c0 	call	1780c <alt_sim_halt>
   17868:	003fff06 	br	17868 <_exit+0x1c>
   1786c:	00000010 	cmplti	zero,zero,0
   17870:	00000000 	call	0 <__reset>
   17874:	00527a01 	jmpi	527a0 <_gp+0x30350>
   17878:	011f7c01 	jmpi	11f7c0 <_gp+0xfd370>
   1787c:	001b0c0b 	ldhu	zero,27696(zero)
   17880:	00000028 	cmpgeui	zero,zero,0
   17884:	00000018 	cmpnei	zero,zero,0
   17888:	000117d0 	cmplti	zero,zero,1119
   1788c:	000005dc 	xori	zero,zero,23
   17890:	400e4400 	call	400e440 <_gp+0x3febff0>
   17894:	92099170 	cmpltui	r8,r18,9797
   17898:	95079308 	cmpgei	r20,r18,7756
   1789c:	97049605 	stb	fp,4696(r18)
   178a0:	90019f03 	ldbu	zero,1660(r18)
   178a4:	9c06940a 	0x9c06940a
   178a8:	00000002 	0x2
   178ac:	00000028 	cmpgeui	zero,zero,0
   178b0:	00000044 	movi	zero,1
   178b4:	00011dac 	andhi	zero,zero,1142
   178b8:	000005b0 	cmpltui	zero,zero,22
   178bc:	3c0e4400 	call	3c0e440 <_gp+0x3bebff0>
   178c0:	92099168 	cmpgeui	r8,r18,9797
   178c4:	95079308 	cmpgei	r20,r18,7756
   178c8:	9c039705 	stb	r16,3676(r19)
   178cc:	90019f02 	0x90019f02
   178d0:	9606940a 	0x9606940a
   178d4:	00000004 	movi	zero,0
   178d8:	00017658 	cmpnei	zero,zero,1497
