
DE2_115_NIOS_HOST_MOUSE_VGA.elf:     file format elf32-littlenios2
DE2_115_NIOS_HOST_MOUSE_VGA.elf
architecture: nios2, flags 0x00000112:
EXEC_P, HAS_SYMS, D_PAGED
start address 0x000001b4

Program Header:
    LOAD off    0x00001000 vaddr 0x00000000 paddr 0x00000000 align 2**12
         filesz 0x00000020 memsz 0x00000020 flags r-x
    LOAD off    0x00001020 vaddr 0x00000020 paddr 0x00000020 align 2**12
         filesz 0x000188bc memsz 0x000188bc flags r-x
    LOAD off    0x000198dc vaddr 0x000188dc paddr 0x0001a498 align 2**12
         filesz 0x00001bbc memsz 0x00001bbc flags rw-
    LOAD off    0x0001c054 vaddr 0x0001c054 paddr 0x0001c054 align 2**12
         filesz 0x00000000 memsz 0x000006b0 flags rw-

Sections:
Idx Name          Size      VMA       LMA       File off  Algn
  0 .entry        00000020  00000000  00000000  00001000  2**5
                  CONTENTS, ALLOC, LOAD, READONLY, CODE
  1 .exceptions   00000194  00000020  00000020  00001020  2**2
                  CONTENTS, ALLOC, LOAD, READONLY, CODE
  2 .text         00017728  000001b4  000001b4  000011b4  2**2
                  CONTENTS, ALLOC, LOAD, READONLY, CODE
  3 .rodata       00001000  000178dc  000178dc  000188dc  2**2
                  CONTENTS, ALLOC, LOAD, READONLY, DATA
  4 .rwdata       00001bbc  000188dc  0001a498  000198dc  2**2
                  CONTENTS, ALLOC, LOAD, DATA, SMALL_DATA
  5 .bss          000006b0  0001c054  0001c054  0001c054  2**2
                  ALLOC, SMALL_DATA
  6 .comment      00000026  00000000  00000000  0001b498  2**0
                  CONTENTS, READONLY
  7 .debug_aranges 000010f8  00000000  00000000  0001b4c0  2**3
                  CONTENTS, READONLY, DEBUGGING
  8 .debug_pubnames 00001a9e  00000000  00000000  0001c5b8  2**0
                  CONTENTS, READONLY, DEBUGGING
  9 .debug_info   00030d00  00000000  00000000  0001e056  2**0
                  CONTENTS, READONLY, DEBUGGING
 10 .debug_abbrev 0000a999  00000000  00000000  0004ed56  2**0
                  CONTENTS, READONLY, DEBUGGING
 11 .debug_line   0001db81  00000000  00000000  000596ef  2**0
                  CONTENTS, READONLY, DEBUGGING
 12 .debug_frame  00002330  00000000  00000000  00077270  2**2
                  CONTENTS, READONLY, DEBUGGING
 13 .debug_str    00002ae1  00000000  00000000  000795a0  2**0
                  CONTENTS, READONLY, DEBUGGING
 14 .debug_loc    00012229  00000000  00000000  0007c081  2**0
                  CONTENTS, READONLY, DEBUGGING
 15 .debug_alt_sim_info 00000060  00000000  00000000  0008e2ac  2**2
                  CONTENTS, READONLY, DEBUGGING
 16 .debug_ranges 00000b30  00000000  00000000  0008e310  2**3
                  CONTENTS, READONLY, DEBUGGING
 17 .thread_model 00000003  00000000  00000000  00092ba7  2**0
                  CONTENTS, READONLY
 18 .cpu          00000003  00000000  00000000  00092baa  2**0
                  CONTENTS, READONLY
 19 .qsys         00000001  00000000  00000000  00092bad  2**0
                  CONTENTS, READONLY
 20 .simulation_enabled 00000001  00000000  00000000  00092bae  2**0
                  CONTENTS, READONLY
 21 .sysid_hash   00000004  00000000  00000000  00092baf  2**0
                  CONTENTS, READONLY
 22 .sysid_base   00000004  00000000  00000000  00092bb3  2**0
                  CONTENTS, READONLY
 23 .sysid_time   00000004  00000000  00000000  00092bb7  2**0
                  CONTENTS, READONLY
 24 .stderr_dev   00000009  00000000  00000000  00092bbb  2**0
                  CONTENTS, READONLY
 25 .stdin_dev    00000009  00000000  00000000  00092bc4  2**0
                  CONTENTS, READONLY
 26 .stdout_dev   00000009  00000000  00000000  00092bcd  2**0
                  CONTENTS, READONLY
 27 .sopc_system_name 0000000c  00000000  00000000  00092bd6  2**0
                  CONTENTS, READONLY
 28 .quartus_project_dir 0000004f  00000000  00000000  00092be2  2**0
                  CONTENTS, READONLY
 29 .jdi          000053be  00000000  00000000  00092c31  2**0
                  CONTENTS, READONLY
SYMBOL TABLE:
00000000 l    d  .entry	00000000 .entry
00000020 l    d  .exceptions	00000000 .exceptions
000001b4 l    d  .text	00000000 .text
000178dc l    d  .rodata	00000000 .rodata
000188dc l    d  .rwdata	00000000 .rwdata
0001c054 l    d  .bss	00000000 .bss
00000000 l    d  .comment	00000000 .comment
00000000 l    d  .debug_aranges	00000000 .debug_aranges
00000000 l    d  .debug_pubnames	00000000 .debug_pubnames
00000000 l    d  .debug_info	00000000 .debug_info
00000000 l    d  .debug_abbrev	00000000 .debug_abbrev
00000000 l    d  .debug_line	00000000 .debug_line
00000000 l    d  .debug_frame	00000000 .debug_frame
00000000 l    d  .debug_str	00000000 .debug_str
00000000 l    d  .debug_loc	00000000 .debug_loc
00000000 l    d  .debug_alt_sim_info	00000000 .debug_alt_sim_info
00000000 l    d  .debug_ranges	00000000 .debug_ranges
000001fc l       .text	00000000 alt_after_alt_main
00000000 l    df *ABS*	00000000 alt_irq_handler.c
00000000 l    df *ABS*	00000000 DE2_115_NIOS_HOST_MOUSE_VGA.c
0001c054 l     O .bss	00000002 no_device.3405
0001c056 l     O .bss	00000002 ctl_reg.3404
00000000 l    df *ABS*	00000000 LCD.c
00000000 l    df *ABS*	00000000 SEG7.c
000188dc l     O .rwdata	00000010 szMap
00000000 l    df *ABS*	00000000 VGA.c
00000000 l    df *ABS*	00000000 dp-bit.c
00000000 l    df *ABS*	00000000 lib2-divmod.c
00005074 l     F .text	0000007c udivmodsi4
00000000 l    df *ABS*	00000000 libgcc2.c
00000000 l    df *ABS*	00000000 dp-bit.c
00000000 l    df *ABS*	00000000 libgcc2.c
00000000 l    df *ABS*	00000000 printf.c
00000000 l    df *ABS*	00000000 puts.c
00000000 l    df *ABS*	00000000 scanf.c
00000000 l    df *ABS*	00000000 strlen.c
00000000 l    df *ABS*	00000000 vfprintf.c
00005770 l     F .text	00000058 __sprint_r
00018406 l     O .rodata	00000010 blanks.3452
000183f6 l     O .rodata	00000010 zeroes.3453
00000000 l    df *ABS*	00000000 vfscanf.c
0001841e l     O .rodata	00000022 basefix.3357
00000000 l    df *ABS*	00000000 wsetup.c
00000000 l    df *ABS*	00000000 ctype_.c
00018541 l     O .rodata	00000180 _ctype_b
00000000 l    df *ABS*	00000000 dtoa.c
00008f54 l     F .text	00000218 quorem
00000000 l    df *ABS*	00000000 fflush.c
00000000 l    df *ABS*	00000000 findfp.c
0000a950 l     F .text	00000058 std
0000aa5c l     F .text	00000008 __fp_lock
0000aa64 l     F .text	00000008 __fp_unlock
00000000 l    df *ABS*	00000000 fread.c
00000000 l    df *ABS*	00000000 mallocr.c
00000000 l    df *ABS*	00000000 fvwrite.c
00000000 l    df *ABS*	00000000 fwalk.c
00000000 l    df *ABS*	00000000 impure.c
000188ec l     O .rwdata	00000400 impure_data
00000000 l    df *ABS*	00000000 iswspace.c
00000000 l    df *ABS*	00000000 locale.c
0001a460 l     O .rwdata	00000004 charset
000186e8 l     O .rodata	00000030 lconv
00000000 l    df *ABS*	00000000 makebuf.c
00000000 l    df *ABS*	00000000 mallocr.c
00000000 l    df *ABS*	00000000 mbrtowc.c
00000000 l    df *ABS*	00000000 mbtowc_r.c
00000000 l    df *ABS*	00000000 memchr.c
00000000 l    df *ABS*	00000000 memcpy.c
00000000 l    df *ABS*	00000000 memmove.c
00000000 l    df *ABS*	00000000 memset.c
00000000 l    df *ABS*	00000000 mprec.c
00018830 l     O .rodata	0000000c p05.2458
00000000 l    df *ABS*	00000000 mallocr.c
00000000 l    df *ABS*	00000000 refill.c
0000de14 l     F .text	0000001c lflush
00000000 l    df *ABS*	00000000 s_isinfd.c
00000000 l    df *ABS*	00000000 s_isnand.c
00000000 l    df *ABS*	00000000 sbrkr.c
00000000 l    df *ABS*	00000000 sccl.c
00000000 l    df *ABS*	00000000 sf_nan.c
00000000 l    df *ABS*	00000000 sprintf.c
00000000 l    df *ABS*	00000000 stdio.c
00000000 l    df *ABS*	00000000 strcmp.c
00000000 l    df *ABS*	00000000 strtod.c
0000e2b4 l     F .text	00000048 match
00019114 l     O .rwdata	00000014 fpi.1950
0001884c l     O .rodata	00000028 tinytens
00019100 l     O .rwdata	00000014 fpinan.1986
00000000 l    df *ABS*	00000000 strtol.c
00000000 l    df *ABS*	00000000 strtoll_r.c
00000000 l    df *ABS*	00000000 strtoul.c
00000000 l    df *ABS*	00000000 strtoull_r.c
00000000 l    df *ABS*	00000000 ungetc.c
00000000 l    df *ABS*	00000000 writer.c
00000000 l    df *ABS*	00000000 mallocr.c
00000000 l    df *ABS*	00000000 closer.c
00000000 l    df *ABS*	00000000 fclose.c
00000000 l    df *ABS*	00000000 fstatr.c
00000000 l    df *ABS*	00000000 gdtoa-gethex.c
000109ac l     F .text	00000024 htinit
00010a38 l     F .text	000000b0 rshift
00000000 l    df *ABS*	00000000 gdtoa-hexnan.c
000112a0 l     F .text	0000004c L_shift
00000000 l    df *ABS*	00000000 int_errno.c
00000000 l    df *ABS*	00000000 isattyr.c
00000000 l    df *ABS*	00000000 lseekr.c
00000000 l    df *ABS*	00000000 readr.c
00000000 l    df *ABS*	00000000 libgcc2.c
00000000 l    df *ABS*	00000000 libgcc2.c
00000000 l    df *ABS*	00000000 libgcc2.c
00000000 l    df *ABS*	00000000 libgcc2.c
00000000 l    df *ABS*	00000000 fp-bit.c
00000000 l    df *ABS*	00000000 fp-bit.c
00000000 l    df *ABS*	00000000 fp-bit.c
00000000 l    df *ABS*	00000000 dp-bit.c
000124c4 l     F .text	00000410 _fpadd_parts
00000000 l    df *ABS*	00000000 dp-bit.c
00000000 l    df *ABS*	00000000 dp-bit.c
00000000 l    df *ABS*	00000000 dp-bit.c
00000000 l    df *ABS*	00000000 dp-bit.c
00000000 l    df *ABS*	00000000 dp-bit.c
00000000 l    df *ABS*	00000000 dp-bit.c
00000000 l    df *ABS*	00000000 dp-bit.c
00000000 l    df *ABS*	00000000 dp-bit.c
00000000 l    df *ABS*	00000000 dp-bit.c
00000000 l    df *ABS*	00000000 dp-bit.c
00000000 l    df *ABS*	00000000 dp-bit.c
00000000 l    df *ABS*	00000000 dp-bit.c
00000000 l    df *ABS*	00000000 fp-bit.c
00000000 l    df *ABS*	00000000 fp-bit.c
00000000 l    df *ABS*	00000000 fp-bit.c
00000000 l    df *ABS*	00000000 dp-bit.c
00000000 l    df *ABS*	00000000 dp-bit.c
00000000 l    df *ABS*	00000000 fp-bit.c
00000000 l    df *ABS*	00000000 alt_close.c
00013bec l     F .text	00000060 alt_get_errno
00000000 l    df *ABS*	00000000 alt_dev.c
00013c4c l     F .text	0000002c alt_dev_null_write
00000000 l    df *ABS*	00000000 alt_errno.c
00000000 l    df *ABS*	00000000 alt_fstat.c
00013d4c l     F .text	00000060 alt_get_errno
00000000 l    df *ABS*	00000000 alt_gettod.c
00000000 l    df *ABS*	00000000 alt_isatty.c
00014088 l     F .text	00000060 alt_get_errno
00000000 l    df *ABS*	00000000 alt_load.c
00014168 l     F .text	0000006c alt_load_section
00000000 l    df *ABS*	00000000 alt_lseek.c
000142c4 l     F .text	00000060 alt_get_errno
00000000 l    df *ABS*	00000000 alt_main.c
00000000 l    df *ABS*	00000000 alt_malloc_lock.c
00000000 l    df *ABS*	00000000 alt_read.c
000144f0 l     F .text	00000060 alt_get_errno
00000000 l    df *ABS*	00000000 alt_release_fd.c
00000000 l    df *ABS*	00000000 alt_sbrk.c
0001a484 l     O .rwdata	00000004 heap_end
00000000 l    df *ABS*	00000000 alt_tick.c
00000000 l    df *ABS*	00000000 alt_usleep.c
00000000 l    df *ABS*	00000000 alt_write.c
00014960 l     F .text	00000060 alt_get_errno
00000000 l    df *ABS*	00000000 alt_sys_init.c
000192d0 l     O .rwdata	00001060 jtag_uart
0001a330 l     O .rwdata	00000120 lcd
00014a68 l     F .text	00000038 alt_dev_reg
00000000 l    df *ABS*	00000000 altera_avalon_jtag_uart_fd.c
00000000 l    df *ABS*	00000000 altera_avalon_jtag_uart_init.c
00014ca8 l     F .text	00000228 altera_avalon_jtag_uart_irq
00014ed0 l     F .text	000000b0 altera_avalon_jtag_uart_timeout
00000000 l    df *ABS*	00000000 altera_avalon_jtag_uart_ioctl.c
00000000 l    df *ABS*	00000000 altera_avalon_jtag_uart_read.c
00000000 l    df *ABS*	00000000 altera_avalon_jtag_uart_write.c
00000000 l    df *ABS*	00000000 altera_avalon_lcd_16207.c
0001a490 l     O .rwdata	00000004 colstart
0001554c l     F .text	000000b8 lcd_write_command
00015604 l     F .text	000000d4 lcd_write_data
000156d8 l     F .text	000000c4 lcd_clear_screen
0001579c l     F .text	000001ec lcd_repaint_screen
00015988 l     F .text	000000c8 lcd_scroll_up
00015a50 l     F .text	000002d0 lcd_handle_escape
0001622c l     F .text	000000cc alt_lcd_16207_timeout
00000000 l    df *ABS*	00000000 altera_avalon_lcd_16207_fd.c
00000000 l    df *ABS*	00000000 altera_avalon_timer_sc.c
0001648c l     F .text	00000070 alt_avalon_timer_sc_irq
00000000 l    df *ABS*	00000000 alt_alarm_start.c
00000000 l    df *ABS*	00000000 alt_busy_sleep.c
00000000 l    df *ABS*	00000000 alt_dcache_flush_all.c
00000000 l    df *ABS*	00000000 alt_dev_llist_insert.c
00016924 l     F .text	00000060 alt_get_errno
00000000 l    df *ABS*	00000000 alt_do_ctors.c
00000000 l    df *ABS*	00000000 alt_do_dtors.c
00000000 l    df *ABS*	00000000 alt_icache_flush_all.c
00000000 l    df *ABS*	00000000 alt_iic.c
00000000 l    df *ABS*	00000000 alt_iic_isr_register.c
00000000 l    df *ABS*	00000000 alt_io_redirect.c
00016d48 l     F .text	000000c4 alt_open_fd
00000000 l    df *ABS*	00000000 alt_irq_vars.c
00000000 l    df *ABS*	00000000 alt_open.c
00016e84 l     F .text	000000dc alt_file_locked
000170e8 l     F .text	00000060 alt_get_errno
00000000 l    df *ABS*	00000000 altera_nios2_qsys_irq.c
00000000 l    df *ABS*	00000000 alt_find_dev.c
00000000 l    df *ABS*	00000000 alt_find_file.c
00000000 l    df *ABS*	00000000 alt_get_fd.c
00000000 l    df *ABS*	00000000 alt_icache_flush.c
00000000 l    df *ABS*	00000000 atexit.c
00000000 l    df *ABS*	00000000 exit.c
00000000 l    df *ABS*	00000000 memcmp.c
00000000 l    df *ABS*	00000000 __atexit.c
00000000 l    df *ABS*	00000000 __call_atexit.c
00017658 l     F .text	00000004 register_fini
00000000 l    df *ABS*	00000000 alt_exit.c
0001780c l     F .text	00000040 alt_sim_halt
0000ca74 g     F .text	00000094 _mprec_log10
0000cb60 g     F .text	00000088 __any_on
00011534 g     F .text	00000070 _isatty_r
00018808 g     O .rodata	00000028 __mprec_tinytens
00014324 g     F .text	0000006c alt_main
000055cc g     F .text	000000a0 _puts_r
0001c474 g     O .bss	00000100 alt_irq
000115a4 g     F .text	00000078 _lseek_r
0001c0d4 g     O .bss	00000020 x_coord
0001a498 g       *ABS*	00000000 __flash_rwdata_start
00012fe4 g     F .text	00000088 __eqdf2
00000340 g     F .text	0000021c InitXY
0001c0f4 g     O .bss	00000200 map
0001c704 g       *ABS*	00000000 __alt_heap_start
00005554 g     F .text	00000044 printf
08200000 g       *ABS*	00000000 __alt_mem_sram
0000e0b4 g     F .text	00000068 __sseek
0000a9b8 g     F .text	000000a4 __sinit
0000b8f8 g     F .text	00000084 _setlocale_r
0000aab8 g     F .text	00000068 __sfmoreglue
0001065c g     F .text	0000001c ungetc
000143b0 g     F .text	00000020 __malloc_unlock
0000e2fc g     F .text	000014e4 _strtod_r
0000c4f0 g     F .text	000000e0 memmove
0000aaa8 g     F .text	00000010 _cleanup
0000cbe8 g     F .text	000000bc _Balloc
00004acc g     F .text	0000008c LCD_Test
000130f4 g     F .text	00000088 __gtdf2
00000000  w      *UND*	00000000 __errno
00004ecc g     F .text	00000058 Set_Pixel_On_Color
00000000 g     F .entry	0000001c __reset
00000020 g       *ABS*	00000000 __flash_exceptions_start
00010938 g     F .text	00000074 _fstat_r
0001c080 g     O .bss	00000004 errno
00008d18 g     F .text	00000024 __svfscanf
0000080c g     F .text	00000218 min_path
00013764 g     F .text	0000002c __make_fp
0001c098 g     O .bss	00000004 alt_argv
00022450 g       *ABS*	00000000 _gp
00014810 g     F .text	00000030 usleep
00019150 g     O .rwdata	00000180 alt_fd_list
00000254 g     F .text	00000088 Vga_clear_screen
00017168 g     F .text	00000094 alt_find_dev
0000c450 g     F .text	000000a0 memcpy
000112ec g     F .text	00000248 __hexnan
0000aa9c g     F .text	0000000c _cleanup_r
00004f7c g     F .text	000000f8 __floatsidf
00016e0c g     F .text	00000078 alt_io_redirect
00013204 g     F .text	00000088 __ltdf2
000178dc g       *ABS*	00000000 __DTOR_END__
0000566c g     F .text	00000014 puts
0000c2ec g     F .text	00000040 mbrtowc
00008d3c g     F .text	00000068 _vfscanf_r
0000c9c4 g     F .text	000000b0 __ratio
000150e8 g     F .text	00000224 altera_avalon_jtag_uart_read
00000000  w      *UND*	00000000 malloc
00005598 g     F .text	00000034 _printf_r
000051b0 g     F .text	00000008 __udivsi3
00013fc8 g     F .text	000000c0 isatty
0000055c g     F .text	000002b0 VGA_line
0000b8a8 g     F .text	0000002c iswspace
00018718 g     O .rodata	000000c8 __mprec_tens
0000b8d4 g     F .text	00000008 __locale_charset
0001c084 g     O .bss	00000008 alt_timezone
0001172c g     F .text	000000a4 __fixunsdfsi
000173d4 g     F .text	00000090 alt_icache_flush
0001c074 g     O .bss	00000004 __malloc_top_pad
000100d0 g     F .text	00000024 strtoul
0001a45c g     O .rwdata	00000004 __mb_cur_max
0000b8dc g     F .text	0000000c _localeconv_r
000100f4 g     F .text	000002f0 _strtoull_r
0000d2e0 g     F .text	0000003c __i2b
0000b28c g     F .text	0000049c __sfvwrite_r
00004b58 g     F .text	00000058 SEG7_Clear
0000dea0 g     F .text	00000070 _sbrk_r
0001161c g     F .text	00000078 _read_r
00018cec g     O .rwdata	0000000c __lc_ctype
0001a47c g     O .rwdata	00000004 alt_max_fd
00013790 g     F .text	00000138 __unpack_d
00010814 g     F .text	00000110 _fclose_r
0001c058 g     O .bss	00000008 t2
0000a91c g     F .text	00000034 fflush
0001c078 g     O .bss	00000004 __malloc_max_sbrked_mem
00012954 g     F .text	00000074 __adddf3
0001235c g     F .text	00000078 __nesf2
0000c8a4 g     F .text	00000120 __b2d
00011dac g     F .text	000005b0 __umoddi3
000141d4 g     F .text	000000f0 lseek
0001a458 g     O .rwdata	00000004 _global_impure_ptr
0000d65c g     F .text	000005f4 _realloc_r
0001c704 g       *ABS*	00000000 __bss_end
00016c50 g     F .text	000000f8 alt_iic_isr_register
00014704 g     F .text	0000010c alt_tick
0001c374 g     O .bss	00000100 __hexdig
000117d0 g     F .text	000005dc __udivdi3
000187e0 g     O .rodata	00000028 __mprec_bigtens
0000d53c g     F .text	00000120 __s2b
00013460 g     F .text	00000194 __floatunsidf
0000c7c4 g     F .text	00000060 __mcmp
0001c2f4 g     O .bss	00000020 distance
0001a450 g     O .rwdata	00000004 __ctype_ptr
0000aa84 g     F .text	00000018 __fp_lock_all
00016c08 g     F .text	00000048 alt_ic_irq_enabled
00004c10 g     F .text	00000074 SEG7_Number
0001466c g     F .text	00000098 alt_alarm_stop
0000fb64 g     F .text	00000024 strtol
0001c0a8 g     O .bss	00000004 alt_irq_active
000000ec g     F .exceptions	000000c8 alt_irq_handler
00019128 g     O .rwdata	00000028 alt_dev_null
00004e30 g     F .text	00000044 Set_Cursor_XY
000135f4 g     F .text	000000c8 __unpack_f
0001682c g     F .text	00000044 alt_dcache_flush_all
0000c690 g     F .text	00000070 __hi0bits
00013314 g     F .text	000000d8 __fixdfsi
0000f904 g     F .text	0000001c strtod
0001a498 g       *ABS*	00000000 __ram_rwdata_end
0001a474 g     O .rwdata	00000008 alt_dev_list
00014840 g     F .text	00000120 write
000123d4 g     F .text	00000078 __gtsf2
000188dc g       *ABS*	00000000 __ram_rodata_end
00013c78 g     F .text	000000d4 fstat
0001328c g     F .text	00000088 __ledf2
0000d41c g     F .text	00000120 __pow5mult
0001c068 g     O .bss	00000004 __nlocale_changed
000051b8 g     F .text	00000008 __umodsi3
00005680 g     F .text	00000034 _scanf_r
0001c704 g       *ABS*	00000000 end
00013990 g     F .text	00000160 __pack_f
00015d20 g     F .text	0000050c altera_avalon_lcd_16207_write
00014be8 g     F .text	000000c0 altera_avalon_jtag_uart_init
000178d8 g       *ABS*	00000000 __CTOR_LIST__
08000000 g       *ABS*	00000000 __alt_stack_pointer
000164fc g     F .text	00000090 alt_avalon_timer_sc_init
000051c0 g     F .text	00000080 __clzsi2
0001530c g     F .text	00000240 altera_avalon_jtag_uart_write
0000a9a8 g     F .text	00000004 __sfp_lock_acquire
0000c36c g     F .text	000000e4 memchr
000057c8 g     F .text	00001eac ___vfprintf_internal_r
0000e04c g     F .text	00000060 _sprintf_r
0000af78 g     F .text	00000314 _free_r
0001765c g     F .text	000001b0 __call_exitprocs
0001c06c g     O .bss	00000004 __mlocale_changed
0001a468 g     O .rwdata	00000004 __malloc_sbrk_base
000001b4 g     F .text	0000004c _start
0001c0a0 g     O .bss	00000004 _alt_tick_rate
0000fb88 g     F .text	00000318 _strtoll_r
0001c314 g     O .bss	00000020 neighbor
0000cfac g     F .text	0000014c __lshift
0001c0a4 g     O .bss	00000004 _alt_nticks
000143d0 g     F .text	00000120 read
000149f4 g     F .text	00000074 alt_sys_init
00017524 g     F .text	00000134 __register_exitproc
00000a24 g     F .text	00000484 shortestPathFind
0000d0f8 g     F .text	000001e8 __multiply
0001c334 g     O .bss	00000020 shortest
00014f80 g     F .text	00000074 altera_avalon_jtag_uart_close
000188dc g       *ABS*	00000000 __ram_rwdata_start
000178dc g       *ABS*	00000000 __ram_rodata_start
0001c0ac g     O .bss	00000028 __malloc_current_mallinfo
0000cca4 g     F .text	0000017c __d2b
00014aa0 g     F .text	00000058 altera_avalon_jtag_uart_read_fd
0000fea0 g     F .text	00000230 _strtoul_r
0001731c g     F .text	000000b8 alt_get_fd
000166e0 g     F .text	0000014c alt_busy_sleep
000138c8 g     F .text	000000c8 __fpcmp_parts_d
000107a4 g     F .text	00000070 _close_r
000174b0 g     F .text	00000074 memcmp
00014b50 g     F .text	00000048 altera_avalon_jtag_uart_close_fd
0001c704 g       *ABS*	00000000 __alt_stack_base
00014b98 g     F .text	00000050 altera_avalon_jtag_uart_ioctl_fd
00008e18 g     F .text	0000013c __swsetup_r
00012d8c g     F .text	00000258 __divdf3
0000ab20 g     F .text	000000f0 __sfp
0000cb08 g     F .text	00000058 __copybits
00018cf8 g     O .rwdata	00000408 __malloc_av_
0000a9b4 g     F .text	00000004 __sinit_lock_release
000129c8 g     F .text	000003c4 __muldf3
0000e198 g     F .text	00000060 __sread
0000ae0c g     F .text	00000040 fread
00004bb0 g     F .text	00000060 SEG7_Full
000171fc g     F .text	00000120 alt_find_file
00004d50 g     F .text	000000e0 SEG7_Decimal
00016870 g     F .text	000000b4 alt_dev_llist_insert
00014390 g     F .text	00000020 __malloc_lock
000145b0 g     F .text	000000bc sbrk
0000a720 g     F .text	000001fc _fflush_r
000106f0 g     F .text	000000b4 _calloc_r
0001c354 g     O .bss	00000020 y_coord
0001c060 g     O .bss	00000008 t1
00013dac g     F .text	0000021c gettimeofday
0001c054 g       *ABS*	00000000 __bss_start
0000496c g     F .text	0000009c LCD_Init
0000c5d0 g     F .text	00000098 memset
00000ea8 g     F .text	00003984 main
0001c09c g     O .bss	00000004 alt_envp
0001c07c g     O .bss	00000004 __malloc_max_total_mem
00014af8 g     F .text	00000058 altera_avalon_jtag_uart_write_fd
0001244c g     F .text	00000078 __ltsf2
0000ac10 g     F .text	000001fc _fread_r
00004e74 g     F .text	00000058 Set_Cursor_Color
000162f8 g     F .text	0000013c altera_avalon_lcd_16207_init
00004a90 g     F .text	0000003c LCD_Line2
0000e0ac g     F .text	00000008 __sclose
08000000 g       *ABS*	00000000 __alt_heap_limit
00010924 g     F .text	00000014 fclose
0000f920 g     F .text	00000244 _strtol_r
000133ec g     F .text	00000074 __truncdfsf2
0001c574 g     O .bss	00000190 _atexit0
0000916c g     F .text	000015b4 _dtoa_r
0000bb2c g     F .text	00000740 _malloc_r
0001a480 g     O .rwdata	00000004 alt_errno
000103e4 g     F .text	000000dc __submore
0000b7f0 g     F .text	000000b8 _fwalk
0000c32c g     F .text	00000040 _mbtowc_r
000050f0 g     F .text	00000060 __divsi3
00018890 g     O .rodata	00000014 __thenan_df
0000ae4c g     F .text	0000012c _malloc_trim_r
000178dc g       *ABS*	00000000 __CTOR_END__
0000e1f8 g     F .text	000000bc strcmp
000178dc g       *ABS*	00000000 __flash_rodata_start
000178dc g       *ABS*	00000000 __DTOR_LIST__
000002dc g     F .text	00000064 delay
0001306c g     F .text	00000088 __nedf2
00004870 g     F .text	00000040 UsbRead
000149c0 g     F .text	00000034 alt_irq_init
00004a08 g     F .text	00000088 LCD_Show_Text
00014550 g     F .text	00000060 alt_release_fd
00000200 g     F .text	00000054 maxmin
0000dfd8 g     F .text	00000074 sprintf
00018294 g     O .rodata	00000100 __clz_tab
00004c84 g     F .text	000000cc SEG7_Hex
0001c070 g     O .bss	00000004 _PathLocale
0000f7e0 g     F .text	00000124 strtof
00017464 g     F .text	00000014 atexit
00010678 g     F .text	00000078 _write_r
0000b97c g     F .text	0000001c setlocale
000056b4 g     F .text	00000048 scanf
0000dfd0 g     F .text	00000008 nanf
0001a454 g     O .rwdata	00000004 _impure_ptr
0001c094 g     O .bss	00000004 alt_argc
0000c26c g     F .text	00000080 _mbrtowc_r
000169e8 g     F .text	00000064 _do_dtors
0000dc50 g     F .text	000001c4 __srefill_r
00000020 g       .exceptions	00000000 alt_irq_entry
0000c824 g     F .text	00000080 __ulp
0000de30 g     F .text	00000040 __isinfd
0000aa6c g     F .text	00000018 __fp_unlock_all
00016434 g     F .text	00000058 altera_avalon_lcd_16207_write_fd
0001a46c g     O .rwdata	00000008 alt_fs_list
0001c08c g     O .bss	00000008 alt_resettime
00004f24 g     F .text	00000058 Set_Pixel_Off_Color
00000020 g       *ABS*	00000000 __ram_exceptions_start
0000b8e8 g     F .text	00000010 localeconv
00016a7c g     F .text	00000050 alt_ic_isr_register
000109d0 g     F .text	00000068 __hexdig_init
0001a498 g       *ABS*	00000000 _edata
0001c704 g       *ABS*	00000000 _end
0000482c g     F .text	00000044 UsbWrite
000001b4 g       *ABS*	00000000 __ram_exceptions_end
00008da4 g     F .text	00000074 vfscanf
00014ff4 g     F .text	000000f4 altera_avalon_jtag_uart_ioctl
00016b68 g     F .text	000000a0 alt_ic_irq_disable
0000e11c g     F .text	0000007c __swrite
0001a464 g     O .rwdata	00000004 __malloc_trim_threshold
00017148 g     F .text	00000020 altera_nios2_qsys_irq_init
00017478 g     F .text	00000038 exit
0000b728 g     F .text	000000c8 _fwalk_reent
0000ce20 g     F .text	0000018c __mdiff
00005150 g     F .text	00000060 __modsi3
08000000 g       *ABS*	00000000 __alt_data_end
00000020 g     F .exceptions	00000000 alt_exception
0000a9ac g     F .text	00000004 __sfp_lock_release
00000000 g       *ABS*	00000000 __alt_mem_sdram
0000df10 g     F .text	000000c0 __sccl
00018440 g     O .rodata	00000101 _ctype_
000136bc g     F .text	000000a8 __fpcmp_parts_f
0001784c g     F .text	00000020 _exit
0000de70 g     F .text	00000030 __isnand
0001658c g     F .text	00000154 alt_alarm_start
00011694 g     F .text	00000098 __muldi3
0000b998 g     F .text	00000194 __smakebuf_r
000056fc g     F .text	00000074 strlen
00016f60 g     F .text	00000188 open
0001317c g     F .text	00000088 __gedf2
00010ae8 g     F .text	000007b8 __gethex
00016a4c g     F .text	00000030 alt_icache_flush_all
0001a494 g     O .rwdata	00000004 alt_priority_mask
00016acc g     F .text	0000009c alt_ic_irq_enable
00007674 g     F .text	00000024 __vfprintf_internal
000128d4 g     F .text	00000080 __subdf3
0000c700 g     F .text	000000c4 __lo0bits
00007698 g     F .text	00001680 __svfscanf_r
0001a488 g     O .rwdata	00000008 alt_alarm_list
000104c0 g     F .text	0000019c _ungetc_r
00016984 g     F .text	00000064 _do_ctors
000048b0 g     F .text	000000bc UsbSoftReset
00013af0 g     F .text	000000fc close
000140e8 g     F .text	00000080 alt_load
00005240 g     F .text	00000314 __pack_d
00000000  w      *UND*	00000000 free
0000a9b0 g     F .text	00000004 __sinit_lock_acquire
0000d31c g     F .text	00000100 __multadd
0000c668 g     F .text	00000028 _Bfree



Disassembly of section .entry:

00000000 <__reset>:
   0:	00840014 	movui	r2,4096
   4:	1001483a 	initi	r2
   8:	10bff804 	addi	r2,r2,-32
   c:	00bffd16 	blt	zero,r2,4 <__reset+0x4>
  10:	00400034 	movhi	at,0
  14:	08406d14 	ori	at,at,436
  18:	0800683a 	jmp	at
  1c:	00000000 	call	0 <__reset>

Disassembly of section .exceptions:

00000020 <alt_exception>:
  20:	deffed04 	addi	sp,sp,-76
  24:	dfc00015 	stw	ra,0(sp)
  28:	d8400215 	stw	at,8(sp)
  2c:	d8800315 	stw	r2,12(sp)
  30:	d8c00415 	stw	r3,16(sp)
  34:	d9000515 	stw	r4,20(sp)
  38:	d9400615 	stw	r5,24(sp)
  3c:	d9800715 	stw	r6,28(sp)
  40:	d9c00815 	stw	r7,32(sp)
  44:	000b307a 	rdctl	r5,estatus
  48:	da000915 	stw	r8,36(sp)
  4c:	da400a15 	stw	r9,40(sp)
  50:	da800b15 	stw	r10,44(sp)
  54:	dac00c15 	stw	r11,48(sp)
  58:	db000d15 	stw	r12,52(sp)
  5c:	db400e15 	stw	r13,56(sp)
  60:	db800f15 	stw	r14,60(sp)
  64:	dbc01015 	stw	r15,64(sp)
  68:	d9401115 	stw	r5,68(sp)
  6c:	ebffff04 	addi	r15,ea,-4
  70:	dbc01215 	stw	r15,72(sp)
  74:	0009313a 	rdctl	r4,ipending
  78:	2880004c 	andi	r2,r5,1
  7c:	10000326 	beq	r2,zero,8c <alt_exception+0x6c>
  80:	20000226 	beq	r4,zero,8c <alt_exception+0x6c>
  84:	00000ec0 	call	ec <alt_irq_handler>
  88:	00000306 	br	98 <alt_exception+0x78>
  8c:	df401215 	stw	ea,72(sp)
  90:	e8bfff17 	ldw	r2,-4(ea)
  94:	003da03a 	break	0
  98:	d9401117 	ldw	r5,68(sp)
  9c:	df401217 	ldw	ea,72(sp)
  a0:	dfc00017 	ldw	ra,0(sp)
  a4:	2801707a 	wrctl	estatus,r5
  a8:	d8400217 	ldw	at,8(sp)
  ac:	d8800317 	ldw	r2,12(sp)
  b0:	d8c00417 	ldw	r3,16(sp)
  b4:	d9000517 	ldw	r4,20(sp)
  b8:	d9400617 	ldw	r5,24(sp)
  bc:	d9800717 	ldw	r6,28(sp)
  c0:	d9c00817 	ldw	r7,32(sp)
  c4:	da000917 	ldw	r8,36(sp)
  c8:	da400a17 	ldw	r9,40(sp)
  cc:	da800b17 	ldw	r10,44(sp)
  d0:	dac00c17 	ldw	r11,48(sp)
  d4:	db000d17 	ldw	r12,52(sp)
  d8:	db400e17 	ldw	r13,56(sp)
  dc:	db800f17 	ldw	r14,60(sp)
  e0:	dbc01017 	ldw	r15,64(sp)
  e4:	dec01304 	addi	sp,sp,76
  e8:	ef80083a 	eret

000000ec <alt_irq_handler>:
  ec:	defff904 	addi	sp,sp,-28
  f0:	dfc00615 	stw	ra,24(sp)
  f4:	df000515 	stw	fp,20(sp)
  f8:	df000504 	addi	fp,sp,20
  fc:	0005313a 	rdctl	r2,ipending
 100:	e0bffc15 	stw	r2,-16(fp)
 104:	e0bffc17 	ldw	r2,-16(fp)
 108:	e0bfff15 	stw	r2,-4(fp)
 10c:	e03ffd15 	stw	zero,-12(fp)
 110:	00800044 	movi	r2,1
 114:	e0bffe15 	stw	r2,-8(fp)
 118:	e0ffff17 	ldw	r3,-4(fp)
 11c:	e0bffe17 	ldw	r2,-8(fp)
 120:	1884703a 	and	r2,r3,r2
 124:	1005003a 	cmpeq	r2,r2,zero
 128:	1000161e 	bne	r2,zero,184 <alt_irq_handler+0x98>
 12c:	e0bffd17 	ldw	r2,-12(fp)
 130:	00c000b4 	movhi	r3,2
 134:	18f11d04 	addi	r3,r3,-15244
 138:	100490fa 	slli	r2,r2,3
 13c:	10c5883a 	add	r2,r2,r3
 140:	11400017 	ldw	r5,0(r2)
 144:	e0bffd17 	ldw	r2,-12(fp)
 148:	00c000b4 	movhi	r3,2
 14c:	18f11d04 	addi	r3,r3,-15244
 150:	100490fa 	slli	r2,r2,3
 154:	10c5883a 	add	r2,r2,r3
 158:	10800104 	addi	r2,r2,4
 15c:	11000017 	ldw	r4,0(r2)
 160:	283ee83a 	callr	r5
 164:	0005313a 	rdctl	r2,ipending
 168:	e0bffb15 	stw	r2,-20(fp)
 16c:	e0bffb17 	ldw	r2,-20(fp)
 170:	e0bfff15 	stw	r2,-4(fp)
 174:	e0bfff17 	ldw	r2,-4(fp)
 178:	1004c03a 	cmpne	r2,r2,zero
 17c:	103fe31e 	bne	r2,zero,10c <alt_irq_handler+0x20>
 180:	00000706 	br	1a0 <alt_irq_handler+0xb4>
 184:	e0bffe17 	ldw	r2,-8(fp)
 188:	1085883a 	add	r2,r2,r2
 18c:	e0bffe15 	stw	r2,-8(fp)
 190:	e0bffd17 	ldw	r2,-12(fp)
 194:	10800044 	addi	r2,r2,1
 198:	e0bffd15 	stw	r2,-12(fp)
 19c:	003fde06 	br	118 <alt_irq_handler+0x2c>
 1a0:	e037883a 	mov	sp,fp
 1a4:	dfc00117 	ldw	ra,4(sp)
 1a8:	df000017 	ldw	fp,0(sp)
 1ac:	dec00204 	addi	sp,sp,8
 1b0:	f800283a 	ret

Disassembly of section .text:

000001b4 <_start>:
     1b4:	00820014 	movui	r2,2048
     1b8:	10000033 	initd	0(r2)
     1bc:	10bff804 	addi	r2,r2,-32
     1c0:	00bffd16 	blt	zero,r2,1b8 <_start+0x4>
     1c4:	06c20034 	movhi	sp,2048
     1c8:	dec00014 	ori	sp,sp,0
     1cc:	068000b4 	movhi	gp,2
     1d0:	d6891414 	ori	gp,gp,9296
     1d4:	00800074 	movhi	r2,1
     1d8:	10b01514 	ori	r2,r2,49236
     1dc:	00c00074 	movhi	r3,1
     1e0:	18f1c114 	ori	r3,r3,50948
     1e4:	10c00326 	beq	r2,r3,1f4 <_start+0x40>
     1e8:	10000015 	stw	zero,0(r2)
     1ec:	10800104 	addi	r2,r2,4
     1f0:	10fffd36 	bltu	r2,r3,1e8 <_start+0x34>
     1f4:	00140e80 	call	140e8 <alt_load>
     1f8:	00143240 	call	14324 <alt_main>

000001fc <alt_after_alt_main>:
     1fc:	003fff06 	br	1fc <alt_after_alt_main>

00000200 <maxmin>:
*
******************************************************************************/
void UsbSoftReset();
//--------------------------------------
int maxmin(int no, int max, int min)
{
     200:	defffc04 	addi	sp,sp,-16
     204:	df000315 	stw	fp,12(sp)
     208:	df000304 	addi	fp,sp,12
     20c:	e13ffd15 	stw	r4,-12(fp)
     210:	e17ffe15 	stw	r5,-8(fp)
     214:	e1bfff15 	stw	r6,-4(fp)
 if(no>max) {no=max;}
     218:	e0fffd17 	ldw	r3,-12(fp)
     21c:	e0bffe17 	ldw	r2,-8(fp)
     220:	10c0020e 	bge	r2,r3,22c <maxmin+0x2c>
     224:	e0bffe17 	ldw	r2,-8(fp)
     228:	e0bffd15 	stw	r2,-12(fp)
 if(no<min) {no=min;}
     22c:	e0fffd17 	ldw	r3,-12(fp)
     230:	e0bfff17 	ldw	r2,-4(fp)
     234:	1880020e 	bge	r3,r2,240 <maxmin+0x40>
     238:	e0bfff17 	ldw	r2,-4(fp)
     23c:	e0bffd15 	stw	r2,-12(fp)

 return(no);
     240:	e0bffd17 	ldw	r2,-12(fp)
}
     244:	e037883a 	mov	sp,fp
     248:	df000017 	ldw	fp,0(sp)
     24c:	dec00104 	addi	sp,sp,4
     250:	f800283a 	ret

00000254 <Vga_clear_screen>:
//--------------------------------------
//----------clear screen----------------
void Vga_clear_screen(base)
{
     254:	defffd04 	addi	sp,sp,-12
     258:	df000215 	stw	fp,8(sp)
     25c:	df000204 	addi	fp,sp,8
     260:	e13fff15 	stw	r4,-4(fp)
    alt_u16 x_col,y_col;
    for(y_col=0;y_col<VGA_HEIGHT;y_col++)
     264:	e03ffe0d 	sth	zero,-8(fp)
     268:	00001506 	br	2c0 <Vga_clear_screen+0x6c>
      {
        for(x_col=0;x_col<VGA_WIDTH;x_col++)
     26c:	e03ffe8d 	sth	zero,-6(fp)
     270:	00000d06 	br	2a8 <Vga_clear_screen+0x54>
        {
            Vga_Clr_Pixel(base,x_col,y_col);
     274:	e0bffe0b 	ldhu	r2,-8(fp)
     278:	10c0a024 	muli	r3,r2,640
     27c:	e0bffe8b 	ldhu	r2,-6(fp)
     280:	1885883a 	add	r2,r3,r2
     284:	1085883a 	add	r2,r2,r2
     288:	1085883a 	add	r2,r2,r2
     28c:	1007883a 	mov	r3,r2
     290:	e0bfff17 	ldw	r2,-4(fp)
     294:	1885883a 	add	r2,r3,r2
     298:	10000035 	stwio	zero,0(r2)
void Vga_clear_screen(base)
{
    alt_u16 x_col,y_col;
    for(y_col=0;y_col<VGA_HEIGHT;y_col++)
      {
        for(x_col=0;x_col<VGA_WIDTH;x_col++)
     29c:	e0bffe8b 	ldhu	r2,-6(fp)
     2a0:	10800044 	addi	r2,r2,1
     2a4:	e0bffe8d 	sth	r2,-6(fp)
     2a8:	e0bffe8b 	ldhu	r2,-6(fp)
     2ac:	1080a030 	cmpltui	r2,r2,640
     2b0:	103ff01e 	bne	r2,zero,274 <Vga_clear_screen+0x20>
//--------------------------------------
//----------clear screen----------------
void Vga_clear_screen(base)
{
    alt_u16 x_col,y_col;
    for(y_col=0;y_col<VGA_HEIGHT;y_col++)
     2b4:	e0bffe0b 	ldhu	r2,-8(fp)
     2b8:	10800044 	addi	r2,r2,1
     2bc:	e0bffe0d 	sth	r2,-8(fp)
     2c0:	e0bffe0b 	ldhu	r2,-8(fp)
     2c4:	10807830 	cmpltui	r2,r2,480
     2c8:	103fe81e 	bne	r2,zero,26c <Vga_clear_screen+0x18>
        for(x_col=0;x_col<VGA_WIDTH;x_col++)
        {
            Vga_Clr_Pixel(base,x_col,y_col);
        }
      }
}
     2cc:	e037883a 	mov	sp,fp
     2d0:	df000017 	ldw	fp,0(sp)
     2d4:	dec00104 	addi	sp,sp,4
     2d8:	f800283a 	ret

000002dc <delay>:
alt_u16 x_coord[max];
alt_u16 y_coord[max];
/****************************************************************************************
// Delay
****************************************************************************************/
void delay(){
     2dc:	defffd04 	addi	sp,sp,-12
     2e0:	df000215 	stw	fp,8(sp)
     2e4:	df000204 	addi	fp,sp,8
   int c, d;

   for (c = 1; c <= 100; c++)
     2e8:	00800044 	movi	r2,1
     2ec:	e0bfff15 	stw	r2,-4(fp)
     2f0:	00000c06 	br	324 <delay+0x48>
       for (d = 1; d <= 100; d++)
     2f4:	00800044 	movi	r2,1
     2f8:	e0bffe15 	stw	r2,-8(fp)
     2fc:	00000306 	br	30c <delay+0x30>
     300:	e0bffe17 	ldw	r2,-8(fp)
     304:	10800044 	addi	r2,r2,1
     308:	e0bffe15 	stw	r2,-8(fp)
     30c:	e0bffe17 	ldw	r2,-8(fp)
     310:	10801950 	cmplti	r2,r2,101
     314:	103ffa1e 	bne	r2,zero,300 <delay+0x24>
// Delay
****************************************************************************************/
void delay(){
   int c, d;

   for (c = 1; c <= 100; c++)
     318:	e0bfff17 	ldw	r2,-4(fp)
     31c:	10800044 	addi	r2,r2,1
     320:	e0bfff15 	stw	r2,-4(fp)
     324:	e0bfff17 	ldw	r2,-4(fp)
     328:	10801950 	cmplti	r2,r2,101
     32c:	103ff11e 	bne	r2,zero,2f4 <delay+0x18>
       for (d = 1; d <= 100; d++)
       {
       }

}
     330:	e037883a 	mov	sp,fp
     334:	df000017 	ldw	fp,0(sp)
     338:	dec00104 	addi	sp,sp,4
     33c:	f800283a 	ret

00000340 <InitXY>:
void InitXY(){
     340:	deffff04 	addi	sp,sp,-4
     344:	df000015 	stw	fp,0(sp)
     348:	d839883a 	mov	fp,sp
	x_coord[0]  =107,	y_coord[0]  = 234;
     34c:	00c000b4 	movhi	r3,2
     350:	18f03504 	addi	r3,r3,-16172
     354:	00801ac4 	movi	r2,107
     358:	1880000d 	sth	r2,0(r3)
     35c:	00c000b4 	movhi	r3,2
     360:	18f0d504 	addi	r3,r3,-15532
     364:	00803a84 	movi	r2,234
     368:	1880000d 	sth	r2,0(r3)
	x_coord[1]  =183,	y_coord[1]  = 155;
     36c:	00c000b4 	movhi	r3,2
     370:	18f03504 	addi	r3,r3,-16172
     374:	00802dc4 	movi	r2,183
     378:	1880008d 	sth	r2,2(r3)
     37c:	00c000b4 	movhi	r3,2
     380:	18f0d504 	addi	r3,r3,-15532
     384:	008026c4 	movi	r2,155
     388:	1880008d 	sth	r2,2(r3)
	x_coord[2]  =185,	y_coord[2]  = 287;
     38c:	00c000b4 	movhi	r3,2
     390:	18f03504 	addi	r3,r3,-16172
     394:	00802e44 	movi	r2,185
     398:	1880010d 	sth	r2,4(r3)
     39c:	00c000b4 	movhi	r3,2
     3a0:	18f0d504 	addi	r3,r3,-15532
     3a4:	008047c4 	movi	r2,287
     3a8:	1880010d 	sth	r2,4(r3)
	x_coord[3]  =197,	y_coord[3]  = 347;
     3ac:	00c000b4 	movhi	r3,2
     3b0:	18f03504 	addi	r3,r3,-16172
     3b4:	00803144 	movi	r2,197
     3b8:	1880018d 	sth	r2,6(r3)
     3bc:	00c000b4 	movhi	r3,2
     3c0:	18f0d504 	addi	r3,r3,-15532
     3c4:	008056c4 	movi	r2,347
     3c8:	1880018d 	sth	r2,6(r3)
	x_coord[4]  =282,	y_coord[4]  = 223;
     3cc:	00c000b4 	movhi	r3,2
     3d0:	18f03504 	addi	r3,r3,-16172
     3d4:	00804684 	movi	r2,282
     3d8:	1880020d 	sth	r2,8(r3)
     3dc:	00c000b4 	movhi	r3,2
     3e0:	18f0d504 	addi	r3,r3,-15532
     3e4:	008037c4 	movi	r2,223
     3e8:	1880020d 	sth	r2,8(r3)
	x_coord[5]  =294,	y_coord[5]  = 130;
     3ec:	00c000b4 	movhi	r3,2
     3f0:	18f03504 	addi	r3,r3,-16172
     3f4:	00804984 	movi	r2,294
     3f8:	1880028d 	sth	r2,10(r3)
     3fc:	00c000b4 	movhi	r3,2
     400:	18f0d504 	addi	r3,r3,-15532
     404:	00802084 	movi	r2,130
     408:	1880028d 	sth	r2,10(r3)
	x_coord[6]  =301,	y_coord[6]  = 410;
     40c:	00c000b4 	movhi	r3,2
     410:	18f03504 	addi	r3,r3,-16172
     414:	00804b44 	movi	r2,301
     418:	1880030d 	sth	r2,12(r3)
     41c:	00c000b4 	movhi	r3,2
     420:	18f0d504 	addi	r3,r3,-15532
     424:	00806684 	movi	r2,410
     428:	1880030d 	sth	r2,12(r3)
	x_coord[7]  =307,	y_coord[7]  = 287;
     42c:	00c000b4 	movhi	r3,2
     430:	18f03504 	addi	r3,r3,-16172
     434:	00804cc4 	movi	r2,307
     438:	1880038d 	sth	r2,14(r3)
     43c:	00c000b4 	movhi	r3,2
     440:	18f0d504 	addi	r3,r3,-15532
     444:	008047c4 	movi	r2,287
     448:	1880038d 	sth	r2,14(r3)
	x_coord[8]  =380,	y_coord[8]  = 307;
     44c:	00c000b4 	movhi	r3,2
     450:	18f03504 	addi	r3,r3,-16172
     454:	00805f04 	movi	r2,380
     458:	1880040d 	sth	r2,16(r3)
     45c:	00c000b4 	movhi	r3,2
     460:	18f0d504 	addi	r3,r3,-15532
     464:	00804cc4 	movi	r2,307
     468:	1880040d 	sth	r2,16(r3)
	x_coord[9]  =429,	y_coord[9]  = 379;
     46c:	00c000b4 	movhi	r3,2
     470:	18f03504 	addi	r3,r3,-16172
     474:	00806b44 	movi	r2,429
     478:	1880048d 	sth	r2,18(r3)
     47c:	00c000b4 	movhi	r3,2
     480:	18f0d504 	addi	r3,r3,-15532
     484:	00805ec4 	movi	r2,379
     488:	1880048d 	sth	r2,18(r3)
	x_coord[10] =507,	y_coord[10] = 288;
     48c:	00c000b4 	movhi	r3,2
     490:	18f03504 	addi	r3,r3,-16172
     494:	00807ec4 	movi	r2,507
     498:	1880050d 	sth	r2,20(r3)
     49c:	00c000b4 	movhi	r3,2
     4a0:	18f0d504 	addi	r3,r3,-15532
     4a4:	00804804 	movi	r2,288
     4a8:	1880050d 	sth	r2,20(r3)
	x_coord[11] =380,	y_coord[11] = 200;
     4ac:	00c000b4 	movhi	r3,2
     4b0:	18f03504 	addi	r3,r3,-16172
     4b4:	00805f04 	movi	r2,380
     4b8:	1880058d 	sth	r2,22(r3)
     4bc:	00c000b4 	movhi	r3,2
     4c0:	18f0d504 	addi	r3,r3,-15532
     4c4:	00803204 	movi	r2,200
     4c8:	1880058d 	sth	r2,22(r3)
	x_coord[12] =428,	y_coord[12] = 228;
     4cc:	00c000b4 	movhi	r3,2
     4d0:	18f03504 	addi	r3,r3,-16172
     4d4:	00806b04 	movi	r2,428
     4d8:	1880060d 	sth	r2,24(r3)
     4dc:	00c000b4 	movhi	r3,2
     4e0:	18f0d504 	addi	r3,r3,-15532
     4e4:	00803904 	movi	r2,228
     4e8:	1880060d 	sth	r2,24(r3)
	x_coord[13] =413,	y_coord[13] = 151;
     4ec:	00c000b4 	movhi	r3,2
     4f0:	18f03504 	addi	r3,r3,-16172
     4f4:	00806744 	movi	r2,413
     4f8:	1880068d 	sth	r2,26(r3)
     4fc:	00c000b4 	movhi	r3,2
     500:	18f0d504 	addi	r3,r3,-15532
     504:	008025c4 	movi	r2,151
     508:	1880068d 	sth	r2,26(r3)
	x_coord[14] =445,	y_coord[14] = 91;
     50c:	00c000b4 	movhi	r3,2
     510:	18f03504 	addi	r3,r3,-16172
     514:	00806f44 	movi	r2,445
     518:	1880070d 	sth	r2,28(r3)
     51c:	00c000b4 	movhi	r3,2
     520:	18f0d504 	addi	r3,r3,-15532
     524:	008016c4 	movi	r2,91
     528:	1880070d 	sth	r2,28(r3)
	x_coord[15] =566,	y_coord[15] = 132;
     52c:	00c000b4 	movhi	r3,2
     530:	18f03504 	addi	r3,r3,-16172
     534:	00808d84 	movi	r2,566
     538:	1880078d 	sth	r2,30(r3)
     53c:	00c000b4 	movhi	r3,2
     540:	18f0d504 	addi	r3,r3,-15532
     544:	00802104 	movi	r2,132
     548:	1880078d 	sth	r2,30(r3)
}
     54c:	e037883a 	mov	sp,fp
     550:	df000017 	ldw	fp,0(sp)
     554:	dec00104 	addi	sp,sp,4
     558:	f800283a 	ret

0000055c <VGA_line>:
/****************************************************************************************
 * Draw a line on the VGA monitor
****************************************************************************************/

void VGA_line(int base,int x1, int y1, int x2, int y2) {
     55c:	defff004 	addi	sp,sp,-64
     560:	df000f15 	stw	fp,60(sp)
     564:	df000f04 	addi	fp,sp,60
     568:	e13ffc15 	stw	r4,-16(fp)
     56c:	e17ffd15 	stw	r5,-12(fp)
     570:	e1bffe15 	stw	r6,-8(fp)
     574:	e1ffff15 	stw	r7,-4(fp)
	signed int s1,s2, xchange;
     signed int x,y;
	char *pixel_ptr ;

	/* check and fix line coordinates to be valid */
	if (x1>639) x1 = 639;
     578:	e0bffd17 	ldw	r2,-12(fp)
     57c:	1080a010 	cmplti	r2,r2,640
     580:	1000021e 	bne	r2,zero,58c <VGA_line+0x30>
     584:	00809fc4 	movi	r2,639
     588:	e0bffd15 	stw	r2,-12(fp)
	if (y1>479) y1 = 479;
     58c:	e0bffe17 	ldw	r2,-8(fp)
     590:	10807810 	cmplti	r2,r2,480
     594:	1000021e 	bne	r2,zero,5a0 <VGA_line+0x44>
     598:	008077c4 	movi	r2,479
     59c:	e0bffe15 	stw	r2,-8(fp)
	if (x2>639) x2 = 639;
     5a0:	e0bfff17 	ldw	r2,-4(fp)
     5a4:	1080a010 	cmplti	r2,r2,640
     5a8:	1000021e 	bne	r2,zero,5b4 <VGA_line+0x58>
     5ac:	00809fc4 	movi	r2,639
     5b0:	e0bfff15 	stw	r2,-4(fp)
	if (y2>479) y2 = 479;
     5b4:	e0800117 	ldw	r2,4(fp)
     5b8:	10807810 	cmplti	r2,r2,480
     5bc:	1000021e 	bne	r2,zero,5c8 <VGA_line+0x6c>
     5c0:	008077c4 	movi	r2,479
     5c4:	e0800115 	stw	r2,4(fp)
	if (x1<0) x1 = 0;
     5c8:	e0bffd17 	ldw	r2,-12(fp)
     5cc:	1004403a 	cmpge	r2,r2,zero
     5d0:	1000011e 	bne	r2,zero,5d8 <VGA_line+0x7c>
     5d4:	e03ffd15 	stw	zero,-12(fp)
	if (y1<0) y1 = 0;
     5d8:	e0bffe17 	ldw	r2,-8(fp)
     5dc:	1004403a 	cmpge	r2,r2,zero
     5e0:	1000011e 	bne	r2,zero,5e8 <VGA_line+0x8c>
     5e4:	e03ffe15 	stw	zero,-8(fp)
	if (x2<0) x2 = 0;
     5e8:	e0bfff17 	ldw	r2,-4(fp)
     5ec:	1004403a 	cmpge	r2,r2,zero
     5f0:	1000011e 	bne	r2,zero,5f8 <VGA_line+0x9c>
     5f4:	e03fff15 	stw	zero,-4(fp)
	if (y2<0) y2 = 0;
     5f8:	e0800117 	ldw	r2,4(fp)
     5fc:	1004403a 	cmpge	r2,r2,zero
     600:	1000011e 	bne	r2,zero,608 <VGA_line+0xac>
     604:	e0000115 	stw	zero,4(fp)

	x = x1;
     608:	e0bffd17 	ldw	r2,-12(fp)
     60c:	e0bff315 	stw	r2,-52(fp)
	y = y1;
     610:	e0bffe17 	ldw	r2,-8(fp)
     614:	e0bff215 	stw	r2,-56(fp)

	//take absolute value
	if (x2 < x1) {
     618:	e0ffff17 	ldw	r3,-4(fp)
     61c:	e0bffd17 	ldw	r2,-12(fp)
     620:	1880070e 	bge	r3,r2,640 <VGA_line+0xe4>
		dx = x1 - x2;
     624:	e0fffd17 	ldw	r3,-12(fp)
     628:	e0bfff17 	ldw	r2,-4(fp)
     62c:	1885c83a 	sub	r2,r3,r2
     630:	e0bffa15 	stw	r2,-24(fp)
		s1 = -1;
     634:	00bfffc4 	movi	r2,-1
     638:	e0bff615 	stw	r2,-40(fp)
     63c:	00000c06 	br	670 <VGA_line+0x114>
	}

	else if (x2 == x1) {
     640:	e0ffff17 	ldw	r3,-4(fp)
     644:	e0bffd17 	ldw	r2,-12(fp)
     648:	1880031e 	bne	r3,r2,658 <VGA_line+0xfc>
		dx = 0;
     64c:	e03ffa15 	stw	zero,-24(fp)
		s1 = 0;
     650:	e03ff615 	stw	zero,-40(fp)
     654:	00000606 	br	670 <VGA_line+0x114>
	}

	else {
		dx = x2 - x1;
     658:	e0ffff17 	ldw	r3,-4(fp)
     65c:	e0bffd17 	ldw	r2,-12(fp)
     660:	1885c83a 	sub	r2,r3,r2
     664:	e0bffa15 	stw	r2,-24(fp)
		s1 = 1;
     668:	00800044 	movi	r2,1
     66c:	e0bff615 	stw	r2,-40(fp)
	}

	if (y2 < y1) {
     670:	e0c00117 	ldw	r3,4(fp)
     674:	e0bffe17 	ldw	r2,-8(fp)
     678:	1880070e 	bge	r3,r2,698 <VGA_line+0x13c>
		dy = y1 - y2;
     67c:	e0fffe17 	ldw	r3,-8(fp)
     680:	e0800117 	ldw	r2,4(fp)
     684:	1885c83a 	sub	r2,r3,r2
     688:	e0bff915 	stw	r2,-28(fp)
		s2 = -1;
     68c:	00bfffc4 	movi	r2,-1
     690:	e0bff515 	stw	r2,-44(fp)
     694:	00000c06 	br	6c8 <VGA_line+0x16c>
	}

	else if (y2 == y1) {
     698:	e0c00117 	ldw	r3,4(fp)
     69c:	e0bffe17 	ldw	r2,-8(fp)
     6a0:	1880031e 	bne	r3,r2,6b0 <VGA_line+0x154>
		dy = 0;
     6a4:	e03ff915 	stw	zero,-28(fp)
		s2 = 0;
     6a8:	e03ff515 	stw	zero,-44(fp)
     6ac:	00000606 	br	6c8 <VGA_line+0x16c>
	}

	else {
		dy = y2 - y1;
     6b0:	e0c00117 	ldw	r3,4(fp)
     6b4:	e0bffe17 	ldw	r2,-8(fp)
     6b8:	1885c83a 	sub	r2,r3,r2
     6bc:	e0bff915 	stw	r2,-28(fp)
		s2 = 1;
     6c0:	00800044 	movi	r2,1
     6c4:	e0bff515 	stw	r2,-44(fp)
	}

	xchange = 0;
     6c8:	e03ff415 	stw	zero,-48(fp)

	if (dy>dx) {
     6cc:	e0fff917 	ldw	r3,-28(fp)
     6d0:	e0bffa17 	ldw	r2,-24(fp)
     6d4:	10c0080e 	bge	r2,r3,6f8 <VGA_line+0x19c>
		temp = dx;
     6d8:	e0bffa17 	ldw	r2,-24(fp)
     6dc:	e0bff715 	stw	r2,-36(fp)
		dx = dy;
     6e0:	e0bff917 	ldw	r2,-28(fp)
     6e4:	e0bffa15 	stw	r2,-24(fp)
		dy = temp;
     6e8:	e0bff717 	ldw	r2,-36(fp)
     6ec:	e0bff915 	stw	r2,-28(fp)
		xchange = 1;
     6f0:	00800044 	movi	r2,1
     6f4:	e0bff415 	stw	r2,-48(fp)
	}

	e = ((int)dy<<1) - dx;
     6f8:	e0bff917 	ldw	r2,-28(fp)
     6fc:	1085883a 	add	r2,r2,r2
     700:	1007883a 	mov	r3,r2
     704:	e0bffa17 	ldw	r2,-24(fp)
     708:	1885c83a 	sub	r2,r3,r2
     70c:	e0bffb15 	stw	r2,-20(fp)

	for (j=0; j<=dx; j++) {
     710:	e03ff815 	stw	zero,-32(fp)
     714:	00003606 	br	7f0 <VGA_line+0x294>
		//video_pt(x,y,c); //640x480
		//pixel_ptr = (char *)vga_pixel_ptr + (y<<10)+ x;
		// set pixel color
		//*(char *)pixel_ptr = c;
		Vga_Set_Pixel(base,x,y);
     718:	e0bff217 	ldw	r2,-56(fp)
     71c:	10c0a024 	muli	r3,r2,640
     720:	e0bff317 	ldw	r2,-52(fp)
     724:	1885883a 	add	r2,r3,r2
     728:	1085883a 	add	r2,r2,r2
     72c:	1085883a 	add	r2,r2,r2
     730:	1007883a 	mov	r3,r2
     734:	e0bffc17 	ldw	r2,-16(fp)
     738:	1885883a 	add	r2,r3,r2
     73c:	1007883a 	mov	r3,r2
     740:	00800044 	movi	r2,1
     744:	18800035 	stwio	r2,0(r3)

		if (e>=0) {
     748:	e0bffb17 	ldw	r2,-20(fp)
     74c:	1004803a 	cmplt	r2,r2,zero
     750:	1000121e 	bne	r2,zero,79c <VGA_line+0x240>
			if (xchange==1) x = x + s1;
     754:	e0bff417 	ldw	r2,-48(fp)
     758:	10800058 	cmpnei	r2,r2,1
     75c:	1000051e 	bne	r2,zero,774 <VGA_line+0x218>
     760:	e0bff317 	ldw	r2,-52(fp)
     764:	e0fff617 	ldw	r3,-40(fp)
     768:	10c5883a 	add	r2,r2,r3
     76c:	e0bff315 	stw	r2,-52(fp)
     770:	00000406 	br	784 <VGA_line+0x228>
			else y = y + s2;
     774:	e0bff217 	ldw	r2,-56(fp)
     778:	e0fff517 	ldw	r3,-44(fp)
     77c:	10c5883a 	add	r2,r2,r3
     780:	e0bff215 	stw	r2,-56(fp)
			e = e - ((int)dx<<1);
     784:	e0bffa17 	ldw	r2,-24(fp)
     788:	1085883a 	add	r2,r2,r2
     78c:	1007883a 	mov	r3,r2
     790:	e0bffb17 	ldw	r2,-20(fp)
     794:	10c5c83a 	sub	r2,r2,r3
     798:	e0bffb15 	stw	r2,-20(fp)
		}

		if (xchange==1) y = y + s2;
     79c:	e0bff417 	ldw	r2,-48(fp)
     7a0:	10800058 	cmpnei	r2,r2,1
     7a4:	1000051e 	bne	r2,zero,7bc <VGA_line+0x260>
     7a8:	e0bff217 	ldw	r2,-56(fp)
     7ac:	e0fff517 	ldw	r3,-44(fp)
     7b0:	10c5883a 	add	r2,r2,r3
     7b4:	e0bff215 	stw	r2,-56(fp)
     7b8:	00000406 	br	7cc <VGA_line+0x270>
		else x = x + s1;
     7bc:	e0bff317 	ldw	r2,-52(fp)
     7c0:	e0fff617 	ldw	r3,-40(fp)
     7c4:	10c5883a 	add	r2,r2,r3
     7c8:	e0bff315 	stw	r2,-52(fp)

		e = e + ((int)dy<<1);
     7cc:	e0bff917 	ldw	r2,-28(fp)
     7d0:	1085883a 	add	r2,r2,r2
     7d4:	1007883a 	mov	r3,r2
     7d8:	e0bffb17 	ldw	r2,-20(fp)
     7dc:	10c5883a 	add	r2,r2,r3
     7e0:	e0bffb15 	stw	r2,-20(fp)
		xchange = 1;
	}

	e = ((int)dy<<1) - dx;

	for (j=0; j<=dx; j++) {
     7e4:	e0bff817 	ldw	r2,-32(fp)
     7e8:	10800044 	addi	r2,r2,1
     7ec:	e0bff815 	stw	r2,-32(fp)
     7f0:	e0fff817 	ldw	r3,-32(fp)
     7f4:	e0bffa17 	ldw	r2,-24(fp)
     7f8:	10ffc70e 	bge	r2,r3,718 <VGA_line+0x1bc>
		if (xchange==1) y = y + s2;
		else x = x + s1;

		e = e + ((int)dy<<1);
	}
}
     7fc:	e037883a 	mov	sp,fp
     800:	df000017 	ldw	fp,0(sp)
     804:	dec00104 	addi	sp,sp,4
     808:	f800283a 	ret

0000080c <min_path>:
////////////////////////////////////////////////////////////////
// min_path
////////////////////////////////////////////////////////////////

void min_path(int base,int start, int dest)
{
     80c:	defffa04 	addi	sp,sp,-24
     810:	dfc00515 	stw	ra,20(sp)
     814:	df000415 	stw	fp,16(sp)
     818:	df000404 	addi	fp,sp,16
     81c:	e13ffd15 	stw	r4,-12(fp)
     820:	e17ffe15 	stw	r5,-8(fp)
     824:	e1bfff15 	stw	r6,-4(fp)
  if(neighbor[dest]!=start)
     828:	e0bfff17 	ldw	r2,-4(fp)
     82c:	00c000b4 	movhi	r3,2
     830:	18f0c504 	addi	r3,r3,-15596
     834:	1085883a 	add	r2,r2,r2
     838:	10c5883a 	add	r2,r2,r3
     83c:	1080000b 	ldhu	r2,0(r2)
     840:	10ffffcc 	andi	r3,r2,65535
     844:	e0bffe17 	ldw	r2,-8(fp)
     848:	18803f26 	beq	r3,r2,948 <min_path+0x13c>
    {
      VGA_line(base,x_coord[dest],y_coord[dest],x_coord[neighbor[dest]],y_coord[neighbor[dest]]);
     84c:	e0bfff17 	ldw	r2,-4(fp)
     850:	00c000b4 	movhi	r3,2
     854:	18f03504 	addi	r3,r3,-16172
     858:	1085883a 	add	r2,r2,r2
     85c:	10c5883a 	add	r2,r2,r3
     860:	1080000b 	ldhu	r2,0(r2)
     864:	117fffcc 	andi	r5,r2,65535
     868:	e0bfff17 	ldw	r2,-4(fp)
     86c:	00c000b4 	movhi	r3,2
     870:	18f0d504 	addi	r3,r3,-15532
     874:	1085883a 	add	r2,r2,r2
     878:	10c5883a 	add	r2,r2,r3
     87c:	1080000b 	ldhu	r2,0(r2)
     880:	11bfffcc 	andi	r6,r2,65535
     884:	e0bfff17 	ldw	r2,-4(fp)
     888:	00c000b4 	movhi	r3,2
     88c:	18f0c504 	addi	r3,r3,-15596
     890:	1085883a 	add	r2,r2,r2
     894:	10c5883a 	add	r2,r2,r3
     898:	1080000b 	ldhu	r2,0(r2)
     89c:	10bfffcc 	andi	r2,r2,65535
     8a0:	00c000b4 	movhi	r3,2
     8a4:	18f03504 	addi	r3,r3,-16172
     8a8:	1085883a 	add	r2,r2,r2
     8ac:	10c5883a 	add	r2,r2,r3
     8b0:	1080000b 	ldhu	r2,0(r2)
     8b4:	11ffffcc 	andi	r7,r2,65535
     8b8:	e0bfff17 	ldw	r2,-4(fp)
     8bc:	00c000b4 	movhi	r3,2
     8c0:	18f0c504 	addi	r3,r3,-15596
     8c4:	1085883a 	add	r2,r2,r2
     8c8:	10c5883a 	add	r2,r2,r3
     8cc:	1080000b 	ldhu	r2,0(r2)
     8d0:	10bfffcc 	andi	r2,r2,65535
     8d4:	00c000b4 	movhi	r3,2
     8d8:	18f0d504 	addi	r3,r3,-15532
     8dc:	1085883a 	add	r2,r2,r2
     8e0:	10c5883a 	add	r2,r2,r3
     8e4:	1080000b 	ldhu	r2,0(r2)
     8e8:	10bfffcc 	andi	r2,r2,65535
     8ec:	d8800015 	stw	r2,0(sp)
     8f0:	e13ffd17 	ldw	r4,-12(fp)
     8f4:	000055c0 	call	55c <VGA_line>
      dest = neighbor[dest];
     8f8:	e0bfff17 	ldw	r2,-4(fp)
     8fc:	00c000b4 	movhi	r3,2
     900:	18f0c504 	addi	r3,r3,-15596
     904:	1085883a 	add	r2,r2,r2
     908:	10c5883a 	add	r2,r2,r3
     90c:	1080000b 	ldhu	r2,0(r2)
     910:	10bfffcc 	andi	r2,r2,65535
     914:	e0bfff15 	stw	r2,-4(fp)
      min_path(base,start, dest);
     918:	e13ffd17 	ldw	r4,-12(fp)
     91c:	e17ffe17 	ldw	r5,-8(fp)
     920:	e1bfff17 	ldw	r6,-4(fp)
     924:	000080c0 	call	80c <min_path>
      printf("%d",dest);
     928:	01000074 	movhi	r4,1
     92c:	211e3704 	addi	r4,r4,30940
     930:	e17fff17 	ldw	r5,-4(fp)
     934:	00055540 	call	5554 <printf>
      printf(" ->\n");
     938:	01000074 	movhi	r4,1
     93c:	211e3804 	addi	r4,r4,30944
     940:	000566c0 	call	566c <puts>
     944:	00003206 	br	a10 <min_path+0x204>
    }
  else
    {
      VGA_line(base,x_coord[dest],y_coord[dest],x_coord[neighbor[dest]],y_coord[neighbor[dest]]);
     948:	e0bfff17 	ldw	r2,-4(fp)
     94c:	00c000b4 	movhi	r3,2
     950:	18f03504 	addi	r3,r3,-16172
     954:	1085883a 	add	r2,r2,r2
     958:	10c5883a 	add	r2,r2,r3
     95c:	1080000b 	ldhu	r2,0(r2)
     960:	117fffcc 	andi	r5,r2,65535
     964:	e0bfff17 	ldw	r2,-4(fp)
     968:	00c000b4 	movhi	r3,2
     96c:	18f0d504 	addi	r3,r3,-15532
     970:	1085883a 	add	r2,r2,r2
     974:	10c5883a 	add	r2,r2,r3
     978:	1080000b 	ldhu	r2,0(r2)
     97c:	11bfffcc 	andi	r6,r2,65535
     980:	e0bfff17 	ldw	r2,-4(fp)
     984:	00c000b4 	movhi	r3,2
     988:	18f0c504 	addi	r3,r3,-15596
     98c:	1085883a 	add	r2,r2,r2
     990:	10c5883a 	add	r2,r2,r3
     994:	1080000b 	ldhu	r2,0(r2)
     998:	10bfffcc 	andi	r2,r2,65535
     99c:	00c000b4 	movhi	r3,2
     9a0:	18f03504 	addi	r3,r3,-16172
     9a4:	1085883a 	add	r2,r2,r2
     9a8:	10c5883a 	add	r2,r2,r3
     9ac:	1080000b 	ldhu	r2,0(r2)
     9b0:	11ffffcc 	andi	r7,r2,65535
     9b4:	e0bfff17 	ldw	r2,-4(fp)
     9b8:	00c000b4 	movhi	r3,2
     9bc:	18f0c504 	addi	r3,r3,-15596
     9c0:	1085883a 	add	r2,r2,r2
     9c4:	10c5883a 	add	r2,r2,r3
     9c8:	1080000b 	ldhu	r2,0(r2)
     9cc:	10bfffcc 	andi	r2,r2,65535
     9d0:	00c000b4 	movhi	r3,2
     9d4:	18f0d504 	addi	r3,r3,-15532
     9d8:	1085883a 	add	r2,r2,r2
     9dc:	10c5883a 	add	r2,r2,r3
     9e0:	1080000b 	ldhu	r2,0(r2)
     9e4:	10bfffcc 	andi	r2,r2,65535
     9e8:	d8800015 	stw	r2,0(sp)
     9ec:	e13ffd17 	ldw	r4,-12(fp)
     9f0:	000055c0 	call	55c <VGA_line>
      printf("%d",start);
     9f4:	01000074 	movhi	r4,1
     9f8:	211e3704 	addi	r4,r4,30940
     9fc:	e17ffe17 	ldw	r5,-8(fp)
     a00:	00055540 	call	5554 <printf>
      printf(" ->\n");
     a04:	01000074 	movhi	r4,1
     a08:	211e3804 	addi	r4,r4,30944
     a0c:	000566c0 	call	566c <puts>
    }
}
     a10:	e037883a 	mov	sp,fp
     a14:	dfc00117 	ldw	ra,4(sp)
     a18:	df000017 	ldw	fp,0(sp)
     a1c:	dec00204 	addi	sp,sp,8
     a20:	f800283a 	ret

00000a24 <shortestPathFind>:
#define DEBUG_ON
struct timeval t1,t2;
int shortestPathFind(int base){
     a24:	defff504 	addi	sp,sp,-44
     a28:	dfc00a15 	stw	ra,40(sp)
     a2c:	df000915 	stw	fp,36(sp)
     a30:	df000904 	addi	fp,sp,36
     a34:	e13fff15 	stw	r4,-4(fp)
	int start ;
    int dest ;
    int trans_count;
    int temp;
    start = - 1 ;
     a38:	00bfffc4 	movi	r2,-1
     a3c:	e0bffd15 	stw	r2,-12(fp)
    InitXY();
     a40:	00003400 	call	340 <InitXY>
    printf("init XY is done...\n");
     a44:	01000074 	movhi	r4,1
     a48:	211e3904 	addi	r4,r4,30948
     a4c:	000566c0 	call	566c <puts>
    while(start < 0 || start >= max)
     a50:	00000906 	br	a78 <shortestPathFind+0x54>
    {
        printf("please input start node index...%d - %d\n",0,max-1);
     a54:	01000074 	movhi	r4,1
     a58:	211e3e04 	addi	r4,r4,30968
     a5c:	000b883a 	mov	r5,zero
     a60:	018003c4 	movi	r6,15
     a64:	00055540 	call	5554 <printf>
        scanf("%d",&start);
     a68:	e17ffd04 	addi	r5,fp,-12
     a6c:	01000074 	movhi	r4,1
     a70:	211e3704 	addi	r4,r4,30940
     a74:	00056b40 	call	56b4 <scanf>
    int trans_count;
    int temp;
    start = - 1 ;
    InitXY();
    printf("init XY is done...\n");
    while(start < 0 || start >= max)
     a78:	e0bffd17 	ldw	r2,-12(fp)
     a7c:	1004803a 	cmplt	r2,r2,zero
     a80:	103ff41e 	bne	r2,zero,a54 <shortestPathFind+0x30>
     a84:	e0bffd17 	ldw	r2,-12(fp)
     a88:	10800408 	cmpgei	r2,r2,16
     a8c:	103ff11e 	bne	r2,zero,a54 <shortestPathFind+0x30>
        printf("please input start node index...%d - %d\n",0,max-1);
        scanf("%d",&start);
    }


    Dijstra_set_start(base,start);
     a90:	e0ffff17 	ldw	r3,-4(fp)
     a94:	008004f4 	movhi	r2,19
     a98:	10b00e04 	addi	r2,r2,-16328
     a9c:	1885883a 	add	r2,r3,r2
     aa0:	e0fffd17 	ldw	r3,-12(fp)
     aa4:	10c00035 	stwio	r3,0(r2)
    temp = Dijstra_start(base);
     aa8:	e0ffff17 	ldw	r3,-4(fp)
     aac:	008004f4 	movhi	r2,19
     ab0:	10b00e04 	addi	r2,r2,-16328
     ab4:	1885883a 	add	r2,r3,r2
     ab8:	10800037 	ldwio	r2,0(r2)
     abc:	e0bffb15 	stw	r2,-20(fp)
#ifdef DEBUG_ON
    temp = Dijstra_start(base);
     ac0:	e0ffff17 	ldw	r3,-4(fp)
     ac4:	008004f4 	movhi	r2,19
     ac8:	10b00e04 	addi	r2,r2,-16328
     acc:	1885883a 	add	r2,r3,r2
     ad0:	10800037 	ldwio	r2,0(r2)
     ad4:	e0bffb15 	stw	r2,-20(fp)
    if(temp != start )
     ad8:	e0fffd17 	ldw	r3,-12(fp)
     adc:	e0bffb17 	ldw	r2,-20(fp)
     ae0:	10c00426 	beq	r2,r3,af4 <shortestPathFind+0xd0>
    {
    	printf("error : start node index setting is failed value = %d \n", temp);
     ae4:	01000074 	movhi	r4,1
     ae8:	211e4904 	addi	r4,r4,31012
     aec:	e17ffb17 	ldw	r5,-20(fp)
     af0:	00055540 	call	5554 <printf>
    }
    #endif
    printf("start node index  :   %d\n",start);
     af4:	e17ffd17 	ldw	r5,-12(fp)
     af8:	01000074 	movhi	r4,1
     afc:	211e5704 	addi	r4,r4,31068
     b00:	00055540 	call	5554 <printf>
//    return 0;
    dest = -1 ;
     b04:	00bfffc4 	movi	r2,-1
     b08:	e0bffe15 	stw	r2,-8(fp)
    while(dest < 0 || dest >= max)
     b0c:	00000906 	br	b34 <shortestPathFind+0x110>
    {
        printf("please input destination node index...%d - %d",0,max-1);
     b10:	01000074 	movhi	r4,1
     b14:	211e5e04 	addi	r4,r4,31096
     b18:	000b883a 	mov	r5,zero
     b1c:	018003c4 	movi	r6,15
     b20:	00055540 	call	5554 <printf>
        scanf("%d",&dest);
     b24:	e17ffe04 	addi	r5,fp,-8
     b28:	01000074 	movhi	r4,1
     b2c:	211e3704 	addi	r4,r4,30940
     b30:	00056b40 	call	56b4 <scanf>
    }
    #endif
    printf("start node index  :   %d\n",start);
//    return 0;
    dest = -1 ;
    while(dest < 0 || dest >= max)
     b34:	e0bffe17 	ldw	r2,-8(fp)
     b38:	1004803a 	cmplt	r2,r2,zero
     b3c:	103ff41e 	bne	r2,zero,b10 <shortestPathFind+0xec>
     b40:	e0bffe17 	ldw	r2,-8(fp)
     b44:	10800408 	cmpgei	r2,r2,16
     b48:	103ff11e 	bne	r2,zero,b10 <shortestPathFind+0xec>
    {
        printf("please input destination node index...%d - %d",0,max-1);
        scanf("%d",&dest);
    }
    printf("destination node index :   %d\n",dest);
     b4c:	e17ffe17 	ldw	r5,-8(fp)
     b50:	01000074 	movhi	r4,1
     b54:	211e6a04 	addi	r4,r4,31144
     b58:	00055540 	call	5554 <printf>
//    return 0;
    Dijstra_set_clk_NIOS(base,0);
     b5c:	e0ffff17 	ldw	r3,-4(fp)
     b60:	008004f4 	movhi	r2,19
     b64:	10b00c04 	addi	r2,r2,-16336
     b68:	1885883a 	add	r2,r3,r2
     b6c:	10000035 	stwio	zero,0(r2)
#ifdef DEBUG_ON
    temp = Dijstra_clk_NIOS(base);
     b70:	e0ffff17 	ldw	r3,-4(fp)
     b74:	008004f4 	movhi	r2,19
     b78:	10b00c04 	addi	r2,r2,-16336
     b7c:	1885883a 	add	r2,r3,r2
     b80:	10800037 	ldwio	r2,0(r2)
     b84:	e0bffb15 	stw	r2,-20(fp)
    if(temp != 0 )
     b88:	e0bffb17 	ldw	r2,-20(fp)
     b8c:	1005003a 	cmpeq	r2,r2,zero
     b90:	1000041e 	bne	r2,zero,ba4 <shortestPathFind+0x180>
    {
    	printf("error : clk_NIOS setting is failed value = %d \n", temp);
     b94:	01000074 	movhi	r4,1
     b98:	211e7204 	addi	r4,r4,31176
     b9c:	e17ffb17 	ldw	r5,-20(fp)
     ba0:	00055540 	call	5554 <printf>
    }
    #endif
    Dijstra_set_trans_count(base,0);
     ba4:	e0ffff17 	ldw	r3,-4(fp)
     ba8:	008004f4 	movhi	r2,19
     bac:	10b01104 	addi	r2,r2,-16316
     bb0:	1885883a 	add	r2,r3,r2
     bb4:	10000035 	stwio	zero,0(r2)
#ifdef DEBUG_ON
    temp = Dijstra_trans_count(base);
     bb8:	e0ffff17 	ldw	r3,-4(fp)
     bbc:	008004f4 	movhi	r2,19
     bc0:	10b01104 	addi	r2,r2,-16316
     bc4:	1885883a 	add	r2,r3,r2
     bc8:	10800037 	ldwio	r2,0(r2)
     bcc:	e0bffb15 	stw	r2,-20(fp)
    if(temp != 0 )
     bd0:	e0bffb17 	ldw	r2,-20(fp)
     bd4:	1005003a 	cmpeq	r2,r2,zero
     bd8:	1000041e 	bne	r2,zero,bec <shortestPathFind+0x1c8>
    {
    	printf("error : trans_count setting is failed value = %d \n", temp);
     bdc:	01000074 	movhi	r4,1
     be0:	211e7e04 	addi	r4,r4,31224
     be4:	e17ffb17 	ldw	r5,-20(fp)
     be8:	00055540 	call	5554 <printf>
    }
    #endif

    Dijstra_set_reset(base,0);
     bec:	e0ffff17 	ldw	r3,-4(fp)
     bf0:	008004f4 	movhi	r2,19
     bf4:	10b00d04 	addi	r2,r2,-16332
     bf8:	1885883a 	add	r2,r3,r2
     bfc:	10000035 	stwio	zero,0(r2)
#ifdef DEBUG_ON
    temp = Dijstra_reset(base);
     c00:	e0ffff17 	ldw	r3,-4(fp)
     c04:	008004f4 	movhi	r2,19
     c08:	10b00d04 	addi	r2,r2,-16332
     c0c:	1885883a 	add	r2,r3,r2
     c10:	10800037 	ldwio	r2,0(r2)
     c14:	e0bffb15 	stw	r2,-20(fp)
    if(temp != 0 )
     c18:	e0bffb17 	ldw	r2,-20(fp)
     c1c:	1005003a 	cmpeq	r2,r2,zero
     c20:	1000041e 	bne	r2,zero,c34 <shortestPathFind+0x210>
    {
    	printf("error : reset setting is failed value = %d \n", temp);
     c24:	01000074 	movhi	r4,1
     c28:	211e8b04 	addi	r4,r4,31276
     c2c:	e17ffb17 	ldw	r5,-20(fp)
     c30:	00055540 	call	5554 <printf>
    }
    #endif
    //now starting shortest path finding on FPGA
    Dijstra_set_reset(base,1);
     c34:	e0ffff17 	ldw	r3,-4(fp)
     c38:	008004f4 	movhi	r2,19
     c3c:	10b00d04 	addi	r2,r2,-16332
     c40:	1885883a 	add	r2,r3,r2
     c44:	1007883a 	mov	r3,r2
     c48:	00800044 	movi	r2,1
     c4c:	18800035 	stwio	r2,0(r3)
#ifdef DEBUG_ON
    temp = Dijstra_reset(base);
     c50:	e0ffff17 	ldw	r3,-4(fp)
     c54:	008004f4 	movhi	r2,19
     c58:	10b00d04 	addi	r2,r2,-16332
     c5c:	1885883a 	add	r2,r3,r2
     c60:	10800037 	ldwio	r2,0(r2)
     c64:	e0bffb15 	stw	r2,-20(fp)
    if(temp != 1 )
     c68:	e0bffb17 	ldw	r2,-20(fp)
     c6c:	10800060 	cmpeqi	r2,r2,1
     c70:	1000041e 	bne	r2,zero,c84 <shortestPathFind+0x260>
    {
    	printf("error : reset setting is failed value = %d \n", temp);
     c74:	01000074 	movhi	r4,1
     c78:	211e8b04 	addi	r4,r4,31276
     c7c:	e17ffb17 	ldw	r5,-20(fp)
     c80:	00055540 	call	5554 <printf>
    }
    #endif

    alt_u16 state =0 ;
     c84:	e03ffa0d 	sth	zero,-24(fp)
    int count = 0 ;
     c88:	e03ff915 	stw	zero,-28(fp)
    gettimeofday(&t1,NULL);
     c8c:	d1270404 	addi	r4,gp,-25584
     c90:	000b883a 	mov	r5,zero
     c94:	0013dac0 	call	13dac <gettimeofday>
    while(state != 7 /*&& count < 1000*/)  //state done
     c98:	00000706 	br	cb8 <shortestPathFind+0x294>
    {
//    	count ++ ;
    	state = Dijstra_state(base);
     c9c:	e0ffff17 	ldw	r3,-4(fp)
     ca0:	008004f4 	movhi	r2,19
     ca4:	10b00f04 	addi	r2,r2,-16324
     ca8:	1885883a 	add	r2,r3,r2
     cac:	10800037 	ldwio	r2,0(r2)
     cb0:	e0bffa0d 	sth	r2,-24(fp)
    	delay();
     cb4:	00002dc0 	call	2dc <delay>
    #endif

    alt_u16 state =0 ;
    int count = 0 ;
    gettimeofday(&t1,NULL);
    while(state != 7 /*&& count < 1000*/)  //state done
     cb8:	e0bffa0b 	ldhu	r2,-24(fp)
     cbc:	108001d8 	cmpnei	r2,r2,7
     cc0:	103ff61e 	bne	r2,zero,c9c <shortestPathFind+0x278>
    	delay();
#ifdef DEBUG_ON
//    	printf("current state = %d \n" , state);
#endif
    }
    gettimeofday(&t2,NULL);
     cc4:	d1270204 	addi	r4,gp,-25592
     cc8:	000b883a 	mov	r5,zero
     ccc:	0013dac0 	call	13dac <gettimeofday>
    double eval_time_ms ;
    eval_time_ms = (double)(t2.tv_usec - t1.tv_usec);
     cd0:	008000b4 	movhi	r2,2
     cd4:	10b01704 	addi	r2,r2,-16292
     cd8:	10c00017 	ldw	r3,0(r2)
     cdc:	008000b4 	movhi	r2,2
     ce0:	10b01904 	addi	r2,r2,-16284
     ce4:	10800017 	ldw	r2,0(r2)
     ce8:	1889c83a 	sub	r4,r3,r2
     cec:	0004f7c0 	call	4f7c <__floatsidf>
     cf0:	1009883a 	mov	r4,r2
     cf4:	180b883a 	mov	r5,r3
     cf8:	e13ff715 	stw	r4,-36(fp)
     cfc:	e17ff815 	stw	r5,-32(fp)
//    eval_time_ms /= 1000.0f ; // ms
    printf("end of shortest path finding\n");
     d00:	01000074 	movhi	r4,1
     d04:	211e9704 	addi	r4,r4,31324
     d08:	000566c0 	call	566c <puts>
    printf("elapsed time = %7.5f us \n",eval_time_ms);
     d0c:	01000074 	movhi	r4,1
     d10:	211e9f04 	addi	r4,r4,31356
     d14:	e17ff717 	ldw	r5,-36(fp)
     d18:	e1bff817 	ldw	r6,-32(fp)
     d1c:	00055540 	call	5554 <printf>

//    return 0 ;
    trans_count = 0 ;
     d20:	e03ffc15 	stw	zero,-16(fp)
    while(trans_count < max)
     d24:	00004906 	br	e4c <shortestPathFind+0x428>
    {
		#ifdef DEBUG_ON
    		printf("trans_count = %d \n" , trans_count);
     d28:	01000074 	movhi	r4,1
     d2c:	211ea604 	addi	r4,r4,31384
     d30:	e17ffc17 	ldw	r5,-16(fp)
     d34:	00055540 	call	5554 <printf>
    	#endif
    	Dijstra_set_clk_NIOS(base,1);
     d38:	e0ffff17 	ldw	r3,-4(fp)
     d3c:	008004f4 	movhi	r2,19
     d40:	10b00c04 	addi	r2,r2,-16336
     d44:	1885883a 	add	r2,r3,r2
     d48:	1007883a 	mov	r3,r2
     d4c:	00800044 	movi	r2,1
     d50:	18800035 	stwio	r2,0(r3)
    	delay();
     d54:	00002dc0 	call	2dc <delay>
    	neighbor[trans_count] = Dijstra_neighbor(base);
     d58:	e17ffc17 	ldw	r5,-16(fp)
     d5c:	e0ffff17 	ldw	r3,-4(fp)
     d60:	008004f4 	movhi	r2,19
     d64:	10b01004 	addi	r2,r2,-16320
     d68:	1885883a 	add	r2,r3,r2
     d6c:	10800037 	ldwio	r2,0(r2)
     d70:	1009883a 	mov	r4,r2
     d74:	00c000b4 	movhi	r3,2
     d78:	18f0c504 	addi	r3,r3,-15596
     d7c:	2945883a 	add	r2,r5,r5
     d80:	10c5883a 	add	r2,r2,r3
     d84:	1100000d 	sth	r4,0(r2)
#ifdef DEBUG_ON
    	printf("neighbor[%d] = %d \n" , trans_count,neighbor[trans_count]);
     d88:	e0bffc17 	ldw	r2,-16(fp)
     d8c:	00c000b4 	movhi	r3,2
     d90:	18f0c504 	addi	r3,r3,-15596
     d94:	1085883a 	add	r2,r2,r2
     d98:	10c5883a 	add	r2,r2,r3
     d9c:	1080000b 	ldhu	r2,0(r2)
     da0:	11bfffcc 	andi	r6,r2,65535
     da4:	01000074 	movhi	r4,1
     da8:	211eab04 	addi	r4,r4,31404
     dac:	e17ffc17 	ldw	r5,-16(fp)
     db0:	00055540 	call	5554 <printf>
#endif
    	distance[trans_count] = Dijstra_distance(base);
     db4:	e17ffc17 	ldw	r5,-16(fp)
     db8:	e0ffff17 	ldw	r3,-4(fp)
     dbc:	008004f4 	movhi	r2,19
     dc0:	10b01204 	addi	r2,r2,-16312
     dc4:	1885883a 	add	r2,r3,r2
     dc8:	10800037 	ldwio	r2,0(r2)
     dcc:	1009883a 	mov	r4,r2
     dd0:	00c000b4 	movhi	r3,2
     dd4:	18f0bd04 	addi	r3,r3,-15628
     dd8:	2945883a 	add	r2,r5,r5
     ddc:	10c5883a 	add	r2,r2,r3
     de0:	1100000d 	sth	r4,0(r2)
#ifdef DEBUG_ON
    	printf("distance[%d] = %d \n" , trans_count,distance[trans_count]);
     de4:	e0bffc17 	ldw	r2,-16(fp)
     de8:	00c000b4 	movhi	r3,2
     dec:	18f0bd04 	addi	r3,r3,-15628
     df0:	1085883a 	add	r2,r2,r2
     df4:	10c5883a 	add	r2,r2,r3
     df8:	1080000b 	ldhu	r2,0(r2)
     dfc:	11bfffcc 	andi	r6,r2,65535
     e00:	01000074 	movhi	r4,1
     e04:	211eb004 	addi	r4,r4,31424
     e08:	e17ffc17 	ldw	r5,-16(fp)
     e0c:	00055540 	call	5554 <printf>
#endif
    	trans_count++;
     e10:	e0bffc17 	ldw	r2,-16(fp)
     e14:	10800044 	addi	r2,r2,1
     e18:	e0bffc15 	stw	r2,-16(fp)
    	Dijstra_set_trans_count(base,trans_count);
     e1c:	e0ffff17 	ldw	r3,-4(fp)
     e20:	008004f4 	movhi	r2,19
     e24:	10b01104 	addi	r2,r2,-16316
     e28:	1885883a 	add	r2,r3,r2
     e2c:	1007883a 	mov	r3,r2
     e30:	e0bffc17 	ldw	r2,-16(fp)
     e34:	18800035 	stwio	r2,0(r3)
    	Dijstra_set_clk_NIOS(base,0);
     e38:	e0ffff17 	ldw	r3,-4(fp)
     e3c:	008004f4 	movhi	r2,19
     e40:	10b00c04 	addi	r2,r2,-16336
     e44:	1885883a 	add	r2,r3,r2
     e48:	10000035 	stwio	zero,0(r2)
    printf("end of shortest path finding\n");
    printf("elapsed time = %7.5f us \n",eval_time_ms);

//    return 0 ;
    trans_count = 0 ;
    while(trans_count < max)
     e4c:	e0bffc17 	ldw	r2,-16(fp)
     e50:	10800410 	cmplti	r2,r2,16
     e54:	103fb41e 	bne	r2,zero,d28 <shortestPathFind+0x304>
    	trans_count++;
    	Dijstra_set_trans_count(base,trans_count);
    	Dijstra_set_clk_NIOS(base,0);
    }
 //   return 0 ;
    printf("Shortest Path is :\n\n");
     e58:	01000074 	movhi	r4,1
     e5c:	211eb504 	addi	r4,r4,31444
     e60:	000566c0 	call	566c <puts>
    min_path(base,start,dest);
     e64:	e17ffd17 	ldw	r5,-12(fp)
     e68:	e1bffe17 	ldw	r6,-8(fp)
     e6c:	e13fff17 	ldw	r4,-4(fp)
     e70:	000080c0 	call	80c <min_path>
    printf("%d",dest);
     e74:	e17ffe17 	ldw	r5,-8(fp)
     e78:	01000074 	movhi	r4,1
     e7c:	211e3704 	addi	r4,r4,30940
     e80:	00055540 	call	5554 <printf>
    printf("\n\n");
     e84:	01000074 	movhi	r4,1
     e88:	211eba04 	addi	r4,r4,31464
     e8c:	000566c0 	call	566c <puts>
    return 1 ;
     e90:	00800044 	movi	r2,1
}
     e94:	e037883a 	mov	sp,fp
     e98:	dfc00117 	ldw	ra,4(sp)
     e9c:	df000017 	ldw	fp,0(sp)
     ea0:	dec00204 	addi	sp,sp,8
     ea4:	f800283a 	ret

00000ea8 <main>:
//
//                                Main function
//
//----------------------------------------------------------------------------------------//
int main(void)
{
     ea8:	defff804 	addi	sp,sp,-32
     eac:	dfc00715 	stw	ra,28(sp)
     eb0:	df000615 	stw	fp,24(sp)
     eb4:	df000604 	addi	fp,sp,24
    alt_u16 intStat;
    alt_u16 usb_ctl_val;
    static alt_u16 ctl_reg = 0;
    static alt_u16 no_device = 0;
    alt_u16 fs_device = 0;
     eb8:	e03ffe0d 	sth	zero,-8(fp)
    int button_value;
    alt_u16 px = 320;
     ebc:	00805004 	movi	r2,320
     ec0:	e0bffc0d 	sth	r2,-16(fp)
    alt_u16 py = 240; 
     ec4:	00803c04 	movi	r2,240
     ec8:	e0bffb8d 	sth	r2,-18(fp)
    signed char  dx = 0;
     ecc:	e03ffb05 	stb	zero,-20(fp)
    signed char  dy = 0; 
     ed0:	e03ffac5 	stb	zero,-21(fp)
    alt_u8  pbutton = 0;
     ed4:	e03ffa85 	stb	zero,-22(fp)
    alt_u8 toggle=0;
     ed8:	e03ffa45 	stb	zero,-23(fp)
    
    //VGA display initial
    
    VGA_Ctrl_Reg vga_ctrl_set;

    vga_ctrl_set.VGA_Ctrl_Flags.RED_ON    = 1;
     edc:	e0bfff83 	ldbu	r2,-2(fp)
     ee0:	10800054 	ori	r2,r2,1
     ee4:	e0bfff85 	stb	r2,-2(fp)
    vga_ctrl_set.VGA_Ctrl_Flags.GREEN_ON  = 1;
     ee8:	e0bfff83 	ldbu	r2,-2(fp)
     eec:	10800094 	ori	r2,r2,2
     ef0:	e0bfff85 	stb	r2,-2(fp)
    vga_ctrl_set.VGA_Ctrl_Flags.BLUE_ON   = 1;
     ef4:	e0bfff83 	ldbu	r2,-2(fp)
     ef8:	10800114 	ori	r2,r2,4
     efc:	e0bfff85 	stb	r2,-2(fp)
    vga_ctrl_set.VGA_Ctrl_Flags.CURSOR_ON = 1;
     f00:	e0bfff83 	ldbu	r2,-2(fp)
     f04:	10800214 	ori	r2,r2,8
     f08:	e0bfff85 	stb	r2,-2(fp)

    Vga_Write_Ctrl(VPG_BASE, vga_ctrl_set.Value);
     f0c:	e0bfff83 	ldbu	r2,-2(fp)
     f10:	10c03fcc 	andi	r3,r2,255
     f14:	008244f4 	movhi	r2,2323
     f18:	10b00004 	addi	r2,r2,-16384
     f1c:	10c00035 	stwio	r3,0(r2)
    Vga_clear_screen(VPG_BASE); //clear the screen
     f20:	01024034 	movhi	r4,2304
     f24:	00002540 	call	254 <Vga_clear_screen>
    Set_Pixel_On_Color(512,512,512);
     f28:	01008004 	movi	r4,512
     f2c:	01408004 	movi	r5,512
     f30:	01808004 	movi	r6,512
     f34:	0004ecc0 	call	4ecc <Set_Pixel_On_Color>
    Set_Pixel_Off_Color(0,0,0);
     f38:	0009883a 	mov	r4,zero
     f3c:	000b883a 	mov	r5,zero
     f40:	000d883a 	mov	r6,zero
     f44:	0004f240 	call	4f24 <Set_Pixel_Off_Color>
    Set_Cursor_Color(0,1023,0);
     f48:	0009883a 	mov	r4,zero
     f4c:	0140ffc4 	movi	r5,1023
     f50:	000d883a 	mov	r6,zero
     f54:	0004e740 	call	4e74 <Set_Cursor_Color>
    LCD_Test();
     f58:	0004acc0 	call	4acc <LCD_Test>
    //newly added code
    shortestPathFind(VPG_BASE);
     f5c:	01024034 	movhi	r4,2304
     f60:	0000a240 	call	a24 <shortestPathFind>
     f64:	00000006 	br	f68 <main+0xc0>
    //end
    //--------------------------------------------------------------------------------------------------------//
    //----------------------------------------SIE1 initial----------------------------------------------------//
USB_HOT_PLUG:
    UsbSoftReset();
     f68:	00048b00 	call	48b0 <UsbSoftReset>
    UsbWrite (HPI_SIE1_MSG_ADR, 0);
     f6c:	01005104 	movi	r4,324
     f70:	000b883a 	mov	r5,zero
     f74:	000482c0 	call	482c <UsbWrite>
    UsbWrite (HOST1_STAT_REG, 0xFFFF);
     f78:	01302414 	movui	r4,49296
     f7c:	017fffd4 	movui	r5,65535
     f80:	000482c0 	call	482c <UsbWrite>
              
    /* Set HUSB_pEOT time */
    UsbWrite(HUSB_pEOT, 600); // adjust the according to your USB device speed
     f84:	01006d04 	movi	r4,436
     f88:	01409604 	movi	r5,600
     f8c:	000482c0 	call	482c <UsbWrite>
     
    usb_ctl_val = SOFEOP1_TO_CPU_EN | RESUME1_TO_HPI_EN;// | SOFEOP1_TO_HPI_EN;
     f90:	00811004 	movi	r2,1088
     f94:	e0bffe8d 	sth	r2,-6(fp)
    UsbWrite(HPI_IRQ_ROUTING_REG, usb_ctl_val);
     f98:	e17ffe8b 	ldhu	r5,-6(fp)
     f9c:	01005084 	movi	r4,322
     fa0:	000482c0 	call	482c <UsbWrite>
    
    intStat = A_CHG_IRQ_EN | SOF_EOP_IRQ_EN ;
     fa4:	00808404 	movi	r2,528
     fa8:	e0bfff0d 	sth	r2,-4(fp)
    UsbWrite(HOST1_IRQ_EN_REG, intStat); 
     fac:	e17fff0b 	ldhu	r5,-4(fp)
     fb0:	01302314 	movui	r4,49292
     fb4:	000482c0 	call	482c <UsbWrite>

    UsbWrite(COMM_R0,0x0000);//reset time 
     fb8:	01007104 	movi	r4,452
     fbc:	000b883a 	mov	r5,zero
     fc0:	000482c0 	call	482c <UsbWrite>
    UsbWrite(COMM_R1,0x0000);  //port number
     fc4:	01007184 	movi	r4,454
     fc8:	000b883a 	mov	r5,zero
     fcc:	000482c0 	call	482c <UsbWrite>
    UsbWrite(COMM_R2,0x0000);  //r1
     fd0:	01007204 	movi	r4,456
     fd4:	000b883a 	mov	r5,zero
     fd8:	000482c0 	call	482c <UsbWrite>
    UsbWrite(COMM_R3,0x0000);  //r1
     fdc:	01007284 	movi	r4,458
     fe0:	000b883a 	mov	r5,zero
     fe4:	000482c0 	call	482c <UsbWrite>
    UsbWrite(COMM_R4,0x0000);  //r1
     fe8:	01007304 	movi	r4,460
     fec:	000b883a 	mov	r5,zero
     ff0:	000482c0 	call	482c <UsbWrite>
    UsbWrite(COMM_R5,0x0000);  //r1
     ff4:	01007384 	movi	r4,462
     ff8:	000b883a 	mov	r5,zero
     ffc:	000482c0 	call	482c <UsbWrite>
    UsbWrite(COMM_R6,0x0000);  //r1
    1000:	01007404 	movi	r4,464
    1004:	000b883a 	mov	r5,zero
    1008:	000482c0 	call	482c <UsbWrite>
    UsbWrite(COMM_R7,0x0000);  //r1
    100c:	01007484 	movi	r4,466
    1010:	000b883a 	mov	r5,zero
    1014:	000482c0 	call	482c <UsbWrite>
    UsbWrite(COMM_R8,0x0000);  //r1
    1018:	01007504 	movi	r4,468
    101c:	000b883a 	mov	r5,zero
    1020:	000482c0 	call	482c <UsbWrite>
    UsbWrite(COMM_R9,0x0000);  //r1
    1024:	01007584 	movi	r4,470
    1028:	000b883a 	mov	r5,zero
    102c:	000482c0 	call	482c <UsbWrite>
    UsbWrite(COMM_R10,0x0000);  //r1
    1030:	01007604 	movi	r4,472
    1034:	000b883a 	mov	r5,zero
    1038:	000482c0 	call	482c <UsbWrite>
    UsbWrite(COMM_R11,0x0000);  //r1
    103c:	01007684 	movi	r4,474
    1040:	000b883a 	mov	r5,zero
    1044:	000482c0 	call	482c <UsbWrite>
    UsbWrite(COMM_R12,0x0000);  //r1
    1048:	01007704 	movi	r4,476
    104c:	000b883a 	mov	r5,zero
    1050:	000482c0 	call	482c <UsbWrite>
    UsbWrite(COMM_R13,0x0000);  //r1    
    1054:	01007784 	movi	r4,478
    1058:	000b883a 	mov	r5,zero
    105c:	000482c0 	call	482c <UsbWrite>
    UsbWrite(COMM_INT_NUM,HUSB_SIE1_INIT_INT); //HUSB_SIE1_INIT_INT
    1060:	01007084 	movi	r4,450
    1064:	01401c84 	movi	r5,114
    1068:	000482c0 	call	482c <UsbWrite>
    IOWR(CY7C67200_BASE,HPI_MAILBOX,0xCE01);
    106c:	00c24834 	movhi	r3,2336
    1070:	18c01d04 	addi	r3,r3,116
    1074:	00b38054 	movui	r2,52737
    1078:	18800035 	stwio	r2,0(r3)
     
    while (!(IORD(CY7C67200_BASE,HPI_STATUS) & 0xFFFF) )  //read sie1 msg register
    107c:	00824834 	movhi	r2,2336
    1080:	10801f04 	addi	r2,r2,124
    1084:	10800037 	ldwio	r2,0(r2)
    1088:	10bfffcc 	andi	r2,r2,65535
    108c:	1005003a 	cmpeq	r2,r2,zero
    1090:	103ffa1e 	bne	r2,zero,107c <main+0x1d4>
    {
    }
    while (IORD(CY7C67200_BASE,HPI_MAILBOX) != COMM_ACK) 
    1094:	00824834 	movhi	r2,2336
    1098:	10801d04 	addi	r2,r2,116
    109c:	10800037 	ldwio	r2,0(r2)
    10a0:	1083fb60 	cmpeqi	r2,r2,4077
    10a4:	1000071e 	bne	r2,zero,10c4 <main+0x21c>
    {
        printf("[ERROR]:routine mailbox data is %x\n",IORD(CY7C67200_BASE,HPI_MAILBOX));
    10a8:	00824834 	movhi	r2,2336
    10ac:	10801d04 	addi	r2,r2,116
    10b0:	11400037 	ldwio	r5,0(r2)
    10b4:	01000074 	movhi	r4,1
    10b8:	211ebb04 	addi	r4,r4,31468
    10bc:	00055540 	call	5554 <printf>
        goto USB_HOT_PLUG;
    10c0:	003fa906 	br	f68 <main+0xc0>
    }
    
  
    //usleep(30*1000);    
    UsbWrite(COMM_INT_NUM,HUSB_RESET_INT); //husb reset
    10c4:	01007084 	movi	r4,450
    10c8:	01401d04 	movi	r5,116
    10cc:	000482c0 	call	482c <UsbWrite>
    UsbWrite(COMM_R0,0x003c);//reset time 
    10d0:	01007104 	movi	r4,452
    10d4:	01400f04 	movi	r5,60
    10d8:	000482c0 	call	482c <UsbWrite>
    UsbWrite(COMM_R1,0x0000);  //port number
    10dc:	01007184 	movi	r4,454
    10e0:	000b883a 	mov	r5,zero
    10e4:	000482c0 	call	482c <UsbWrite>
    UsbWrite(COMM_R2,0x0000);  //r1
    10e8:	01007204 	movi	r4,456
    10ec:	000b883a 	mov	r5,zero
    10f0:	000482c0 	call	482c <UsbWrite>
    UsbWrite(COMM_R3,0x0000);  //r1
    10f4:	01007284 	movi	r4,458
    10f8:	000b883a 	mov	r5,zero
    10fc:	000482c0 	call	482c <UsbWrite>
    UsbWrite(COMM_R4,0x0000);  //r1
    1100:	01007304 	movi	r4,460
    1104:	000b883a 	mov	r5,zero
    1108:	000482c0 	call	482c <UsbWrite>
    UsbWrite(COMM_R5,0x0000);  //r1
    110c:	01007384 	movi	r4,462
    1110:	000b883a 	mov	r5,zero
    1114:	000482c0 	call	482c <UsbWrite>
    UsbWrite(COMM_R6,0x0000);  //r1
    1118:	01007404 	movi	r4,464
    111c:	000b883a 	mov	r5,zero
    1120:	000482c0 	call	482c <UsbWrite>
    UsbWrite(COMM_R7,0x0000);  //r1
    1124:	01007484 	movi	r4,466
    1128:	000b883a 	mov	r5,zero
    112c:	000482c0 	call	482c <UsbWrite>
    UsbWrite(COMM_R8,0x0000);  //r1
    1130:	01007504 	movi	r4,468
    1134:	000b883a 	mov	r5,zero
    1138:	000482c0 	call	482c <UsbWrite>
    UsbWrite(COMM_R9,0x0000);  //r1
    113c:	01007584 	movi	r4,470
    1140:	000b883a 	mov	r5,zero
    1144:	000482c0 	call	482c <UsbWrite>
    UsbWrite(COMM_R10,0x0000);  //r1
    1148:	01007604 	movi	r4,472
    114c:	000b883a 	mov	r5,zero
    1150:	000482c0 	call	482c <UsbWrite>
    UsbWrite(COMM_R11,0x0000);  //r1
    1154:	01007684 	movi	r4,474
    1158:	000b883a 	mov	r5,zero
    115c:	000482c0 	call	482c <UsbWrite>
    UsbWrite(COMM_R12,0x0000);  //r1
    1160:	01007704 	movi	r4,476
    1164:	000b883a 	mov	r5,zero
    1168:	000482c0 	call	482c <UsbWrite>
    UsbWrite(COMM_R13,0x0000);  //r1    
    116c:	01007784 	movi	r4,478
    1170:	000b883a 	mov	r5,zero
    1174:	000482c0 	call	482c <UsbWrite>

    IOWR(CY7C67200_BASE,HPI_MAILBOX,0xCE01);
    1178:	00c24834 	movhi	r3,2336
    117c:	18c01d04 	addi	r3,r3,116
    1180:	00b38054 	movui	r2,52737
    1184:	18800035 	stwio	r2,0(r3)
  
    while (IORD(CY7C67200_BASE,HPI_MAILBOX) != COMM_ACK) 
    1188:	00824834 	movhi	r2,2336
    118c:	10801d04 	addi	r2,r2,116
    1190:	10800037 	ldwio	r2,0(r2)
    1194:	1083fb60 	cmpeqi	r2,r2,4077
    1198:	1000071e 	bne	r2,zero,11b8 <main+0x310>
    {
        printf("[ERROR]:routine mailbox data is %x\n",IORD(CY7C67200_BASE,HPI_MAILBOX));
    119c:	00824834 	movhi	r2,2336
    11a0:	10801d04 	addi	r2,r2,116
    11a4:	11400037 	ldwio	r5,0(r2)
    11a8:	01000074 	movhi	r4,1
    11ac:	211ebb04 	addi	r4,r4,31468
    11b0:	00055540 	call	5554 <printf>
        goto USB_HOT_PLUG;
    11b4:	003f6c06 	br	f68 <main+0xc0>
    }

    //usleep(30*1000);    
    ctl_reg = USB1_CTL_REG;
    11b8:	00b02284 	movi	r2,-16246
    11bc:	d0a7018d 	sth	r2,-25594(gp)
    no_device = (A_DP_STAT | A_DM_STAT);
    11c0:	008c0004 	movi	r2,12288
    11c4:	d0a7010d 	sth	r2,-25596(gp)
    fs_device = A_DP_STAT;
    11c8:	00880004 	movi	r2,8192
    11cc:	e0bffe0d 	sth	r2,-8(fp)
    
    usb_ctl_val = UsbRead(ctl_reg);
    11d0:	d0a7018b 	ldhu	r2,-25594(gp)
    11d4:	113fffcc 	andi	r4,r2,65535
    11d8:	00048700 	call	4870 <UsbRead>
    11dc:	e0bffe8d 	sth	r2,-6(fp)
   
    if (!(usb_ctl_val & no_device))
    11e0:	d0e7010b 	ldhu	r3,-25596(gp)
    11e4:	e0bffe8b 	ldhu	r2,-6(fp)
    11e8:	1884703a 	and	r2,r3,r2
    11ec:	10bfffcc 	andi	r2,r2,65535
    11f0:	1004c03a 	cmpne	r2,r2,zero
    11f4:	10001a1e 	bne	r2,zero,1260 <main+0x3b8>
    {
      printf("\n[INFO]: no device is present in SIE1!\n");
    11f8:	01000074 	movhi	r4,1
    11fc:	211ec404 	addi	r4,r4,31504
    1200:	000566c0 	call	566c <puts>
      printf("[INFO]: please insert a USB mouse in SIE1!\n");
    1204:	01000074 	movhi	r4,1
    1208:	211ece04 	addi	r4,r4,31544
    120c:	000566c0 	call	566c <puts>
      while (!(usb_ctl_val & no_device))
    1210:	00000c06 	br	1244 <main+0x39c>
      {
       
         usb_ctl_val = UsbRead(ctl_reg);
    1214:	d0a7018b 	ldhu	r2,-25594(gp)
    1218:	113fffcc 	andi	r4,r2,65535
    121c:	00048700 	call	4870 <UsbRead>
    1220:	e0bffe8d 	sth	r2,-6(fp)
         if(usb_ctl_val & no_device)
    1224:	d0e7010b 	ldhu	r3,-25596(gp)
    1228:	e0bffe8b 	ldhu	r2,-6(fp)
    122c:	1884703a 	and	r2,r3,r2
    1230:	10bfffcc 	andi	r2,r2,65535
    1234:	1004c03a 	cmpne	r2,r2,zero
    1238:	103f4b1e 	bne	r2,zero,f68 <main+0xc0>
           goto USB_HOT_PLUG;
       
         usleep(2000);
    123c:	0101f404 	movi	r4,2000
    1240:	00148100 	call	14810 <usleep>
   
    if (!(usb_ctl_val & no_device))
    {
      printf("\n[INFO]: no device is present in SIE1!\n");
      printf("[INFO]: please insert a USB mouse in SIE1!\n");
      while (!(usb_ctl_val & no_device))
    1244:	d0e7010b 	ldhu	r3,-25596(gp)
    1248:	e0bffe8b 	ldhu	r2,-6(fp)
    124c:	1884703a 	and	r2,r3,r2
    1250:	10bfffcc 	andi	r2,r2,65535
    1254:	1005003a 	cmpeq	r2,r2,zero
    1258:	103fee1e 	bne	r2,zero,1214 <main+0x36c>
    125c:	00000d06 	br	1294 <main+0x3ec>
      }
    }
    else
    {
        /* check for low speed or full speed by reading D+ and D- lines */    
        if (usb_ctl_val & fs_device)
    1260:	e0fffe8b 	ldhu	r3,-6(fp)
    1264:	e0bffe0b 	ldhu	r2,-8(fp)
    1268:	1884703a 	and	r2,r3,r2
    126c:	10bfffcc 	andi	r2,r2,65535
    1270:	1005003a 	cmpeq	r2,r2,zero
    1274:	1000041e 	bne	r2,zero,1288 <main+0x3e0>
        {
            printf("[INFO]: full speed device\n");
    1278:	01000074 	movhi	r4,1
    127c:	211ed904 	addi	r4,r4,31588
    1280:	000566c0 	call	566c <puts>
    1284:	00000306 	br	1294 <main+0x3ec>
            
        }
        else
        {
            printf("[INFO]: low speed device\n");            
    1288:	01000074 	movhi	r4,1
    128c:	211ee004 	addi	r4,r4,31616
    1290:	000566c0 	call	566c <puts>

    //printf("[SIE1 INIT]:USB 1 Control Register reg is %x\n",UsbRead(0xC08A));
    
    //------------------------------------------------------set address -----------------------------------------------------------------
    //the starting address
    IOWR(CY7C67200_BASE,HPI_ADDR,0x0500); //the start address       
    1294:	00c24834 	movhi	r3,2336
    1298:	18c01e04 	addi	r3,r3,120
    129c:	00814004 	movi	r2,1280
    12a0:	18800035 	stwio	r2,0(r3)
    IOWR(CY7C67200_BASE,HPI_DATA,0x050C); 
    12a4:	00c24834 	movhi	r3,2336
    12a8:	18c01c04 	addi	r3,r3,112
    12ac:	00814304 	movi	r2,1292
    12b0:	18800035 	stwio	r2,0(r3)
    IOWR(CY7C67200_BASE,HPI_DATA,0x0008); //4 port number
    12b4:	00c24834 	movhi	r3,2336
    12b8:	18c01c04 	addi	r3,r3,112
    12bc:	00800204 	movi	r2,8
    12c0:	18800035 	stwio	r2,0(r3)
    IOWR(CY7C67200_BASE,HPI_DATA,0x00D0);
    12c4:	00c24834 	movhi	r3,2336
    12c8:	18c01c04 	addi	r3,r3,112
    12cc:	00803404 	movi	r2,208
    12d0:	18800035 	stwio	r2,0(r3)
    IOWR(CY7C67200_BASE,HPI_DATA,0x0001);
    12d4:	00c24834 	movhi	r3,2336
    12d8:	18c01c04 	addi	r3,r3,112
    12dc:	00800044 	movi	r2,1
    12e0:	18800035 	stwio	r2,0(r3)
    IOWR(CY7C67200_BASE,HPI_DATA,0x0013);
    12e4:	00c24834 	movhi	r3,2336
    12e8:	18c01c04 	addi	r3,r3,112
    12ec:	008004c4 	movi	r2,19
    12f0:	18800035 	stwio	r2,0(r3)
    IOWR(CY7C67200_BASE,HPI_DATA,0x0514);
    12f4:	00c24834 	movhi	r3,2336
    12f8:	18c01c04 	addi	r3,r3,112
    12fc:	00814504 	movi	r2,1300
    1300:	18800035 	stwio	r2,0(r3)
    
    //td content 4 bytes
    IOWR(CY7C67200_BASE,HPI_DATA,0x0500);
    1304:	00c24834 	movhi	r3,2336
    1308:	18c01c04 	addi	r3,r3,112
    130c:	00814004 	movi	r2,1280
    1310:	18800035 	stwio	r2,0(r3)
    IOWR(CY7C67200_BASE,HPI_DATA,0x0002);//device address   
    1314:	00c24834 	movhi	r3,2336
    1318:	18c01c04 	addi	r3,r3,112
    131c:	00800084 	movi	r2,2
    1320:	18800035 	stwio	r2,0(r3)
    IOWR(CY7C67200_BASE,HPI_DATA,0x0000);
    1324:	00824834 	movhi	r2,2336
    1328:	10801c04 	addi	r2,r2,112
    132c:	10000035 	stwio	zero,0(r2)
    IOWR(CY7C67200_BASE,HPI_DATA,0x0000);
    1330:	00824834 	movhi	r2,2336
    1334:	10801c04 	addi	r2,r2,112
    1338:	10000035 	stwio	zero,0(r2)
    
    IOWR(CY7C67200_BASE,HPI_DATA,0x0000); //don't care
    133c:	00824834 	movhi	r2,2336
    1340:	10801c04 	addi	r2,r2,112
    1344:	10000035 	stwio	zero,0(r2)
    IOWR(CY7C67200_BASE,HPI_DATA,0x0000);//port number
    1348:	00824834 	movhi	r2,2336
    134c:	10801c04 	addi	r2,r2,112
    1350:	10000035 	stwio	zero,0(r2)
    IOWR(CY7C67200_BASE,HPI_DATA,0x0090);//device address
    1354:	00c24834 	movhi	r3,2336
    1358:	18c01c04 	addi	r3,r3,112
    135c:	00802404 	movi	r2,144
    1360:	18800035 	stwio	r2,0(r3)
    IOWR(CY7C67200_BASE,HPI_DATA,0x0041);
    1364:	00c24834 	movhi	r3,2336
    1368:	18c01c04 	addi	r3,r3,112
    136c:	00801044 	movi	r2,65
    1370:	18800035 	stwio	r2,0(r3)
    IOWR(CY7C67200_BASE,HPI_DATA,0x0013);
    1374:	00c24834 	movhi	r3,2336
    1378:	18c01c04 	addi	r3,r3,112
    137c:	008004c4 	movi	r2,19
    1380:	18800035 	stwio	r2,0(r3)
    IOWR(CY7C67200_BASE,HPI_DATA,0x0000);
    1384:	00824834 	movhi	r2,2336
    1388:	10801c04 	addi	r2,r2,112
    138c:	10000035 	stwio	zero,0(r2)
     
    UsbWrite(HUSB_SIE1_pCurrentTDPtr,0x0500); //HUSB_SIE1_pCurrentTDPtr
    1390:	01006c04 	movi	r4,432
    1394:	01414004 	movi	r5,1280
    1398:	000482c0 	call	482c <UsbWrite>
    
   
    while (!(IORD(CY7C67200_BASE,HPI_STATUS) & HPI_STATUS_SIE1msg_FLAG) )  //read sie1 msg register
    139c:	00004406 	br	14b0 <main+0x608>
    {
        //the starting address
           IOWR(CY7C67200_BASE,HPI_ADDR,0x0500); //the start address       
    13a0:	00c24834 	movhi	r3,2336
    13a4:	18c01e04 	addi	r3,r3,120
    13a8:	00814004 	movi	r2,1280
    13ac:	18800035 	stwio	r2,0(r3)
           IOWR(CY7C67200_BASE,HPI_DATA,0x050C); 
    13b0:	00c24834 	movhi	r3,2336
    13b4:	18c01c04 	addi	r3,r3,112
    13b8:	00814304 	movi	r2,1292
    13bc:	18800035 	stwio	r2,0(r3)
           IOWR(CY7C67200_BASE,HPI_DATA,0x0008); //4 port number
    13c0:	00c24834 	movhi	r3,2336
    13c4:	18c01c04 	addi	r3,r3,112
    13c8:	00800204 	movi	r2,8
    13cc:	18800035 	stwio	r2,0(r3)
           IOWR(CY7C67200_BASE,HPI_DATA,0x00D0);
    13d0:	00c24834 	movhi	r3,2336
    13d4:	18c01c04 	addi	r3,r3,112
    13d8:	00803404 	movi	r2,208
    13dc:	18800035 	stwio	r2,0(r3)
           IOWR(CY7C67200_BASE,HPI_DATA,0x0001);
    13e0:	00c24834 	movhi	r3,2336
    13e4:	18c01c04 	addi	r3,r3,112
    13e8:	00800044 	movi	r2,1
    13ec:	18800035 	stwio	r2,0(r3)
           IOWR(CY7C67200_BASE,HPI_DATA,0x0013);
    13f0:	00c24834 	movhi	r3,2336
    13f4:	18c01c04 	addi	r3,r3,112
    13f8:	008004c4 	movi	r2,19
    13fc:	18800035 	stwio	r2,0(r3)
           IOWR(CY7C67200_BASE,HPI_DATA,0x0514); 
    1400:	00c24834 	movhi	r3,2336
    1404:	18c01c04 	addi	r3,r3,112
    1408:	00814504 	movi	r2,1300
    140c:	18800035 	stwio	r2,0(r3)
    
           //td content 4 bytes
           IOWR(CY7C67200_BASE,HPI_DATA,0x0500);
    1410:	00c24834 	movhi	r3,2336
    1414:	18c01c04 	addi	r3,r3,112
    1418:	00814004 	movi	r2,1280
    141c:	18800035 	stwio	r2,0(r3)
           IOWR(CY7C67200_BASE,HPI_DATA,0x0002);//device address   
    1420:	00c24834 	movhi	r3,2336
    1424:	18c01c04 	addi	r3,r3,112
    1428:	00800084 	movi	r2,2
    142c:	18800035 	stwio	r2,0(r3)
           IOWR(CY7C67200_BASE,HPI_DATA,0x0000);
    1430:	00824834 	movhi	r2,2336
    1434:	10801c04 	addi	r2,r2,112
    1438:	10000035 	stwio	zero,0(r2)
           IOWR(CY7C67200_BASE,HPI_DATA,0x0000);
    143c:	00824834 	movhi	r2,2336
    1440:	10801c04 	addi	r2,r2,112
    1444:	10000035 	stwio	zero,0(r2)
           //IN 
           IOWR(CY7C67200_BASE,HPI_DATA,0x0000); //don't care
    1448:	00824834 	movhi	r2,2336
    144c:	10801c04 	addi	r2,r2,112
    1450:	10000035 	stwio	zero,0(r2)
           IOWR(CY7C67200_BASE,HPI_DATA,0x0000);//port number
    1454:	00824834 	movhi	r2,2336
    1458:	10801c04 	addi	r2,r2,112
    145c:	10000035 	stwio	zero,0(r2)
           IOWR(CY7C67200_BASE,HPI_DATA,0x0090);//device address
    1460:	00c24834 	movhi	r3,2336
    1464:	18c01c04 	addi	r3,r3,112
    1468:	00802404 	movi	r2,144
    146c:	18800035 	stwio	r2,0(r3)
           IOWR(CY7C67200_BASE,HPI_DATA,0x0041);
    1470:	00c24834 	movhi	r3,2336
    1474:	18c01c04 	addi	r3,r3,112
    1478:	00801044 	movi	r2,65
    147c:	18800035 	stwio	r2,0(r3)
           IOWR(CY7C67200_BASE,HPI_DATA,0x0013);
    1480:	00c24834 	movhi	r3,2336
    1484:	18c01c04 	addi	r3,r3,112
    1488:	008004c4 	movi	r2,19
    148c:	18800035 	stwio	r2,0(r3)
           IOWR(CY7C67200_BASE,HPI_DATA,0x0000);
    1490:	00824834 	movhi	r2,2336
    1494:	10801c04 	addi	r2,r2,112
    1498:	10000035 	stwio	zero,0(r2)
        
           UsbWrite(HUSB_SIE1_pCurrentTDPtr,0x0500); //HUSB_SIE1_pCurrentTDPtr 
    149c:	01006c04 	movi	r4,432
    14a0:	01414004 	movi	r5,1280
    14a4:	000482c0 	call	482c <UsbWrite>
           usleep(10*1000);
    14a8:	0109c404 	movi	r4,10000
    14ac:	00148100 	call	14810 <usleep>
    IOWR(CY7C67200_BASE,HPI_DATA,0x0000);
     
    UsbWrite(HUSB_SIE1_pCurrentTDPtr,0x0500); //HUSB_SIE1_pCurrentTDPtr
    
   
    while (!(IORD(CY7C67200_BASE,HPI_STATUS) & HPI_STATUS_SIE1msg_FLAG) )  //read sie1 msg register
    14b0:	00824834 	movhi	r2,2336
    14b4:	10801f04 	addi	r2,r2,124
    14b8:	10800037 	ldwio	r2,0(r2)
    14bc:	1080040c 	andi	r2,r2,16
    14c0:	1005003a 	cmpeq	r2,r2,zero
    14c4:	103fb61e 	bne	r2,zero,13a0 <main+0x4f8>
           UsbWrite(HUSB_SIE1_pCurrentTDPtr,0x0500); //HUSB_SIE1_pCurrentTDPtr 
           usleep(10*1000);
    }
    
    //UsbRead(0x01B8);
    usb_ctl_val = UsbRead(HPI_SIE1_MSG_ADR);
    14c8:	01005104 	movi	r4,324
    14cc:	00048700 	call	4870 <UsbRead>
    14d0:	e0bffe8d 	sth	r2,-6(fp)
    UsbWrite(HPI_SIE1_MSG_ADR, 0);
    14d4:	01005104 	movi	r4,324
    14d8:	000b883a 	mov	r5,zero
    14dc:	000482c0 	call	482c <UsbWrite>
    while (usb_ctl_val != 0x1000)  //read sie1 msg register
    14e0:	00000d06 	br	1518 <main+0x670>
    {
       if(usb_ctl_val == 0x000)
    14e4:	e0bffe8b 	ldhu	r2,-6(fp)
    14e8:	1005003a 	cmpeq	r2,r2,zero
    14ec:	1000041e 	bne	r2,zero,1500 <main+0x658>
       {
       }
       else
       {
        printf("[SIE1 MSG]:SIE1 msg reg is %x\n",usb_ctl_val);
    14f0:	e17ffe8b 	ldhu	r5,-6(fp)
    14f4:	01000074 	movhi	r4,1
    14f8:	211ee704 	addi	r4,r4,31644
    14fc:	00055540 	call	5554 <printf>
       }
       usb_ctl_val = UsbRead(HPI_SIE1_MSG_ADR);
    1500:	01005104 	movi	r4,324
    1504:	00048700 	call	4870 <UsbRead>
    1508:	e0bffe8d 	sth	r2,-6(fp)
       UsbWrite(HPI_SIE1_MSG_ADR, 0);
    150c:	01005104 	movi	r4,324
    1510:	000b883a 	mov	r5,zero
    1514:	000482c0 	call	482c <UsbWrite>
    }
    
    //UsbRead(0x01B8);
    usb_ctl_val = UsbRead(HPI_SIE1_MSG_ADR);
    UsbWrite(HPI_SIE1_MSG_ADR, 0);
    while (usb_ctl_val != 0x1000)  //read sie1 msg register
    1518:	e0bffe8b 	ldhu	r2,-6(fp)
    151c:	10840018 	cmpnei	r2,r2,4096
    1520:	103ff01e 	bne	r2,zero,14e4 <main+0x63c>
       UsbWrite(HPI_SIE1_MSG_ADR, 0);
       //goto USB_HOT_PLUG;
      
    }

    IOWR(CY7C67200_BASE,HPI_ADDR,0x0506);
    1524:	00c24834 	movhi	r3,2336
    1528:	18c01e04 	addi	r3,r3,120
    152c:	00814184 	movi	r2,1286
    1530:	18800035 	stwio	r2,0(r3)
    printf("[ENUM PROCESS]:step 3 TD Status Byte is %x\n",IORD(CY7C67200_BASE,HPI_DATA));
    1534:	00824834 	movhi	r2,2336
    1538:	10801c04 	addi	r2,r2,112
    153c:	11400037 	ldwio	r5,0(r2)
    1540:	01000074 	movhi	r4,1
    1544:	211eef04 	addi	r4,r4,31676
    1548:	00055540 	call	5554 <printf>
    
    IOWR(CY7C67200_BASE,HPI_ADDR,0x0508);
    154c:	00c24834 	movhi	r3,2336
    1550:	18c01e04 	addi	r3,r3,120
    1554:	00814204 	movi	r2,1288
    1558:	18800035 	stwio	r2,0(r3)
    usb_ctl_val = IORD(CY7C67200_BASE,HPI_DATA);
    155c:	00824834 	movhi	r2,2336
    1560:	10801c04 	addi	r2,r2,112
    1564:	10800037 	ldwio	r2,0(r2)
    1568:	e0bffe8d 	sth	r2,-6(fp)
    printf("[ENUM PROCESS]:step 3 TD Control Byte is %x\n",usb_ctl_val);
    156c:	e17ffe8b 	ldhu	r5,-6(fp)
    1570:	01000074 	movhi	r4,1
    1574:	211efa04 	addi	r4,r4,31720
    1578:	00055540 	call	5554 <printf>
    while (usb_ctl_val != 0x03) 
    157c:	e0bffe8b 	ldhu	r2,-6(fp)
    1580:	108000e0 	cmpeqi	r2,r2,3
    1584:	10001a1e 	bne	r2,zero,15f0 <main+0x748>
    {
       IORD(CY7C67200_BASE,HPI_STATUS);
    1588:	00824834 	movhi	r2,2336
    158c:	10801f04 	addi	r2,r2,124
    1590:	10800037 	ldwio	r2,0(r2)
       if(UsbRead(HPI_SIE1_MSG_ADR) == 0x1000)
    1594:	01005104 	movi	r4,324
    1598:	00048700 	call	4870 <UsbRead>
    159c:	10bfffcc 	andi	r2,r2,65535
    15a0:	10840018 	cmpnei	r2,r2,4096
    15a4:	1000091e 	bne	r2,zero,15cc <main+0x724>
       {
           UsbWrite(HPI_SIE1_MSG_ADR, 0);
    15a8:	01005104 	movi	r4,324
    15ac:	000b883a 	mov	r5,zero
    15b0:	000482c0 	call	482c <UsbWrite>
           
           while (!(IORD(CY7C67200_BASE,HPI_STATUS) & HPI_STATUS_SIE1msg_FLAG) )  //read sie1 msg register
    15b4:	00824834 	movhi	r2,2336
    15b8:	10801f04 	addi	r2,r2,124
    15bc:	10800037 	ldwio	r2,0(r2)
    15c0:	1080040c 	andi	r2,r2,16
    15c4:	1005003a 	cmpeq	r2,r2,zero
    15c8:	103ffa1e 	bne	r2,zero,15b4 <main+0x70c>
           {
           }
        }
           //usleep(1000);
           IOWR(CY7C67200_BASE,HPI_ADDR,0x0508);
    15cc:	00c24834 	movhi	r3,2336
    15d0:	18c01e04 	addi	r3,r3,120
    15d4:	00814204 	movi	r2,1288
    15d8:	18800035 	stwio	r2,0(r3)
           usb_ctl_val = IORD(CY7C67200_BASE,HPI_DATA); 
    15dc:	00824834 	movhi	r2,2336
    15e0:	10801c04 	addi	r2,r2,112
    15e4:	10800037 	ldwio	r2,0(r2)
    15e8:	e0bffe8d 	sth	r2,-6(fp)
           
           goto USB_HOT_PLUG;
    15ec:	003e5e06 	br	f68 <main+0xc0>
    }    
       
    printf("------------[ENUM PROCESS]:set address pass!---------------\n");
    15f0:	01000074 	movhi	r4,1
    15f4:	211f0604 	addi	r4,r4,31768
    15f8:	000566c0 	call	566c <puts>
    
    
    //-------------------------------get device descriptor-1 -----------------------------------//
    //the starting address
    IOWR(CY7C67200_BASE,HPI_ADDR,0x0500); //the start address       
    15fc:	00c24834 	movhi	r3,2336
    1600:	18c01e04 	addi	r3,r3,120
    1604:	00814004 	movi	r2,1280
    1608:	18800035 	stwio	r2,0(r3)
    IOWR(CY7C67200_BASE,HPI_DATA,0x050C); 
    160c:	00c24834 	movhi	r3,2336
    1610:	18c01c04 	addi	r3,r3,112
    1614:	00814304 	movi	r2,1292
    1618:	18800035 	stwio	r2,0(r3)
    IOWR(CY7C67200_BASE,HPI_DATA,0x0008); //4 port number
    161c:	00c24834 	movhi	r3,2336
    1620:	18c01c04 	addi	r3,r3,112
    1624:	00800204 	movi	r2,8
    1628:	18800035 	stwio	r2,0(r3)
    IOWR(CY7C67200_BASE,HPI_DATA,0x02D0); //device address
    162c:	00c24834 	movhi	r3,2336
    1630:	18c01c04 	addi	r3,r3,112
    1634:	0080b404 	movi	r2,720
    1638:	18800035 	stwio	r2,0(r3)
    IOWR(CY7C67200_BASE,HPI_DATA,0x0001);
    163c:	00c24834 	movhi	r3,2336
    1640:	18c01c04 	addi	r3,r3,112
    1644:	00800044 	movi	r2,1
    1648:	18800035 	stwio	r2,0(r3)
    IOWR(CY7C67200_BASE,HPI_DATA,0x0013);
    164c:	00c24834 	movhi	r3,2336
    1650:	18c01c04 	addi	r3,r3,112
    1654:	008004c4 	movi	r2,19
    1658:	18800035 	stwio	r2,0(r3)
    IOWR(CY7C67200_BASE,HPI_DATA,0x0514);
    165c:	00c24834 	movhi	r3,2336
    1660:	18c01c04 	addi	r3,r3,112
    1664:	00814504 	movi	r2,1300
    1668:	18800035 	stwio	r2,0(r3)
    
    //td content 4 bytes
    IOWR(CY7C67200_BASE,HPI_DATA,0x0680);//c
    166c:	00c24834 	movhi	r3,2336
    1670:	18c01c04 	addi	r3,r3,112
    1674:	0081a004 	movi	r2,1664
    1678:	18800035 	stwio	r2,0(r3)
    IOWR(CY7C67200_BASE,HPI_DATA,0x0100);
    167c:	00c24834 	movhi	r3,2336
    1680:	18c01c04 	addi	r3,r3,112
    1684:	00804004 	movi	r2,256
    1688:	18800035 	stwio	r2,0(r3)
    IOWR(CY7C67200_BASE,HPI_DATA,0x0000);
    168c:	00824834 	movhi	r2,2336
    1690:	10801c04 	addi	r2,r2,112
    1694:	10000035 	stwio	zero,0(r2)
    IOWR(CY7C67200_BASE,HPI_DATA,0x0008);
    1698:	00c24834 	movhi	r3,2336
    169c:	18c01c04 	addi	r3,r3,112
    16a0:	00800204 	movi	r2,8
    16a4:	18800035 	stwio	r2,0(r3)
    
    //data phase IN
    IOWR(CY7C67200_BASE,HPI_DATA,0x052C); //
    16a8:	00c24834 	movhi	r3,2336
    16ac:	18c01c04 	addi	r3,r3,112
    16b0:	00814b04 	movi	r2,1324
    16b4:	18800035 	stwio	r2,0(r3)
    IOWR(CY7C67200_BASE,HPI_DATA,0x0008);//
    16b8:	00c24834 	movhi	r3,2336
    16bc:	18c01c04 	addi	r3,r3,112
    16c0:	00800204 	movi	r2,8
    16c4:	18800035 	stwio	r2,0(r3)
    IOWR(CY7C67200_BASE,HPI_DATA,0x0290);//
    16c8:	00c24834 	movhi	r3,2336
    16cc:	18c01c04 	addi	r3,r3,112
    16d0:	0080a404 	movi	r2,656
    16d4:	18800035 	stwio	r2,0(r3)
    IOWR(CY7C67200_BASE,HPI_DATA,0x0041);
    16d8:	00c24834 	movhi	r3,2336
    16dc:	18c01c04 	addi	r3,r3,112
    16e0:	00801044 	movi	r2,65
    16e4:	18800035 	stwio	r2,0(r3)
    IOWR(CY7C67200_BASE,HPI_DATA,0x0013);
    16e8:	00c24834 	movhi	r3,2336
    16ec:	18c01c04 	addi	r3,r3,112
    16f0:	008004c4 	movi	r2,19
    16f4:	18800035 	stwio	r2,0(r3)
    IOWR(CY7C67200_BASE,HPI_DATA,0x0520);
    16f8:	00c24834 	movhi	r3,2336
    16fc:	18c01c04 	addi	r3,r3,112
    1700:	00814804 	movi	r2,1312
    1704:	18800035 	stwio	r2,0(r3)
    
//    //status phase
    IOWR(CY7C67200_BASE,HPI_DATA,0x0000); //don't care
    1708:	00824834 	movhi	r2,2336
    170c:	10801c04 	addi	r2,r2,112
    1710:	10000035 	stwio	zero,0(r2)
    IOWR(CY7C67200_BASE,HPI_DATA,0x0000);//port number
    1714:	00824834 	movhi	r2,2336
    1718:	10801c04 	addi	r2,r2,112
    171c:	10000035 	stwio	zero,0(r2)
    IOWR(CY7C67200_BASE,HPI_DATA,0x0210);//device address
    1720:	00c24834 	movhi	r3,2336
    1724:	18c01c04 	addi	r3,r3,112
    1728:	00808404 	movi	r2,528
    172c:	18800035 	stwio	r2,0(r3)
    IOWR(CY7C67200_BASE,HPI_DATA,0x0041);
    1730:	00c24834 	movhi	r3,2336
    1734:	18c01c04 	addi	r3,r3,112
    1738:	00801044 	movi	r2,65
    173c:	18800035 	stwio	r2,0(r3)
    IOWR(CY7C67200_BASE,HPI_DATA,0x0013);
    1740:	00c24834 	movhi	r3,2336
    1744:	18c01c04 	addi	r3,r3,112
    1748:	008004c4 	movi	r2,19
    174c:	18800035 	stwio	r2,0(r3)
    IOWR(CY7C67200_BASE,HPI_DATA,0x0000);
    1750:	00824834 	movhi	r2,2336
    1754:	10801c04 	addi	r2,r2,112
    1758:	10000035 	stwio	zero,0(r2)
    
     
    UsbWrite(HUSB_SIE1_pCurrentTDPtr,0x0500); //HUSB_SIE1_pCurrentTDPtr
    175c:	01006c04 	movi	r4,432
    1760:	01414004 	movi	r5,1280
    1764:	000482c0 	call	482c <UsbWrite>
    
   //usleep(10*1000);
    while (!(IORD(CY7C67200_BASE,HPI_STATUS) & HPI_STATUS_SIE1msg_FLAG) )  //read sie1 msg register
    1768:	00005d06 	br	18e0 <main+0xa38>
    {
    //the starting address
    IOWR(CY7C67200_BASE,HPI_ADDR,0x0500); //the start address       
    176c:	00c24834 	movhi	r3,2336
    1770:	18c01e04 	addi	r3,r3,120
    1774:	00814004 	movi	r2,1280
    1778:	18800035 	stwio	r2,0(r3)
    IOWR(CY7C67200_BASE,HPI_DATA,0x050C); 
    177c:	00c24834 	movhi	r3,2336
    1780:	18c01c04 	addi	r3,r3,112
    1784:	00814304 	movi	r2,1292
    1788:	18800035 	stwio	r2,0(r3)
    IOWR(CY7C67200_BASE,HPI_DATA,0x0008); //4 port number
    178c:	00c24834 	movhi	r3,2336
    1790:	18c01c04 	addi	r3,r3,112
    1794:	00800204 	movi	r2,8
    1798:	18800035 	stwio	r2,0(r3)
    IOWR(CY7C67200_BASE,HPI_DATA,0x02D0); //device address
    179c:	00c24834 	movhi	r3,2336
    17a0:	18c01c04 	addi	r3,r3,112
    17a4:	0080b404 	movi	r2,720
    17a8:	18800035 	stwio	r2,0(r3)
    IOWR(CY7C67200_BASE,HPI_DATA,0x0001);
    17ac:	00c24834 	movhi	r3,2336
    17b0:	18c01c04 	addi	r3,r3,112
    17b4:	00800044 	movi	r2,1
    17b8:	18800035 	stwio	r2,0(r3)
    IOWR(CY7C67200_BASE,HPI_DATA,0x0013);
    17bc:	00c24834 	movhi	r3,2336
    17c0:	18c01c04 	addi	r3,r3,112
    17c4:	008004c4 	movi	r2,19
    17c8:	18800035 	stwio	r2,0(r3)
    IOWR(CY7C67200_BASE,HPI_DATA,0x0514);
    17cc:	00c24834 	movhi	r3,2336
    17d0:	18c01c04 	addi	r3,r3,112
    17d4:	00814504 	movi	r2,1300
    17d8:	18800035 	stwio	r2,0(r3)
    
    //td content 4 bytes
    IOWR(CY7C67200_BASE,HPI_DATA,0x0680);
    17dc:	00c24834 	movhi	r3,2336
    17e0:	18c01c04 	addi	r3,r3,112
    17e4:	0081a004 	movi	r2,1664
    17e8:	18800035 	stwio	r2,0(r3)
    IOWR(CY7C67200_BASE,HPI_DATA,0x0100);
    17ec:	00c24834 	movhi	r3,2336
    17f0:	18c01c04 	addi	r3,r3,112
    17f4:	00804004 	movi	r2,256
    17f8:	18800035 	stwio	r2,0(r3)
    IOWR(CY7C67200_BASE,HPI_DATA,0x0000);
    17fc:	00824834 	movhi	r2,2336
    1800:	10801c04 	addi	r2,r2,112
    1804:	10000035 	stwio	zero,0(r2)
    IOWR(CY7C67200_BASE,HPI_DATA,0x0008);
    1808:	00c24834 	movhi	r3,2336
    180c:	18c01c04 	addi	r3,r3,112
    1810:	00800204 	movi	r2,8
    1814:	18800035 	stwio	r2,0(r3)
    
    //data phase IN
    IOWR(CY7C67200_BASE,HPI_DATA,0x052C); //
    1818:	00c24834 	movhi	r3,2336
    181c:	18c01c04 	addi	r3,r3,112
    1820:	00814b04 	movi	r2,1324
    1824:	18800035 	stwio	r2,0(r3)
    IOWR(CY7C67200_BASE,HPI_DATA,0x0008);//
    1828:	00c24834 	movhi	r3,2336
    182c:	18c01c04 	addi	r3,r3,112
    1830:	00800204 	movi	r2,8
    1834:	18800035 	stwio	r2,0(r3)
    IOWR(CY7C67200_BASE,HPI_DATA,0x0290);//
    1838:	00c24834 	movhi	r3,2336
    183c:	18c01c04 	addi	r3,r3,112
    1840:	0080a404 	movi	r2,656
    1844:	18800035 	stwio	r2,0(r3)
    IOWR(CY7C67200_BASE,HPI_DATA,0x0041);
    1848:	00c24834 	movhi	r3,2336
    184c:	18c01c04 	addi	r3,r3,112
    1850:	00801044 	movi	r2,65
    1854:	18800035 	stwio	r2,0(r3)
    IOWR(CY7C67200_BASE,HPI_DATA,0x0013);
    1858:	00c24834 	movhi	r3,2336
    185c:	18c01c04 	addi	r3,r3,112
    1860:	008004c4 	movi	r2,19
    1864:	18800035 	stwio	r2,0(r3)
    IOWR(CY7C67200_BASE,HPI_DATA,0x0520);
    1868:	00c24834 	movhi	r3,2336
    186c:	18c01c04 	addi	r3,r3,112
    1870:	00814804 	movi	r2,1312
    1874:	18800035 	stwio	r2,0(r3)
    
//    //status phase
    IOWR(CY7C67200_BASE,HPI_DATA,0x0000); //don't care
    1878:	00824834 	movhi	r2,2336
    187c:	10801c04 	addi	r2,r2,112
    1880:	10000035 	stwio	zero,0(r2)
    IOWR(CY7C67200_BASE,HPI_DATA,0x0000);//port number
    1884:	00824834 	movhi	r2,2336
    1888:	10801c04 	addi	r2,r2,112
    188c:	10000035 	stwio	zero,0(r2)
    IOWR(CY7C67200_BASE,HPI_DATA,0x0210);//device address
    1890:	00c24834 	movhi	r3,2336
    1894:	18c01c04 	addi	r3,r3,112
    1898:	00808404 	movi	r2,528
    189c:	18800035 	stwio	r2,0(r3)
    IOWR(CY7C67200_BASE,HPI_DATA,0x0041);
    18a0:	00c24834 	movhi	r3,2336
    18a4:	18c01c04 	addi	r3,r3,112
    18a8:	00801044 	movi	r2,65
    18ac:	18800035 	stwio	r2,0(r3)
    IOWR(CY7C67200_BASE,HPI_DATA,0x0013);
    18b0:	00c24834 	movhi	r3,2336
    18b4:	18c01c04 	addi	r3,r3,112
    18b8:	008004c4 	movi	r2,19
    18bc:	18800035 	stwio	r2,0(r3)
    IOWR(CY7C67200_BASE,HPI_DATA,0x0000);
    18c0:	00824834 	movhi	r2,2336
    18c4:	10801c04 	addi	r2,r2,112
    18c8:	10000035 	stwio	zero,0(r2)
    
     
    UsbWrite(HUSB_SIE1_pCurrentTDPtr,0x0500); //HUSB_SIE1_pCurrentTDPtr
    18cc:	01006c04 	movi	r4,432
    18d0:	01414004 	movi	r5,1280
    18d4:	000482c0 	call	482c <UsbWrite>
    usleep(10*1000);
    18d8:	0109c404 	movi	r4,10000
    18dc:	00148100 	call	14810 <usleep>
    
     
    UsbWrite(HUSB_SIE1_pCurrentTDPtr,0x0500); //HUSB_SIE1_pCurrentTDPtr
    
   //usleep(10*1000);
    while (!(IORD(CY7C67200_BASE,HPI_STATUS) & HPI_STATUS_SIE1msg_FLAG) )  //read sie1 msg register
    18e0:	00824834 	movhi	r2,2336
    18e4:	10801f04 	addi	r2,r2,124
    18e8:	10800037 	ldwio	r2,0(r2)
    18ec:	1080040c 	andi	r2,r2,16
    18f0:	1005003a 	cmpeq	r2,r2,zero
    18f4:	103f9d1e 	bne	r2,zero,176c <main+0x8c4>
    UsbWrite(HUSB_SIE1_pCurrentTDPtr,0x0500); //HUSB_SIE1_pCurrentTDPtr
    usleep(10*1000);
    }
    
    //UsbRead(0x01B8);
    usb_ctl_val = UsbRead(HPI_SIE1_MSG_ADR);
    18f8:	01005104 	movi	r4,324
    18fc:	00048700 	call	4870 <UsbRead>
    1900:	e0bffe8d 	sth	r2,-6(fp)
    UsbWrite(HPI_SIE1_MSG_ADR, 0);
    1904:	01005104 	movi	r4,324
    1908:	000b883a 	mov	r5,zero
    190c:	000482c0 	call	482c <UsbWrite>
    while (usb_ctl_val != 0x1000)  //read sie1 msg register
    1910:	00000d06 	br	1948 <main+0xaa0>
    {
       if(usb_ctl_val == 0x000)
    1914:	e0bffe8b 	ldhu	r2,-6(fp)
    1918:	1005003a 	cmpeq	r2,r2,zero
    191c:	1000041e 	bne	r2,zero,1930 <main+0xa88>
       {
       }
       else
       {
        printf("[SIE1 MSG]:SIE1 msg reg is %x\n",usb_ctl_val);
    1920:	e17ffe8b 	ldhu	r5,-6(fp)
    1924:	01000074 	movhi	r4,1
    1928:	211ee704 	addi	r4,r4,31644
    192c:	00055540 	call	5554 <printf>
       }
       usb_ctl_val = UsbRead(HPI_SIE1_MSG_ADR);
    1930:	01005104 	movi	r4,324
    1934:	00048700 	call	4870 <UsbRead>
    1938:	e0bffe8d 	sth	r2,-6(fp)
       UsbWrite(HPI_SIE1_MSG_ADR, 0);
    193c:	01005104 	movi	r4,324
    1940:	000b883a 	mov	r5,zero
    1944:	000482c0 	call	482c <UsbWrite>
    }
    
    //UsbRead(0x01B8);
    usb_ctl_val = UsbRead(HPI_SIE1_MSG_ADR);
    UsbWrite(HPI_SIE1_MSG_ADR, 0);
    while (usb_ctl_val != 0x1000)  //read sie1 msg register
    1948:	e0bffe8b 	ldhu	r2,-6(fp)
    194c:	10840018 	cmpnei	r2,r2,4096
    1950:	103ff01e 	bne	r2,zero,1914 <main+0xa6c>
       usb_ctl_val = UsbRead(HPI_SIE1_MSG_ADR);
       UsbWrite(HPI_SIE1_MSG_ADR, 0);
      
    }

    IOWR(CY7C67200_BASE,HPI_ADDR,0x0506);
    1954:	00c24834 	movhi	r3,2336
    1958:	18c01e04 	addi	r3,r3,120
    195c:	00814184 	movi	r2,1286
    1960:	18800035 	stwio	r2,0(r3)
    printf("[ENUM PROCESS]:step 4 TD Status Byte is %x\n",IORD(CY7C67200_BASE,HPI_DATA));
    1964:	00824834 	movhi	r2,2336
    1968:	10801c04 	addi	r2,r2,112
    196c:	11400037 	ldwio	r5,0(r2)
    1970:	01000074 	movhi	r4,1
    1974:	211f1504 	addi	r4,r4,31828
    1978:	00055540 	call	5554 <printf>
    
    IOWR(CY7C67200_BASE,HPI_ADDR,0x0508);
    197c:	00c24834 	movhi	r3,2336
    1980:	18c01e04 	addi	r3,r3,120
    1984:	00814204 	movi	r2,1288
    1988:	18800035 	stwio	r2,0(r3)
    usb_ctl_val = IORD(CY7C67200_BASE,HPI_DATA);
    198c:	00824834 	movhi	r2,2336
    1990:	10801c04 	addi	r2,r2,112
    1994:	10800037 	ldwio	r2,0(r2)
    1998:	e0bffe8d 	sth	r2,-6(fp)
    printf("[ENUM PROCESS]:step 4 TD Control Byte is %x\n",usb_ctl_val);
    199c:	e17ffe8b 	ldhu	r5,-6(fp)
    19a0:	01000074 	movhi	r4,1
    19a4:	211f2004 	addi	r4,r4,31872
    19a8:	00055540 	call	5554 <printf>
    while (usb_ctl_val != 0x03) 
    19ac:	00001906 	br	1a14 <main+0xb6c>
    {
       IORD(CY7C67200_BASE,HPI_STATUS);
    19b0:	00824834 	movhi	r2,2336
    19b4:	10801f04 	addi	r2,r2,124
    19b8:	10800037 	ldwio	r2,0(r2)
       if(UsbRead(HPI_SIE1_MSG_ADR) == 0x1000)
    19bc:	01005104 	movi	r4,324
    19c0:	00048700 	call	4870 <UsbRead>
    19c4:	10bfffcc 	andi	r2,r2,65535
    19c8:	10840018 	cmpnei	r2,r2,4096
    19cc:	1000091e 	bne	r2,zero,19f4 <main+0xb4c>
       {
           UsbWrite(HPI_SIE1_MSG_ADR, 0);
    19d0:	01005104 	movi	r4,324
    19d4:	000b883a 	mov	r5,zero
    19d8:	000482c0 	call	482c <UsbWrite>
           
           while (!(IORD(CY7C67200_BASE,HPI_STATUS) & HPI_STATUS_SIE1msg_FLAG) )  //read sie1 msg register
    19dc:	00824834 	movhi	r2,2336
    19e0:	10801f04 	addi	r2,r2,124
    19e4:	10800037 	ldwio	r2,0(r2)
    19e8:	1080040c 	andi	r2,r2,16
    19ec:	1005003a 	cmpeq	r2,r2,zero
    19f0:	103ffa1e 	bne	r2,zero,19dc <main+0xb34>
           {
           }
        }
           //usleep(1000);
           IOWR(CY7C67200_BASE,HPI_ADDR,0x0508);
    19f4:	00c24834 	movhi	r3,2336
    19f8:	18c01e04 	addi	r3,r3,120
    19fc:	00814204 	movi	r2,1288
    1a00:	18800035 	stwio	r2,0(r3)
           usb_ctl_val = IORD(CY7C67200_BASE,HPI_DATA); 
    1a04:	00824834 	movhi	r2,2336
    1a08:	10801c04 	addi	r2,r2,112
    1a0c:	10800037 	ldwio	r2,0(r2)
    1a10:	e0bffe8d 	sth	r2,-6(fp)
    printf("[ENUM PROCESS]:step 4 TD Status Byte is %x\n",IORD(CY7C67200_BASE,HPI_DATA));
    
    IOWR(CY7C67200_BASE,HPI_ADDR,0x0508);
    usb_ctl_val = IORD(CY7C67200_BASE,HPI_DATA);
    printf("[ENUM PROCESS]:step 4 TD Control Byte is %x\n",usb_ctl_val);
    while (usb_ctl_val != 0x03) 
    1a14:	e0bffe8b 	ldhu	r2,-6(fp)
    1a18:	108000d8 	cmpnei	r2,r2,3
    1a1c:	103fe41e 	bne	r2,zero,19b0 <main+0xb08>
           //usleep(1000);
           IOWR(CY7C67200_BASE,HPI_ADDR,0x0508);
           usb_ctl_val = IORD(CY7C67200_BASE,HPI_DATA); 
    }    
       
    printf("---------------[ENUM PROCESS]:get device descriptor-1 pass!-----------------\n");
    1a20:	01000074 	movhi	r4,1
    1a24:	211f2c04 	addi	r4,r4,31920
    1a28:	000566c0 	call	566c <puts>
    
    
    //--------------------------------get device descriptor-1---------------------------------------------//
    //get device descriptor
    //the starting address
    IOWR(CY7C67200_BASE,HPI_ADDR,0x0500); //the start address       
    1a2c:	00c24834 	movhi	r3,2336
    1a30:	18c01e04 	addi	r3,r3,120
    1a34:	00814004 	movi	r2,1280
    1a38:	18800035 	stwio	r2,0(r3)
    IOWR(CY7C67200_BASE,HPI_DATA,0x050C); 
    1a3c:	00c24834 	movhi	r3,2336
    1a40:	18c01c04 	addi	r3,r3,112
    1a44:	00814304 	movi	r2,1292
    1a48:	18800035 	stwio	r2,0(r3)
    IOWR(CY7C67200_BASE,HPI_DATA,0x0008); //4 port number
    1a4c:	00c24834 	movhi	r3,2336
    1a50:	18c01c04 	addi	r3,r3,112
    1a54:	00800204 	movi	r2,8
    1a58:	18800035 	stwio	r2,0(r3)
    IOWR(CY7C67200_BASE,HPI_DATA,0x02D0); //device address
    1a5c:	00c24834 	movhi	r3,2336
    1a60:	18c01c04 	addi	r3,r3,112
    1a64:	0080b404 	movi	r2,720
    1a68:	18800035 	stwio	r2,0(r3)
    IOWR(CY7C67200_BASE,HPI_DATA,0x0001);
    1a6c:	00c24834 	movhi	r3,2336
    1a70:	18c01c04 	addi	r3,r3,112
    1a74:	00800044 	movi	r2,1
    1a78:	18800035 	stwio	r2,0(r3)
    IOWR(CY7C67200_BASE,HPI_DATA,0x0013);
    1a7c:	00c24834 	movhi	r3,2336
    1a80:	18c01c04 	addi	r3,r3,112
    1a84:	008004c4 	movi	r2,19
    1a88:	18800035 	stwio	r2,0(r3)
    IOWR(CY7C67200_BASE,HPI_DATA,0x0514);
    1a8c:	00c24834 	movhi	r3,2336
    1a90:	18c01c04 	addi	r3,r3,112
    1a94:	00814504 	movi	r2,1300
    1a98:	18800035 	stwio	r2,0(r3)
    
    //td content 4 bytes
    IOWR(CY7C67200_BASE,HPI_DATA,0x0680);//c
    1a9c:	00c24834 	movhi	r3,2336
    1aa0:	18c01c04 	addi	r3,r3,112
    1aa4:	0081a004 	movi	r2,1664
    1aa8:	18800035 	stwio	r2,0(r3)
    IOWR(CY7C67200_BASE,HPI_DATA,0x0100);//e
    1aac:	00c24834 	movhi	r3,2336
    1ab0:	18c01c04 	addi	r3,r3,112
    1ab4:	00804004 	movi	r2,256
    1ab8:	18800035 	stwio	r2,0(r3)
    IOWR(CY7C67200_BASE,HPI_DATA,0x0000);//0
    1abc:	00824834 	movhi	r2,2336
    1ac0:	10801c04 	addi	r2,r2,112
    1ac4:	10000035 	stwio	zero,0(r2)
    IOWR(CY7C67200_BASE,HPI_DATA,0x0012);//2
    1ac8:	00c24834 	movhi	r3,2336
    1acc:	18c01c04 	addi	r3,r3,112
    1ad0:	00800484 	movi	r2,18
    1ad4:	18800035 	stwio	r2,0(r3)
    
    //data phase IN-1
    IOWR(CY7C67200_BASE,HPI_DATA,0x0544); //514
    1ad8:	00c24834 	movhi	r3,2336
    1adc:	18c01c04 	addi	r3,r3,112
    1ae0:	00815104 	movi	r2,1348
    1ae4:	18800035 	stwio	r2,0(r3)
    IOWR(CY7C67200_BASE,HPI_DATA,0x0008);//6
    1ae8:	00c24834 	movhi	r3,2336
    1aec:	18c01c04 	addi	r3,r3,112
    1af0:	00800204 	movi	r2,8
    1af4:	18800035 	stwio	r2,0(r3)
    IOWR(CY7C67200_BASE,HPI_DATA,0x0290);//8
    1af8:	00c24834 	movhi	r3,2336
    1afc:	18c01c04 	addi	r3,r3,112
    1b00:	0080a404 	movi	r2,656
    1b04:	18800035 	stwio	r2,0(r3)
    IOWR(CY7C67200_BASE,HPI_DATA,0x0041);//a
    1b08:	00c24834 	movhi	r3,2336
    1b0c:	18c01c04 	addi	r3,r3,112
    1b10:	00801044 	movi	r2,65
    1b14:	18800035 	stwio	r2,0(r3)
    IOWR(CY7C67200_BASE,HPI_DATA,0x0013);//c
    1b18:	00c24834 	movhi	r3,2336
    1b1c:	18c01c04 	addi	r3,r3,112
    1b20:	008004c4 	movi	r2,19
    1b24:	18800035 	stwio	r2,0(r3)
    IOWR(CY7C67200_BASE,HPI_DATA,0x0520);//e
    1b28:	00c24834 	movhi	r3,2336
    1b2c:	18c01c04 	addi	r3,r3,112
    1b30:	00814804 	movi	r2,1312
    1b34:	18800035 	stwio	r2,0(r3)
    
    //data phase IN-2
    IOWR(CY7C67200_BASE,HPI_DATA,0x054c); //520
    1b38:	00c24834 	movhi	r3,2336
    1b3c:	18c01c04 	addi	r3,r3,112
    1b40:	00815304 	movi	r2,1356
    1b44:	18800035 	stwio	r2,0(r3)
    IOWR(CY7C67200_BASE,HPI_DATA,0x0008);//2
    1b48:	00c24834 	movhi	r3,2336
    1b4c:	18c01c04 	addi	r3,r3,112
    1b50:	00800204 	movi	r2,8
    1b54:	18800035 	stwio	r2,0(r3)
    IOWR(CY7C67200_BASE,HPI_DATA,0x0290);//4
    1b58:	00c24834 	movhi	r3,2336
    1b5c:	18c01c04 	addi	r3,r3,112
    1b60:	0080a404 	movi	r2,656
    1b64:	18800035 	stwio	r2,0(r3)
    IOWR(CY7C67200_BASE,HPI_DATA,0x0001);//6 //data0
    1b68:	00c24834 	movhi	r3,2336
    1b6c:	18c01c04 	addi	r3,r3,112
    1b70:	00800044 	movi	r2,1
    1b74:	18800035 	stwio	r2,0(r3)
    IOWR(CY7C67200_BASE,HPI_DATA,0x0013);//8
    1b78:	00c24834 	movhi	r3,2336
    1b7c:	18c01c04 	addi	r3,r3,112
    1b80:	008004c4 	movi	r2,19
    1b84:	18800035 	stwio	r2,0(r3)
    IOWR(CY7C67200_BASE,HPI_DATA,0x052c);//a
    1b88:	00c24834 	movhi	r3,2336
    1b8c:	18c01c04 	addi	r3,r3,112
    1b90:	00814b04 	movi	r2,1324
    1b94:	18800035 	stwio	r2,0(r3)
    
    //data phase IN-3
    IOWR(CY7C67200_BASE,HPI_DATA,0x0554); //c
    1b98:	00c24834 	movhi	r3,2336
    1b9c:	18c01c04 	addi	r3,r3,112
    1ba0:	00815504 	movi	r2,1364
    1ba4:	18800035 	stwio	r2,0(r3)
    IOWR(CY7C67200_BASE,HPI_DATA,0x0002);//e
    1ba8:	00c24834 	movhi	r3,2336
    1bac:	18c01c04 	addi	r3,r3,112
    1bb0:	00800084 	movi	r2,2
    1bb4:	18800035 	stwio	r2,0(r3)
    IOWR(CY7C67200_BASE,HPI_DATA,0x0290);//530
    1bb8:	00c24834 	movhi	r3,2336
    1bbc:	18c01c04 	addi	r3,r3,112
    1bc0:	0080a404 	movi	r2,656
    1bc4:	18800035 	stwio	r2,0(r3)
    IOWR(CY7C67200_BASE,HPI_DATA,0x0041);//2
    1bc8:	00c24834 	movhi	r3,2336
    1bcc:	18c01c04 	addi	r3,r3,112
    1bd0:	00801044 	movi	r2,65
    1bd4:	18800035 	stwio	r2,0(r3)
    IOWR(CY7C67200_BASE,HPI_DATA,0x0013);//4
    1bd8:	00c24834 	movhi	r3,2336
    1bdc:	18c01c04 	addi	r3,r3,112
    1be0:	008004c4 	movi	r2,19
    1be4:	18800035 	stwio	r2,0(r3)
    IOWR(CY7C67200_BASE,HPI_DATA,0x0538);//6
    1be8:	00c24834 	movhi	r3,2336
    1bec:	18c01c04 	addi	r3,r3,112
    1bf0:	00814e04 	movi	r2,1336
    1bf4:	18800035 	stwio	r2,0(r3)
    
    //status phase
    IOWR(CY7C67200_BASE,HPI_DATA,0x0000); //538
    1bf8:	00824834 	movhi	r2,2336
    1bfc:	10801c04 	addi	r2,r2,112
    1c00:	10000035 	stwio	zero,0(r2)
    IOWR(CY7C67200_BASE,HPI_DATA,0x0000);//a
    1c04:	00824834 	movhi	r2,2336
    1c08:	10801c04 	addi	r2,r2,112
    1c0c:	10000035 	stwio	zero,0(r2)
    IOWR(CY7C67200_BASE,HPI_DATA,0x0210);//c
    1c10:	00c24834 	movhi	r3,2336
    1c14:	18c01c04 	addi	r3,r3,112
    1c18:	00808404 	movi	r2,528
    1c1c:	18800035 	stwio	r2,0(r3)
    IOWR(CY7C67200_BASE,HPI_DATA,0x0041);//e
    1c20:	00c24834 	movhi	r3,2336
    1c24:	18c01c04 	addi	r3,r3,112
    1c28:	00801044 	movi	r2,65
    1c2c:	18800035 	stwio	r2,0(r3)
    IOWR(CY7C67200_BASE,HPI_DATA,0x0013);//540
    1c30:	00c24834 	movhi	r3,2336
    1c34:	18c01c04 	addi	r3,r3,112
    1c38:	008004c4 	movi	r2,19
    1c3c:	18800035 	stwio	r2,0(r3)
    IOWR(CY7C67200_BASE,HPI_DATA,0x0000);//2
    1c40:	00824834 	movhi	r2,2336
    1c44:	10801c04 	addi	r2,r2,112
    1c48:	10000035 	stwio	zero,0(r2)
     
    UsbWrite(HUSB_SIE1_pCurrentTDPtr,0x0500); //HUSB_SIE1_pCurrentTDPtr
    1c4c:	01006c04 	movi	r4,432
    1c50:	01414004 	movi	r5,1280
    1c54:	000482c0 	call	482c <UsbWrite>
    
    //usleep(100*1000);
    //if no message
    while (!(IORD(CY7C67200_BASE,HPI_STATUS) & HPI_STATUS_SIE1msg_FLAG) )  //read sie1 msg register
    1c58:	00008d06 	br	1e90 <main+0xfe8>
    {
        //resend the get device descriptor
        //get device descriptor

    //the starting address
    IOWR(CY7C67200_BASE,HPI_ADDR,0x0500); //the start address       
    1c5c:	00c24834 	movhi	r3,2336
    1c60:	18c01e04 	addi	r3,r3,120
    1c64:	00814004 	movi	r2,1280
    1c68:	18800035 	stwio	r2,0(r3)
    IOWR(CY7C67200_BASE,HPI_DATA,0x050C); 
    1c6c:	00c24834 	movhi	r3,2336
    1c70:	18c01c04 	addi	r3,r3,112
    1c74:	00814304 	movi	r2,1292
    1c78:	18800035 	stwio	r2,0(r3)
    IOWR(CY7C67200_BASE,HPI_DATA,0x0008); //4 port number
    1c7c:	00c24834 	movhi	r3,2336
    1c80:	18c01c04 	addi	r3,r3,112
    1c84:	00800204 	movi	r2,8
    1c88:	18800035 	stwio	r2,0(r3)
    IOWR(CY7C67200_BASE,HPI_DATA,0x02D0); //device address
    1c8c:	00c24834 	movhi	r3,2336
    1c90:	18c01c04 	addi	r3,r3,112
    1c94:	0080b404 	movi	r2,720
    1c98:	18800035 	stwio	r2,0(r3)
    IOWR(CY7C67200_BASE,HPI_DATA,0x0001);
    1c9c:	00c24834 	movhi	r3,2336
    1ca0:	18c01c04 	addi	r3,r3,112
    1ca4:	00800044 	movi	r2,1
    1ca8:	18800035 	stwio	r2,0(r3)
    IOWR(CY7C67200_BASE,HPI_DATA,0x0013);
    1cac:	00c24834 	movhi	r3,2336
    1cb0:	18c01c04 	addi	r3,r3,112
    1cb4:	008004c4 	movi	r2,19
    1cb8:	18800035 	stwio	r2,0(r3)
    IOWR(CY7C67200_BASE,HPI_DATA,0x0514);
    1cbc:	00c24834 	movhi	r3,2336
    1cc0:	18c01c04 	addi	r3,r3,112
    1cc4:	00814504 	movi	r2,1300
    1cc8:	18800035 	stwio	r2,0(r3)
    
    //td content 4 bytes
    IOWR(CY7C67200_BASE,HPI_DATA,0x0680);//c
    1ccc:	00c24834 	movhi	r3,2336
    1cd0:	18c01c04 	addi	r3,r3,112
    1cd4:	0081a004 	movi	r2,1664
    1cd8:	18800035 	stwio	r2,0(r3)
    IOWR(CY7C67200_BASE,HPI_DATA,0x0100);//e
    1cdc:	00c24834 	movhi	r3,2336
    1ce0:	18c01c04 	addi	r3,r3,112
    1ce4:	00804004 	movi	r2,256
    1ce8:	18800035 	stwio	r2,0(r3)
    IOWR(CY7C67200_BASE,HPI_DATA,0x0000);//0
    1cec:	00824834 	movhi	r2,2336
    1cf0:	10801c04 	addi	r2,r2,112
    1cf4:	10000035 	stwio	zero,0(r2)
    IOWR(CY7C67200_BASE,HPI_DATA,0x0012);//2
    1cf8:	00c24834 	movhi	r3,2336
    1cfc:	18c01c04 	addi	r3,r3,112
    1d00:	00800484 	movi	r2,18
    1d04:	18800035 	stwio	r2,0(r3)
    
    //data phase IN-1
    IOWR(CY7C67200_BASE,HPI_DATA,0x0544); //514
    1d08:	00c24834 	movhi	r3,2336
    1d0c:	18c01c04 	addi	r3,r3,112
    1d10:	00815104 	movi	r2,1348
    1d14:	18800035 	stwio	r2,0(r3)
    IOWR(CY7C67200_BASE,HPI_DATA,0x0008);//6
    1d18:	00c24834 	movhi	r3,2336
    1d1c:	18c01c04 	addi	r3,r3,112
    1d20:	00800204 	movi	r2,8
    1d24:	18800035 	stwio	r2,0(r3)
    IOWR(CY7C67200_BASE,HPI_DATA,0x0290);//8
    1d28:	00c24834 	movhi	r3,2336
    1d2c:	18c01c04 	addi	r3,r3,112
    1d30:	0080a404 	movi	r2,656
    1d34:	18800035 	stwio	r2,0(r3)
    IOWR(CY7C67200_BASE,HPI_DATA,0x0041);//a
    1d38:	00c24834 	movhi	r3,2336
    1d3c:	18c01c04 	addi	r3,r3,112
    1d40:	00801044 	movi	r2,65
    1d44:	18800035 	stwio	r2,0(r3)
    IOWR(CY7C67200_BASE,HPI_DATA,0x0013);//c
    1d48:	00c24834 	movhi	r3,2336
    1d4c:	18c01c04 	addi	r3,r3,112
    1d50:	008004c4 	movi	r2,19
    1d54:	18800035 	stwio	r2,0(r3)
    IOWR(CY7C67200_BASE,HPI_DATA,0x0520);//e
    1d58:	00c24834 	movhi	r3,2336
    1d5c:	18c01c04 	addi	r3,r3,112
    1d60:	00814804 	movi	r2,1312
    1d64:	18800035 	stwio	r2,0(r3)
    
    //data phase IN-2
    IOWR(CY7C67200_BASE,HPI_DATA,0x054c); //520
    1d68:	00c24834 	movhi	r3,2336
    1d6c:	18c01c04 	addi	r3,r3,112
    1d70:	00815304 	movi	r2,1356
    1d74:	18800035 	stwio	r2,0(r3)
    IOWR(CY7C67200_BASE,HPI_DATA,0x0008);//2
    1d78:	00c24834 	movhi	r3,2336
    1d7c:	18c01c04 	addi	r3,r3,112
    1d80:	00800204 	movi	r2,8
    1d84:	18800035 	stwio	r2,0(r3)
    IOWR(CY7C67200_BASE,HPI_DATA,0x0290);//4
    1d88:	00c24834 	movhi	r3,2336
    1d8c:	18c01c04 	addi	r3,r3,112
    1d90:	0080a404 	movi	r2,656
    1d94:	18800035 	stwio	r2,0(r3)
    IOWR(CY7C67200_BASE,HPI_DATA,0x0001);//6
    1d98:	00c24834 	movhi	r3,2336
    1d9c:	18c01c04 	addi	r3,r3,112
    1da0:	00800044 	movi	r2,1
    1da4:	18800035 	stwio	r2,0(r3)
    IOWR(CY7C67200_BASE,HPI_DATA,0x0013);//8
    1da8:	00c24834 	movhi	r3,2336
    1dac:	18c01c04 	addi	r3,r3,112
    1db0:	008004c4 	movi	r2,19
    1db4:	18800035 	stwio	r2,0(r3)
    IOWR(CY7C67200_BASE,HPI_DATA,0x052c);//a
    1db8:	00c24834 	movhi	r3,2336
    1dbc:	18c01c04 	addi	r3,r3,112
    1dc0:	00814b04 	movi	r2,1324
    1dc4:	18800035 	stwio	r2,0(r3)
    
    //data phase IN-3
    IOWR(CY7C67200_BASE,HPI_DATA,0x0554); //c
    1dc8:	00c24834 	movhi	r3,2336
    1dcc:	18c01c04 	addi	r3,r3,112
    1dd0:	00815504 	movi	r2,1364
    1dd4:	18800035 	stwio	r2,0(r3)
    IOWR(CY7C67200_BASE,HPI_DATA,0x0002);//e
    1dd8:	00c24834 	movhi	r3,2336
    1ddc:	18c01c04 	addi	r3,r3,112
    1de0:	00800084 	movi	r2,2
    1de4:	18800035 	stwio	r2,0(r3)
    IOWR(CY7C67200_BASE,HPI_DATA,0x0290);//530
    1de8:	00c24834 	movhi	r3,2336
    1dec:	18c01c04 	addi	r3,r3,112
    1df0:	0080a404 	movi	r2,656
    1df4:	18800035 	stwio	r2,0(r3)
    IOWR(CY7C67200_BASE,HPI_DATA,0x0041);//2
    1df8:	00c24834 	movhi	r3,2336
    1dfc:	18c01c04 	addi	r3,r3,112
    1e00:	00801044 	movi	r2,65
    1e04:	18800035 	stwio	r2,0(r3)
    IOWR(CY7C67200_BASE,HPI_DATA,0x0013);//4
    1e08:	00c24834 	movhi	r3,2336
    1e0c:	18c01c04 	addi	r3,r3,112
    1e10:	008004c4 	movi	r2,19
    1e14:	18800035 	stwio	r2,0(r3)
    IOWR(CY7C67200_BASE,HPI_DATA,0x0538);//6
    1e18:	00c24834 	movhi	r3,2336
    1e1c:	18c01c04 	addi	r3,r3,112
    1e20:	00814e04 	movi	r2,1336
    1e24:	18800035 	stwio	r2,0(r3)
    
    //status phase
    IOWR(CY7C67200_BASE,HPI_DATA,0x0000); //538
    1e28:	00824834 	movhi	r2,2336
    1e2c:	10801c04 	addi	r2,r2,112
    1e30:	10000035 	stwio	zero,0(r2)
    IOWR(CY7C67200_BASE,HPI_DATA,0x0000);//a
    1e34:	00824834 	movhi	r2,2336
    1e38:	10801c04 	addi	r2,r2,112
    1e3c:	10000035 	stwio	zero,0(r2)
    IOWR(CY7C67200_BASE,HPI_DATA,0x0210);//c
    1e40:	00c24834 	movhi	r3,2336
    1e44:	18c01c04 	addi	r3,r3,112
    1e48:	00808404 	movi	r2,528
    1e4c:	18800035 	stwio	r2,0(r3)
    IOWR(CY7C67200_BASE,HPI_DATA,0x0041);//e
    1e50:	00c24834 	movhi	r3,2336
    1e54:	18c01c04 	addi	r3,r3,112
    1e58:	00801044 	movi	r2,65
    1e5c:	18800035 	stwio	r2,0(r3)
    IOWR(CY7C67200_BASE,HPI_DATA,0x0013);//540
    1e60:	00c24834 	movhi	r3,2336
    1e64:	18c01c04 	addi	r3,r3,112
    1e68:	008004c4 	movi	r2,19
    1e6c:	18800035 	stwio	r2,0(r3)
    IOWR(CY7C67200_BASE,HPI_DATA,0x0000);//2
    1e70:	00824834 	movhi	r2,2336
    1e74:	10801c04 	addi	r2,r2,112
    1e78:	10000035 	stwio	zero,0(r2)
    
     
    UsbWrite(HUSB_SIE1_pCurrentTDPtr,0x0500); //HUSB_SIE1_pCurrentTDPtr
    1e7c:	01006c04 	movi	r4,432
    1e80:	01414004 	movi	r5,1280
    1e84:	000482c0 	call	482c <UsbWrite>
    usleep(10*1000);
    1e88:	0109c404 	movi	r4,10000
    1e8c:	00148100 	call	14810 <usleep>
     
    UsbWrite(HUSB_SIE1_pCurrentTDPtr,0x0500); //HUSB_SIE1_pCurrentTDPtr
    
    //usleep(100*1000);
    //if no message
    while (!(IORD(CY7C67200_BASE,HPI_STATUS) & HPI_STATUS_SIE1msg_FLAG) )  //read sie1 msg register
    1e90:	00824834 	movhi	r2,2336
    1e94:	10801f04 	addi	r2,r2,124
    1e98:	10800037 	ldwio	r2,0(r2)
    1e9c:	1080040c 	andi	r2,r2,16
    1ea0:	1005003a 	cmpeq	r2,r2,zero
    1ea4:	103f6d1e 	bne	r2,zero,1c5c <main+0xdb4>
    UsbWrite(HUSB_SIE1_pCurrentTDPtr,0x0500); //HUSB_SIE1_pCurrentTDPtr
    usleep(10*1000);
    }
    
    //UsbRead(0x01B8);
    usb_ctl_val = UsbRead(HPI_SIE1_MSG_ADR);
    1ea8:	01005104 	movi	r4,324
    1eac:	00048700 	call	4870 <UsbRead>
    1eb0:	e0bffe8d 	sth	r2,-6(fp)
    UsbWrite(HPI_SIE1_MSG_ADR, 0);
    1eb4:	01005104 	movi	r4,324
    1eb8:	000b883a 	mov	r5,zero
    1ebc:	000482c0 	call	482c <UsbWrite>
    while (usb_ctl_val != 0x1000)  //read sie1 msg register
    1ec0:	00000d06 	br	1ef8 <main+0x1050>
    {
       if(usb_ctl_val == 0x000)
    1ec4:	e0bffe8b 	ldhu	r2,-6(fp)
    1ec8:	1005003a 	cmpeq	r2,r2,zero
    1ecc:	1000041e 	bne	r2,zero,1ee0 <main+0x1038>
       {
       }
       else
       {
        printf("[SIE1 MSG]:SIE1 msg reg is %x\n",usb_ctl_val);
    1ed0:	e17ffe8b 	ldhu	r5,-6(fp)
    1ed4:	01000074 	movhi	r4,1
    1ed8:	211ee704 	addi	r4,r4,31644
    1edc:	00055540 	call	5554 <printf>
       }
       usb_ctl_val = UsbRead(HPI_SIE1_MSG_ADR);
    1ee0:	01005104 	movi	r4,324
    1ee4:	00048700 	call	4870 <UsbRead>
    1ee8:	e0bffe8d 	sth	r2,-6(fp)
       UsbWrite(HPI_SIE1_MSG_ADR, 0);
    1eec:	01005104 	movi	r4,324
    1ef0:	000b883a 	mov	r5,zero
    1ef4:	000482c0 	call	482c <UsbWrite>
    }
    
    //UsbRead(0x01B8);
    usb_ctl_val = UsbRead(HPI_SIE1_MSG_ADR);
    UsbWrite(HPI_SIE1_MSG_ADR, 0);
    while (usb_ctl_val != 0x1000)  //read sie1 msg register
    1ef8:	e0bffe8b 	ldhu	r2,-6(fp)
    1efc:	10840018 	cmpnei	r2,r2,4096
    1f00:	103ff01e 	bne	r2,zero,1ec4 <main+0x101c>
       usb_ctl_val = UsbRead(HPI_SIE1_MSG_ADR);
       UsbWrite(HPI_SIE1_MSG_ADR, 0);
      
    }

    IOWR(CY7C67200_BASE,HPI_ADDR,0x0506);
    1f04:	00c24834 	movhi	r3,2336
    1f08:	18c01e04 	addi	r3,r3,120
    1f0c:	00814184 	movi	r2,1286
    1f10:	18800035 	stwio	r2,0(r3)
    printf("[ENUM PROCESS]:step 4 TD Status Byte is %x\n",IORD(CY7C67200_BASE,HPI_DATA));
    1f14:	00824834 	movhi	r2,2336
    1f18:	10801c04 	addi	r2,r2,112
    1f1c:	11400037 	ldwio	r5,0(r2)
    1f20:	01000074 	movhi	r4,1
    1f24:	211f1504 	addi	r4,r4,31828
    1f28:	00055540 	call	5554 <printf>
    
    IOWR(CY7C67200_BASE,HPI_ADDR,0x0508);
    1f2c:	00c24834 	movhi	r3,2336
    1f30:	18c01e04 	addi	r3,r3,120
    1f34:	00814204 	movi	r2,1288
    1f38:	18800035 	stwio	r2,0(r3)
    usb_ctl_val = IORD(CY7C67200_BASE,HPI_DATA);
    1f3c:	00824834 	movhi	r2,2336
    1f40:	10801c04 	addi	r2,r2,112
    1f44:	10800037 	ldwio	r2,0(r2)
    1f48:	e0bffe8d 	sth	r2,-6(fp)
    printf("[ENUM PROCESS]:step 4 TD Control Byte is %x\n",usb_ctl_val);
    1f4c:	e17ffe8b 	ldhu	r5,-6(fp)
    1f50:	01000074 	movhi	r4,1
    1f54:	211f2004 	addi	r4,r4,31872
    1f58:	00055540 	call	5554 <printf>
    while (usb_ctl_val != 0x03) 
    1f5c:	00001906 	br	1fc4 <main+0x111c>
    {
       IORD(CY7C67200_BASE,HPI_STATUS);
    1f60:	00824834 	movhi	r2,2336
    1f64:	10801f04 	addi	r2,r2,124
    1f68:	10800037 	ldwio	r2,0(r2)
       if(UsbRead(HPI_SIE1_MSG_ADR) == 0x1000)
    1f6c:	01005104 	movi	r4,324
    1f70:	00048700 	call	4870 <UsbRead>
    1f74:	10bfffcc 	andi	r2,r2,65535
    1f78:	10840018 	cmpnei	r2,r2,4096
    1f7c:	1000091e 	bne	r2,zero,1fa4 <main+0x10fc>
       {
           UsbWrite(HPI_SIE1_MSG_ADR, 0);
    1f80:	01005104 	movi	r4,324
    1f84:	000b883a 	mov	r5,zero
    1f88:	000482c0 	call	482c <UsbWrite>
                   
           while (!(IORD(CY7C67200_BASE,HPI_STATUS) & HPI_STATUS_SIE1msg_FLAG) )  //read sie1 msg register
    1f8c:	00824834 	movhi	r2,2336
    1f90:	10801f04 	addi	r2,r2,124
    1f94:	10800037 	ldwio	r2,0(r2)
    1f98:	1080040c 	andi	r2,r2,16
    1f9c:	1005003a 	cmpeq	r2,r2,zero
    1fa0:	103ffa1e 	bne	r2,zero,1f8c <main+0x10e4>
           {
            
           }
        }
           //usleep(1000);
           IOWR(CY7C67200_BASE,HPI_ADDR,0x0508);
    1fa4:	00c24834 	movhi	r3,2336
    1fa8:	18c01e04 	addi	r3,r3,120
    1fac:	00814204 	movi	r2,1288
    1fb0:	18800035 	stwio	r2,0(r3)
           usb_ctl_val = IORD(CY7C67200_BASE,HPI_DATA); 
    1fb4:	00824834 	movhi	r2,2336
    1fb8:	10801c04 	addi	r2,r2,112
    1fbc:	10800037 	ldwio	r2,0(r2)
    1fc0:	e0bffe8d 	sth	r2,-6(fp)
    printf("[ENUM PROCESS]:step 4 TD Status Byte is %x\n",IORD(CY7C67200_BASE,HPI_DATA));
    
    IOWR(CY7C67200_BASE,HPI_ADDR,0x0508);
    usb_ctl_val = IORD(CY7C67200_BASE,HPI_DATA);
    printf("[ENUM PROCESS]:step 4 TD Control Byte is %x\n",usb_ctl_val);
    while (usb_ctl_val != 0x03) 
    1fc4:	e0bffe8b 	ldhu	r2,-6(fp)
    1fc8:	108000d8 	cmpnei	r2,r2,3
    1fcc:	103fe41e 	bne	r2,zero,1f60 <main+0x10b8>
           //usleep(1000);
           IOWR(CY7C67200_BASE,HPI_ADDR,0x0508);
           usb_ctl_val = IORD(CY7C67200_BASE,HPI_DATA); 
    }    
       
    printf("------------[ENUM PROCESS]:get device descriptor-2 pass!--------------\n");
    1fd0:	01000074 	movhi	r4,1
    1fd4:	211f4004 	addi	r4,r4,32000
    1fd8:	000566c0 	call	566c <puts>
//    printf("\n[ENUM PROCESS]:TD rec data8 is %x\n",IORD(CY7C67200_BASE,HPI_DATA));
    
    //-----------------------------------get configuration descriptor -1 ----------------------------------//
    //usleep(1000);
    //the starting address
    IOWR(CY7C67200_BASE,HPI_ADDR,0x0500); //the start address       
    1fdc:	00c24834 	movhi	r3,2336
    1fe0:	18c01e04 	addi	r3,r3,120
    1fe4:	00814004 	movi	r2,1280
    1fe8:	18800035 	stwio	r2,0(r3)
    IOWR(CY7C67200_BASE,HPI_DATA,0x050C); 
    1fec:	00c24834 	movhi	r3,2336
    1ff0:	18c01c04 	addi	r3,r3,112
    1ff4:	00814304 	movi	r2,1292
    1ff8:	18800035 	stwio	r2,0(r3)
    IOWR(CY7C67200_BASE,HPI_DATA,0x0008); //4 port number
    1ffc:	00c24834 	movhi	r3,2336
    2000:	18c01c04 	addi	r3,r3,112
    2004:	00800204 	movi	r2,8
    2008:	18800035 	stwio	r2,0(r3)
    IOWR(CY7C67200_BASE,HPI_DATA,0x02D0); //device address
    200c:	00c24834 	movhi	r3,2336
    2010:	18c01c04 	addi	r3,r3,112
    2014:	0080b404 	movi	r2,720
    2018:	18800035 	stwio	r2,0(r3)
    IOWR(CY7C67200_BASE,HPI_DATA,0x0001);
    201c:	00c24834 	movhi	r3,2336
    2020:	18c01c04 	addi	r3,r3,112
    2024:	00800044 	movi	r2,1
    2028:	18800035 	stwio	r2,0(r3)
    IOWR(CY7C67200_BASE,HPI_DATA,0x0013);
    202c:	00c24834 	movhi	r3,2336
    2030:	18c01c04 	addi	r3,r3,112
    2034:	008004c4 	movi	r2,19
    2038:	18800035 	stwio	r2,0(r3)
    IOWR(CY7C67200_BASE,HPI_DATA,0x0514);
    203c:	00c24834 	movhi	r3,2336
    2040:	18c01c04 	addi	r3,r3,112
    2044:	00814504 	movi	r2,1300
    2048:	18800035 	stwio	r2,0(r3)
    
    //td content 4 bytes
    IOWR(CY7C67200_BASE,HPI_DATA,0x0680);//c
    204c:	00c24834 	movhi	r3,2336
    2050:	18c01c04 	addi	r3,r3,112
    2054:	0081a004 	movi	r2,1664
    2058:	18800035 	stwio	r2,0(r3)
    IOWR(CY7C67200_BASE,HPI_DATA,0x0200);//e
    205c:	00c24834 	movhi	r3,2336
    2060:	18c01c04 	addi	r3,r3,112
    2064:	00808004 	movi	r2,512
    2068:	18800035 	stwio	r2,0(r3)
    IOWR(CY7C67200_BASE,HPI_DATA,0x0000);//0
    206c:	00824834 	movhi	r2,2336
    2070:	10801c04 	addi	r2,r2,112
    2074:	10000035 	stwio	zero,0(r2)
    IOWR(CY7C67200_BASE,HPI_DATA,0x0009);//2
    2078:	00c24834 	movhi	r3,2336
    207c:	18c01c04 	addi	r3,r3,112
    2080:	00800244 	movi	r2,9
    2084:	18800035 	stwio	r2,0(r3)
    
    //data phase IN-1
    IOWR(CY7C67200_BASE,HPI_DATA,0x0544); //514
    2088:	00c24834 	movhi	r3,2336
    208c:	18c01c04 	addi	r3,r3,112
    2090:	00815104 	movi	r2,1348
    2094:	18800035 	stwio	r2,0(r3)
    IOWR(CY7C67200_BASE,HPI_DATA,0x0008);//6
    2098:	00c24834 	movhi	r3,2336
    209c:	18c01c04 	addi	r3,r3,112
    20a0:	00800204 	movi	r2,8
    20a4:	18800035 	stwio	r2,0(r3)
    IOWR(CY7C67200_BASE,HPI_DATA,0x0290);//8
    20a8:	00c24834 	movhi	r3,2336
    20ac:	18c01c04 	addi	r3,r3,112
    20b0:	0080a404 	movi	r2,656
    20b4:	18800035 	stwio	r2,0(r3)
    IOWR(CY7C67200_BASE,HPI_DATA,0x0041);//a
    20b8:	00c24834 	movhi	r3,2336
    20bc:	18c01c04 	addi	r3,r3,112
    20c0:	00801044 	movi	r2,65
    20c4:	18800035 	stwio	r2,0(r3)
    IOWR(CY7C67200_BASE,HPI_DATA,0x0013);//c
    20c8:	00c24834 	movhi	r3,2336
    20cc:	18c01c04 	addi	r3,r3,112
    20d0:	008004c4 	movi	r2,19
    20d4:	18800035 	stwio	r2,0(r3)
    IOWR(CY7C67200_BASE,HPI_DATA,0x0520);//e
    20d8:	00c24834 	movhi	r3,2336
    20dc:	18c01c04 	addi	r3,r3,112
    20e0:	00814804 	movi	r2,1312
    20e4:	18800035 	stwio	r2,0(r3)
    
    //data phase IN-2
    IOWR(CY7C67200_BASE,HPI_DATA,0x054c); //520
    20e8:	00c24834 	movhi	r3,2336
    20ec:	18c01c04 	addi	r3,r3,112
    20f0:	00815304 	movi	r2,1356
    20f4:	18800035 	stwio	r2,0(r3)
    IOWR(CY7C67200_BASE,HPI_DATA,0x0001);//2
    20f8:	00c24834 	movhi	r3,2336
    20fc:	18c01c04 	addi	r3,r3,112
    2100:	00800044 	movi	r2,1
    2104:	18800035 	stwio	r2,0(r3)
    IOWR(CY7C67200_BASE,HPI_DATA,0x0290);//4
    2108:	00c24834 	movhi	r3,2336
    210c:	18c01c04 	addi	r3,r3,112
    2110:	0080a404 	movi	r2,656
    2114:	18800035 	stwio	r2,0(r3)
    IOWR(CY7C67200_BASE,HPI_DATA,0x0001);//6 //data0
    2118:	00c24834 	movhi	r3,2336
    211c:	18c01c04 	addi	r3,r3,112
    2120:	00800044 	movi	r2,1
    2124:	18800035 	stwio	r2,0(r3)
    IOWR(CY7C67200_BASE,HPI_DATA,0x0013);//8
    2128:	00c24834 	movhi	r3,2336
    212c:	18c01c04 	addi	r3,r3,112
    2130:	008004c4 	movi	r2,19
    2134:	18800035 	stwio	r2,0(r3)
    IOWR(CY7C67200_BASE,HPI_DATA,0x052c);//a
    2138:	00c24834 	movhi	r3,2336
    213c:	18c01c04 	addi	r3,r3,112
    2140:	00814b04 	movi	r2,1324
    2144:	18800035 	stwio	r2,0(r3)
    
    //status phase
    IOWR(CY7C67200_BASE,HPI_DATA,0x0000); //52c
    2148:	00824834 	movhi	r2,2336
    214c:	10801c04 	addi	r2,r2,112
    2150:	10000035 	stwio	zero,0(r2)
    IOWR(CY7C67200_BASE,HPI_DATA,0x0000);//e
    2154:	00824834 	movhi	r2,2336
    2158:	10801c04 	addi	r2,r2,112
    215c:	10000035 	stwio	zero,0(r2)
    IOWR(CY7C67200_BASE,HPI_DATA,0x0210);//530
    2160:	00c24834 	movhi	r3,2336
    2164:	18c01c04 	addi	r3,r3,112
    2168:	00808404 	movi	r2,528
    216c:	18800035 	stwio	r2,0(r3)
    IOWR(CY7C67200_BASE,HPI_DATA,0x0041);//2
    2170:	00c24834 	movhi	r3,2336
    2174:	18c01c04 	addi	r3,r3,112
    2178:	00801044 	movi	r2,65
    217c:	18800035 	stwio	r2,0(r3)
    IOWR(CY7C67200_BASE,HPI_DATA,0x0013);//4
    2180:	00c24834 	movhi	r3,2336
    2184:	18c01c04 	addi	r3,r3,112
    2188:	008004c4 	movi	r2,19
    218c:	18800035 	stwio	r2,0(r3)
    IOWR(CY7C67200_BASE,HPI_DATA,0x0000);//6
    2190:	00824834 	movhi	r2,2336
    2194:	10801c04 	addi	r2,r2,112
    2198:	10000035 	stwio	zero,0(r2)
     
    UsbWrite(HUSB_SIE1_pCurrentTDPtr,0x0500); //HUSB_SIE1_pCurrentTDPtr
    219c:	01006c04 	movi	r4,432
    21a0:	01414004 	movi	r5,1280
    21a4:	000482c0 	call	482c <UsbWrite>
    
   //usleep(10*1000);
   //if no message
    while (!(IORD(CY7C67200_BASE,HPI_STATUS) & HPI_STATUS_SIE1msg_FLAG) )  //read sie1 msg register
    21a8:	00007506 	br	2380 <main+0x14d8>
    {
        //resend the get device descriptor
        //get device descriptor

    //the starting address
    IOWR(CY7C67200_BASE,HPI_ADDR,0x0500); //the start address       
    21ac:	00c24834 	movhi	r3,2336
    21b0:	18c01e04 	addi	r3,r3,120
    21b4:	00814004 	movi	r2,1280
    21b8:	18800035 	stwio	r2,0(r3)
    IOWR(CY7C67200_BASE,HPI_DATA,0x050C); 
    21bc:	00c24834 	movhi	r3,2336
    21c0:	18c01c04 	addi	r3,r3,112
    21c4:	00814304 	movi	r2,1292
    21c8:	18800035 	stwio	r2,0(r3)
    IOWR(CY7C67200_BASE,HPI_DATA,0x0008); //4 port number
    21cc:	00c24834 	movhi	r3,2336
    21d0:	18c01c04 	addi	r3,r3,112
    21d4:	00800204 	movi	r2,8
    21d8:	18800035 	stwio	r2,0(r3)
    IOWR(CY7C67200_BASE,HPI_DATA,0x02D0); //device address
    21dc:	00c24834 	movhi	r3,2336
    21e0:	18c01c04 	addi	r3,r3,112
    21e4:	0080b404 	movi	r2,720
    21e8:	18800035 	stwio	r2,0(r3)
    IOWR(CY7C67200_BASE,HPI_DATA,0x0001);
    21ec:	00c24834 	movhi	r3,2336
    21f0:	18c01c04 	addi	r3,r3,112
    21f4:	00800044 	movi	r2,1
    21f8:	18800035 	stwio	r2,0(r3)
    IOWR(CY7C67200_BASE,HPI_DATA,0x0013);
    21fc:	00c24834 	movhi	r3,2336
    2200:	18c01c04 	addi	r3,r3,112
    2204:	008004c4 	movi	r2,19
    2208:	18800035 	stwio	r2,0(r3)
    IOWR(CY7C67200_BASE,HPI_DATA,0x0514);
    220c:	00c24834 	movhi	r3,2336
    2210:	18c01c04 	addi	r3,r3,112
    2214:	00814504 	movi	r2,1300
    2218:	18800035 	stwio	r2,0(r3)
    
    //td content 4 bytes
    IOWR(CY7C67200_BASE,HPI_DATA,0x0680);//c
    221c:	00c24834 	movhi	r3,2336
    2220:	18c01c04 	addi	r3,r3,112
    2224:	0081a004 	movi	r2,1664
    2228:	18800035 	stwio	r2,0(r3)
    IOWR(CY7C67200_BASE,HPI_DATA,0x0200);//e
    222c:	00c24834 	movhi	r3,2336
    2230:	18c01c04 	addi	r3,r3,112
    2234:	00808004 	movi	r2,512
    2238:	18800035 	stwio	r2,0(r3)
    IOWR(CY7C67200_BASE,HPI_DATA,0x0000);//0
    223c:	00824834 	movhi	r2,2336
    2240:	10801c04 	addi	r2,r2,112
    2244:	10000035 	stwio	zero,0(r2)
    IOWR(CY7C67200_BASE,HPI_DATA,0x0009);//2
    2248:	00c24834 	movhi	r3,2336
    224c:	18c01c04 	addi	r3,r3,112
    2250:	00800244 	movi	r2,9
    2254:	18800035 	stwio	r2,0(r3)
    
    //data phase IN-1
    IOWR(CY7C67200_BASE,HPI_DATA,0x0544); //514
    2258:	00c24834 	movhi	r3,2336
    225c:	18c01c04 	addi	r3,r3,112
    2260:	00815104 	movi	r2,1348
    2264:	18800035 	stwio	r2,0(r3)
    IOWR(CY7C67200_BASE,HPI_DATA,0x0008);//6
    2268:	00c24834 	movhi	r3,2336
    226c:	18c01c04 	addi	r3,r3,112
    2270:	00800204 	movi	r2,8
    2274:	18800035 	stwio	r2,0(r3)
    IOWR(CY7C67200_BASE,HPI_DATA,0x0290);//8
    2278:	00c24834 	movhi	r3,2336
    227c:	18c01c04 	addi	r3,r3,112
    2280:	0080a404 	movi	r2,656
    2284:	18800035 	stwio	r2,0(r3)
    IOWR(CY7C67200_BASE,HPI_DATA,0x0041);//a
    2288:	00c24834 	movhi	r3,2336
    228c:	18c01c04 	addi	r3,r3,112
    2290:	00801044 	movi	r2,65
    2294:	18800035 	stwio	r2,0(r3)
    IOWR(CY7C67200_BASE,HPI_DATA,0x0013);//c
    2298:	00c24834 	movhi	r3,2336
    229c:	18c01c04 	addi	r3,r3,112
    22a0:	008004c4 	movi	r2,19
    22a4:	18800035 	stwio	r2,0(r3)
    IOWR(CY7C67200_BASE,HPI_DATA,0x0520);//e
    22a8:	00c24834 	movhi	r3,2336
    22ac:	18c01c04 	addi	r3,r3,112
    22b0:	00814804 	movi	r2,1312
    22b4:	18800035 	stwio	r2,0(r3)
    
    //data phase IN-2
    IOWR(CY7C67200_BASE,HPI_DATA,0x054c); //520
    22b8:	00c24834 	movhi	r3,2336
    22bc:	18c01c04 	addi	r3,r3,112
    22c0:	00815304 	movi	r2,1356
    22c4:	18800035 	stwio	r2,0(r3)
    IOWR(CY7C67200_BASE,HPI_DATA,0x0001);//2
    22c8:	00c24834 	movhi	r3,2336
    22cc:	18c01c04 	addi	r3,r3,112
    22d0:	00800044 	movi	r2,1
    22d4:	18800035 	stwio	r2,0(r3)
    IOWR(CY7C67200_BASE,HPI_DATA,0x0290);//4
    22d8:	00c24834 	movhi	r3,2336
    22dc:	18c01c04 	addi	r3,r3,112
    22e0:	0080a404 	movi	r2,656
    22e4:	18800035 	stwio	r2,0(r3)
    IOWR(CY7C67200_BASE,HPI_DATA,0x0001);//6 //data0
    22e8:	00c24834 	movhi	r3,2336
    22ec:	18c01c04 	addi	r3,r3,112
    22f0:	00800044 	movi	r2,1
    22f4:	18800035 	stwio	r2,0(r3)
    IOWR(CY7C67200_BASE,HPI_DATA,0x0013);//8
    22f8:	00c24834 	movhi	r3,2336
    22fc:	18c01c04 	addi	r3,r3,112
    2300:	008004c4 	movi	r2,19
    2304:	18800035 	stwio	r2,0(r3)
    IOWR(CY7C67200_BASE,HPI_DATA,0x052c);//a
    2308:	00c24834 	movhi	r3,2336
    230c:	18c01c04 	addi	r3,r3,112
    2310:	00814b04 	movi	r2,1324
    2314:	18800035 	stwio	r2,0(r3)
    
    //status phase
    IOWR(CY7C67200_BASE,HPI_DATA,0x0000); //52c
    2318:	00824834 	movhi	r2,2336
    231c:	10801c04 	addi	r2,r2,112
    2320:	10000035 	stwio	zero,0(r2)
    IOWR(CY7C67200_BASE,HPI_DATA,0x0000);//e
    2324:	00824834 	movhi	r2,2336
    2328:	10801c04 	addi	r2,r2,112
    232c:	10000035 	stwio	zero,0(r2)
    IOWR(CY7C67200_BASE,HPI_DATA,0x0210);//530
    2330:	00c24834 	movhi	r3,2336
    2334:	18c01c04 	addi	r3,r3,112
    2338:	00808404 	movi	r2,528
    233c:	18800035 	stwio	r2,0(r3)
    IOWR(CY7C67200_BASE,HPI_DATA,0x0041);//2
    2340:	00c24834 	movhi	r3,2336
    2344:	18c01c04 	addi	r3,r3,112
    2348:	00801044 	movi	r2,65
    234c:	18800035 	stwio	r2,0(r3)
    IOWR(CY7C67200_BASE,HPI_DATA,0x0013);//4
    2350:	00c24834 	movhi	r3,2336
    2354:	18c01c04 	addi	r3,r3,112
    2358:	008004c4 	movi	r2,19
    235c:	18800035 	stwio	r2,0(r3)
    IOWR(CY7C67200_BASE,HPI_DATA,0x0000);//6
    2360:	00824834 	movhi	r2,2336
    2364:	10801c04 	addi	r2,r2,112
    2368:	10000035 	stwio	zero,0(r2)
     
    UsbWrite(HUSB_SIE1_pCurrentTDPtr,0x0500); //HUSB_SIE1_pCurrentTDPtr
    236c:	01006c04 	movi	r4,432
    2370:	01414004 	movi	r5,1280
    2374:	000482c0 	call	482c <UsbWrite>
    usleep(10*1000);
    2378:	0109c404 	movi	r4,10000
    237c:	00148100 	call	14810 <usleep>
     
    UsbWrite(HUSB_SIE1_pCurrentTDPtr,0x0500); //HUSB_SIE1_pCurrentTDPtr
    
   //usleep(10*1000);
   //if no message
    while (!(IORD(CY7C67200_BASE,HPI_STATUS) & HPI_STATUS_SIE1msg_FLAG) )  //read sie1 msg register
    2380:	00824834 	movhi	r2,2336
    2384:	10801f04 	addi	r2,r2,124
    2388:	10800037 	ldwio	r2,0(r2)
    238c:	1080040c 	andi	r2,r2,16
    2390:	1005003a 	cmpeq	r2,r2,zero
    2394:	103f851e 	bne	r2,zero,21ac <main+0x1304>
     
    UsbWrite(HUSB_SIE1_pCurrentTDPtr,0x0500); //HUSB_SIE1_pCurrentTDPtr
    usleep(10*1000);
    }
    
    usb_ctl_val = UsbRead(HPI_SIE1_MSG_ADR);
    2398:	01005104 	movi	r4,324
    239c:	00048700 	call	4870 <UsbRead>
    23a0:	e0bffe8d 	sth	r2,-6(fp)
    UsbWrite(HPI_SIE1_MSG_ADR, 0);
    23a4:	01005104 	movi	r4,324
    23a8:	000b883a 	mov	r5,zero
    23ac:	000482c0 	call	482c <UsbWrite>
    while (usb_ctl_val != 0x1000)  //read sie1 msg register
    23b0:	00000d06 	br	23e8 <main+0x1540>
    {
       if(usb_ctl_val == 0x000)
    23b4:	e0bffe8b 	ldhu	r2,-6(fp)
    23b8:	1005003a 	cmpeq	r2,r2,zero
    23bc:	1000041e 	bne	r2,zero,23d0 <main+0x1528>
       {
       }
       else
       {
        printf("[SIE1 MSG]:SIE1 msg reg is %x\n",usb_ctl_val);
    23c0:	e17ffe8b 	ldhu	r5,-6(fp)
    23c4:	01000074 	movhi	r4,1
    23c8:	211ee704 	addi	r4,r4,31644
    23cc:	00055540 	call	5554 <printf>
       }
       usb_ctl_val = UsbRead(HPI_SIE1_MSG_ADR);
    23d0:	01005104 	movi	r4,324
    23d4:	00048700 	call	4870 <UsbRead>
    23d8:	e0bffe8d 	sth	r2,-6(fp)
       UsbWrite(HPI_SIE1_MSG_ADR, 0);
    23dc:	01005104 	movi	r4,324
    23e0:	000b883a 	mov	r5,zero
    23e4:	000482c0 	call	482c <UsbWrite>
    usleep(10*1000);
    }
    
    usb_ctl_val = UsbRead(HPI_SIE1_MSG_ADR);
    UsbWrite(HPI_SIE1_MSG_ADR, 0);
    while (usb_ctl_val != 0x1000)  //read sie1 msg register
    23e8:	e0bffe8b 	ldhu	r2,-6(fp)
    23ec:	10840018 	cmpnei	r2,r2,4096
    23f0:	103ff01e 	bne	r2,zero,23b4 <main+0x150c>
       usb_ctl_val = UsbRead(HPI_SIE1_MSG_ADR);
       UsbWrite(HPI_SIE1_MSG_ADR, 0);
      
    }

    IOWR(CY7C67200_BASE,HPI_ADDR,0x0506);
    23f4:	00c24834 	movhi	r3,2336
    23f8:	18c01e04 	addi	r3,r3,120
    23fc:	00814184 	movi	r2,1286
    2400:	18800035 	stwio	r2,0(r3)
    printf("[ENUM PROCESS]:step 5 TD Status Byte is %x\n",IORD(CY7C67200_BASE,HPI_DATA));
    2404:	00824834 	movhi	r2,2336
    2408:	10801c04 	addi	r2,r2,112
    240c:	11400037 	ldwio	r5,0(r2)
    2410:	01000074 	movhi	r4,1
    2414:	211f5204 	addi	r4,r4,32072
    2418:	00055540 	call	5554 <printf>
    
    IOWR(CY7C67200_BASE,HPI_ADDR,0x0508);
    241c:	00c24834 	movhi	r3,2336
    2420:	18c01e04 	addi	r3,r3,120
    2424:	00814204 	movi	r2,1288
    2428:	18800035 	stwio	r2,0(r3)
    usb_ctl_val = IORD(CY7C67200_BASE,HPI_DATA);
    242c:	00824834 	movhi	r2,2336
    2430:	10801c04 	addi	r2,r2,112
    2434:	10800037 	ldwio	r2,0(r2)
    2438:	e0bffe8d 	sth	r2,-6(fp)
    printf("[ENUM PROCESS]:step 5 TD Control Byte is %x\n",usb_ctl_val);
    243c:	e17ffe8b 	ldhu	r5,-6(fp)
    2440:	01000074 	movhi	r4,1
    2444:	211f5d04 	addi	r4,r4,32116
    2448:	00055540 	call	5554 <printf>
    while (usb_ctl_val != 0x03) 
    244c:	00001906 	br	24b4 <main+0x160c>
    {
       IORD(CY7C67200_BASE,HPI_STATUS);
    2450:	00824834 	movhi	r2,2336
    2454:	10801f04 	addi	r2,r2,124
    2458:	10800037 	ldwio	r2,0(r2)
       if(UsbRead(HPI_SIE1_MSG_ADR) == 0x1000)
    245c:	01005104 	movi	r4,324
    2460:	00048700 	call	4870 <UsbRead>
    2464:	10bfffcc 	andi	r2,r2,65535
    2468:	10840018 	cmpnei	r2,r2,4096
    246c:	1000091e 	bne	r2,zero,2494 <main+0x15ec>
       {
           UsbWrite(HPI_SIE1_MSG_ADR, 0);
    2470:	01005104 	movi	r4,324
    2474:	000b883a 	mov	r5,zero
    2478:	000482c0 	call	482c <UsbWrite>
                   
           while (!(IORD(CY7C67200_BASE,HPI_STATUS) & HPI_STATUS_SIE1msg_FLAG) )  //read sie1 msg register
    247c:	00824834 	movhi	r2,2336
    2480:	10801f04 	addi	r2,r2,124
    2484:	10800037 	ldwio	r2,0(r2)
    2488:	1080040c 	andi	r2,r2,16
    248c:	1005003a 	cmpeq	r2,r2,zero
    2490:	103ffa1e 	bne	r2,zero,247c <main+0x15d4>
           {
            
           }
        }
           //usleep(1000);
           IOWR(CY7C67200_BASE,HPI_ADDR,0x0508);
    2494:	00c24834 	movhi	r3,2336
    2498:	18c01e04 	addi	r3,r3,120
    249c:	00814204 	movi	r2,1288
    24a0:	18800035 	stwio	r2,0(r3)
           usb_ctl_val = IORD(CY7C67200_BASE,HPI_DATA); 
    24a4:	00824834 	movhi	r2,2336
    24a8:	10801c04 	addi	r2,r2,112
    24ac:	10800037 	ldwio	r2,0(r2)
    24b0:	e0bffe8d 	sth	r2,-6(fp)
    printf("[ENUM PROCESS]:step 5 TD Status Byte is %x\n",IORD(CY7C67200_BASE,HPI_DATA));
    
    IOWR(CY7C67200_BASE,HPI_ADDR,0x0508);
    usb_ctl_val = IORD(CY7C67200_BASE,HPI_DATA);
    printf("[ENUM PROCESS]:step 5 TD Control Byte is %x\n",usb_ctl_val);
    while (usb_ctl_val != 0x03) 
    24b4:	e0bffe8b 	ldhu	r2,-6(fp)
    24b8:	108000d8 	cmpnei	r2,r2,3
    24bc:	103fe41e 	bne	r2,zero,2450 <main+0x15a8>
        }
           //usleep(1000);
           IOWR(CY7C67200_BASE,HPI_ADDR,0x0508);
           usb_ctl_val = IORD(CY7C67200_BASE,HPI_DATA); 
    }    
    printf("------------[ENUM PROCESS]:get configuration descriptor-1 pass------------\n");
    24c0:	01000074 	movhi	r4,1
    24c4:	211f6904 	addi	r4,r4,32164
    24c8:	000566c0 	call	566c <puts>
    
    //-----------------------------------get configuration descriptor-2------------------------------------//
    //get device descriptor
    //the starting address
    IOWR(CY7C67200_BASE,HPI_ADDR,0x0500); //the start address       
    24cc:	00c24834 	movhi	r3,2336
    24d0:	18c01e04 	addi	r3,r3,120
    24d4:	00814004 	movi	r2,1280
    24d8:	18800035 	stwio	r2,0(r3)
    IOWR(CY7C67200_BASE,HPI_DATA,0x050C); 
    24dc:	00c24834 	movhi	r3,2336
    24e0:	18c01c04 	addi	r3,r3,112
    24e4:	00814304 	movi	r2,1292
    24e8:	18800035 	stwio	r2,0(r3)
    IOWR(CY7C67200_BASE,HPI_DATA,0x0008); //4 port number
    24ec:	00c24834 	movhi	r3,2336
    24f0:	18c01c04 	addi	r3,r3,112
    24f4:	00800204 	movi	r2,8
    24f8:	18800035 	stwio	r2,0(r3)
    IOWR(CY7C67200_BASE,HPI_DATA,0x02D0); //device address
    24fc:	00c24834 	movhi	r3,2336
    2500:	18c01c04 	addi	r3,r3,112
    2504:	0080b404 	movi	r2,720
    2508:	18800035 	stwio	r2,0(r3)
    IOWR(CY7C67200_BASE,HPI_DATA,0x0001);
    250c:	00c24834 	movhi	r3,2336
    2510:	18c01c04 	addi	r3,r3,112
    2514:	00800044 	movi	r2,1
    2518:	18800035 	stwio	r2,0(r3)
    IOWR(CY7C67200_BASE,HPI_DATA,0x0013);
    251c:	00c24834 	movhi	r3,2336
    2520:	18c01c04 	addi	r3,r3,112
    2524:	008004c4 	movi	r2,19
    2528:	18800035 	stwio	r2,0(r3)
    IOWR(CY7C67200_BASE,HPI_DATA,0x0514);
    252c:	00c24834 	movhi	r3,2336
    2530:	18c01c04 	addi	r3,r3,112
    2534:	00814504 	movi	r2,1300
    2538:	18800035 	stwio	r2,0(r3)
    
    //td content 4 bytes
    IOWR(CY7C67200_BASE,HPI_DATA,0x0680);//c
    253c:	00c24834 	movhi	r3,2336
    2540:	18c01c04 	addi	r3,r3,112
    2544:	0081a004 	movi	r2,1664
    2548:	18800035 	stwio	r2,0(r3)
    IOWR(CY7C67200_BASE,HPI_DATA,0x0200);//e //config 
    254c:	00c24834 	movhi	r3,2336
    2550:	18c01c04 	addi	r3,r3,112
    2554:	00808004 	movi	r2,512
    2558:	18800035 	stwio	r2,0(r3)
    IOWR(CY7C67200_BASE,HPI_DATA,0x0000);//0
    255c:	00824834 	movhi	r2,2336
    2560:	10801c04 	addi	r2,r2,112
    2564:	10000035 	stwio	zero,0(r2)
    IOWR(CY7C67200_BASE,HPI_DATA,0x00FF);//2
    2568:	00c24834 	movhi	r3,2336
    256c:	18c01c04 	addi	r3,r3,112
    2570:	00803fc4 	movi	r2,255
    2574:	18800035 	stwio	r2,0(r3)
    
    //data phase IN-1
    IOWR(CY7C67200_BASE,HPI_DATA,0x055c); //514
    2578:	00c24834 	movhi	r3,2336
    257c:	18c01c04 	addi	r3,r3,112
    2580:	00815704 	movi	r2,1372
    2584:	18800035 	stwio	r2,0(r3)
    IOWR(CY7C67200_BASE,HPI_DATA,0x0008);//6
    2588:	00c24834 	movhi	r3,2336
    258c:	18c01c04 	addi	r3,r3,112
    2590:	00800204 	movi	r2,8
    2594:	18800035 	stwio	r2,0(r3)
    IOWR(CY7C67200_BASE,HPI_DATA,0x0290);//8
    2598:	00c24834 	movhi	r3,2336
    259c:	18c01c04 	addi	r3,r3,112
    25a0:	0080a404 	movi	r2,656
    25a4:	18800035 	stwio	r2,0(r3)
    IOWR(CY7C67200_BASE,HPI_DATA,0x0041);//a
    25a8:	00c24834 	movhi	r3,2336
    25ac:	18c01c04 	addi	r3,r3,112
    25b0:	00801044 	movi	r2,65
    25b4:	18800035 	stwio	r2,0(r3)
    IOWR(CY7C67200_BASE,HPI_DATA,0x0013);//c
    25b8:	00c24834 	movhi	r3,2336
    25bc:	18c01c04 	addi	r3,r3,112
    25c0:	008004c4 	movi	r2,19
    25c4:	18800035 	stwio	r2,0(r3)
    IOWR(CY7C67200_BASE,HPI_DATA,0x0520);//e
    25c8:	00c24834 	movhi	r3,2336
    25cc:	18c01c04 	addi	r3,r3,112
    25d0:	00814804 	movi	r2,1312
    25d4:	18800035 	stwio	r2,0(r3)
    
    //data phase IN-2
    IOWR(CY7C67200_BASE,HPI_DATA,0x0564); //520
    25d8:	00c24834 	movhi	r3,2336
    25dc:	18c01c04 	addi	r3,r3,112
    25e0:	00815904 	movi	r2,1380
    25e4:	18800035 	stwio	r2,0(r3)
    IOWR(CY7C67200_BASE,HPI_DATA,0x0008);//2
    25e8:	00c24834 	movhi	r3,2336
    25ec:	18c01c04 	addi	r3,r3,112
    25f0:	00800204 	movi	r2,8
    25f4:	18800035 	stwio	r2,0(r3)
    IOWR(CY7C67200_BASE,HPI_DATA,0x0290);//4
    25f8:	00c24834 	movhi	r3,2336
    25fc:	18c01c04 	addi	r3,r3,112
    2600:	0080a404 	movi	r2,656
    2604:	18800035 	stwio	r2,0(r3)
    IOWR(CY7C67200_BASE,HPI_DATA,0x0001);//6 //data0
    2608:	00c24834 	movhi	r3,2336
    260c:	18c01c04 	addi	r3,r3,112
    2610:	00800044 	movi	r2,1
    2614:	18800035 	stwio	r2,0(r3)
    IOWR(CY7C67200_BASE,HPI_DATA,0x0013);//8
    2618:	00c24834 	movhi	r3,2336
    261c:	18c01c04 	addi	r3,r3,112
    2620:	008004c4 	movi	r2,19
    2624:	18800035 	stwio	r2,0(r3)
    IOWR(CY7C67200_BASE,HPI_DATA,0x052c);//a
    2628:	00c24834 	movhi	r3,2336
    262c:	18c01c04 	addi	r3,r3,112
    2630:	00814b04 	movi	r2,1324
    2634:	18800035 	stwio	r2,0(r3)
    
    //data phase IN-3
    IOWR(CY7C67200_BASE,HPI_DATA,0x056c); //52c
    2638:	00c24834 	movhi	r3,2336
    263c:	18c01c04 	addi	r3,r3,112
    2640:	00815b04 	movi	r2,1388
    2644:	18800035 	stwio	r2,0(r3)
    IOWR(CY7C67200_BASE,HPI_DATA,0x0008);//e
    2648:	00c24834 	movhi	r3,2336
    264c:	18c01c04 	addi	r3,r3,112
    2650:	00800204 	movi	r2,8
    2654:	18800035 	stwio	r2,0(r3)
    IOWR(CY7C67200_BASE,HPI_DATA,0x0290);//530
    2658:	00c24834 	movhi	r3,2336
    265c:	18c01c04 	addi	r3,r3,112
    2660:	0080a404 	movi	r2,656
    2664:	18800035 	stwio	r2,0(r3)
    IOWR(CY7C67200_BASE,HPI_DATA,0x0041);//2
    2668:	00c24834 	movhi	r3,2336
    266c:	18c01c04 	addi	r3,r3,112
    2670:	00801044 	movi	r2,65
    2674:	18800035 	stwio	r2,0(r3)
    IOWR(CY7C67200_BASE,HPI_DATA,0x0013);//4
    2678:	00c24834 	movhi	r3,2336
    267c:	18c01c04 	addi	r3,r3,112
    2680:	008004c4 	movi	r2,19
    2684:	18800035 	stwio	r2,0(r3)
    IOWR(CY7C67200_BASE,HPI_DATA,0x0538);//6
    2688:	00c24834 	movhi	r3,2336
    268c:	18c01c04 	addi	r3,r3,112
    2690:	00814e04 	movi	r2,1336
    2694:	18800035 	stwio	r2,0(r3)
    
    //data phase IN-4
    IOWR(CY7C67200_BASE,HPI_DATA,0x0574); //538
    2698:	00c24834 	movhi	r3,2336
    269c:	18c01c04 	addi	r3,r3,112
    26a0:	00815d04 	movi	r2,1396
    26a4:	18800035 	stwio	r2,0(r3)
    IOWR(CY7C67200_BASE,HPI_DATA,0x0008);//a
    26a8:	00c24834 	movhi	r3,2336
    26ac:	18c01c04 	addi	r3,r3,112
    26b0:	00800204 	movi	r2,8
    26b4:	18800035 	stwio	r2,0(r3)
    IOWR(CY7C67200_BASE,HPI_DATA,0x0290);//c
    26b8:	00c24834 	movhi	r3,2336
    26bc:	18c01c04 	addi	r3,r3,112
    26c0:	0080a404 	movi	r2,656
    26c4:	18800035 	stwio	r2,0(r3)
    IOWR(CY7C67200_BASE,HPI_DATA,0x0001);//e //data0
    26c8:	00c24834 	movhi	r3,2336
    26cc:	18c01c04 	addi	r3,r3,112
    26d0:	00800044 	movi	r2,1
    26d4:	18800035 	stwio	r2,0(r3)
    IOWR(CY7C67200_BASE,HPI_DATA,0x0013);//540
    26d8:	00c24834 	movhi	r3,2336
    26dc:	18c01c04 	addi	r3,r3,112
    26e0:	008004c4 	movi	r2,19
    26e4:	18800035 	stwio	r2,0(r3)
    IOWR(CY7C67200_BASE,HPI_DATA,0x0544);//2
    26e8:	00c24834 	movhi	r3,2336
    26ec:	18c01c04 	addi	r3,r3,112
    26f0:	00815104 	movi	r2,1348
    26f4:	18800035 	stwio	r2,0(r3)
    
    //data phase IN-5
    IOWR(CY7C67200_BASE,HPI_DATA,0x057c); //544
    26f8:	00c24834 	movhi	r3,2336
    26fc:	18c01c04 	addi	r3,r3,112
    2700:	00815f04 	movi	r2,1404
    2704:	18800035 	stwio	r2,0(r3)
    IOWR(CY7C67200_BASE,HPI_DATA,0x0002);//6
    2708:	00c24834 	movhi	r3,2336
    270c:	18c01c04 	addi	r3,r3,112
    2710:	00800084 	movi	r2,2
    2714:	18800035 	stwio	r2,0(r3)
    IOWR(CY7C67200_BASE,HPI_DATA,0x0290);//8
    2718:	00c24834 	movhi	r3,2336
    271c:	18c01c04 	addi	r3,r3,112
    2720:	0080a404 	movi	r2,656
    2724:	18800035 	stwio	r2,0(r3)
    IOWR(CY7C67200_BASE,HPI_DATA,0x0041);//a //data1
    2728:	00c24834 	movhi	r3,2336
    272c:	18c01c04 	addi	r3,r3,112
    2730:	00801044 	movi	r2,65
    2734:	18800035 	stwio	r2,0(r3)
    IOWR(CY7C67200_BASE,HPI_DATA,0x0013);//c
    2738:	00c24834 	movhi	r3,2336
    273c:	18c01c04 	addi	r3,r3,112
    2740:	008004c4 	movi	r2,19
    2744:	18800035 	stwio	r2,0(r3)
    IOWR(CY7C67200_BASE,HPI_DATA,0x0550);//e
    2748:	00c24834 	movhi	r3,2336
    274c:	18c01c04 	addi	r3,r3,112
    2750:	00815404 	movi	r2,1360
    2754:	18800035 	stwio	r2,0(r3)
    
    //status phase
    IOWR(CY7C67200_BASE,HPI_DATA,0x0000); //550
    2758:	00824834 	movhi	r2,2336
    275c:	10801c04 	addi	r2,r2,112
    2760:	10000035 	stwio	zero,0(r2)
    IOWR(CY7C67200_BASE,HPI_DATA,0x0000);//2
    2764:	00824834 	movhi	r2,2336
    2768:	10801c04 	addi	r2,r2,112
    276c:	10000035 	stwio	zero,0(r2)
    IOWR(CY7C67200_BASE,HPI_DATA,0x0210);//4
    2770:	00c24834 	movhi	r3,2336
    2774:	18c01c04 	addi	r3,r3,112
    2778:	00808404 	movi	r2,528
    277c:	18800035 	stwio	r2,0(r3)
    IOWR(CY7C67200_BASE,HPI_DATA,0x0041);//6
    2780:	00c24834 	movhi	r3,2336
    2784:	18c01c04 	addi	r3,r3,112
    2788:	00801044 	movi	r2,65
    278c:	18800035 	stwio	r2,0(r3)
    IOWR(CY7C67200_BASE,HPI_DATA,0x0013);//8
    2790:	00c24834 	movhi	r3,2336
    2794:	18c01c04 	addi	r3,r3,112
    2798:	008004c4 	movi	r2,19
    279c:	18800035 	stwio	r2,0(r3)
    IOWR(CY7C67200_BASE,HPI_DATA,0x0000);//a
    27a0:	00824834 	movhi	r2,2336
    27a4:	10801c04 	addi	r2,r2,112
    27a8:	10000035 	stwio	zero,0(r2)
     
    UsbWrite(HUSB_SIE1_pCurrentTDPtr,0x0500); //HUSB_SIE1_pCurrentTDPtr
    27ac:	01006c04 	movi	r4,432
    27b0:	01414004 	movi	r5,1280
    27b4:	000482c0 	call	482c <UsbWrite>
    
   usleep(100*1000);
    27b8:	010000b4 	movhi	r4,2
    27bc:	2121a804 	addi	r4,r4,-31072
    27c0:	00148100 	call	14810 <usleep>
   //if no message
    while (!(IORD(CY7C67200_BASE,HPI_STATUS) & HPI_STATUS_SIE1msg_FLAG) )  //read sie1 msg register
    27c4:	0000bd06 	br	2abc <main+0x1c14>
    {
    //the starting address
    IOWR(CY7C67200_BASE,HPI_ADDR,0x0500); //the start address       
    27c8:	00c24834 	movhi	r3,2336
    27cc:	18c01e04 	addi	r3,r3,120
    27d0:	00814004 	movi	r2,1280
    27d4:	18800035 	stwio	r2,0(r3)
    IOWR(CY7C67200_BASE,HPI_DATA,0x050C); 
    27d8:	00c24834 	movhi	r3,2336
    27dc:	18c01c04 	addi	r3,r3,112
    27e0:	00814304 	movi	r2,1292
    27e4:	18800035 	stwio	r2,0(r3)
    IOWR(CY7C67200_BASE,HPI_DATA,0x0008); //4 port number
    27e8:	00c24834 	movhi	r3,2336
    27ec:	18c01c04 	addi	r3,r3,112
    27f0:	00800204 	movi	r2,8
    27f4:	18800035 	stwio	r2,0(r3)
    IOWR(CY7C67200_BASE,HPI_DATA,0x02D0); //device address
    27f8:	00c24834 	movhi	r3,2336
    27fc:	18c01c04 	addi	r3,r3,112
    2800:	0080b404 	movi	r2,720
    2804:	18800035 	stwio	r2,0(r3)
    IOWR(CY7C67200_BASE,HPI_DATA,0x0001);
    2808:	00c24834 	movhi	r3,2336
    280c:	18c01c04 	addi	r3,r3,112
    2810:	00800044 	movi	r2,1
    2814:	18800035 	stwio	r2,0(r3)
    IOWR(CY7C67200_BASE,HPI_DATA,0x0013);
    2818:	00c24834 	movhi	r3,2336
    281c:	18c01c04 	addi	r3,r3,112
    2820:	008004c4 	movi	r2,19
    2824:	18800035 	stwio	r2,0(r3)
    IOWR(CY7C67200_BASE,HPI_DATA,0x0514);
    2828:	00c24834 	movhi	r3,2336
    282c:	18c01c04 	addi	r3,r3,112
    2830:	00814504 	movi	r2,1300
    2834:	18800035 	stwio	r2,0(r3)
    
    //td content 4 bytes
    IOWR(CY7C67200_BASE,HPI_DATA,0x0680);//c
    2838:	00c24834 	movhi	r3,2336
    283c:	18c01c04 	addi	r3,r3,112
    2840:	0081a004 	movi	r2,1664
    2844:	18800035 	stwio	r2,0(r3)
    IOWR(CY7C67200_BASE,HPI_DATA,0x0200);//e //config 
    2848:	00c24834 	movhi	r3,2336
    284c:	18c01c04 	addi	r3,r3,112
    2850:	00808004 	movi	r2,512
    2854:	18800035 	stwio	r2,0(r3)
    IOWR(CY7C67200_BASE,HPI_DATA,0x0000);//0
    2858:	00824834 	movhi	r2,2336
    285c:	10801c04 	addi	r2,r2,112
    2860:	10000035 	stwio	zero,0(r2)
    IOWR(CY7C67200_BASE,HPI_DATA,0x00FF);//2
    2864:	00c24834 	movhi	r3,2336
    2868:	18c01c04 	addi	r3,r3,112
    286c:	00803fc4 	movi	r2,255
    2870:	18800035 	stwio	r2,0(r3)
    
    //data phase IN-1
    IOWR(CY7C67200_BASE,HPI_DATA,0x055c); //514
    2874:	00c24834 	movhi	r3,2336
    2878:	18c01c04 	addi	r3,r3,112
    287c:	00815704 	movi	r2,1372
    2880:	18800035 	stwio	r2,0(r3)
    IOWR(CY7C67200_BASE,HPI_DATA,0x0008);//6
    2884:	00c24834 	movhi	r3,2336
    2888:	18c01c04 	addi	r3,r3,112
    288c:	00800204 	movi	r2,8
    2890:	18800035 	stwio	r2,0(r3)
    IOWR(CY7C67200_BASE,HPI_DATA,0x0290);//8
    2894:	00c24834 	movhi	r3,2336
    2898:	18c01c04 	addi	r3,r3,112
    289c:	0080a404 	movi	r2,656
    28a0:	18800035 	stwio	r2,0(r3)
    IOWR(CY7C67200_BASE,HPI_DATA,0x0041);//a
    28a4:	00c24834 	movhi	r3,2336
    28a8:	18c01c04 	addi	r3,r3,112
    28ac:	00801044 	movi	r2,65
    28b0:	18800035 	stwio	r2,0(r3)
    IOWR(CY7C67200_BASE,HPI_DATA,0x0013);//c
    28b4:	00c24834 	movhi	r3,2336
    28b8:	18c01c04 	addi	r3,r3,112
    28bc:	008004c4 	movi	r2,19
    28c0:	18800035 	stwio	r2,0(r3)
    IOWR(CY7C67200_BASE,HPI_DATA,0x0520);//e
    28c4:	00c24834 	movhi	r3,2336
    28c8:	18c01c04 	addi	r3,r3,112
    28cc:	00814804 	movi	r2,1312
    28d0:	18800035 	stwio	r2,0(r3)
    
    //data phase IN-2
    IOWR(CY7C67200_BASE,HPI_DATA,0x0564); //520
    28d4:	00c24834 	movhi	r3,2336
    28d8:	18c01c04 	addi	r3,r3,112
    28dc:	00815904 	movi	r2,1380
    28e0:	18800035 	stwio	r2,0(r3)
    IOWR(CY7C67200_BASE,HPI_DATA,0x0008);//2
    28e4:	00c24834 	movhi	r3,2336
    28e8:	18c01c04 	addi	r3,r3,112
    28ec:	00800204 	movi	r2,8
    28f0:	18800035 	stwio	r2,0(r3)
    IOWR(CY7C67200_BASE,HPI_DATA,0x0290);//4
    28f4:	00c24834 	movhi	r3,2336
    28f8:	18c01c04 	addi	r3,r3,112
    28fc:	0080a404 	movi	r2,656
    2900:	18800035 	stwio	r2,0(r3)
    IOWR(CY7C67200_BASE,HPI_DATA,0x0001);//6 //data0
    2904:	00c24834 	movhi	r3,2336
    2908:	18c01c04 	addi	r3,r3,112
    290c:	00800044 	movi	r2,1
    2910:	18800035 	stwio	r2,0(r3)
    IOWR(CY7C67200_BASE,HPI_DATA,0x0013);//8
    2914:	00c24834 	movhi	r3,2336
    2918:	18c01c04 	addi	r3,r3,112
    291c:	008004c4 	movi	r2,19
    2920:	18800035 	stwio	r2,0(r3)
    IOWR(CY7C67200_BASE,HPI_DATA,0x052c);//a
    2924:	00c24834 	movhi	r3,2336
    2928:	18c01c04 	addi	r3,r3,112
    292c:	00814b04 	movi	r2,1324
    2930:	18800035 	stwio	r2,0(r3)
    
    //data phase IN-3
    IOWR(CY7C67200_BASE,HPI_DATA,0x056c); //52c
    2934:	00c24834 	movhi	r3,2336
    2938:	18c01c04 	addi	r3,r3,112
    293c:	00815b04 	movi	r2,1388
    2940:	18800035 	stwio	r2,0(r3)
    IOWR(CY7C67200_BASE,HPI_DATA,0x0008);//e
    2944:	00c24834 	movhi	r3,2336
    2948:	18c01c04 	addi	r3,r3,112
    294c:	00800204 	movi	r2,8
    2950:	18800035 	stwio	r2,0(r3)
    IOWR(CY7C67200_BASE,HPI_DATA,0x0290);//530
    2954:	00c24834 	movhi	r3,2336
    2958:	18c01c04 	addi	r3,r3,112
    295c:	0080a404 	movi	r2,656
    2960:	18800035 	stwio	r2,0(r3)
    IOWR(CY7C67200_BASE,HPI_DATA,0x0041);//2
    2964:	00c24834 	movhi	r3,2336
    2968:	18c01c04 	addi	r3,r3,112
    296c:	00801044 	movi	r2,65
    2970:	18800035 	stwio	r2,0(r3)
    IOWR(CY7C67200_BASE,HPI_DATA,0x0013);//4
    2974:	00c24834 	movhi	r3,2336
    2978:	18c01c04 	addi	r3,r3,112
    297c:	008004c4 	movi	r2,19
    2980:	18800035 	stwio	r2,0(r3)
    IOWR(CY7C67200_BASE,HPI_DATA,0x0538);//6
    2984:	00c24834 	movhi	r3,2336
    2988:	18c01c04 	addi	r3,r3,112
    298c:	00814e04 	movi	r2,1336
    2990:	18800035 	stwio	r2,0(r3)
    
    //data phase IN-4
    IOWR(CY7C67200_BASE,HPI_DATA,0x0574); //538
    2994:	00c24834 	movhi	r3,2336
    2998:	18c01c04 	addi	r3,r3,112
    299c:	00815d04 	movi	r2,1396
    29a0:	18800035 	stwio	r2,0(r3)
    IOWR(CY7C67200_BASE,HPI_DATA,0x0008);//a
    29a4:	00c24834 	movhi	r3,2336
    29a8:	18c01c04 	addi	r3,r3,112
    29ac:	00800204 	movi	r2,8
    29b0:	18800035 	stwio	r2,0(r3)
    IOWR(CY7C67200_BASE,HPI_DATA,0x0290);//c
    29b4:	00c24834 	movhi	r3,2336
    29b8:	18c01c04 	addi	r3,r3,112
    29bc:	0080a404 	movi	r2,656
    29c0:	18800035 	stwio	r2,0(r3)
    IOWR(CY7C67200_BASE,HPI_DATA,0x0001);//e //data0
    29c4:	00c24834 	movhi	r3,2336
    29c8:	18c01c04 	addi	r3,r3,112
    29cc:	00800044 	movi	r2,1
    29d0:	18800035 	stwio	r2,0(r3)
    IOWR(CY7C67200_BASE,HPI_DATA,0x0013);//540
    29d4:	00c24834 	movhi	r3,2336
    29d8:	18c01c04 	addi	r3,r3,112
    29dc:	008004c4 	movi	r2,19
    29e0:	18800035 	stwio	r2,0(r3)
    IOWR(CY7C67200_BASE,HPI_DATA,0x0544);//2
    29e4:	00c24834 	movhi	r3,2336
    29e8:	18c01c04 	addi	r3,r3,112
    29ec:	00815104 	movi	r2,1348
    29f0:	18800035 	stwio	r2,0(r3)
    
    //data phase IN-5
    IOWR(CY7C67200_BASE,HPI_DATA,0x057c); //544
    29f4:	00c24834 	movhi	r3,2336
    29f8:	18c01c04 	addi	r3,r3,112
    29fc:	00815f04 	movi	r2,1404
    2a00:	18800035 	stwio	r2,0(r3)
    IOWR(CY7C67200_BASE,HPI_DATA,0x0002);//6
    2a04:	00c24834 	movhi	r3,2336
    2a08:	18c01c04 	addi	r3,r3,112
    2a0c:	00800084 	movi	r2,2
    2a10:	18800035 	stwio	r2,0(r3)
    IOWR(CY7C67200_BASE,HPI_DATA,0x0290);//8
    2a14:	00c24834 	movhi	r3,2336
    2a18:	18c01c04 	addi	r3,r3,112
    2a1c:	0080a404 	movi	r2,656
    2a20:	18800035 	stwio	r2,0(r3)
    IOWR(CY7C67200_BASE,HPI_DATA,0x0041);//a //data1
    2a24:	00c24834 	movhi	r3,2336
    2a28:	18c01c04 	addi	r3,r3,112
    2a2c:	00801044 	movi	r2,65
    2a30:	18800035 	stwio	r2,0(r3)
    IOWR(CY7C67200_BASE,HPI_DATA,0x0013);//c
    2a34:	00c24834 	movhi	r3,2336
    2a38:	18c01c04 	addi	r3,r3,112
    2a3c:	008004c4 	movi	r2,19
    2a40:	18800035 	stwio	r2,0(r3)
    IOWR(CY7C67200_BASE,HPI_DATA,0x0550);//e
    2a44:	00c24834 	movhi	r3,2336
    2a48:	18c01c04 	addi	r3,r3,112
    2a4c:	00815404 	movi	r2,1360
    2a50:	18800035 	stwio	r2,0(r3)
    
    //status phase
    IOWR(CY7C67200_BASE,HPI_DATA,0x0000); //550
    2a54:	00824834 	movhi	r2,2336
    2a58:	10801c04 	addi	r2,r2,112
    2a5c:	10000035 	stwio	zero,0(r2)
    IOWR(CY7C67200_BASE,HPI_DATA,0x0000);//2
    2a60:	00824834 	movhi	r2,2336
    2a64:	10801c04 	addi	r2,r2,112
    2a68:	10000035 	stwio	zero,0(r2)
    IOWR(CY7C67200_BASE,HPI_DATA,0x0210);//4
    2a6c:	00c24834 	movhi	r3,2336
    2a70:	18c01c04 	addi	r3,r3,112
    2a74:	00808404 	movi	r2,528
    2a78:	18800035 	stwio	r2,0(r3)
    IOWR(CY7C67200_BASE,HPI_DATA,0x0041);//6
    2a7c:	00c24834 	movhi	r3,2336
    2a80:	18c01c04 	addi	r3,r3,112
    2a84:	00801044 	movi	r2,65
    2a88:	18800035 	stwio	r2,0(r3)
    IOWR(CY7C67200_BASE,HPI_DATA,0x0013);//8
    2a8c:	00c24834 	movhi	r3,2336
    2a90:	18c01c04 	addi	r3,r3,112
    2a94:	008004c4 	movi	r2,19
    2a98:	18800035 	stwio	r2,0(r3)
    IOWR(CY7C67200_BASE,HPI_DATA,0x0000);//a
    2a9c:	00824834 	movhi	r2,2336
    2aa0:	10801c04 	addi	r2,r2,112
    2aa4:	10000035 	stwio	zero,0(r2)
          
    UsbWrite(HUSB_SIE1_pCurrentTDPtr,0x0500); //HUSB_SIE1_pCurrentTDPtr
    2aa8:	01006c04 	movi	r4,432
    2aac:	01414004 	movi	r5,1280
    2ab0:	000482c0 	call	482c <UsbWrite>
    usleep(10*1000);
    2ab4:	0109c404 	movi	r4,10000
    2ab8:	00148100 	call	14810 <usleep>
     
    UsbWrite(HUSB_SIE1_pCurrentTDPtr,0x0500); //HUSB_SIE1_pCurrentTDPtr
    
   usleep(100*1000);
   //if no message
    while (!(IORD(CY7C67200_BASE,HPI_STATUS) & HPI_STATUS_SIE1msg_FLAG) )  //read sie1 msg register
    2abc:	00824834 	movhi	r2,2336
    2ac0:	10801f04 	addi	r2,r2,124
    2ac4:	10800037 	ldwio	r2,0(r2)
    2ac8:	1080040c 	andi	r2,r2,16
    2acc:	1005003a 	cmpeq	r2,r2,zero
    2ad0:	103f3d1e 	bne	r2,zero,27c8 <main+0x1920>
          
    UsbWrite(HUSB_SIE1_pCurrentTDPtr,0x0500); //HUSB_SIE1_pCurrentTDPtr
    usleep(10*1000);
    }
    //UsbRead(0x01B8);
    usb_ctl_val = UsbRead(HPI_SIE1_MSG_ADR);
    2ad4:	01005104 	movi	r4,324
    2ad8:	00048700 	call	4870 <UsbRead>
    2adc:	e0bffe8d 	sth	r2,-6(fp)
    UsbWrite(HPI_SIE1_MSG_ADR, 0);
    2ae0:	01005104 	movi	r4,324
    2ae4:	000b883a 	mov	r5,zero
    2ae8:	000482c0 	call	482c <UsbWrite>
    while (usb_ctl_val != 0x1000)  //read sie1 msg register
    2aec:	00000d06 	br	2b24 <main+0x1c7c>
    {
       if(usb_ctl_val == 0x000)
    2af0:	e0bffe8b 	ldhu	r2,-6(fp)
    2af4:	1005003a 	cmpeq	r2,r2,zero
    2af8:	1000041e 	bne	r2,zero,2b0c <main+0x1c64>
       {
       }
       else
       {
        printf("[SIE MSG]:SIE1 msg reg is %x\n",usb_ctl_val);
    2afc:	e17ffe8b 	ldhu	r5,-6(fp)
    2b00:	01000074 	movhi	r4,1
    2b04:	211f7c04 	addi	r4,r4,32240
    2b08:	00055540 	call	5554 <printf>
       }
       usb_ctl_val = UsbRead(HPI_SIE1_MSG_ADR);
    2b0c:	01005104 	movi	r4,324
    2b10:	00048700 	call	4870 <UsbRead>
    2b14:	e0bffe8d 	sth	r2,-6(fp)
       UsbWrite(HPI_SIE1_MSG_ADR, 0);
    2b18:	01005104 	movi	r4,324
    2b1c:	000b883a 	mov	r5,zero
    2b20:	000482c0 	call	482c <UsbWrite>
    usleep(10*1000);
    }
    //UsbRead(0x01B8);
    usb_ctl_val = UsbRead(HPI_SIE1_MSG_ADR);
    UsbWrite(HPI_SIE1_MSG_ADR, 0);
    while (usb_ctl_val != 0x1000)  //read sie1 msg register
    2b24:	e0bffe8b 	ldhu	r2,-6(fp)
    2b28:	10840018 	cmpnei	r2,r2,4096
    2b2c:	103ff01e 	bne	r2,zero,2af0 <main+0x1c48>
       usb_ctl_val = UsbRead(HPI_SIE1_MSG_ADR);
       UsbWrite(HPI_SIE1_MSG_ADR, 0);
      
    }

    IOWR(CY7C67200_BASE,HPI_ADDR,0x0506);
    2b30:	00c24834 	movhi	r3,2336
    2b34:	18c01e04 	addi	r3,r3,120
    2b38:	00814184 	movi	r2,1286
    2b3c:	18800035 	stwio	r2,0(r3)
    printf("[ENUM PROCESS]:step 6 TD Status Byte is %x\n",IORD(CY7C67200_BASE,HPI_DATA));
    2b40:	00824834 	movhi	r2,2336
    2b44:	10801c04 	addi	r2,r2,112
    2b48:	11400037 	ldwio	r5,0(r2)
    2b4c:	01000074 	movhi	r4,1
    2b50:	211f8404 	addi	r4,r4,32272
    2b54:	00055540 	call	5554 <printf>
    
    IOWR(CY7C67200_BASE,HPI_ADDR,0x0508);
    2b58:	00c24834 	movhi	r3,2336
    2b5c:	18c01e04 	addi	r3,r3,120
    2b60:	00814204 	movi	r2,1288
    2b64:	18800035 	stwio	r2,0(r3)
    usb_ctl_val = IORD(CY7C67200_BASE,HPI_DATA);
    2b68:	00824834 	movhi	r2,2336
    2b6c:	10801c04 	addi	r2,r2,112
    2b70:	10800037 	ldwio	r2,0(r2)
    2b74:	e0bffe8d 	sth	r2,-6(fp)
    printf("[ENUM PROCESS]:step 6 TD Control Byte is %x\n",usb_ctl_val);
    2b78:	e17ffe8b 	ldhu	r5,-6(fp)
    2b7c:	01000074 	movhi	r4,1
    2b80:	211f8f04 	addi	r4,r4,32316
    2b84:	00055540 	call	5554 <printf>
    while (usb_ctl_val != 0x03) 
    2b88:	00001906 	br	2bf0 <main+0x1d48>
    {
       IORD(CY7C67200_BASE,HPI_STATUS);
    2b8c:	00824834 	movhi	r2,2336
    2b90:	10801f04 	addi	r2,r2,124
    2b94:	10800037 	ldwio	r2,0(r2)
       if(UsbRead(HPI_SIE1_MSG_ADR) == 0x1000)
    2b98:	01005104 	movi	r4,324
    2b9c:	00048700 	call	4870 <UsbRead>
    2ba0:	10bfffcc 	andi	r2,r2,65535
    2ba4:	10840018 	cmpnei	r2,r2,4096
    2ba8:	1000091e 	bne	r2,zero,2bd0 <main+0x1d28>
       {
           UsbWrite(HPI_SIE1_MSG_ADR, 0);
    2bac:	01005104 	movi	r4,324
    2bb0:	000b883a 	mov	r5,zero
    2bb4:	000482c0 	call	482c <UsbWrite>
                   
           while (!(IORD(CY7C67200_BASE,HPI_STATUS) & HPI_STATUS_SIE1msg_FLAG) )  //read sie1 msg register
    2bb8:	00824834 	movhi	r2,2336
    2bbc:	10801f04 	addi	r2,r2,124
    2bc0:	10800037 	ldwio	r2,0(r2)
    2bc4:	1080040c 	andi	r2,r2,16
    2bc8:	1005003a 	cmpeq	r2,r2,zero
    2bcc:	103ffa1e 	bne	r2,zero,2bb8 <main+0x1d10>
           {
            
           }
        }
           //usleep(1000);
           IOWR(CY7C67200_BASE,HPI_ADDR,0x0508);
    2bd0:	00c24834 	movhi	r3,2336
    2bd4:	18c01e04 	addi	r3,r3,120
    2bd8:	00814204 	movi	r2,1288
    2bdc:	18800035 	stwio	r2,0(r3)
           usb_ctl_val = IORD(CY7C67200_BASE,HPI_DATA); 
    2be0:	00824834 	movhi	r2,2336
    2be4:	10801c04 	addi	r2,r2,112
    2be8:	10800037 	ldwio	r2,0(r2)
    2bec:	e0bffe8d 	sth	r2,-6(fp)
    printf("[ENUM PROCESS]:step 6 TD Status Byte is %x\n",IORD(CY7C67200_BASE,HPI_DATA));
    
    IOWR(CY7C67200_BASE,HPI_ADDR,0x0508);
    usb_ctl_val = IORD(CY7C67200_BASE,HPI_DATA);
    printf("[ENUM PROCESS]:step 6 TD Control Byte is %x\n",usb_ctl_val);
    while (usb_ctl_val != 0x03) 
    2bf0:	e0bffe8b 	ldhu	r2,-6(fp)
    2bf4:	108000d8 	cmpnei	r2,r2,3
    2bf8:	103fe41e 	bne	r2,zero,2b8c <main+0x1ce4>
           IOWR(CY7C67200_BASE,HPI_ADDR,0x0508);
           usb_ctl_val = IORD(CY7C67200_BASE,HPI_DATA); 
    }    
       
       
    printf("-----------[ENUM PROCESS]:get configuration descriptor-2 pass!------------\n");
    2bfc:	01000074 	movhi	r4,1
    2c00:	211f9b04 	addi	r4,r4,32364
    2c04:	000566c0 	call	566c <puts>
    

    IOWR(CY7C67200_BASE,HPI_ADDR,0x056c); //the start address
    2c08:	00c24834 	movhi	r3,2336
    2c0c:	18c01e04 	addi	r3,r3,120
    2c10:	00815b04 	movi	r2,1388
    2c14:	18800035 	stwio	r2,0(r3)

    if(  ( IORD(CY7C67200_BASE,HPI_DATA) & 0x0ff)  ==0x02)
    2c18:	00824834 	movhi	r2,2336
    2c1c:	10801c04 	addi	r2,r2,112
    2c20:	10800037 	ldwio	r2,0(r2)
    2c24:	10803fcc 	andi	r2,r2,255
    2c28:	10800098 	cmpnei	r2,r2,2
    2c2c:	1000041e 	bne	r2,zero,2c40 <main+0x1d98>
    {
         printf("\n[INFO]:check TD rec data7 \n[INFO]:Mouse Detected!!!\n\n");
    2c30:	01000074 	movhi	r4,1
    2c34:	211fae04 	addi	r4,r4,32440
    2c38:	000566c0 	call	566c <puts>
    2c3c:	00000306 	br	2c4c <main+0x1da4>
    }
    else
    {
        printf("\n[INFO]:Mouse Not Detected!!! \n\n");
    2c40:	01000074 	movhi	r4,1
    2c44:	211fbc04 	addi	r4,r4,32496
    2c48:	000566c0 	call	566c <puts>
    }
    
    IOWR(CY7C67200_BASE,HPI_ADDR,0x057a); //the start address   
    2c4c:	00c24834 	movhi	r3,2336
    2c50:	18c01e04 	addi	r3,r3,120
    2c54:	00815e84 	movi	r2,1402
    2c58:	18800035 	stwio	r2,0(r3)
      
    data_size = (IORD(CY7C67200_BASE,HPI_DATA)>>8)&0x0ff; 
    2c5c:	00824834 	movhi	r2,2336
    2c60:	10801c04 	addi	r2,r2,112
    2c64:	10800037 	ldwio	r2,0(r2)
    2c68:	1005d23a 	srai	r2,r2,8
    2c6c:	1007883a 	mov	r3,r2
    2c70:	00bfffc4 	movi	r2,-1
    2c74:	1884703a 	and	r2,r3,r2
    2c78:	e0bffa05 	stb	r2,-24(fp)
    printf("[ENUM PROCESS]:data packet size is %d\n",data_size);
    2c7c:	e17ffa03 	ldbu	r5,-24(fp)
    2c80:	01000074 	movhi	r4,1
    2c84:	211fc404 	addi	r4,r4,32528
    2c88:	00055540 	call	5554 <printf>
    
    //------------------------------------set configuration -----------------------------------------//
    //the starting address
    IOWR(CY7C67200_BASE,HPI_ADDR,0x0500); //the start address       
    2c8c:	00c24834 	movhi	r3,2336
    2c90:	18c01e04 	addi	r3,r3,120
    2c94:	00814004 	movi	r2,1280
    2c98:	18800035 	stwio	r2,0(r3)
    IOWR(CY7C67200_BASE,HPI_DATA,0x050C); 
    2c9c:	00c24834 	movhi	r3,2336
    2ca0:	18c01c04 	addi	r3,r3,112
    2ca4:	00814304 	movi	r2,1292
    2ca8:	18800035 	stwio	r2,0(r3)
    IOWR(CY7C67200_BASE,HPI_DATA,0x0008); //4 port number
    2cac:	00c24834 	movhi	r3,2336
    2cb0:	18c01c04 	addi	r3,r3,112
    2cb4:	00800204 	movi	r2,8
    2cb8:	18800035 	stwio	r2,0(r3)
    IOWR(CY7C67200_BASE,HPI_DATA,0x02D0); //port address
    2cbc:	00c24834 	movhi	r3,2336
    2cc0:	18c01c04 	addi	r3,r3,112
    2cc4:	0080b404 	movi	r2,720
    2cc8:	18800035 	stwio	r2,0(r3)
    IOWR(CY7C67200_BASE,HPI_DATA,0x0001);
    2ccc:	00c24834 	movhi	r3,2336
    2cd0:	18c01c04 	addi	r3,r3,112
    2cd4:	00800044 	movi	r2,1
    2cd8:	18800035 	stwio	r2,0(r3)
    IOWR(CY7C67200_BASE,HPI_DATA,0x0013);
    2cdc:	00c24834 	movhi	r3,2336
    2ce0:	18c01c04 	addi	r3,r3,112
    2ce4:	008004c4 	movi	r2,19
    2ce8:	18800035 	stwio	r2,0(r3)
    IOWR(CY7C67200_BASE,HPI_DATA,0x0514);
    2cec:	00c24834 	movhi	r3,2336
    2cf0:	18c01c04 	addi	r3,r3,112
    2cf4:	00814504 	movi	r2,1300
    2cf8:	18800035 	stwio	r2,0(r3)
    
    //td content 4 bytes
    IOWR(CY7C67200_BASE,HPI_DATA,0x0900);
    2cfc:	00c24834 	movhi	r3,2336
    2d00:	18c01c04 	addi	r3,r3,112
    2d04:	00824004 	movi	r2,2304
    2d08:	18800035 	stwio	r2,0(r3)
    IOWR(CY7C67200_BASE,HPI_DATA,0x0001);//device address   
    2d0c:	00c24834 	movhi	r3,2336
    2d10:	18c01c04 	addi	r3,r3,112
    2d14:	00800044 	movi	r2,1
    2d18:	18800035 	stwio	r2,0(r3)
    IOWR(CY7C67200_BASE,HPI_DATA,0x0000);
    2d1c:	00824834 	movhi	r2,2336
    2d20:	10801c04 	addi	r2,r2,112
    2d24:	10000035 	stwio	zero,0(r2)
    IOWR(CY7C67200_BASE,HPI_DATA,0x0000);
    2d28:	00824834 	movhi	r2,2336
    2d2c:	10801c04 	addi	r2,r2,112
    2d30:	10000035 	stwio	zero,0(r2)
    //in packet
    IOWR(CY7C67200_BASE,HPI_DATA,0x0000); //don't care
    2d34:	00824834 	movhi	r2,2336
    2d38:	10801c04 	addi	r2,r2,112
    2d3c:	10000035 	stwio	zero,0(r2)
    IOWR(CY7C67200_BASE,HPI_DATA,0x0000);//port number
    2d40:	00824834 	movhi	r2,2336
    2d44:	10801c04 	addi	r2,r2,112
    2d48:	10000035 	stwio	zero,0(r2)
    IOWR(CY7C67200_BASE,HPI_DATA,0x0290);//device address
    2d4c:	00c24834 	movhi	r3,2336
    2d50:	18c01c04 	addi	r3,r3,112
    2d54:	0080a404 	movi	r2,656
    2d58:	18800035 	stwio	r2,0(r3)
    IOWR(CY7C67200_BASE,HPI_DATA,0x0041); //data 1
    2d5c:	00c24834 	movhi	r3,2336
    2d60:	18c01c04 	addi	r3,r3,112
    2d64:	00801044 	movi	r2,65
    2d68:	18800035 	stwio	r2,0(r3)
    IOWR(CY7C67200_BASE,HPI_DATA,0x0013);
    2d6c:	00c24834 	movhi	r3,2336
    2d70:	18c01c04 	addi	r3,r3,112
    2d74:	008004c4 	movi	r2,19
    2d78:	18800035 	stwio	r2,0(r3)
    IOWR(CY7C67200_BASE,HPI_DATA,0x0000);
    2d7c:	00824834 	movhi	r2,2336
    2d80:	10801c04 	addi	r2,r2,112
    2d84:	10000035 	stwio	zero,0(r2)
     
    UsbWrite(HUSB_SIE1_pCurrentTDPtr,0x0500); //HUSB_SIE1_pCurrentTDPtr
    2d88:	01006c04 	movi	r4,432
    2d8c:	01414004 	movi	r5,1280
    2d90:	000482c0 	call	482c <UsbWrite>
    //usleep(10*1000);
   
    while (!(IORD(CY7C67200_BASE,HPI_STATUS) & HPI_STATUS_SIE1msg_FLAG) )  //read sie1 msg register
    2d94:	00004406 	br	2ea8 <main+0x2000>
    {
        IOWR(CY7C67200_BASE,HPI_ADDR,0x0500); //the start address       
    2d98:	00c24834 	movhi	r3,2336
    2d9c:	18c01e04 	addi	r3,r3,120
    2da0:	00814004 	movi	r2,1280
    2da4:	18800035 	stwio	r2,0(r3)
        IOWR(CY7C67200_BASE,HPI_DATA,0x050C); 
    2da8:	00c24834 	movhi	r3,2336
    2dac:	18c01c04 	addi	r3,r3,112
    2db0:	00814304 	movi	r2,1292
    2db4:	18800035 	stwio	r2,0(r3)
        IOWR(CY7C67200_BASE,HPI_DATA,0x0008); //4 port number
    2db8:	00c24834 	movhi	r3,2336
    2dbc:	18c01c04 	addi	r3,r3,112
    2dc0:	00800204 	movi	r2,8
    2dc4:	18800035 	stwio	r2,0(r3)
        IOWR(CY7C67200_BASE,HPI_DATA,0x02D0);
    2dc8:	00c24834 	movhi	r3,2336
    2dcc:	18c01c04 	addi	r3,r3,112
    2dd0:	0080b404 	movi	r2,720
    2dd4:	18800035 	stwio	r2,0(r3)
        IOWR(CY7C67200_BASE,HPI_DATA,0x0001);
    2dd8:	00c24834 	movhi	r3,2336
    2ddc:	18c01c04 	addi	r3,r3,112
    2de0:	00800044 	movi	r2,1
    2de4:	18800035 	stwio	r2,0(r3)
        IOWR(CY7C67200_BASE,HPI_DATA,0x0013);
    2de8:	00c24834 	movhi	r3,2336
    2dec:	18c01c04 	addi	r3,r3,112
    2df0:	008004c4 	movi	r2,19
    2df4:	18800035 	stwio	r2,0(r3)
        IOWR(CY7C67200_BASE,HPI_DATA,0x0514);
    2df8:	00c24834 	movhi	r3,2336
    2dfc:	18c01c04 	addi	r3,r3,112
    2e00:	00814504 	movi	r2,1300
    2e04:	18800035 	stwio	r2,0(r3)
    
        //td content 4 bytes
        IOWR(CY7C67200_BASE,HPI_DATA,0x0900);
    2e08:	00c24834 	movhi	r3,2336
    2e0c:	18c01c04 	addi	r3,r3,112
    2e10:	00824004 	movi	r2,2304
    2e14:	18800035 	stwio	r2,0(r3)
        IOWR(CY7C67200_BASE,HPI_DATA,0x0001);//device address   
    2e18:	00c24834 	movhi	r3,2336
    2e1c:	18c01c04 	addi	r3,r3,112
    2e20:	00800044 	movi	r2,1
    2e24:	18800035 	stwio	r2,0(r3)
        IOWR(CY7C67200_BASE,HPI_DATA,0x0000);
    2e28:	00824834 	movhi	r2,2336
    2e2c:	10801c04 	addi	r2,r2,112
    2e30:	10000035 	stwio	zero,0(r2)
        IOWR(CY7C67200_BASE,HPI_DATA,0x0000);
    2e34:	00824834 	movhi	r2,2336
    2e38:	10801c04 	addi	r2,r2,112
    2e3c:	10000035 	stwio	zero,0(r2)
        //in packet
        IOWR(CY7C67200_BASE,HPI_DATA,0x0000); //don't care
    2e40:	00824834 	movhi	r2,2336
    2e44:	10801c04 	addi	r2,r2,112
    2e48:	10000035 	stwio	zero,0(r2)
        IOWR(CY7C67200_BASE,HPI_DATA,0x0000);//port number
    2e4c:	00824834 	movhi	r2,2336
    2e50:	10801c04 	addi	r2,r2,112
    2e54:	10000035 	stwio	zero,0(r2)
        IOWR(CY7C67200_BASE,HPI_DATA,0x0290);//device address
    2e58:	00c24834 	movhi	r3,2336
    2e5c:	18c01c04 	addi	r3,r3,112
    2e60:	0080a404 	movi	r2,656
    2e64:	18800035 	stwio	r2,0(r3)
        IOWR(CY7C67200_BASE,HPI_DATA,0x0041); //data 1
    2e68:	00c24834 	movhi	r3,2336
    2e6c:	18c01c04 	addi	r3,r3,112
    2e70:	00801044 	movi	r2,65
    2e74:	18800035 	stwio	r2,0(r3)
        IOWR(CY7C67200_BASE,HPI_DATA,0x0013);
    2e78:	00c24834 	movhi	r3,2336
    2e7c:	18c01c04 	addi	r3,r3,112
    2e80:	008004c4 	movi	r2,19
    2e84:	18800035 	stwio	r2,0(r3)
        IOWR(CY7C67200_BASE,HPI_DATA,0x0000);
    2e88:	00824834 	movhi	r2,2336
    2e8c:	10801c04 	addi	r2,r2,112
    2e90:	10000035 	stwio	zero,0(r2)
        
        UsbWrite(HUSB_SIE1_pCurrentTDPtr,0x0500); //HUSB_SIE1_pCurrentTDPtr
    2e94:	01006c04 	movi	r4,432
    2e98:	01414004 	movi	r5,1280
    2e9c:	000482c0 	call	482c <UsbWrite>
        usleep(10*1000);
    2ea0:	0109c404 	movi	r4,10000
    2ea4:	00148100 	call	14810 <usleep>
    IOWR(CY7C67200_BASE,HPI_DATA,0x0000);
     
    UsbWrite(HUSB_SIE1_pCurrentTDPtr,0x0500); //HUSB_SIE1_pCurrentTDPtr
    //usleep(10*1000);
   
    while (!(IORD(CY7C67200_BASE,HPI_STATUS) & HPI_STATUS_SIE1msg_FLAG) )  //read sie1 msg register
    2ea8:	00824834 	movhi	r2,2336
    2eac:	10801f04 	addi	r2,r2,124
    2eb0:	10800037 	ldwio	r2,0(r2)
    2eb4:	1080040c 	andi	r2,r2,16
    2eb8:	1005003a 	cmpeq	r2,r2,zero
    2ebc:	103fb61e 	bne	r2,zero,2d98 <main+0x1ef0>
        
        UsbWrite(HUSB_SIE1_pCurrentTDPtr,0x0500); //HUSB_SIE1_pCurrentTDPtr
        usleep(10*1000);
    }
    
    usb_ctl_val = UsbRead(HPI_SIE1_MSG_ADR);
    2ec0:	01005104 	movi	r4,324
    2ec4:	00048700 	call	4870 <UsbRead>
    2ec8:	e0bffe8d 	sth	r2,-6(fp)
    UsbWrite(HPI_SIE1_MSG_ADR, 0);
    2ecc:	01005104 	movi	r4,324
    2ed0:	000b883a 	mov	r5,zero
    2ed4:	000482c0 	call	482c <UsbWrite>
    while (usb_ctl_val != 0x1000)  //read sie1 msg register
    2ed8:	00000d06 	br	2f10 <main+0x2068>
    {
       if(usb_ctl_val == 0x000)
    2edc:	e0bffe8b 	ldhu	r2,-6(fp)
    2ee0:	1005003a 	cmpeq	r2,r2,zero
    2ee4:	1000041e 	bne	r2,zero,2ef8 <main+0x2050>
       {
       }
       else
       {
        printf("[SIE1 MSG]:SIE1 msg reg is %x\n",usb_ctl_val);
    2ee8:	e17ffe8b 	ldhu	r5,-6(fp)
    2eec:	01000074 	movhi	r4,1
    2ef0:	211ee704 	addi	r4,r4,31644
    2ef4:	00055540 	call	5554 <printf>
       }
       usb_ctl_val = UsbRead(HPI_SIE1_MSG_ADR);
    2ef8:	01005104 	movi	r4,324
    2efc:	00048700 	call	4870 <UsbRead>
    2f00:	e0bffe8d 	sth	r2,-6(fp)
       UsbWrite(HPI_SIE1_MSG_ADR, 0);
    2f04:	01005104 	movi	r4,324
    2f08:	000b883a 	mov	r5,zero
    2f0c:	000482c0 	call	482c <UsbWrite>
        usleep(10*1000);
    }
    
    usb_ctl_val = UsbRead(HPI_SIE1_MSG_ADR);
    UsbWrite(HPI_SIE1_MSG_ADR, 0);
    while (usb_ctl_val != 0x1000)  //read sie1 msg register
    2f10:	e0bffe8b 	ldhu	r2,-6(fp)
    2f14:	10840018 	cmpnei	r2,r2,4096
    2f18:	103ff01e 	bne	r2,zero,2edc <main+0x2034>
       usb_ctl_val = UsbRead(HPI_SIE1_MSG_ADR);
       UsbWrite(HPI_SIE1_MSG_ADR, 0);
      
    }

    IOWR(CY7C67200_BASE,HPI_ADDR,0x0506);
    2f1c:	00c24834 	movhi	r3,2336
    2f20:	18c01e04 	addi	r3,r3,120
    2f24:	00814184 	movi	r2,1286
    2f28:	18800035 	stwio	r2,0(r3)
    printf("[ENUM PROCESS]:step 7 TD Status Byte is %x\n",IORD(CY7C67200_BASE,HPI_DATA));
    2f2c:	00824834 	movhi	r2,2336
    2f30:	10801c04 	addi	r2,r2,112
    2f34:	11400037 	ldwio	r5,0(r2)
    2f38:	01000074 	movhi	r4,1
    2f3c:	211fce04 	addi	r4,r4,32568
    2f40:	00055540 	call	5554 <printf>
    
    IOWR(CY7C67200_BASE,HPI_ADDR,0x0508);
    2f44:	00c24834 	movhi	r3,2336
    2f48:	18c01e04 	addi	r3,r3,120
    2f4c:	00814204 	movi	r2,1288
    2f50:	18800035 	stwio	r2,0(r3)
    usb_ctl_val = IORD(CY7C67200_BASE,HPI_DATA);
    2f54:	00824834 	movhi	r2,2336
    2f58:	10801c04 	addi	r2,r2,112
    2f5c:	10800037 	ldwio	r2,0(r2)
    2f60:	e0bffe8d 	sth	r2,-6(fp)
    printf("[ENUM PROCESS]:step 7 TD Control Byte is %x\n",usb_ctl_val);
    2f64:	e17ffe8b 	ldhu	r5,-6(fp)
    2f68:	01000074 	movhi	r4,1
    2f6c:	211fd904 	addi	r4,r4,32612
    2f70:	00055540 	call	5554 <printf>
    while (usb_ctl_val != 0x03) 
    2f74:	00001906 	br	2fdc <main+0x2134>
    {
       IORD(CY7C67200_BASE,HPI_STATUS);
    2f78:	00824834 	movhi	r2,2336
    2f7c:	10801f04 	addi	r2,r2,124
    2f80:	10800037 	ldwio	r2,0(r2)
       if(UsbRead(HPI_SIE1_MSG_ADR) == 0x1000)
    2f84:	01005104 	movi	r4,324
    2f88:	00048700 	call	4870 <UsbRead>
    2f8c:	10bfffcc 	andi	r2,r2,65535
    2f90:	10840018 	cmpnei	r2,r2,4096
    2f94:	1000091e 	bne	r2,zero,2fbc <main+0x2114>
       {
           UsbWrite(HPI_SIE1_MSG_ADR, 0);
    2f98:	01005104 	movi	r4,324
    2f9c:	000b883a 	mov	r5,zero
    2fa0:	000482c0 	call	482c <UsbWrite>
           
        
           while (!(IORD(CY7C67200_BASE,HPI_STATUS) & HPI_STATUS_SIE1msg_FLAG) )  //read sie1 msg register
    2fa4:	00824834 	movhi	r2,2336
    2fa8:	10801f04 	addi	r2,r2,124
    2fac:	10800037 	ldwio	r2,0(r2)
    2fb0:	1080040c 	andi	r2,r2,16
    2fb4:	1005003a 	cmpeq	r2,r2,zero
    2fb8:	103ffa1e 	bne	r2,zero,2fa4 <main+0x20fc>
           {
           }
        }
           //usleep(1000);
           IOWR(CY7C67200_BASE,HPI_ADDR,0x0508);
    2fbc:	00c24834 	movhi	r3,2336
    2fc0:	18c01e04 	addi	r3,r3,120
    2fc4:	00814204 	movi	r2,1288
    2fc8:	18800035 	stwio	r2,0(r3)
           usb_ctl_val = IORD(CY7C67200_BASE,HPI_DATA); 
    2fcc:	00824834 	movhi	r2,2336
    2fd0:	10801c04 	addi	r2,r2,112
    2fd4:	10800037 	ldwio	r2,0(r2)
    2fd8:	e0bffe8d 	sth	r2,-6(fp)
    printf("[ENUM PROCESS]:step 7 TD Status Byte is %x\n",IORD(CY7C67200_BASE,HPI_DATA));
    
    IOWR(CY7C67200_BASE,HPI_ADDR,0x0508);
    usb_ctl_val = IORD(CY7C67200_BASE,HPI_DATA);
    printf("[ENUM PROCESS]:step 7 TD Control Byte is %x\n",usb_ctl_val);
    while (usb_ctl_val != 0x03) 
    2fdc:	e0bffe8b 	ldhu	r2,-6(fp)
    2fe0:	108000d8 	cmpnei	r2,r2,3
    2fe4:	103fe41e 	bne	r2,zero,2f78 <main+0x20d0>
           //usleep(1000);
           IOWR(CY7C67200_BASE,HPI_ADDR,0x0508);
           usb_ctl_val = IORD(CY7C67200_BASE,HPI_DATA); 
    }    
    
    printf("------------[ENUM PROCESS]:set configuration pass!-------------------\n");
    2fe8:	01000074 	movhi	r4,1
    2fec:	211fe504 	addi	r4,r4,32660
    2ff0:	000566c0 	call	566c <puts>
    
    //----------------------------------------------classe request out ------------------------------------------//
    //the starting address
    IOWR(CY7C67200_BASE,HPI_ADDR,0x0500); //the start address       
    2ff4:	00c24834 	movhi	r3,2336
    2ff8:	18c01e04 	addi	r3,r3,120
    2ffc:	00814004 	movi	r2,1280
    3000:	18800035 	stwio	r2,0(r3)
    IOWR(CY7C67200_BASE,HPI_DATA,0x050C); 
    3004:	00c24834 	movhi	r3,2336
    3008:	18c01c04 	addi	r3,r3,112
    300c:	00814304 	movi	r2,1292
    3010:	18800035 	stwio	r2,0(r3)
    IOWR(CY7C67200_BASE,HPI_DATA,0x0008); //4 port number
    3014:	00c24834 	movhi	r3,2336
    3018:	18c01c04 	addi	r3,r3,112
    301c:	00800204 	movi	r2,8
    3020:	18800035 	stwio	r2,0(r3)
    IOWR(CY7C67200_BASE,HPI_DATA,0x02D0); //port address
    3024:	00c24834 	movhi	r3,2336
    3028:	18c01c04 	addi	r3,r3,112
    302c:	0080b404 	movi	r2,720
    3030:	18800035 	stwio	r2,0(r3)
    IOWR(CY7C67200_BASE,HPI_DATA,0x0001);
    3034:	00c24834 	movhi	r3,2336
    3038:	18c01c04 	addi	r3,r3,112
    303c:	00800044 	movi	r2,1
    3040:	18800035 	stwio	r2,0(r3)
    IOWR(CY7C67200_BASE,HPI_DATA,0x0013);
    3044:	00c24834 	movhi	r3,2336
    3048:	18c01c04 	addi	r3,r3,112
    304c:	008004c4 	movi	r2,19
    3050:	18800035 	stwio	r2,0(r3)
    IOWR(CY7C67200_BASE,HPI_DATA,0x0514);
    3054:	00c24834 	movhi	r3,2336
    3058:	18c01c04 	addi	r3,r3,112
    305c:	00814504 	movi	r2,1300
    3060:	18800035 	stwio	r2,0(r3)
    
    //td content 4 bytes
    IOWR(CY7C67200_BASE,HPI_DATA,0x0A21);
    3064:	00c24834 	movhi	r3,2336
    3068:	18c01c04 	addi	r3,r3,112
    306c:	00828844 	movi	r2,2593
    3070:	18800035 	stwio	r2,0(r3)
    IOWR(CY7C67200_BASE,HPI_DATA,0x0000);//device address   
    3074:	00824834 	movhi	r2,2336
    3078:	10801c04 	addi	r2,r2,112
    307c:	10000035 	stwio	zero,0(r2)
    IOWR(CY7C67200_BASE,HPI_DATA,0x0000);
    3080:	00824834 	movhi	r2,2336
    3084:	10801c04 	addi	r2,r2,112
    3088:	10000035 	stwio	zero,0(r2)
    IOWR(CY7C67200_BASE,HPI_DATA,0x0000);
    308c:	00824834 	movhi	r2,2336
    3090:	10801c04 	addi	r2,r2,112
    3094:	10000035 	stwio	zero,0(r2)
    //in packet
    IOWR(CY7C67200_BASE,HPI_DATA,0x0000); //don't care
    3098:	00824834 	movhi	r2,2336
    309c:	10801c04 	addi	r2,r2,112
    30a0:	10000035 	stwio	zero,0(r2)
    IOWR(CY7C67200_BASE,HPI_DATA,0x0000);//port number /data length
    30a4:	00824834 	movhi	r2,2336
    30a8:	10801c04 	addi	r2,r2,112
    30ac:	10000035 	stwio	zero,0(r2)
    IOWR(CY7C67200_BASE,HPI_DATA,0x0290);//device address
    30b0:	00c24834 	movhi	r3,2336
    30b4:	18c01c04 	addi	r3,r3,112
    30b8:	0080a404 	movi	r2,656
    30bc:	18800035 	stwio	r2,0(r3)
    IOWR(CY7C67200_BASE,HPI_DATA,0x0041); //data 1
    30c0:	00c24834 	movhi	r3,2336
    30c4:	18c01c04 	addi	r3,r3,112
    30c8:	00801044 	movi	r2,65
    30cc:	18800035 	stwio	r2,0(r3)
    IOWR(CY7C67200_BASE,HPI_DATA,0x0013);
    30d0:	00c24834 	movhi	r3,2336
    30d4:	18c01c04 	addi	r3,r3,112
    30d8:	008004c4 	movi	r2,19
    30dc:	18800035 	stwio	r2,0(r3)
    IOWR(CY7C67200_BASE,HPI_DATA,0x0000);
    30e0:	00824834 	movhi	r2,2336
    30e4:	10801c04 	addi	r2,r2,112
    30e8:	10000035 	stwio	zero,0(r2)
     
    UsbWrite(HUSB_SIE1_pCurrentTDPtr,0x0500); //HUSB_SIE1_pCurrentTDPtr
    30ec:	01006c04 	movi	r4,432
    30f0:	01414004 	movi	r5,1280
    30f4:	000482c0 	call	482c <UsbWrite>
    //usleep(10*1000);
   
    while (!(IORD(CY7C67200_BASE,HPI_STATUS) & HPI_STATUS_SIE1msg_FLAG) )  //read sie1 msg register
    30f8:	00004306 	br	3208 <main+0x2360>
    {
        IOWR(CY7C67200_BASE,HPI_ADDR,0x0500); //the start address       
    30fc:	00c24834 	movhi	r3,2336
    3100:	18c01e04 	addi	r3,r3,120
    3104:	00814004 	movi	r2,1280
    3108:	18800035 	stwio	r2,0(r3)
        IOWR(CY7C67200_BASE,HPI_DATA,0x050C); 
    310c:	00c24834 	movhi	r3,2336
    3110:	18c01c04 	addi	r3,r3,112
    3114:	00814304 	movi	r2,1292
    3118:	18800035 	stwio	r2,0(r3)
        IOWR(CY7C67200_BASE,HPI_DATA,0x0008); //4 port number
    311c:	00c24834 	movhi	r3,2336
    3120:	18c01c04 	addi	r3,r3,112
    3124:	00800204 	movi	r2,8
    3128:	18800035 	stwio	r2,0(r3)
        IOWR(CY7C67200_BASE,HPI_DATA,0x02D0);
    312c:	00c24834 	movhi	r3,2336
    3130:	18c01c04 	addi	r3,r3,112
    3134:	0080b404 	movi	r2,720
    3138:	18800035 	stwio	r2,0(r3)
        IOWR(CY7C67200_BASE,HPI_DATA,0x0001);
    313c:	00c24834 	movhi	r3,2336
    3140:	18c01c04 	addi	r3,r3,112
    3144:	00800044 	movi	r2,1
    3148:	18800035 	stwio	r2,0(r3)
        IOWR(CY7C67200_BASE,HPI_DATA,0x0013);
    314c:	00c24834 	movhi	r3,2336
    3150:	18c01c04 	addi	r3,r3,112
    3154:	008004c4 	movi	r2,19
    3158:	18800035 	stwio	r2,0(r3)
        IOWR(CY7C67200_BASE,HPI_DATA,0x0514);
    315c:	00c24834 	movhi	r3,2336
    3160:	18c01c04 	addi	r3,r3,112
    3164:	00814504 	movi	r2,1300
    3168:	18800035 	stwio	r2,0(r3)
    
        //td content 4 bytes
        IOWR(CY7C67200_BASE,HPI_DATA,0x0A21);
    316c:	00c24834 	movhi	r3,2336
    3170:	18c01c04 	addi	r3,r3,112
    3174:	00828844 	movi	r2,2593
    3178:	18800035 	stwio	r2,0(r3)
        IOWR(CY7C67200_BASE,HPI_DATA,0x0000);//device address   
    317c:	00824834 	movhi	r2,2336
    3180:	10801c04 	addi	r2,r2,112
    3184:	10000035 	stwio	zero,0(r2)
        IOWR(CY7C67200_BASE,HPI_DATA,0x0000);
    3188:	00824834 	movhi	r2,2336
    318c:	10801c04 	addi	r2,r2,112
    3190:	10000035 	stwio	zero,0(r2)
        IOWR(CY7C67200_BASE,HPI_DATA,0x0000);
    3194:	00824834 	movhi	r2,2336
    3198:	10801c04 	addi	r2,r2,112
    319c:	10000035 	stwio	zero,0(r2)
        //in packet
        IOWR(CY7C67200_BASE,HPI_DATA,0x0000); //don't care
    31a0:	00824834 	movhi	r2,2336
    31a4:	10801c04 	addi	r2,r2,112
    31a8:	10000035 	stwio	zero,0(r2)
        IOWR(CY7C67200_BASE,HPI_DATA,0x0000);//port number
    31ac:	00824834 	movhi	r2,2336
    31b0:	10801c04 	addi	r2,r2,112
    31b4:	10000035 	stwio	zero,0(r2)
        IOWR(CY7C67200_BASE,HPI_DATA,0x0290);//device address
    31b8:	00c24834 	movhi	r3,2336
    31bc:	18c01c04 	addi	r3,r3,112
    31c0:	0080a404 	movi	r2,656
    31c4:	18800035 	stwio	r2,0(r3)
        IOWR(CY7C67200_BASE,HPI_DATA,0x0041); //data 1
    31c8:	00c24834 	movhi	r3,2336
    31cc:	18c01c04 	addi	r3,r3,112
    31d0:	00801044 	movi	r2,65
    31d4:	18800035 	stwio	r2,0(r3)
        IOWR(CY7C67200_BASE,HPI_DATA,0x0013);
    31d8:	00c24834 	movhi	r3,2336
    31dc:	18c01c04 	addi	r3,r3,112
    31e0:	008004c4 	movi	r2,19
    31e4:	18800035 	stwio	r2,0(r3)
        IOWR(CY7C67200_BASE,HPI_DATA,0x0000);
    31e8:	00824834 	movhi	r2,2336
    31ec:	10801c04 	addi	r2,r2,112
    31f0:	10000035 	stwio	zero,0(r2)
        
        UsbWrite(HUSB_SIE1_pCurrentTDPtr,0x0500); //HUSB_SIE1_pCurrentTDPtr
    31f4:	01006c04 	movi	r4,432
    31f8:	01414004 	movi	r5,1280
    31fc:	000482c0 	call	482c <UsbWrite>
        usleep(10*1000);
    3200:	0109c404 	movi	r4,10000
    3204:	00148100 	call	14810 <usleep>
    IOWR(CY7C67200_BASE,HPI_DATA,0x0000);
     
    UsbWrite(HUSB_SIE1_pCurrentTDPtr,0x0500); //HUSB_SIE1_pCurrentTDPtr
    //usleep(10*1000);
   
    while (!(IORD(CY7C67200_BASE,HPI_STATUS) & HPI_STATUS_SIE1msg_FLAG) )  //read sie1 msg register
    3208:	00824834 	movhi	r2,2336
    320c:	10801f04 	addi	r2,r2,124
    3210:	10800037 	ldwio	r2,0(r2)
    3214:	1080040c 	andi	r2,r2,16
    3218:	1005003a 	cmpeq	r2,r2,zero
    321c:	103fb71e 	bne	r2,zero,30fc <main+0x2254>
        
        UsbWrite(HUSB_SIE1_pCurrentTDPtr,0x0500); //HUSB_SIE1_pCurrentTDPtr
        usleep(10*1000);
    }
    
    usb_ctl_val = UsbRead(HPI_SIE1_MSG_ADR);
    3220:	01005104 	movi	r4,324
    3224:	00048700 	call	4870 <UsbRead>
    3228:	e0bffe8d 	sth	r2,-6(fp)
    UsbWrite(HPI_SIE1_MSG_ADR, 0);
    322c:	01005104 	movi	r4,324
    3230:	000b883a 	mov	r5,zero
    3234:	000482c0 	call	482c <UsbWrite>
    while (usb_ctl_val != 0x1000)  //read sie1 msg register
    3238:	00000d06 	br	3270 <main+0x23c8>
    {
       if(usb_ctl_val == 0x000)
    323c:	e0bffe8b 	ldhu	r2,-6(fp)
    3240:	1005003a 	cmpeq	r2,r2,zero
    3244:	1000041e 	bne	r2,zero,3258 <main+0x23b0>
       {
       }
       else
       {
        printf("[SIE1 MSG]:SIE 1 msg reg is %x\n",usb_ctl_val);
    3248:	e17ffe8b 	ldhu	r5,-6(fp)
    324c:	01000074 	movhi	r4,1
    3250:	211ff704 	addi	r4,r4,32732
    3254:	00055540 	call	5554 <printf>
       }
       usb_ctl_val = UsbRead(HPI_SIE1_MSG_ADR);
    3258:	01005104 	movi	r4,324
    325c:	00048700 	call	4870 <UsbRead>
    3260:	e0bffe8d 	sth	r2,-6(fp)
       UsbWrite(HPI_SIE1_MSG_ADR, 0);
    3264:	01005104 	movi	r4,324
    3268:	000b883a 	mov	r5,zero
    326c:	000482c0 	call	482c <UsbWrite>
        usleep(10*1000);
    }
    
    usb_ctl_val = UsbRead(HPI_SIE1_MSG_ADR);
    UsbWrite(HPI_SIE1_MSG_ADR, 0);
    while (usb_ctl_val != 0x1000)  //read sie1 msg register
    3270:	e0bffe8b 	ldhu	r2,-6(fp)
    3274:	10840018 	cmpnei	r2,r2,4096
    3278:	103ff01e 	bne	r2,zero,323c <main+0x2394>
       usb_ctl_val = UsbRead(HPI_SIE1_MSG_ADR);
       UsbWrite(HPI_SIE1_MSG_ADR, 0);
      
    }

    IOWR(CY7C67200_BASE,HPI_ADDR,0x0506);
    327c:	00c24834 	movhi	r3,2336
    3280:	18c01e04 	addi	r3,r3,120
    3284:	00814184 	movi	r2,1286
    3288:	18800035 	stwio	r2,0(r3)
    printf("[ENUM PROCESS]:step 8 TD Status Byte is %x\n",IORD(CY7C67200_BASE,HPI_DATA));
    328c:	00824834 	movhi	r2,2336
    3290:	10801c04 	addi	r2,r2,112
    3294:	11400037 	ldwio	r5,0(r2)
    3298:	01000074 	movhi	r4,1
    329c:	211fff04 	addi	r4,r4,32764
    32a0:	00055540 	call	5554 <printf>
    
    IOWR(CY7C67200_BASE,HPI_ADDR,0x0508);
    32a4:	00c24834 	movhi	r3,2336
    32a8:	18c01e04 	addi	r3,r3,120
    32ac:	00814204 	movi	r2,1288
    32b0:	18800035 	stwio	r2,0(r3)
    usb_ctl_val = IORD(CY7C67200_BASE,HPI_DATA);
    32b4:	00824834 	movhi	r2,2336
    32b8:	10801c04 	addi	r2,r2,112
    32bc:	10800037 	ldwio	r2,0(r2)
    32c0:	e0bffe8d 	sth	r2,-6(fp)
    printf("[ENUM PROCESS]:step 8 TD Control Byte is %x\n",usb_ctl_val);
    32c4:	e17ffe8b 	ldhu	r5,-6(fp)
    32c8:	010000b4 	movhi	r4,2
    32cc:	21200a04 	addi	r4,r4,-32728
    32d0:	00055540 	call	5554 <printf>
    while (usb_ctl_val != 0x03) 
    32d4:	00001906 	br	333c <main+0x2494>
    {
       IORD(CY7C67200_BASE,HPI_STATUS);
    32d8:	00824834 	movhi	r2,2336
    32dc:	10801f04 	addi	r2,r2,124
    32e0:	10800037 	ldwio	r2,0(r2)
       if(UsbRead(HPI_SIE1_MSG_ADR) == 0x1000)
    32e4:	01005104 	movi	r4,324
    32e8:	00048700 	call	4870 <UsbRead>
    32ec:	10bfffcc 	andi	r2,r2,65535
    32f0:	10840018 	cmpnei	r2,r2,4096
    32f4:	1000091e 	bne	r2,zero,331c <main+0x2474>
       {
           UsbWrite(HPI_SIE1_MSG_ADR, 0);
    32f8:	01005104 	movi	r4,324
    32fc:	000b883a 	mov	r5,zero
    3300:	000482c0 	call	482c <UsbWrite>
           
        
           while (!(IORD(CY7C67200_BASE,HPI_STATUS) & HPI_STATUS_SIE1msg_FLAG) )  //read sie1 msg register
    3304:	00824834 	movhi	r2,2336
    3308:	10801f04 	addi	r2,r2,124
    330c:	10800037 	ldwio	r2,0(r2)
    3310:	1080040c 	andi	r2,r2,16
    3314:	1005003a 	cmpeq	r2,r2,zero
    3318:	103ffa1e 	bne	r2,zero,3304 <main+0x245c>
           {
           }
        }
           //usleep(1000);
           IOWR(CY7C67200_BASE,HPI_ADDR,0x0508);
    331c:	00c24834 	movhi	r3,2336
    3320:	18c01e04 	addi	r3,r3,120
    3324:	00814204 	movi	r2,1288
    3328:	18800035 	stwio	r2,0(r3)
           usb_ctl_val = IORD(CY7C67200_BASE,HPI_DATA); 
    332c:	00824834 	movhi	r2,2336
    3330:	10801c04 	addi	r2,r2,112
    3334:	10800037 	ldwio	r2,0(r2)
    3338:	e0bffe8d 	sth	r2,-6(fp)
    printf("[ENUM PROCESS]:step 8 TD Status Byte is %x\n",IORD(CY7C67200_BASE,HPI_DATA));
    
    IOWR(CY7C67200_BASE,HPI_ADDR,0x0508);
    usb_ctl_val = IORD(CY7C67200_BASE,HPI_DATA);
    printf("[ENUM PROCESS]:step 8 TD Control Byte is %x\n",usb_ctl_val);
    while (usb_ctl_val != 0x03) 
    333c:	e0bffe8b 	ldhu	r2,-6(fp)
    3340:	108000d8 	cmpnei	r2,r2,3
    3344:	103fe41e 	bne	r2,zero,32d8 <main+0x2430>
           IOWR(CY7C67200_BASE,HPI_ADDR,0x0508);
           usb_ctl_val = IORD(CY7C67200_BASE,HPI_DATA); 
    }    
    
    
    printf("------------[ENUM PROCESS]:classe request out pass!-------------------\n");
    3348:	010000b4 	movhi	r4,2
    334c:	21201604 	addi	r4,r4,-32680
    3350:	000566c0 	call	566c <puts>
    
    //----------------------------------get descriptor(class 0x21) request out --------------------------------//
    //the starting address
    IOWR(CY7C67200_BASE,HPI_ADDR,0x0500); //the start address       
    3354:	00c24834 	movhi	r3,2336
    3358:	18c01e04 	addi	r3,r3,120
    335c:	00814004 	movi	r2,1280
    3360:	18800035 	stwio	r2,0(r3)
    IOWR(CY7C67200_BASE,HPI_DATA,0x050C); 
    3364:	00c24834 	movhi	r3,2336
    3368:	18c01c04 	addi	r3,r3,112
    336c:	00814304 	movi	r2,1292
    3370:	18800035 	stwio	r2,0(r3)
    IOWR(CY7C67200_BASE,HPI_DATA,0x0008); //4 port number
    3374:	00c24834 	movhi	r3,2336
    3378:	18c01c04 	addi	r3,r3,112
    337c:	00800204 	movi	r2,8
    3380:	18800035 	stwio	r2,0(r3)
    IOWR(CY7C67200_BASE,HPI_DATA,0x02D0); //port address
    3384:	00c24834 	movhi	r3,2336
    3388:	18c01c04 	addi	r3,r3,112
    338c:	0080b404 	movi	r2,720
    3390:	18800035 	stwio	r2,0(r3)
    IOWR(CY7C67200_BASE,HPI_DATA,0x0001);
    3394:	00c24834 	movhi	r3,2336
    3398:	18c01c04 	addi	r3,r3,112
    339c:	00800044 	movi	r2,1
    33a0:	18800035 	stwio	r2,0(r3)
    IOWR(CY7C67200_BASE,HPI_DATA,0x0013);
    33a4:	00c24834 	movhi	r3,2336
    33a8:	18c01c04 	addi	r3,r3,112
    33ac:	008004c4 	movi	r2,19
    33b0:	18800035 	stwio	r2,0(r3)
    IOWR(CY7C67200_BASE,HPI_DATA,0x0514);
    33b4:	00c24834 	movhi	r3,2336
    33b8:	18c01c04 	addi	r3,r3,112
    33bc:	00814504 	movi	r2,1300
    33c0:	18800035 	stwio	r2,0(r3)
    
    //td content 4 bytes
    IOWR(CY7C67200_BASE,HPI_DATA,0x0681);//c
    33c4:	00c24834 	movhi	r3,2336
    33c8:	18c01c04 	addi	r3,r3,112
    33cc:	0081a044 	movi	r2,1665
    33d0:	18800035 	stwio	r2,0(r3)
    IOWR(CY7C67200_BASE,HPI_DATA,0x2100);//e //config 
    33d4:	00c24834 	movhi	r3,2336
    33d8:	18c01c04 	addi	r3,r3,112
    33dc:	00884004 	movi	r2,8448
    33e0:	18800035 	stwio	r2,0(r3)
    IOWR(CY7C67200_BASE,HPI_DATA,0x0000);//0
    33e4:	00824834 	movhi	r2,2336
    33e8:	10801c04 	addi	r2,r2,112
    33ec:	10000035 	stwio	zero,0(r2)
    IOWR(CY7C67200_BASE,HPI_DATA,0x007B);//2
    33f0:	00c24834 	movhi	r3,2336
    33f4:	18c01c04 	addi	r3,r3,112
    33f8:	00801ec4 	movi	r2,123
    33fc:	18800035 	stwio	r2,0(r3)
    
    //data phase IN-1
    IOWR(CY7C67200_BASE,HPI_DATA,0x0544); //514
    3400:	00c24834 	movhi	r3,2336
    3404:	18c01c04 	addi	r3,r3,112
    3408:	00815104 	movi	r2,1348
    340c:	18800035 	stwio	r2,0(r3)
    IOWR(CY7C67200_BASE,HPI_DATA,0x0008);//6
    3410:	00c24834 	movhi	r3,2336
    3414:	18c01c04 	addi	r3,r3,112
    3418:	00800204 	movi	r2,8
    341c:	18800035 	stwio	r2,0(r3)
    IOWR(CY7C67200_BASE,HPI_DATA,0x0290);//8
    3420:	00c24834 	movhi	r3,2336
    3424:	18c01c04 	addi	r3,r3,112
    3428:	0080a404 	movi	r2,656
    342c:	18800035 	stwio	r2,0(r3)
    IOWR(CY7C67200_BASE,HPI_DATA,0x0041);//a
    3430:	00c24834 	movhi	r3,2336
    3434:	18c01c04 	addi	r3,r3,112
    3438:	00801044 	movi	r2,65
    343c:	18800035 	stwio	r2,0(r3)
    IOWR(CY7C67200_BASE,HPI_DATA,0x0013);//c
    3440:	00c24834 	movhi	r3,2336
    3444:	18c01c04 	addi	r3,r3,112
    3448:	008004c4 	movi	r2,19
    344c:	18800035 	stwio	r2,0(r3)
    IOWR(CY7C67200_BASE,HPI_DATA,0x0520);//e
    3450:	00c24834 	movhi	r3,2336
    3454:	18c01c04 	addi	r3,r3,112
    3458:	00814804 	movi	r2,1312
    345c:	18800035 	stwio	r2,0(r3)
        
    //status phase
    IOWR(CY7C67200_BASE,HPI_DATA,0x0000); //52c
    3460:	00824834 	movhi	r2,2336
    3464:	10801c04 	addi	r2,r2,112
    3468:	10000035 	stwio	zero,0(r2)
    IOWR(CY7C67200_BASE,HPI_DATA,0x0000);//e
    346c:	00824834 	movhi	r2,2336
    3470:	10801c04 	addi	r2,r2,112
    3474:	10000035 	stwio	zero,0(r2)
    IOWR(CY7C67200_BASE,HPI_DATA,0x0210);//530
    3478:	00c24834 	movhi	r3,2336
    347c:	18c01c04 	addi	r3,r3,112
    3480:	00808404 	movi	r2,528
    3484:	18800035 	stwio	r2,0(r3)
    IOWR(CY7C67200_BASE,HPI_DATA,0x0041);//2
    3488:	00c24834 	movhi	r3,2336
    348c:	18c01c04 	addi	r3,r3,112
    3490:	00801044 	movi	r2,65
    3494:	18800035 	stwio	r2,0(r3)
    IOWR(CY7C67200_BASE,HPI_DATA,0x0013);//4
    3498:	00c24834 	movhi	r3,2336
    349c:	18c01c04 	addi	r3,r3,112
    34a0:	008004c4 	movi	r2,19
    34a4:	18800035 	stwio	r2,0(r3)
    IOWR(CY7C67200_BASE,HPI_DATA,0x0000);//6
    34a8:	00824834 	movhi	r2,2336
    34ac:	10801c04 	addi	r2,r2,112
    34b0:	10000035 	stwio	zero,0(r2)
     
    UsbWrite(HUSB_SIE1_pCurrentTDPtr,0x0500); //HUSB_SIE1_pCurrentTDPtr
    34b4:	01006c04 	movi	r4,432
    34b8:	01414004 	movi	r5,1280
    34bc:	000482c0 	call	482c <UsbWrite>
    //usleep(10*1000);
   
    while (!(IORD(CY7C67200_BASE,HPI_STATUS) & HPI_STATUS_SIE1msg_FLAG) )  //read sie1 msg register
    34c0:	00005d06 	br	3638 <main+0x2790>
    {
    IOWR(CY7C67200_BASE,HPI_ADDR,0x0500); //the start address       
    34c4:	00c24834 	movhi	r3,2336
    34c8:	18c01e04 	addi	r3,r3,120
    34cc:	00814004 	movi	r2,1280
    34d0:	18800035 	stwio	r2,0(r3)
    IOWR(CY7C67200_BASE,HPI_DATA,0x050C); 
    34d4:	00c24834 	movhi	r3,2336
    34d8:	18c01c04 	addi	r3,r3,112
    34dc:	00814304 	movi	r2,1292
    34e0:	18800035 	stwio	r2,0(r3)
    IOWR(CY7C67200_BASE,HPI_DATA,0x0008); //4 port number
    34e4:	00c24834 	movhi	r3,2336
    34e8:	18c01c04 	addi	r3,r3,112
    34ec:	00800204 	movi	r2,8
    34f0:	18800035 	stwio	r2,0(r3)
    IOWR(CY7C67200_BASE,HPI_DATA,0x02D0); //port address
    34f4:	00c24834 	movhi	r3,2336
    34f8:	18c01c04 	addi	r3,r3,112
    34fc:	0080b404 	movi	r2,720
    3500:	18800035 	stwio	r2,0(r3)
    IOWR(CY7C67200_BASE,HPI_DATA,0x0001);
    3504:	00c24834 	movhi	r3,2336
    3508:	18c01c04 	addi	r3,r3,112
    350c:	00800044 	movi	r2,1
    3510:	18800035 	stwio	r2,0(r3)
    IOWR(CY7C67200_BASE,HPI_DATA,0x0013);
    3514:	00c24834 	movhi	r3,2336
    3518:	18c01c04 	addi	r3,r3,112
    351c:	008004c4 	movi	r2,19
    3520:	18800035 	stwio	r2,0(r3)
    IOWR(CY7C67200_BASE,HPI_DATA,0x0514);
    3524:	00c24834 	movhi	r3,2336
    3528:	18c01c04 	addi	r3,r3,112
    352c:	00814504 	movi	r2,1300
    3530:	18800035 	stwio	r2,0(r3)
    
    //td content 4 bytes
    IOWR(CY7C67200_BASE,HPI_DATA,0x0681);//c
    3534:	00c24834 	movhi	r3,2336
    3538:	18c01c04 	addi	r3,r3,112
    353c:	0081a044 	movi	r2,1665
    3540:	18800035 	stwio	r2,0(r3)
    IOWR(CY7C67200_BASE,HPI_DATA,0x2100);//e //config 
    3544:	00c24834 	movhi	r3,2336
    3548:	18c01c04 	addi	r3,r3,112
    354c:	00884004 	movi	r2,8448
    3550:	18800035 	stwio	r2,0(r3)
    IOWR(CY7C67200_BASE,HPI_DATA,0x0000);//0
    3554:	00824834 	movhi	r2,2336
    3558:	10801c04 	addi	r2,r2,112
    355c:	10000035 	stwio	zero,0(r2)
    IOWR(CY7C67200_BASE,HPI_DATA,0x007B);//2
    3560:	00c24834 	movhi	r3,2336
    3564:	18c01c04 	addi	r3,r3,112
    3568:	00801ec4 	movi	r2,123
    356c:	18800035 	stwio	r2,0(r3)
    
    //data phase IN-1
    IOWR(CY7C67200_BASE,HPI_DATA,0x0544); //514
    3570:	00c24834 	movhi	r3,2336
    3574:	18c01c04 	addi	r3,r3,112
    3578:	00815104 	movi	r2,1348
    357c:	18800035 	stwio	r2,0(r3)
    IOWR(CY7C67200_BASE,HPI_DATA,0x0008);//6
    3580:	00c24834 	movhi	r3,2336
    3584:	18c01c04 	addi	r3,r3,112
    3588:	00800204 	movi	r2,8
    358c:	18800035 	stwio	r2,0(r3)
    IOWR(CY7C67200_BASE,HPI_DATA,0x0290);//8
    3590:	00c24834 	movhi	r3,2336
    3594:	18c01c04 	addi	r3,r3,112
    3598:	0080a404 	movi	r2,656
    359c:	18800035 	stwio	r2,0(r3)
    IOWR(CY7C67200_BASE,HPI_DATA,0x0041);//a
    35a0:	00c24834 	movhi	r3,2336
    35a4:	18c01c04 	addi	r3,r3,112
    35a8:	00801044 	movi	r2,65
    35ac:	18800035 	stwio	r2,0(r3)
    IOWR(CY7C67200_BASE,HPI_DATA,0x0013);//c
    35b0:	00c24834 	movhi	r3,2336
    35b4:	18c01c04 	addi	r3,r3,112
    35b8:	008004c4 	movi	r2,19
    35bc:	18800035 	stwio	r2,0(r3)
    IOWR(CY7C67200_BASE,HPI_DATA,0x0520);//e
    35c0:	00c24834 	movhi	r3,2336
    35c4:	18c01c04 	addi	r3,r3,112
    35c8:	00814804 	movi	r2,1312
    35cc:	18800035 	stwio	r2,0(r3)
        
    //status phase
    IOWR(CY7C67200_BASE,HPI_DATA,0x0000); //52c
    35d0:	00824834 	movhi	r2,2336
    35d4:	10801c04 	addi	r2,r2,112
    35d8:	10000035 	stwio	zero,0(r2)
    IOWR(CY7C67200_BASE,HPI_DATA,0x0000);//e
    35dc:	00824834 	movhi	r2,2336
    35e0:	10801c04 	addi	r2,r2,112
    35e4:	10000035 	stwio	zero,0(r2)
    IOWR(CY7C67200_BASE,HPI_DATA,0x0210);//530
    35e8:	00c24834 	movhi	r3,2336
    35ec:	18c01c04 	addi	r3,r3,112
    35f0:	00808404 	movi	r2,528
    35f4:	18800035 	stwio	r2,0(r3)
    IOWR(CY7C67200_BASE,HPI_DATA,0x0041);//2
    35f8:	00c24834 	movhi	r3,2336
    35fc:	18c01c04 	addi	r3,r3,112
    3600:	00801044 	movi	r2,65
    3604:	18800035 	stwio	r2,0(r3)
    IOWR(CY7C67200_BASE,HPI_DATA,0x0013);//4
    3608:	00c24834 	movhi	r3,2336
    360c:	18c01c04 	addi	r3,r3,112
    3610:	008004c4 	movi	r2,19
    3614:	18800035 	stwio	r2,0(r3)
    IOWR(CY7C67200_BASE,HPI_DATA,0x0000);//6
    3618:	00824834 	movhi	r2,2336
    361c:	10801c04 	addi	r2,r2,112
    3620:	10000035 	stwio	zero,0(r2)
        
    UsbWrite(HUSB_SIE1_pCurrentTDPtr,0x0500); //HUSB_SIE1_pCurrentTDPtr
    3624:	01006c04 	movi	r4,432
    3628:	01414004 	movi	r5,1280
    362c:	000482c0 	call	482c <UsbWrite>
    usleep(10*1000);
    3630:	0109c404 	movi	r4,10000
    3634:	00148100 	call	14810 <usleep>
    IOWR(CY7C67200_BASE,HPI_DATA,0x0000);//6
     
    UsbWrite(HUSB_SIE1_pCurrentTDPtr,0x0500); //HUSB_SIE1_pCurrentTDPtr
    //usleep(10*1000);
   
    while (!(IORD(CY7C67200_BASE,HPI_STATUS) & HPI_STATUS_SIE1msg_FLAG) )  //read sie1 msg register
    3638:	00824834 	movhi	r2,2336
    363c:	10801f04 	addi	r2,r2,124
    3640:	10800037 	ldwio	r2,0(r2)
    3644:	1080040c 	andi	r2,r2,16
    3648:	1005003a 	cmpeq	r2,r2,zero
    364c:	103f9d1e 	bne	r2,zero,34c4 <main+0x261c>
        
    UsbWrite(HUSB_SIE1_pCurrentTDPtr,0x0500); //HUSB_SIE1_pCurrentTDPtr
    usleep(10*1000);
    }
    
    usb_ctl_val = UsbRead(HPI_SIE1_MSG_ADR);
    3650:	01005104 	movi	r4,324
    3654:	00048700 	call	4870 <UsbRead>
    3658:	e0bffe8d 	sth	r2,-6(fp)
    UsbWrite(HPI_SIE1_MSG_ADR, 0);
    365c:	01005104 	movi	r4,324
    3660:	000b883a 	mov	r5,zero
    3664:	000482c0 	call	482c <UsbWrite>
    while (usb_ctl_val != 0x1000)  //read sie1 msg register
    3668:	00000d06 	br	36a0 <main+0x27f8>
    {
       if(usb_ctl_val == 0x000)
    366c:	e0bffe8b 	ldhu	r2,-6(fp)
    3670:	1005003a 	cmpeq	r2,r2,zero
    3674:	1000041e 	bne	r2,zero,3688 <main+0x27e0>
       {
       }
       else
       {
        printf("[SIE MSG]:SIE 1 msg reg is %x\n",usb_ctl_val);
    3678:	e17ffe8b 	ldhu	r5,-6(fp)
    367c:	010000b4 	movhi	r4,2
    3680:	21202804 	addi	r4,r4,-32608
    3684:	00055540 	call	5554 <printf>
       }
       usb_ctl_val = UsbRead(HPI_SIE1_MSG_ADR);
    3688:	01005104 	movi	r4,324
    368c:	00048700 	call	4870 <UsbRead>
    3690:	e0bffe8d 	sth	r2,-6(fp)
       UsbWrite(HPI_SIE1_MSG_ADR, 0);
    3694:	01005104 	movi	r4,324
    3698:	000b883a 	mov	r5,zero
    369c:	000482c0 	call	482c <UsbWrite>
    usleep(10*1000);
    }
    
    usb_ctl_val = UsbRead(HPI_SIE1_MSG_ADR);
    UsbWrite(HPI_SIE1_MSG_ADR, 0);
    while (usb_ctl_val != 0x1000)  //read sie1 msg register
    36a0:	e0bffe8b 	ldhu	r2,-6(fp)
    36a4:	10840018 	cmpnei	r2,r2,4096
    36a8:	103ff01e 	bne	r2,zero,366c <main+0x27c4>
       usb_ctl_val = UsbRead(HPI_SIE1_MSG_ADR);
       UsbWrite(HPI_SIE1_MSG_ADR, 0);
      
    }

    IOWR(CY7C67200_BASE,HPI_ADDR,0x0506);
    36ac:	00c24834 	movhi	r3,2336
    36b0:	18c01e04 	addi	r3,r3,120
    36b4:	00814184 	movi	r2,1286
    36b8:	18800035 	stwio	r2,0(r3)
    printf("[ENUM PROCESS]:step 8 TD Status Byte is %x\n",IORD(CY7C67200_BASE,HPI_DATA));
    36bc:	00824834 	movhi	r2,2336
    36c0:	10801c04 	addi	r2,r2,112
    36c4:	11400037 	ldwio	r5,0(r2)
    36c8:	01000074 	movhi	r4,1
    36cc:	211fff04 	addi	r4,r4,32764
    36d0:	00055540 	call	5554 <printf>
    
    IOWR(CY7C67200_BASE,HPI_ADDR,0x0508);
    36d4:	00c24834 	movhi	r3,2336
    36d8:	18c01e04 	addi	r3,r3,120
    36dc:	00814204 	movi	r2,1288
    36e0:	18800035 	stwio	r2,0(r3)
    usb_ctl_val = IORD(CY7C67200_BASE,HPI_DATA);
    36e4:	00824834 	movhi	r2,2336
    36e8:	10801c04 	addi	r2,r2,112
    36ec:	10800037 	ldwio	r2,0(r2)
    36f0:	e0bffe8d 	sth	r2,-6(fp)
    printf("[ENUM PROCESS]:step 8 TD Control Byte is %x\n",usb_ctl_val);
    36f4:	e17ffe8b 	ldhu	r5,-6(fp)
    36f8:	010000b4 	movhi	r4,2
    36fc:	21200a04 	addi	r4,r4,-32728
    3700:	00055540 	call	5554 <printf>
    while (usb_ctl_val != 0x03) 
    3704:	00001906 	br	376c <main+0x28c4>
    {
       IORD(CY7C67200_BASE,HPI_STATUS);
    3708:	00824834 	movhi	r2,2336
    370c:	10801f04 	addi	r2,r2,124
    3710:	10800037 	ldwio	r2,0(r2)
       if(UsbRead(HPI_SIE1_MSG_ADR) == 0x1000)
    3714:	01005104 	movi	r4,324
    3718:	00048700 	call	4870 <UsbRead>
    371c:	10bfffcc 	andi	r2,r2,65535
    3720:	10840018 	cmpnei	r2,r2,4096
    3724:	1000091e 	bne	r2,zero,374c <main+0x28a4>
       {
           UsbWrite(HPI_SIE1_MSG_ADR, 0);
    3728:	01005104 	movi	r4,324
    372c:	000b883a 	mov	r5,zero
    3730:	000482c0 	call	482c <UsbWrite>
           
        
           while (!(IORD(CY7C67200_BASE,HPI_STATUS) & HPI_STATUS_SIE1msg_FLAG) )  //read sie1 msg register
    3734:	00824834 	movhi	r2,2336
    3738:	10801f04 	addi	r2,r2,124
    373c:	10800037 	ldwio	r2,0(r2)
    3740:	1080040c 	andi	r2,r2,16
    3744:	1005003a 	cmpeq	r2,r2,zero
    3748:	103ffa1e 	bne	r2,zero,3734 <main+0x288c>
           {
           }
        }
           //usleep(1000);
           IOWR(CY7C67200_BASE,HPI_ADDR,0x0508);
    374c:	00c24834 	movhi	r3,2336
    3750:	18c01e04 	addi	r3,r3,120
    3754:	00814204 	movi	r2,1288
    3758:	18800035 	stwio	r2,0(r3)
           usb_ctl_val = IORD(CY7C67200_BASE,HPI_DATA); 
    375c:	00824834 	movhi	r2,2336
    3760:	10801c04 	addi	r2,r2,112
    3764:	10800037 	ldwio	r2,0(r2)
    3768:	e0bffe8d 	sth	r2,-6(fp)
    printf("[ENUM PROCESS]:step 8 TD Status Byte is %x\n",IORD(CY7C67200_BASE,HPI_DATA));
    
    IOWR(CY7C67200_BASE,HPI_ADDR,0x0508);
    usb_ctl_val = IORD(CY7C67200_BASE,HPI_DATA);
    printf("[ENUM PROCESS]:step 8 TD Control Byte is %x\n",usb_ctl_val);
    while (usb_ctl_val != 0x03) 
    376c:	e0bffe8b 	ldhu	r2,-6(fp)
    3770:	108000d8 	cmpnei	r2,r2,3
    3774:	103fe41e 	bne	r2,zero,3708 <main+0x2860>
           usb_ctl_val = IORD(CY7C67200_BASE,HPI_DATA); 
    }    
    
    
    
    printf("------------[ENUM PROCESS]:get descriptor (class 0x21) pass!-------------------\n");
    3778:	010000b4 	movhi	r4,2
    377c:	21203004 	addi	r4,r4,-32576
    3780:	000566c0 	call	566c <puts>
    
    //-------------------------------get descriptor (class 0x22)-------------------------------------------//
    //the starting address
    IOWR(CY7C67200_BASE,HPI_ADDR,0x0500); //the start address       
    3784:	00c24834 	movhi	r3,2336
    3788:	18c01e04 	addi	r3,r3,120
    378c:	00814004 	movi	r2,1280
    3790:	18800035 	stwio	r2,0(r3)
    IOWR(CY7C67200_BASE,HPI_DATA,0x050C); 
    3794:	00c24834 	movhi	r3,2336
    3798:	18c01c04 	addi	r3,r3,112
    379c:	00814304 	movi	r2,1292
    37a0:	18800035 	stwio	r2,0(r3)
    IOWR(CY7C67200_BASE,HPI_DATA,0x0008); //4 port number
    37a4:	00c24834 	movhi	r3,2336
    37a8:	18c01c04 	addi	r3,r3,112
    37ac:	00800204 	movi	r2,8
    37b0:	18800035 	stwio	r2,0(r3)
    IOWR(CY7C67200_BASE,HPI_DATA,0x02D0); //device address
    37b4:	00c24834 	movhi	r3,2336
    37b8:	18c01c04 	addi	r3,r3,112
    37bc:	0080b404 	movi	r2,720
    37c0:	18800035 	stwio	r2,0(r3)
    IOWR(CY7C67200_BASE,HPI_DATA,0x0001);
    37c4:	00c24834 	movhi	r3,2336
    37c8:	18c01c04 	addi	r3,r3,112
    37cc:	00800044 	movi	r2,1
    37d0:	18800035 	stwio	r2,0(r3)
    IOWR(CY7C67200_BASE,HPI_DATA,0x0013);
    37d4:	00c24834 	movhi	r3,2336
    37d8:	18c01c04 	addi	r3,r3,112
    37dc:	008004c4 	movi	r2,19
    37e0:	18800035 	stwio	r2,0(r3)
    IOWR(CY7C67200_BASE,HPI_DATA,0x0514);
    37e4:	00c24834 	movhi	r3,2336
    37e8:	18c01c04 	addi	r3,r3,112
    37ec:	00814504 	movi	r2,1300
    37f0:	18800035 	stwio	r2,0(r3)
    
    //td content 4 bytes
    IOWR(CY7C67200_BASE,HPI_DATA,0x0681);//c
    37f4:	00c24834 	movhi	r3,2336
    37f8:	18c01c04 	addi	r3,r3,112
    37fc:	0081a044 	movi	r2,1665
    3800:	18800035 	stwio	r2,0(r3)
    IOWR(CY7C67200_BASE,HPI_DATA,0x2200);//e //config 
    3804:	00c24834 	movhi	r3,2336
    3808:	18c01c04 	addi	r3,r3,112
    380c:	00888004 	movi	r2,8704
    3810:	18800035 	stwio	r2,0(r3)
    IOWR(CY7C67200_BASE,HPI_DATA,0x0000);//0
    3814:	00824834 	movhi	r2,2336
    3818:	10801c04 	addi	r2,r2,112
    381c:	10000035 	stwio	zero,0(r2)
    IOWR(CY7C67200_BASE,HPI_DATA,0x007B);//2
    3820:	00c24834 	movhi	r3,2336
    3824:	18c01c04 	addi	r3,r3,112
    3828:	00801ec4 	movi	r2,123
    382c:	18800035 	stwio	r2,0(r3)
    
    //data phase IN-1
    IOWR(CY7C67200_BASE,HPI_DATA,0x0580); //514
    3830:	00c24834 	movhi	r3,2336
    3834:	18c01c04 	addi	r3,r3,112
    3838:	00816004 	movi	r2,1408
    383c:	18800035 	stwio	r2,0(r3)
    IOWR(CY7C67200_BASE,HPI_DATA,0x0008);//6
    3840:	00c24834 	movhi	r3,2336
    3844:	18c01c04 	addi	r3,r3,112
    3848:	00800204 	movi	r2,8
    384c:	18800035 	stwio	r2,0(r3)
    IOWR(CY7C67200_BASE,HPI_DATA,0x0290);//8
    3850:	00c24834 	movhi	r3,2336
    3854:	18c01c04 	addi	r3,r3,112
    3858:	0080a404 	movi	r2,656
    385c:	18800035 	stwio	r2,0(r3)
    IOWR(CY7C67200_BASE,HPI_DATA,0x0041);//a
    3860:	00c24834 	movhi	r3,2336
    3864:	18c01c04 	addi	r3,r3,112
    3868:	00801044 	movi	r2,65
    386c:	18800035 	stwio	r2,0(r3)
    IOWR(CY7C67200_BASE,HPI_DATA,0x0013);//c
    3870:	00c24834 	movhi	r3,2336
    3874:	18c01c04 	addi	r3,r3,112
    3878:	008004c4 	movi	r2,19
    387c:	18800035 	stwio	r2,0(r3)
    IOWR(CY7C67200_BASE,HPI_DATA,0x0520);//e
    3880:	00c24834 	movhi	r3,2336
    3884:	18c01c04 	addi	r3,r3,112
    3888:	00814804 	movi	r2,1312
    388c:	18800035 	stwio	r2,0(r3)
    
    //data phase IN-2
    IOWR(CY7C67200_BASE,HPI_DATA,0x0588); //520
    3890:	00c24834 	movhi	r3,2336
    3894:	18c01c04 	addi	r3,r3,112
    3898:	00816204 	movi	r2,1416
    389c:	18800035 	stwio	r2,0(r3)
    IOWR(CY7C67200_BASE,HPI_DATA,0x0008);//2
    38a0:	00c24834 	movhi	r3,2336
    38a4:	18c01c04 	addi	r3,r3,112
    38a8:	00800204 	movi	r2,8
    38ac:	18800035 	stwio	r2,0(r3)
    IOWR(CY7C67200_BASE,HPI_DATA,0x0290);//4
    38b0:	00c24834 	movhi	r3,2336
    38b4:	18c01c04 	addi	r3,r3,112
    38b8:	0080a404 	movi	r2,656
    38bc:	18800035 	stwio	r2,0(r3)
    IOWR(CY7C67200_BASE,HPI_DATA,0x0001);//6 //data0
    38c0:	00c24834 	movhi	r3,2336
    38c4:	18c01c04 	addi	r3,r3,112
    38c8:	00800044 	movi	r2,1
    38cc:	18800035 	stwio	r2,0(r3)
    IOWR(CY7C67200_BASE,HPI_DATA,0x0013);//8
    38d0:	00c24834 	movhi	r3,2336
    38d4:	18c01c04 	addi	r3,r3,112
    38d8:	008004c4 	movi	r2,19
    38dc:	18800035 	stwio	r2,0(r3)
    IOWR(CY7C67200_BASE,HPI_DATA,0x052c);//a
    38e0:	00c24834 	movhi	r3,2336
    38e4:	18c01c04 	addi	r3,r3,112
    38e8:	00814b04 	movi	r2,1324
    38ec:	18800035 	stwio	r2,0(r3)
    
    //data phase IN-3
    IOWR(CY7C67200_BASE,HPI_DATA,0x0590); //52c
    38f0:	00c24834 	movhi	r3,2336
    38f4:	18c01c04 	addi	r3,r3,112
    38f8:	00816404 	movi	r2,1424
    38fc:	18800035 	stwio	r2,0(r3)
    IOWR(CY7C67200_BASE,HPI_DATA,0x0008);//e
    3900:	00c24834 	movhi	r3,2336
    3904:	18c01c04 	addi	r3,r3,112
    3908:	00800204 	movi	r2,8
    390c:	18800035 	stwio	r2,0(r3)
    IOWR(CY7C67200_BASE,HPI_DATA,0x0290);//530
    3910:	00c24834 	movhi	r3,2336
    3914:	18c01c04 	addi	r3,r3,112
    3918:	0080a404 	movi	r2,656
    391c:	18800035 	stwio	r2,0(r3)
    IOWR(CY7C67200_BASE,HPI_DATA,0x0041);//2
    3920:	00c24834 	movhi	r3,2336
    3924:	18c01c04 	addi	r3,r3,112
    3928:	00801044 	movi	r2,65
    392c:	18800035 	stwio	r2,0(r3)
    IOWR(CY7C67200_BASE,HPI_DATA,0x0013);//4
    3930:	00c24834 	movhi	r3,2336
    3934:	18c01c04 	addi	r3,r3,112
    3938:	008004c4 	movi	r2,19
    393c:	18800035 	stwio	r2,0(r3)
    IOWR(CY7C67200_BASE,HPI_DATA,0x0538);//6
    3940:	00c24834 	movhi	r3,2336
    3944:	18c01c04 	addi	r3,r3,112
    3948:	00814e04 	movi	r2,1336
    394c:	18800035 	stwio	r2,0(r3)
    
    //data phase IN-4
    IOWR(CY7C67200_BASE,HPI_DATA,0x0598); //538
    3950:	00c24834 	movhi	r3,2336
    3954:	18c01c04 	addi	r3,r3,112
    3958:	00816604 	movi	r2,1432
    395c:	18800035 	stwio	r2,0(r3)
    IOWR(CY7C67200_BASE,HPI_DATA,0x0008);//a
    3960:	00c24834 	movhi	r3,2336
    3964:	18c01c04 	addi	r3,r3,112
    3968:	00800204 	movi	r2,8
    396c:	18800035 	stwio	r2,0(r3)
    IOWR(CY7C67200_BASE,HPI_DATA,0x0290);//c
    3970:	00c24834 	movhi	r3,2336
    3974:	18c01c04 	addi	r3,r3,112
    3978:	0080a404 	movi	r2,656
    397c:	18800035 	stwio	r2,0(r3)
    IOWR(CY7C67200_BASE,HPI_DATA,0x0001);//e //data0
    3980:	00c24834 	movhi	r3,2336
    3984:	18c01c04 	addi	r3,r3,112
    3988:	00800044 	movi	r2,1
    398c:	18800035 	stwio	r2,0(r3)
    IOWR(CY7C67200_BASE,HPI_DATA,0x0013);//540
    3990:	00c24834 	movhi	r3,2336
    3994:	18c01c04 	addi	r3,r3,112
    3998:	008004c4 	movi	r2,19
    399c:	18800035 	stwio	r2,0(r3)
    IOWR(CY7C67200_BASE,HPI_DATA,0x0544);//2
    39a0:	00c24834 	movhi	r3,2336
    39a4:	18c01c04 	addi	r3,r3,112
    39a8:	00815104 	movi	r2,1348
    39ac:	18800035 	stwio	r2,0(r3)
    
    //data phase IN-5
    IOWR(CY7C67200_BASE,HPI_DATA,0x05a0); //544
    39b0:	00c24834 	movhi	r3,2336
    39b4:	18c01c04 	addi	r3,r3,112
    39b8:	00816804 	movi	r2,1440
    39bc:	18800035 	stwio	r2,0(r3)
    IOWR(CY7C67200_BASE,HPI_DATA,0x0008);//6
    39c0:	00c24834 	movhi	r3,2336
    39c4:	18c01c04 	addi	r3,r3,112
    39c8:	00800204 	movi	r2,8
    39cc:	18800035 	stwio	r2,0(r3)
    IOWR(CY7C67200_BASE,HPI_DATA,0x0290);//8
    39d0:	00c24834 	movhi	r3,2336
    39d4:	18c01c04 	addi	r3,r3,112
    39d8:	0080a404 	movi	r2,656
    39dc:	18800035 	stwio	r2,0(r3)
    IOWR(CY7C67200_BASE,HPI_DATA,0x0041);//a //data1
    39e0:	00c24834 	movhi	r3,2336
    39e4:	18c01c04 	addi	r3,r3,112
    39e8:	00801044 	movi	r2,65
    39ec:	18800035 	stwio	r2,0(r3)
    IOWR(CY7C67200_BASE,HPI_DATA,0x0013);//c
    39f0:	00c24834 	movhi	r3,2336
    39f4:	18c01c04 	addi	r3,r3,112
    39f8:	008004c4 	movi	r2,19
    39fc:	18800035 	stwio	r2,0(r3)
    IOWR(CY7C67200_BASE,HPI_DATA,0x0550);//e
    3a00:	00c24834 	movhi	r3,2336
    3a04:	18c01c04 	addi	r3,r3,112
    3a08:	00815404 	movi	r2,1360
    3a0c:	18800035 	stwio	r2,0(r3)
    
    //data phase IN-6
    IOWR(CY7C67200_BASE,HPI_DATA,0x05a8); //550
    3a10:	00c24834 	movhi	r3,2336
    3a14:	18c01c04 	addi	r3,r3,112
    3a18:	00816a04 	movi	r2,1448
    3a1c:	18800035 	stwio	r2,0(r3)
    IOWR(CY7C67200_BASE,HPI_DATA,0x0008);//2
    3a20:	00c24834 	movhi	r3,2336
    3a24:	18c01c04 	addi	r3,r3,112
    3a28:	00800204 	movi	r2,8
    3a2c:	18800035 	stwio	r2,0(r3)
    IOWR(CY7C67200_BASE,HPI_DATA,0x0290);//4
    3a30:	00c24834 	movhi	r3,2336
    3a34:	18c01c04 	addi	r3,r3,112
    3a38:	0080a404 	movi	r2,656
    3a3c:	18800035 	stwio	r2,0(r3)
    IOWR(CY7C67200_BASE,HPI_DATA,0x0001);//6 //data0
    3a40:	00c24834 	movhi	r3,2336
    3a44:	18c01c04 	addi	r3,r3,112
    3a48:	00800044 	movi	r2,1
    3a4c:	18800035 	stwio	r2,0(r3)
    IOWR(CY7C67200_BASE,HPI_DATA,0x0013);//8
    3a50:	00c24834 	movhi	r3,2336
    3a54:	18c01c04 	addi	r3,r3,112
    3a58:	008004c4 	movi	r2,19
    3a5c:	18800035 	stwio	r2,0(r3)
    IOWR(CY7C67200_BASE,HPI_DATA,0x055c);//a
    3a60:	00c24834 	movhi	r3,2336
    3a64:	18c01c04 	addi	r3,r3,112
    3a68:	00815704 	movi	r2,1372
    3a6c:	18800035 	stwio	r2,0(r3)
    
    //data phase IN-7
    IOWR(CY7C67200_BASE,HPI_DATA,0x05b0); //c
    3a70:	00c24834 	movhi	r3,2336
    3a74:	18c01c04 	addi	r3,r3,112
    3a78:	00816c04 	movi	r2,1456
    3a7c:	18800035 	stwio	r2,0(r3)
    IOWR(CY7C67200_BASE,HPI_DATA,0x0008);//e
    3a80:	00c24834 	movhi	r3,2336
    3a84:	18c01c04 	addi	r3,r3,112
    3a88:	00800204 	movi	r2,8
    3a8c:	18800035 	stwio	r2,0(r3)
    IOWR(CY7C67200_BASE,HPI_DATA,0x0290);//560
    3a90:	00c24834 	movhi	r3,2336
    3a94:	18c01c04 	addi	r3,r3,112
    3a98:	0080a404 	movi	r2,656
    3a9c:	18800035 	stwio	r2,0(r3)
    IOWR(CY7C67200_BASE,HPI_DATA,0x0041);//2 //data1
    3aa0:	00c24834 	movhi	r3,2336
    3aa4:	18c01c04 	addi	r3,r3,112
    3aa8:	00801044 	movi	r2,65
    3aac:	18800035 	stwio	r2,0(r3)
    IOWR(CY7C67200_BASE,HPI_DATA,0x0013);//4
    3ab0:	00c24834 	movhi	r3,2336
    3ab4:	18c01c04 	addi	r3,r3,112
    3ab8:	008004c4 	movi	r2,19
    3abc:	18800035 	stwio	r2,0(r3)
    IOWR(CY7C67200_BASE,HPI_DATA,0x0568);//6
    3ac0:	00c24834 	movhi	r3,2336
    3ac4:	18c01c04 	addi	r3,r3,112
    3ac8:	00815a04 	movi	r2,1384
    3acc:	18800035 	stwio	r2,0(r3)
    
    //data phase IN-8
    IOWR(CY7C67200_BASE,HPI_DATA,0x05b8); //8
    3ad0:	00c24834 	movhi	r3,2336
    3ad4:	18c01c04 	addi	r3,r3,112
    3ad8:	00816e04 	movi	r2,1464
    3adc:	18800035 	stwio	r2,0(r3)
    IOWR(CY7C67200_BASE,HPI_DATA,0x0003);//a
    3ae0:	00c24834 	movhi	r3,2336
    3ae4:	18c01c04 	addi	r3,r3,112
    3ae8:	008000c4 	movi	r2,3
    3aec:	18800035 	stwio	r2,0(r3)
    IOWR(CY7C67200_BASE,HPI_DATA,0x0290);//c
    3af0:	00c24834 	movhi	r3,2336
    3af4:	18c01c04 	addi	r3,r3,112
    3af8:	0080a404 	movi	r2,656
    3afc:	18800035 	stwio	r2,0(r3)
    IOWR(CY7C67200_BASE,HPI_DATA,0x0001);//e //data0
    3b00:	00c24834 	movhi	r3,2336
    3b04:	18c01c04 	addi	r3,r3,112
    3b08:	00800044 	movi	r2,1
    3b0c:	18800035 	stwio	r2,0(r3)
    IOWR(CY7C67200_BASE,HPI_DATA,0x0013);//570
    3b10:	00c24834 	movhi	r3,2336
    3b14:	18c01c04 	addi	r3,r3,112
    3b18:	008004c4 	movi	r2,19
    3b1c:	18800035 	stwio	r2,0(r3)
    IOWR(CY7C67200_BASE,HPI_DATA,0x0574);//2
    3b20:	00c24834 	movhi	r3,2336
    3b24:	18c01c04 	addi	r3,r3,112
    3b28:	00815d04 	movi	r2,1396
    3b2c:	18800035 	stwio	r2,0(r3)
    
    //status phase
    IOWR(CY7C67200_BASE,HPI_DATA,0x0000); //574
    3b30:	00824834 	movhi	r2,2336
    3b34:	10801c04 	addi	r2,r2,112
    3b38:	10000035 	stwio	zero,0(r2)
    IOWR(CY7C67200_BASE,HPI_DATA,0x0000);//6
    3b3c:	00824834 	movhi	r2,2336
    3b40:	10801c04 	addi	r2,r2,112
    3b44:	10000035 	stwio	zero,0(r2)
    IOWR(CY7C67200_BASE,HPI_DATA,0x0210);//8
    3b48:	00c24834 	movhi	r3,2336
    3b4c:	18c01c04 	addi	r3,r3,112
    3b50:	00808404 	movi	r2,528
    3b54:	18800035 	stwio	r2,0(r3)
    IOWR(CY7C67200_BASE,HPI_DATA,0x0041);//a
    3b58:	00c24834 	movhi	r3,2336
    3b5c:	18c01c04 	addi	r3,r3,112
    3b60:	00801044 	movi	r2,65
    3b64:	18800035 	stwio	r2,0(r3)
    IOWR(CY7C67200_BASE,HPI_DATA,0x0013);//c
    3b68:	00c24834 	movhi	r3,2336
    3b6c:	18c01c04 	addi	r3,r3,112
    3b70:	008004c4 	movi	r2,19
    3b74:	18800035 	stwio	r2,0(r3)
    IOWR(CY7C67200_BASE,HPI_DATA,0x0000);//e
    3b78:	00824834 	movhi	r2,2336
    3b7c:	10801c04 	addi	r2,r2,112
    3b80:	10000035 	stwio	zero,0(r2)
     
    UsbWrite(HUSB_SIE1_pCurrentTDPtr,0x0500); //HUSB_SIE1_pCurrentTDPtr
    3b84:	01006c04 	movi	r4,432
    3b88:	01414004 	movi	r5,1280
    3b8c:	000482c0 	call	482c <UsbWrite>
    
   //usleep(100*1000);
   //if no message
    while (!(IORD(CY7C67200_BASE,HPI_STATUS) & HPI_STATUS_SIE1msg_FLAG) )  //read sie1 msg register
    3b90:	00010506 	br	3fa8 <main+0x3100>
    {
    //the starting address
    IOWR(CY7C67200_BASE,HPI_ADDR,0x0500); //the start address       
    3b94:	00c24834 	movhi	r3,2336
    3b98:	18c01e04 	addi	r3,r3,120
    3b9c:	00814004 	movi	r2,1280
    3ba0:	18800035 	stwio	r2,0(r3)
    IOWR(CY7C67200_BASE,HPI_DATA,0x050C); 
    3ba4:	00c24834 	movhi	r3,2336
    3ba8:	18c01c04 	addi	r3,r3,112
    3bac:	00814304 	movi	r2,1292
    3bb0:	18800035 	stwio	r2,0(r3)
    IOWR(CY7C67200_BASE,HPI_DATA,0x0008); //4 port number
    3bb4:	00c24834 	movhi	r3,2336
    3bb8:	18c01c04 	addi	r3,r3,112
    3bbc:	00800204 	movi	r2,8
    3bc0:	18800035 	stwio	r2,0(r3)
    IOWR(CY7C67200_BASE,HPI_DATA,0x02D0); //device address
    3bc4:	00c24834 	movhi	r3,2336
    3bc8:	18c01c04 	addi	r3,r3,112
    3bcc:	0080b404 	movi	r2,720
    3bd0:	18800035 	stwio	r2,0(r3)
    IOWR(CY7C67200_BASE,HPI_DATA,0x0001);
    3bd4:	00c24834 	movhi	r3,2336
    3bd8:	18c01c04 	addi	r3,r3,112
    3bdc:	00800044 	movi	r2,1
    3be0:	18800035 	stwio	r2,0(r3)
    IOWR(CY7C67200_BASE,HPI_DATA,0x0013);
    3be4:	00c24834 	movhi	r3,2336
    3be8:	18c01c04 	addi	r3,r3,112
    3bec:	008004c4 	movi	r2,19
    3bf0:	18800035 	stwio	r2,0(r3)
    IOWR(CY7C67200_BASE,HPI_DATA,0x0514);
    3bf4:	00c24834 	movhi	r3,2336
    3bf8:	18c01c04 	addi	r3,r3,112
    3bfc:	00814504 	movi	r2,1300
    3c00:	18800035 	stwio	r2,0(r3)
    
    //td content 4 bytes
    IOWR(CY7C67200_BASE,HPI_DATA,0x0681);//c
    3c04:	00c24834 	movhi	r3,2336
    3c08:	18c01c04 	addi	r3,r3,112
    3c0c:	0081a044 	movi	r2,1665
    3c10:	18800035 	stwio	r2,0(r3)
    IOWR(CY7C67200_BASE,HPI_DATA,0x2200);//e //config 
    3c14:	00c24834 	movhi	r3,2336
    3c18:	18c01c04 	addi	r3,r3,112
    3c1c:	00888004 	movi	r2,8704
    3c20:	18800035 	stwio	r2,0(r3)
    IOWR(CY7C67200_BASE,HPI_DATA,0x0000);//0
    3c24:	00824834 	movhi	r2,2336
    3c28:	10801c04 	addi	r2,r2,112
    3c2c:	10000035 	stwio	zero,0(r2)
    IOWR(CY7C67200_BASE,HPI_DATA,0x007B);//2
    3c30:	00c24834 	movhi	r3,2336
    3c34:	18c01c04 	addi	r3,r3,112
    3c38:	00801ec4 	movi	r2,123
    3c3c:	18800035 	stwio	r2,0(r3)
    
    //data phase IN-1
    IOWR(CY7C67200_BASE,HPI_DATA,0x0580); //514
    3c40:	00c24834 	movhi	r3,2336
    3c44:	18c01c04 	addi	r3,r3,112
    3c48:	00816004 	movi	r2,1408
    3c4c:	18800035 	stwio	r2,0(r3)
    IOWR(CY7C67200_BASE,HPI_DATA,0x0008);//6
    3c50:	00c24834 	movhi	r3,2336
    3c54:	18c01c04 	addi	r3,r3,112
    3c58:	00800204 	movi	r2,8
    3c5c:	18800035 	stwio	r2,0(r3)
    IOWR(CY7C67200_BASE,HPI_DATA,0x0290);//8
    3c60:	00c24834 	movhi	r3,2336
    3c64:	18c01c04 	addi	r3,r3,112
    3c68:	0080a404 	movi	r2,656
    3c6c:	18800035 	stwio	r2,0(r3)
    IOWR(CY7C67200_BASE,HPI_DATA,0x0041);//a
    3c70:	00c24834 	movhi	r3,2336
    3c74:	18c01c04 	addi	r3,r3,112
    3c78:	00801044 	movi	r2,65
    3c7c:	18800035 	stwio	r2,0(r3)
    IOWR(CY7C67200_BASE,HPI_DATA,0x0013);//c
    3c80:	00c24834 	movhi	r3,2336
    3c84:	18c01c04 	addi	r3,r3,112
    3c88:	008004c4 	movi	r2,19
    3c8c:	18800035 	stwio	r2,0(r3)
    IOWR(CY7C67200_BASE,HPI_DATA,0x0520);//e
    3c90:	00c24834 	movhi	r3,2336
    3c94:	18c01c04 	addi	r3,r3,112
    3c98:	00814804 	movi	r2,1312
    3c9c:	18800035 	stwio	r2,0(r3)
    
    //data phase IN-2
    IOWR(CY7C67200_BASE,HPI_DATA,0x0588); //520
    3ca0:	00c24834 	movhi	r3,2336
    3ca4:	18c01c04 	addi	r3,r3,112
    3ca8:	00816204 	movi	r2,1416
    3cac:	18800035 	stwio	r2,0(r3)
    IOWR(CY7C67200_BASE,HPI_DATA,0x0008);//2
    3cb0:	00c24834 	movhi	r3,2336
    3cb4:	18c01c04 	addi	r3,r3,112
    3cb8:	00800204 	movi	r2,8
    3cbc:	18800035 	stwio	r2,0(r3)
    IOWR(CY7C67200_BASE,HPI_DATA,0x0290);//4
    3cc0:	00c24834 	movhi	r3,2336
    3cc4:	18c01c04 	addi	r3,r3,112
    3cc8:	0080a404 	movi	r2,656
    3ccc:	18800035 	stwio	r2,0(r3)
    IOWR(CY7C67200_BASE,HPI_DATA,0x0001);//6 //data0
    3cd0:	00c24834 	movhi	r3,2336
    3cd4:	18c01c04 	addi	r3,r3,112
    3cd8:	00800044 	movi	r2,1
    3cdc:	18800035 	stwio	r2,0(r3)
    IOWR(CY7C67200_BASE,HPI_DATA,0x0013);//8
    3ce0:	00c24834 	movhi	r3,2336
    3ce4:	18c01c04 	addi	r3,r3,112
    3ce8:	008004c4 	movi	r2,19
    3cec:	18800035 	stwio	r2,0(r3)
    IOWR(CY7C67200_BASE,HPI_DATA,0x052c);//a
    3cf0:	00c24834 	movhi	r3,2336
    3cf4:	18c01c04 	addi	r3,r3,112
    3cf8:	00814b04 	movi	r2,1324
    3cfc:	18800035 	stwio	r2,0(r3)
    
    //data phase IN-3
    IOWR(CY7C67200_BASE,HPI_DATA,0x0590); //52c
    3d00:	00c24834 	movhi	r3,2336
    3d04:	18c01c04 	addi	r3,r3,112
    3d08:	00816404 	movi	r2,1424
    3d0c:	18800035 	stwio	r2,0(r3)
    IOWR(CY7C67200_BASE,HPI_DATA,0x0008);//e
    3d10:	00c24834 	movhi	r3,2336
    3d14:	18c01c04 	addi	r3,r3,112
    3d18:	00800204 	movi	r2,8
    3d1c:	18800035 	stwio	r2,0(r3)
    IOWR(CY7C67200_BASE,HPI_DATA,0x0290);//530
    3d20:	00c24834 	movhi	r3,2336
    3d24:	18c01c04 	addi	r3,r3,112
    3d28:	0080a404 	movi	r2,656
    3d2c:	18800035 	stwio	r2,0(r3)
    IOWR(CY7C67200_BASE,HPI_DATA,0x0041);//2
    3d30:	00c24834 	movhi	r3,2336
    3d34:	18c01c04 	addi	r3,r3,112
    3d38:	00801044 	movi	r2,65
    3d3c:	18800035 	stwio	r2,0(r3)
    IOWR(CY7C67200_BASE,HPI_DATA,0x0013);//4
    3d40:	00c24834 	movhi	r3,2336
    3d44:	18c01c04 	addi	r3,r3,112
    3d48:	008004c4 	movi	r2,19
    3d4c:	18800035 	stwio	r2,0(r3)
    IOWR(CY7C67200_BASE,HPI_DATA,0x0538);//6
    3d50:	00c24834 	movhi	r3,2336
    3d54:	18c01c04 	addi	r3,r3,112
    3d58:	00814e04 	movi	r2,1336
    3d5c:	18800035 	stwio	r2,0(r3)
    
    //data phase IN-4
    IOWR(CY7C67200_BASE,HPI_DATA,0x0598); //538
    3d60:	00c24834 	movhi	r3,2336
    3d64:	18c01c04 	addi	r3,r3,112
    3d68:	00816604 	movi	r2,1432
    3d6c:	18800035 	stwio	r2,0(r3)
    IOWR(CY7C67200_BASE,HPI_DATA,0x0008);//a
    3d70:	00c24834 	movhi	r3,2336
    3d74:	18c01c04 	addi	r3,r3,112
    3d78:	00800204 	movi	r2,8
    3d7c:	18800035 	stwio	r2,0(r3)
    IOWR(CY7C67200_BASE,HPI_DATA,0x0290);//c
    3d80:	00c24834 	movhi	r3,2336
    3d84:	18c01c04 	addi	r3,r3,112
    3d88:	0080a404 	movi	r2,656
    3d8c:	18800035 	stwio	r2,0(r3)
    IOWR(CY7C67200_BASE,HPI_DATA,0x0001);//e //data0
    3d90:	00c24834 	movhi	r3,2336
    3d94:	18c01c04 	addi	r3,r3,112
    3d98:	00800044 	movi	r2,1
    3d9c:	18800035 	stwio	r2,0(r3)
    IOWR(CY7C67200_BASE,HPI_DATA,0x0013);//540
    3da0:	00c24834 	movhi	r3,2336
    3da4:	18c01c04 	addi	r3,r3,112
    3da8:	008004c4 	movi	r2,19
    3dac:	18800035 	stwio	r2,0(r3)
    IOWR(CY7C67200_BASE,HPI_DATA,0x0544);//2
    3db0:	00c24834 	movhi	r3,2336
    3db4:	18c01c04 	addi	r3,r3,112
    3db8:	00815104 	movi	r2,1348
    3dbc:	18800035 	stwio	r2,0(r3)
    
    //data phase IN-5
    IOWR(CY7C67200_BASE,HPI_DATA,0x05a0); //544
    3dc0:	00c24834 	movhi	r3,2336
    3dc4:	18c01c04 	addi	r3,r3,112
    3dc8:	00816804 	movi	r2,1440
    3dcc:	18800035 	stwio	r2,0(r3)
    IOWR(CY7C67200_BASE,HPI_DATA,0x0008);//6
    3dd0:	00c24834 	movhi	r3,2336
    3dd4:	18c01c04 	addi	r3,r3,112
    3dd8:	00800204 	movi	r2,8
    3ddc:	18800035 	stwio	r2,0(r3)
    IOWR(CY7C67200_BASE,HPI_DATA,0x0290);//8
    3de0:	00c24834 	movhi	r3,2336
    3de4:	18c01c04 	addi	r3,r3,112
    3de8:	0080a404 	movi	r2,656
    3dec:	18800035 	stwio	r2,0(r3)
    IOWR(CY7C67200_BASE,HPI_DATA,0x0041);//a //data1
    3df0:	00c24834 	movhi	r3,2336
    3df4:	18c01c04 	addi	r3,r3,112
    3df8:	00801044 	movi	r2,65
    3dfc:	18800035 	stwio	r2,0(r3)
    IOWR(CY7C67200_BASE,HPI_DATA,0x0013);//c
    3e00:	00c24834 	movhi	r3,2336
    3e04:	18c01c04 	addi	r3,r3,112
    3e08:	008004c4 	movi	r2,19
    3e0c:	18800035 	stwio	r2,0(r3)
    IOWR(CY7C67200_BASE,HPI_DATA,0x0550);//e
    3e10:	00c24834 	movhi	r3,2336
    3e14:	18c01c04 	addi	r3,r3,112
    3e18:	00815404 	movi	r2,1360
    3e1c:	18800035 	stwio	r2,0(r3)
    
    //data phase IN-6
    IOWR(CY7C67200_BASE,HPI_DATA,0x05a8); //550
    3e20:	00c24834 	movhi	r3,2336
    3e24:	18c01c04 	addi	r3,r3,112
    3e28:	00816a04 	movi	r2,1448
    3e2c:	18800035 	stwio	r2,0(r3)
    IOWR(CY7C67200_BASE,HPI_DATA,0x0008);//2
    3e30:	00c24834 	movhi	r3,2336
    3e34:	18c01c04 	addi	r3,r3,112
    3e38:	00800204 	movi	r2,8
    3e3c:	18800035 	stwio	r2,0(r3)
    IOWR(CY7C67200_BASE,HPI_DATA,0x0290);//4
    3e40:	00c24834 	movhi	r3,2336
    3e44:	18c01c04 	addi	r3,r3,112
    3e48:	0080a404 	movi	r2,656
    3e4c:	18800035 	stwio	r2,0(r3)
    IOWR(CY7C67200_BASE,HPI_DATA,0x0001);//6 //data0
    3e50:	00c24834 	movhi	r3,2336
    3e54:	18c01c04 	addi	r3,r3,112
    3e58:	00800044 	movi	r2,1
    3e5c:	18800035 	stwio	r2,0(r3)
    IOWR(CY7C67200_BASE,HPI_DATA,0x0013);//8
    3e60:	00c24834 	movhi	r3,2336
    3e64:	18c01c04 	addi	r3,r3,112
    3e68:	008004c4 	movi	r2,19
    3e6c:	18800035 	stwio	r2,0(r3)
    IOWR(CY7C67200_BASE,HPI_DATA,0x055c);//a
    3e70:	00c24834 	movhi	r3,2336
    3e74:	18c01c04 	addi	r3,r3,112
    3e78:	00815704 	movi	r2,1372
    3e7c:	18800035 	stwio	r2,0(r3)
    
    //data phase IN-7
    IOWR(CY7C67200_BASE,HPI_DATA,0x05b0); //c
    3e80:	00c24834 	movhi	r3,2336
    3e84:	18c01c04 	addi	r3,r3,112
    3e88:	00816c04 	movi	r2,1456
    3e8c:	18800035 	stwio	r2,0(r3)
    IOWR(CY7C67200_BASE,HPI_DATA,0x0008);//e
    3e90:	00c24834 	movhi	r3,2336
    3e94:	18c01c04 	addi	r3,r3,112
    3e98:	00800204 	movi	r2,8
    3e9c:	18800035 	stwio	r2,0(r3)
    IOWR(CY7C67200_BASE,HPI_DATA,0x0290);//560
    3ea0:	00c24834 	movhi	r3,2336
    3ea4:	18c01c04 	addi	r3,r3,112
    3ea8:	0080a404 	movi	r2,656
    3eac:	18800035 	stwio	r2,0(r3)
    IOWR(CY7C67200_BASE,HPI_DATA,0x0041);//2 //data1
    3eb0:	00c24834 	movhi	r3,2336
    3eb4:	18c01c04 	addi	r3,r3,112
    3eb8:	00801044 	movi	r2,65
    3ebc:	18800035 	stwio	r2,0(r3)
    IOWR(CY7C67200_BASE,HPI_DATA,0x0013);//4
    3ec0:	00c24834 	movhi	r3,2336
    3ec4:	18c01c04 	addi	r3,r3,112
    3ec8:	008004c4 	movi	r2,19
    3ecc:	18800035 	stwio	r2,0(r3)
    IOWR(CY7C67200_BASE,HPI_DATA,0x0568);//6
    3ed0:	00c24834 	movhi	r3,2336
    3ed4:	18c01c04 	addi	r3,r3,112
    3ed8:	00815a04 	movi	r2,1384
    3edc:	18800035 	stwio	r2,0(r3)
    
    //data phase IN-8
    IOWR(CY7C67200_BASE,HPI_DATA,0x05b8); //8
    3ee0:	00c24834 	movhi	r3,2336
    3ee4:	18c01c04 	addi	r3,r3,112
    3ee8:	00816e04 	movi	r2,1464
    3eec:	18800035 	stwio	r2,0(r3)
    IOWR(CY7C67200_BASE,HPI_DATA,0x0003);//a
    3ef0:	00c24834 	movhi	r3,2336
    3ef4:	18c01c04 	addi	r3,r3,112
    3ef8:	008000c4 	movi	r2,3
    3efc:	18800035 	stwio	r2,0(r3)
    IOWR(CY7C67200_BASE,HPI_DATA,0x0290);//c
    3f00:	00c24834 	movhi	r3,2336
    3f04:	18c01c04 	addi	r3,r3,112
    3f08:	0080a404 	movi	r2,656
    3f0c:	18800035 	stwio	r2,0(r3)
    IOWR(CY7C67200_BASE,HPI_DATA,0x0001);//e //data1
    3f10:	00c24834 	movhi	r3,2336
    3f14:	18c01c04 	addi	r3,r3,112
    3f18:	00800044 	movi	r2,1
    3f1c:	18800035 	stwio	r2,0(r3)
    IOWR(CY7C67200_BASE,HPI_DATA,0x0013);//570
    3f20:	00c24834 	movhi	r3,2336
    3f24:	18c01c04 	addi	r3,r3,112
    3f28:	008004c4 	movi	r2,19
    3f2c:	18800035 	stwio	r2,0(r3)
    IOWR(CY7C67200_BASE,HPI_DATA,0x0574);//2
    3f30:	00c24834 	movhi	r3,2336
    3f34:	18c01c04 	addi	r3,r3,112
    3f38:	00815d04 	movi	r2,1396
    3f3c:	18800035 	stwio	r2,0(r3)
    
    //status phase
    IOWR(CY7C67200_BASE,HPI_DATA,0x0000); //574
    3f40:	00824834 	movhi	r2,2336
    3f44:	10801c04 	addi	r2,r2,112
    3f48:	10000035 	stwio	zero,0(r2)
    IOWR(CY7C67200_BASE,HPI_DATA,0x0000);//6
    3f4c:	00824834 	movhi	r2,2336
    3f50:	10801c04 	addi	r2,r2,112
    3f54:	10000035 	stwio	zero,0(r2)
    IOWR(CY7C67200_BASE,HPI_DATA,0x0210);//8
    3f58:	00c24834 	movhi	r3,2336
    3f5c:	18c01c04 	addi	r3,r3,112
    3f60:	00808404 	movi	r2,528
    3f64:	18800035 	stwio	r2,0(r3)
    IOWR(CY7C67200_BASE,HPI_DATA,0x0041);//a
    3f68:	00c24834 	movhi	r3,2336
    3f6c:	18c01c04 	addi	r3,r3,112
    3f70:	00801044 	movi	r2,65
    3f74:	18800035 	stwio	r2,0(r3)
    IOWR(CY7C67200_BASE,HPI_DATA,0x0013);//c
    3f78:	00c24834 	movhi	r3,2336
    3f7c:	18c01c04 	addi	r3,r3,112
    3f80:	008004c4 	movi	r2,19
    3f84:	18800035 	stwio	r2,0(r3)
    IOWR(CY7C67200_BASE,HPI_DATA,0x0000);//e
    3f88:	00824834 	movhi	r2,2336
    3f8c:	10801c04 	addi	r2,r2,112
    3f90:	10000035 	stwio	zero,0(r2)
          
    UsbWrite(HUSB_SIE1_pCurrentTDPtr,0x0500); //HUSB_SIE1_pCurrentTDPtr
    3f94:	01006c04 	movi	r4,432
    3f98:	01414004 	movi	r5,1280
    3f9c:	000482c0 	call	482c <UsbWrite>
    usleep(10*1000);
    3fa0:	0109c404 	movi	r4,10000
    3fa4:	00148100 	call	14810 <usleep>
     
    UsbWrite(HUSB_SIE1_pCurrentTDPtr,0x0500); //HUSB_SIE1_pCurrentTDPtr
    
   //usleep(100*1000);
   //if no message
    while (!(IORD(CY7C67200_BASE,HPI_STATUS) & HPI_STATUS_SIE1msg_FLAG) )  //read sie1 msg register
    3fa8:	00824834 	movhi	r2,2336
    3fac:	10801f04 	addi	r2,r2,124
    3fb0:	10800037 	ldwio	r2,0(r2)
    3fb4:	1080040c 	andi	r2,r2,16
    3fb8:	1005003a 	cmpeq	r2,r2,zero
    3fbc:	103ef51e 	bne	r2,zero,3b94 <main+0x2cec>
          
    UsbWrite(HUSB_SIE1_pCurrentTDPtr,0x0500); //HUSB_SIE1_pCurrentTDPtr
    usleep(10*1000);
    }
    
    usb_ctl_val = UsbRead(HPI_SIE1_MSG_ADR);
    3fc0:	01005104 	movi	r4,324
    3fc4:	00048700 	call	4870 <UsbRead>
    3fc8:	e0bffe8d 	sth	r2,-6(fp)
    UsbWrite(HPI_SIE1_MSG_ADR, 0);
    3fcc:	01005104 	movi	r4,324
    3fd0:	000b883a 	mov	r5,zero
    3fd4:	000482c0 	call	482c <UsbWrite>
    while (usb_ctl_val != 0x1000)  //read sie1 msg register
    3fd8:	00000d06 	br	4010 <main+0x3168>
    {
       if(usb_ctl_val == 0x000)
    3fdc:	e0bffe8b 	ldhu	r2,-6(fp)
    3fe0:	1005003a 	cmpeq	r2,r2,zero
    3fe4:	1000041e 	bne	r2,zero,3ff8 <main+0x3150>
       {
       }
       else
       {
        printf("[SIE1 MSG]: SIE 1 msg reg is %x\n",usb_ctl_val);
    3fe8:	e17ffe8b 	ldhu	r5,-6(fp)
    3fec:	010000b4 	movhi	r4,2
    3ff0:	21204404 	addi	r4,r4,-32496
    3ff4:	00055540 	call	5554 <printf>
       }
       usb_ctl_val = UsbRead(HPI_SIE1_MSG_ADR);
    3ff8:	01005104 	movi	r4,324
    3ffc:	00048700 	call	4870 <UsbRead>
    4000:	e0bffe8d 	sth	r2,-6(fp)
       UsbWrite(HPI_SIE1_MSG_ADR, 0);
    4004:	01005104 	movi	r4,324
    4008:	000b883a 	mov	r5,zero
    400c:	000482c0 	call	482c <UsbWrite>
    usleep(10*1000);
    }
    
    usb_ctl_val = UsbRead(HPI_SIE1_MSG_ADR);
    UsbWrite(HPI_SIE1_MSG_ADR, 0);
    while (usb_ctl_val != 0x1000)  //read sie1 msg register
    4010:	e0bffe8b 	ldhu	r2,-6(fp)
    4014:	10840018 	cmpnei	r2,r2,4096
    4018:	103ff01e 	bne	r2,zero,3fdc <main+0x3134>
       usb_ctl_val = UsbRead(HPI_SIE1_MSG_ADR);
       UsbWrite(HPI_SIE1_MSG_ADR, 0);
      
    }

    IOWR(CY7C67200_BASE,HPI_ADDR,0x0506);
    401c:	00c24834 	movhi	r3,2336
    4020:	18c01e04 	addi	r3,r3,120
    4024:	00814184 	movi	r2,1286
    4028:	18800035 	stwio	r2,0(r3)
    printf("[ENUM PROCESS]: step 9 TD Status Byte is %x\n",IORD(CY7C67200_BASE,HPI_DATA));
    402c:	00824834 	movhi	r2,2336
    4030:	10801c04 	addi	r2,r2,112
    4034:	11400037 	ldwio	r5,0(r2)
    4038:	010000b4 	movhi	r4,2
    403c:	21204d04 	addi	r4,r4,-32460
    4040:	00055540 	call	5554 <printf>
    
    IOWR(CY7C67200_BASE,HPI_ADDR,0x0508);
    4044:	00c24834 	movhi	r3,2336
    4048:	18c01e04 	addi	r3,r3,120
    404c:	00814204 	movi	r2,1288
    4050:	18800035 	stwio	r2,0(r3)
    usb_ctl_val = IORD(CY7C67200_BASE,HPI_DATA);
    4054:	00824834 	movhi	r2,2336
    4058:	10801c04 	addi	r2,r2,112
    405c:	10800037 	ldwio	r2,0(r2)
    4060:	e0bffe8d 	sth	r2,-6(fp)
    printf("[ENUM PROCESS]: step 9 TD Control Byte is %x\n",usb_ctl_val);
    4064:	e17ffe8b 	ldhu	r5,-6(fp)
    4068:	010000b4 	movhi	r4,2
    406c:	21205904 	addi	r4,r4,-32412
    4070:	00055540 	call	5554 <printf>
    while (usb_ctl_val != 0x03) 
    4074:	00001906 	br	40dc <main+0x3234>
    {
       IORD(CY7C67200_BASE,HPI_STATUS);
    4078:	00824834 	movhi	r2,2336
    407c:	10801f04 	addi	r2,r2,124
    4080:	10800037 	ldwio	r2,0(r2)
       if(UsbRead(HPI_SIE1_MSG_ADR) == 0x1000)
    4084:	01005104 	movi	r4,324
    4088:	00048700 	call	4870 <UsbRead>
    408c:	10bfffcc 	andi	r2,r2,65535
    4090:	10840018 	cmpnei	r2,r2,4096
    4094:	1000091e 	bne	r2,zero,40bc <main+0x3214>
       {
           UsbWrite(HPI_SIE1_MSG_ADR, 0);
    4098:	01005104 	movi	r4,324
    409c:	000b883a 	mov	r5,zero
    40a0:	000482c0 	call	482c <UsbWrite>
                   
           while (!(IORD(CY7C67200_BASE,HPI_STATUS) & HPI_STATUS_SIE1msg_FLAG) )  //read sie1 msg register
    40a4:	00824834 	movhi	r2,2336
    40a8:	10801f04 	addi	r2,r2,124
    40ac:	10800037 	ldwio	r2,0(r2)
    40b0:	1080040c 	andi	r2,r2,16
    40b4:	1005003a 	cmpeq	r2,r2,zero
    40b8:	103ffa1e 	bne	r2,zero,40a4 <main+0x31fc>
           {
            
           }
        }
           //usleep(1000);
           IOWR(CY7C67200_BASE,HPI_ADDR,0x0508);
    40bc:	00c24834 	movhi	r3,2336
    40c0:	18c01e04 	addi	r3,r3,120
    40c4:	00814204 	movi	r2,1288
    40c8:	18800035 	stwio	r2,0(r3)
           usb_ctl_val = IORD(CY7C67200_BASE,HPI_DATA); 
    40cc:	00824834 	movhi	r2,2336
    40d0:	10801c04 	addi	r2,r2,112
    40d4:	10800037 	ldwio	r2,0(r2)
    40d8:	e0bffe8d 	sth	r2,-6(fp)
    printf("[ENUM PROCESS]: step 9 TD Status Byte is %x\n",IORD(CY7C67200_BASE,HPI_DATA));
    
    IOWR(CY7C67200_BASE,HPI_ADDR,0x0508);
    usb_ctl_val = IORD(CY7C67200_BASE,HPI_DATA);
    printf("[ENUM PROCESS]: step 9 TD Control Byte is %x\n",usb_ctl_val);
    while (usb_ctl_val != 0x03) 
    40dc:	e0bffe8b 	ldhu	r2,-6(fp)
    40e0:	108000d8 	cmpnei	r2,r2,3
    40e4:	103fe41e 	bne	r2,zero,4078 <main+0x31d0>
           //usleep(1000);
           IOWR(CY7C67200_BASE,HPI_ADDR,0x0508);
           usb_ctl_val = IORD(CY7C67200_BASE,HPI_DATA); 
    }    
       
    printf("---------------[ENUM PROCESS]:get descriptor (class 0x22) pass!----------------\n");
    40e8:	010000b4 	movhi	r4,2
    40ec:	21206504 	addi	r4,r4,-32364
    40f0:	000566c0 	call	566c <puts>
    

    
    //-----------------------------------get mouse x y button value------------------------------------------------//
    usleep(10000);
    40f4:	0109c404 	movi	r4,10000
    40f8:	00148100 	call	14810 <usleep>
    while(1)
    {
      toggle++;
    40fc:	e0bffa43 	ldbu	r2,-23(fp)
    4100:	10800044 	addi	r2,r2,1
    4104:	e0bffa45 	stb	r2,-23(fp)
      IOWR(CY7C67200_BASE,HPI_ADDR,0x0500); //the start address       
    4108:	00c24834 	movhi	r3,2336
    410c:	18c01e04 	addi	r3,r3,120
    4110:	00814004 	movi	r2,1280
    4114:	18800035 	stwio	r2,0(r3)
      //data phase IN-1
      IOWR(CY7C67200_BASE,HPI_DATA,0x051c); //500
    4118:	00c24834 	movhi	r3,2336
    411c:	18c01c04 	addi	r3,r3,112
    4120:	00814704 	movi	r2,1308
    4124:	18800035 	stwio	r2,0(r3)
      if(data_size ==8)
    4128:	e0bffa03 	ldbu	r2,-24(fp)
    412c:	10800218 	cmpnei	r2,r2,8
    4130:	1000051e 	bne	r2,zero,4148 <main+0x32a0>
      {
          IOWR(CY7C67200_BASE,HPI_DATA,0x0006);//2 data length
    4134:	00c24834 	movhi	r3,2336
    4138:	18c01c04 	addi	r3,r3,112
    413c:	00800184 	movi	r2,6
    4140:	18800035 	stwio	r2,0(r3)
    4144:	00000506 	br	415c <main+0x32b4>
      }
      else
      {
          IOWR(CY7C67200_BASE,HPI_DATA,0x000f & data_size);//2 data length
    4148:	e0bffa03 	ldbu	r2,-24(fp)
    414c:	10c003cc 	andi	r3,r2,15
    4150:	00824834 	movhi	r2,2336
    4154:	10801c04 	addi	r2,r2,112
    4158:	10c00035 	stwio	r3,0(r2)
      }
      IOWR(CY7C67200_BASE,HPI_DATA,0x0291);//4 //endpoint 1
    415c:	00c24834 	movhi	r3,2336
    4160:	18c01c04 	addi	r3,r3,112
    4164:	0080a444 	movi	r2,657
    4168:	18800035 	stwio	r2,0(r3)
      if(toggle%2)
    416c:	e0bffa43 	ldbu	r2,-23(fp)
    4170:	1080004c 	andi	r2,r2,1
    4174:	10803fcc 	andi	r2,r2,255
    4178:	1005003a 	cmpeq	r2,r2,zero
    417c:	1000051e 	bne	r2,zero,4194 <main+0x32ec>
      {
          IOWR(CY7C67200_BASE,HPI_DATA,0x0001);//6 //data 1
    4180:	00c24834 	movhi	r3,2336
    4184:	18c01c04 	addi	r3,r3,112
    4188:	00800044 	movi	r2,1
    418c:	18800035 	stwio	r2,0(r3)
    4190:	00000406 	br	41a4 <main+0x32fc>
      }
      else
      {
          IOWR(CY7C67200_BASE,HPI_DATA,0x0041);//6 //data 1
    4194:	00c24834 	movhi	r3,2336
    4198:	18c01c04 	addi	r3,r3,112
    419c:	00801044 	movi	r2,65
    41a0:	18800035 	stwio	r2,0(r3)
      }
      IOWR(CY7C67200_BASE,HPI_DATA,0x0013);//8
    41a4:	00824834 	movhi	r2,2336
    41a8:	10801c04 	addi	r2,r2,112
    41ac:	00c004c4 	movi	r3,19
    41b0:	10c00035 	stwio	r3,0(r2)
      IOWR(CY7C67200_BASE,HPI_DATA,0x0000);//a
    41b4:	00824834 	movhi	r2,2336
    41b8:	10801c04 	addi	r2,r2,112
    41bc:	10000035 	stwio	zero,0(r2)
      UsbWrite(HUSB_SIE1_pCurrentTDPtr,0x0500); //HUSB_SIE1_pCurrentTDPtr
    41c0:	01006c04 	movi	r4,432
    41c4:	01414004 	movi	r5,1280
    41c8:	000482c0 	call	482c <UsbWrite>
      //usleep(10*1000);    
      while (!(IORD(CY7C67200_BASE,HPI_STATUS) & HPI_STATUS_SIE1msg_FLAG) )  //read sie1 msg register
    41cc:	00003306 	br	429c <main+0x33f4>
      {
          IOWR(CY7C67200_BASE,HPI_ADDR,0x0500); //the start address       
    41d0:	00c24834 	movhi	r3,2336
    41d4:	18c01e04 	addi	r3,r3,120
    41d8:	00814004 	movi	r2,1280
    41dc:	18800035 	stwio	r2,0(r3)
          //data phase IN-1
          IOWR(CY7C67200_BASE,HPI_DATA,0x051c); //500
    41e0:	00c24834 	movhi	r3,2336
    41e4:	18c01c04 	addi	r3,r3,112
    41e8:	00814704 	movi	r2,1308
    41ec:	18800035 	stwio	r2,0(r3)
          if(data_size ==8)
    41f0:	e0bffa03 	ldbu	r2,-24(fp)
    41f4:	10800218 	cmpnei	r2,r2,8
    41f8:	1000051e 	bne	r2,zero,4210 <main+0x3368>
          {
             IOWR(CY7C67200_BASE,HPI_DATA,0x0006);//2 data length
    41fc:	00c24834 	movhi	r3,2336
    4200:	18c01c04 	addi	r3,r3,112
    4204:	00800184 	movi	r2,6
    4208:	18800035 	stwio	r2,0(r3)
    420c:	00000506 	br	4224 <main+0x337c>
          }
          else
          {
             IOWR(CY7C67200_BASE,HPI_DATA,0x000f & data_size);//2 data length
    4210:	e0bffa03 	ldbu	r2,-24(fp)
    4214:	10c003cc 	andi	r3,r2,15
    4218:	00824834 	movhi	r2,2336
    421c:	10801c04 	addi	r2,r2,112
    4220:	10c00035 	stwio	r3,0(r2)
          }
          IOWR(CY7C67200_BASE,HPI_DATA,0x0291);//4 //endpoint 1
    4224:	00c24834 	movhi	r3,2336
    4228:	18c01c04 	addi	r3,r3,112
    422c:	0080a444 	movi	r2,657
    4230:	18800035 	stwio	r2,0(r3)
          if(toggle%2)
    4234:	e0bffa43 	ldbu	r2,-23(fp)
    4238:	1080004c 	andi	r2,r2,1
    423c:	10803fcc 	andi	r2,r2,255
    4240:	1005003a 	cmpeq	r2,r2,zero
    4244:	1000051e 	bne	r2,zero,425c <main+0x33b4>
          {
            IOWR(CY7C67200_BASE,HPI_DATA,0x0001);//6 //data 1
    4248:	00c24834 	movhi	r3,2336
    424c:	18c01c04 	addi	r3,r3,112
    4250:	00800044 	movi	r2,1
    4254:	18800035 	stwio	r2,0(r3)
    4258:	00000406 	br	426c <main+0x33c4>
          }
          else
          {
            IOWR(CY7C67200_BASE,HPI_DATA,0x0041);//6 //data 1
    425c:	00c24834 	movhi	r3,2336
    4260:	18c01c04 	addi	r3,r3,112
    4264:	00801044 	movi	r2,65
    4268:	18800035 	stwio	r2,0(r3)
          }
          IOWR(CY7C67200_BASE,HPI_DATA,0x0013);//8
    426c:	00824834 	movhi	r2,2336
    4270:	10801c04 	addi	r2,r2,112
    4274:	00c004c4 	movi	r3,19
    4278:	10c00035 	stwio	r3,0(r2)
          IOWR(CY7C67200_BASE,HPI_DATA,0x0000);//a
    427c:	00824834 	movhi	r2,2336
    4280:	10801c04 	addi	r2,r2,112
    4284:	10000035 	stwio	zero,0(r2)
          UsbWrite(HUSB_SIE1_pCurrentTDPtr,0x0500); //HUSB_SIE1_pCurrentTDPtr
    4288:	01006c04 	movi	r4,432
    428c:	01414004 	movi	r5,1280
    4290:	000482c0 	call	482c <UsbWrite>
          usleep(10*1000);
    4294:	0109c404 	movi	r4,10000
    4298:	00148100 	call	14810 <usleep>
      }
      IOWR(CY7C67200_BASE,HPI_DATA,0x0013);//8
      IOWR(CY7C67200_BASE,HPI_DATA,0x0000);//a
      UsbWrite(HUSB_SIE1_pCurrentTDPtr,0x0500); //HUSB_SIE1_pCurrentTDPtr
      //usleep(10*1000);    
      while (!(IORD(CY7C67200_BASE,HPI_STATUS) & HPI_STATUS_SIE1msg_FLAG) )  //read sie1 msg register
    429c:	00824834 	movhi	r2,2336
    42a0:	10801f04 	addi	r2,r2,124
    42a4:	10800037 	ldwio	r2,0(r2)
    42a8:	1080040c 	andi	r2,r2,16
    42ac:	1005003a 	cmpeq	r2,r2,zero
    42b0:	103fc71e 	bne	r2,zero,41d0 <main+0x3328>
          IOWR(CY7C67200_BASE,HPI_DATA,0x0013);//8
          IOWR(CY7C67200_BASE,HPI_DATA,0x0000);//a
          UsbWrite(HUSB_SIE1_pCurrentTDPtr,0x0500); //HUSB_SIE1_pCurrentTDPtr
          usleep(10*1000);
      }//end while
      usb_ctl_val = UsbRead(HPI_SIE1_MSG_ADR);
    42b4:	01005104 	movi	r4,324
    42b8:	00048700 	call	4870 <UsbRead>
    42bc:	e0bffe8d 	sth	r2,-6(fp)
      UsbWrite(HPI_SIE1_MSG_ADR, 0);
    42c0:	01005104 	movi	r4,324
    42c4:	000b883a 	mov	r5,zero
    42c8:	000482c0 	call	482c <UsbWrite>
      while (usb_ctl_val != 0x1000)  //read sie1 msg register
    42cc:	00000d06 	br	4304 <main+0x345c>
      {
         if(usb_ctl_val == 0x000)
    42d0:	e0bffe8b 	ldhu	r2,-6(fp)
    42d4:	1005003a 	cmpeq	r2,r2,zero
    42d8:	1000041e 	bne	r2,zero,42ec <main+0x3444>
         {}
         else
         {
            printf("[SIE1 MSG]:SIE1 msg reg is %x\n",usb_ctl_val);
    42dc:	e17ffe8b 	ldhu	r5,-6(fp)
    42e0:	01000074 	movhi	r4,1
    42e4:	211ee704 	addi	r4,r4,31644
    42e8:	00055540 	call	5554 <printf>
         }
         usb_ctl_val = UsbRead(HPI_SIE1_MSG_ADR);
    42ec:	01005104 	movi	r4,324
    42f0:	00048700 	call	4870 <UsbRead>
    42f4:	e0bffe8d 	sth	r2,-6(fp)
         UsbWrite(HPI_SIE1_MSG_ADR, 0);
    42f8:	01005104 	movi	r4,324
    42fc:	000b883a 	mov	r5,zero
    4300:	000482c0 	call	482c <UsbWrite>
          UsbWrite(HUSB_SIE1_pCurrentTDPtr,0x0500); //HUSB_SIE1_pCurrentTDPtr
          usleep(10*1000);
      }//end while
      usb_ctl_val = UsbRead(HPI_SIE1_MSG_ADR);
      UsbWrite(HPI_SIE1_MSG_ADR, 0);
      while (usb_ctl_val != 0x1000)  //read sie1 msg register
    4304:	e0bffe8b 	ldhu	r2,-6(fp)
    4308:	10840018 	cmpnei	r2,r2,4096
    430c:	103ff01e 	bne	r2,zero,42d0 <main+0x3428>
            printf("[SIE1 MSG]:SIE1 msg reg is %x\n",usb_ctl_val);
         }
         usb_ctl_val = UsbRead(HPI_SIE1_MSG_ADR);
         UsbWrite(HPI_SIE1_MSG_ADR, 0);
      }
      IOWR(CY7C67200_BASE,HPI_ADDR,0x0508);
    4310:	00c24834 	movhi	r3,2336
    4314:	18c01e04 	addi	r3,r3,120
    4318:	00814204 	movi	r2,1288
    431c:	18800035 	stwio	r2,0(r3)
      usb_ctl_val = IORD(CY7C67200_BASE,HPI_DATA);
    4320:	00824834 	movhi	r2,2336
    4324:	10801c04 	addi	r2,r2,112
    4328:	10800037 	ldwio	r2,0(r2)
    432c:	e0bffe8d 	sth	r2,-6(fp)

      if (usb_ctl_val != 0x03) 
    4330:	e0bffe8b 	ldhu	r2,-6(fp)
    4334:	108000e0 	cmpeqi	r2,r2,3
    4338:	1000051e 	bne	r2,zero,4350 <main+0x34a8>
      {
         pbutton = 0;
    433c:	e03ffa85 	stb	zero,-22(fp)
         dx = 0;
    4340:	e03ffb05 	stb	zero,-20(fp)
         dy = 0;
    4344:	e03ffac5 	stb	zero,-21(fp)
         button_value = 0;
    4348:	e03ffd15 	stw	zero,-12(fp)
    434c:	00009c06 	br	45c0 <main+0x3718>
      }
    
      else
     {
        if(data_size != 8 )  
    4350:	e0bffa03 	ldbu	r2,-24(fp)
    4354:	10800220 	cmpeqi	r2,r2,8
    4358:	10004c1e 	bne	r2,zero,448c <main+0x35e4>
        {
          IOWR(CY7C67200_BASE,HPI_ADDR,0x051c); //the start address  
    435c:	00c24834 	movhi	r3,2336
    4360:	18c01e04 	addi	r3,r3,120
    4364:	00814704 	movi	r2,1308
    4368:	18800035 	stwio	r2,0(r3)
          button_value = IORD(CY7C67200_BASE,HPI_DATA);
    436c:	00824834 	movhi	r2,2336
    4370:	10801c04 	addi	r2,r2,112
    4374:	10800037 	ldwio	r2,0(r2)
    4378:	e0bffd15 	stw	r2,-12(fp)
          if((button_value & 0x00ff) ==0x0001)
    437c:	e0bffd17 	ldw	r2,-12(fp)
    4380:	10803fcc 	andi	r2,r2,255
    4384:	10800058 	cmpnei	r2,r2,1
    4388:	1000031e 	bne	r2,zero,4398 <main+0x34f0>
          {
           //printf("left button\n");
            pbutton = 1;
    438c:	00800044 	movi	r2,1
    4390:	e0bffa85 	stb	r2,-22(fp)
    4394:	00000806 	br	43b8 <main+0x3510>
          }
          else
          if((button_value& 0x00ff) ==0x0002)
    4398:	e0bffd17 	ldw	r2,-12(fp)
    439c:	10803fcc 	andi	r2,r2,255
    43a0:	10800098 	cmpnei	r2,r2,2
    43a4:	1000031e 	bne	r2,zero,43b4 <main+0x350c>
          {
           //printf("right button\n");
           pbutton = 2;    
    43a8:	00800084 	movi	r2,2
    43ac:	e0bffa85 	stb	r2,-22(fp)
    43b0:	00000106 	br	43b8 <main+0x3510>
          }
          else
          {
           pbutton = 0;
    43b4:	e03ffa85 	stb	zero,-22(fp)
          }
          if((signed char)((button_value>>8)&0x00ff) != 0)
    43b8:	e0bffd17 	ldw	r2,-12(fp)
    43bc:	1005d23a 	srai	r2,r2,8
    43c0:	1007883a 	mov	r3,r2
    43c4:	00bfffc4 	movi	r2,-1
    43c8:	1884703a 	and	r2,r3,r2
    43cc:	10803fcc 	andi	r2,r2,255
    43d0:	1080201c 	xori	r2,r2,128
    43d4:	10bfe004 	addi	r2,r2,-128
    43d8:	1005003a 	cmpeq	r2,r2,zero
    43dc:	1000121e 	bne	r2,zero,4428 <main+0x3580>
          {
       
             if((signed char)((button_value>>8)&0x00ff )==dx)
    43e0:	e0bffd17 	ldw	r2,-12(fp)
    43e4:	1005d23a 	srai	r2,r2,8
    43e8:	1007883a 	mov	r3,r2
    43ec:	00bfffc4 	movi	r2,-1
    43f0:	1884703a 	and	r2,r3,r2
    43f4:	10c03fcc 	andi	r3,r2,255
    43f8:	18c0201c 	xori	r3,r3,128
    43fc:	18ffe004 	addi	r3,r3,-128
    4400:	e0bffb07 	ldb	r2,-20(fp)
    4404:	1880021e 	bne	r3,r2,4410 <main+0x3568>
             {
                dx = 0;
